ARM GAS  C:\Users\ADMINI~1\AppData\Local\Temp\ccoLOygm.s 			page 1


   1              		.cpu cortex-m0
   2              		.eabi_attribute 20, 1
   3              		.eabi_attribute 21, 1
   4              		.eabi_attribute 23, 3
   5              		.eabi_attribute 24, 1
   6              		.eabi_attribute 25, 1
   7              		.eabi_attribute 26, 1
   8              		.eabi_attribute 30, 6
   9              		.eabi_attribute 34, 0
  10              		.eabi_attribute 18, 4
  11              		.file	"stm32f0xx_hal_rcc.c"
  12              		.text
  13              	.Ltext0:
  14              		.cfi_sections	.debug_frame
  15              		.section	.text.HAL_RCC_DeInit,"ax",%progbits
  16              		.align	1
  17              		.global	HAL_RCC_DeInit
  18              		.arch armv6s-m
  19              		.syntax unified
  20              		.code	16
  21              		.thumb_func
  22              		.fpu softvfp
  24              	HAL_RCC_DeInit:
  25              	.LFB37:
  26              		.file 1 "Drivers/STM32F0xx_HAL_Driver/Src/stm32f0xx_hal_rcc.c"
   1:Drivers/STM32F0xx_HAL_Driver/Src/stm32f0xx_hal_rcc.c **** /**
   2:Drivers/STM32F0xx_HAL_Driver/Src/stm32f0xx_hal_rcc.c ****   ******************************************************************************
   3:Drivers/STM32F0xx_HAL_Driver/Src/stm32f0xx_hal_rcc.c ****   * @file    stm32f0xx_hal_rcc.c
   4:Drivers/STM32F0xx_HAL_Driver/Src/stm32f0xx_hal_rcc.c ****   * @author  MCD Application Team
   5:Drivers/STM32F0xx_HAL_Driver/Src/stm32f0xx_hal_rcc.c ****   * @brief   RCC HAL module driver.
   6:Drivers/STM32F0xx_HAL_Driver/Src/stm32f0xx_hal_rcc.c ****   *          This file provides firmware functions to manage the following 
   7:Drivers/STM32F0xx_HAL_Driver/Src/stm32f0xx_hal_rcc.c ****   *          functionalities of the Reset and Clock Control (RCC) peripheral:
   8:Drivers/STM32F0xx_HAL_Driver/Src/stm32f0xx_hal_rcc.c ****   *           + Initialization and de-initialization functions
   9:Drivers/STM32F0xx_HAL_Driver/Src/stm32f0xx_hal_rcc.c ****   *           + Peripheral Control functions
  10:Drivers/STM32F0xx_HAL_Driver/Src/stm32f0xx_hal_rcc.c ****   *       
  11:Drivers/STM32F0xx_HAL_Driver/Src/stm32f0xx_hal_rcc.c ****   @verbatim                
  12:Drivers/STM32F0xx_HAL_Driver/Src/stm32f0xx_hal_rcc.c ****   ==============================================================================
  13:Drivers/STM32F0xx_HAL_Driver/Src/stm32f0xx_hal_rcc.c ****                       ##### RCC specific features #####
  14:Drivers/STM32F0xx_HAL_Driver/Src/stm32f0xx_hal_rcc.c ****   ==============================================================================
  15:Drivers/STM32F0xx_HAL_Driver/Src/stm32f0xx_hal_rcc.c ****     [..]  
  16:Drivers/STM32F0xx_HAL_Driver/Src/stm32f0xx_hal_rcc.c ****       After reset the device is running from Internal High Speed oscillator
  17:Drivers/STM32F0xx_HAL_Driver/Src/stm32f0xx_hal_rcc.c ****       (HSI 8MHz) with Flash 0 wait state, Flash prefetch buffer is enabled, 
  18:Drivers/STM32F0xx_HAL_Driver/Src/stm32f0xx_hal_rcc.c ****       and all peripherals are off except internal SRAM, Flash and JTAG.
  19:Drivers/STM32F0xx_HAL_Driver/Src/stm32f0xx_hal_rcc.c ****       (+) There is no prescaler on High speed (AHB) and Low speed (APB) buses;
  20:Drivers/STM32F0xx_HAL_Driver/Src/stm32f0xx_hal_rcc.c ****           all peripherals mapped on these buses are running at HSI speed.
  21:Drivers/STM32F0xx_HAL_Driver/Src/stm32f0xx_hal_rcc.c ****       (+) The clock for all peripherals is switched off, except the SRAM and FLASH.
  22:Drivers/STM32F0xx_HAL_Driver/Src/stm32f0xx_hal_rcc.c ****       (+) All GPIOs are in input floating state, except the JTAG pins which
  23:Drivers/STM32F0xx_HAL_Driver/Src/stm32f0xx_hal_rcc.c ****           are assigned to be used for debug purpose.
  24:Drivers/STM32F0xx_HAL_Driver/Src/stm32f0xx_hal_rcc.c ****     [..] Once the device started from reset, the user application has to:
  25:Drivers/STM32F0xx_HAL_Driver/Src/stm32f0xx_hal_rcc.c ****       (+) Configure the clock source to be used to drive the System clock
  26:Drivers/STM32F0xx_HAL_Driver/Src/stm32f0xx_hal_rcc.c ****           (if the application needs higher frequency/performance)
  27:Drivers/STM32F0xx_HAL_Driver/Src/stm32f0xx_hal_rcc.c ****       (+) Configure the System clock frequency and Flash settings  
  28:Drivers/STM32F0xx_HAL_Driver/Src/stm32f0xx_hal_rcc.c ****       (+) Configure the AHB and APB buses prescalers
  29:Drivers/STM32F0xx_HAL_Driver/Src/stm32f0xx_hal_rcc.c ****       (+) Enable the clock for the peripheral(s) to be used
  30:Drivers/STM32F0xx_HAL_Driver/Src/stm32f0xx_hal_rcc.c ****       (+) Configure the clock source(s) for peripherals whose clocks are not
  31:Drivers/STM32F0xx_HAL_Driver/Src/stm32f0xx_hal_rcc.c ****           derived from the System clock (RTC, ADC, I2C, USART, TIM, USB FS, etc..)
  32:Drivers/STM32F0xx_HAL_Driver/Src/stm32f0xx_hal_rcc.c **** 
ARM GAS  C:\Users\ADMINI~1\AppData\Local\Temp\ccoLOygm.s 			page 2


  33:Drivers/STM32F0xx_HAL_Driver/Src/stm32f0xx_hal_rcc.c ****                       ##### RCC Limitations #####
  34:Drivers/STM32F0xx_HAL_Driver/Src/stm32f0xx_hal_rcc.c ****   ==============================================================================
  35:Drivers/STM32F0xx_HAL_Driver/Src/stm32f0xx_hal_rcc.c ****     [..]  
  36:Drivers/STM32F0xx_HAL_Driver/Src/stm32f0xx_hal_rcc.c ****       A delay between an RCC peripheral clock enable and the effective peripheral 
  37:Drivers/STM32F0xx_HAL_Driver/Src/stm32f0xx_hal_rcc.c ****       enabling should be taken into account in order to manage the peripheral read/write 
  38:Drivers/STM32F0xx_HAL_Driver/Src/stm32f0xx_hal_rcc.c ****       from/to registers.
  39:Drivers/STM32F0xx_HAL_Driver/Src/stm32f0xx_hal_rcc.c ****       (+) This delay depends on the peripheral mapping.
  40:Drivers/STM32F0xx_HAL_Driver/Src/stm32f0xx_hal_rcc.c ****         (++) AHB & APB peripherals, 1 dummy read is necessary
  41:Drivers/STM32F0xx_HAL_Driver/Src/stm32f0xx_hal_rcc.c **** 
  42:Drivers/STM32F0xx_HAL_Driver/Src/stm32f0xx_hal_rcc.c ****     [..]  
  43:Drivers/STM32F0xx_HAL_Driver/Src/stm32f0xx_hal_rcc.c ****       Workarounds:
  44:Drivers/STM32F0xx_HAL_Driver/Src/stm32f0xx_hal_rcc.c ****       (#) For AHB & APB peripherals, a dummy read to the peripheral register has been
  45:Drivers/STM32F0xx_HAL_Driver/Src/stm32f0xx_hal_rcc.c ****           inserted in each __HAL_RCC_PPP_CLK_ENABLE() macro.
  46:Drivers/STM32F0xx_HAL_Driver/Src/stm32f0xx_hal_rcc.c **** 
  47:Drivers/STM32F0xx_HAL_Driver/Src/stm32f0xx_hal_rcc.c ****   @endverbatim
  48:Drivers/STM32F0xx_HAL_Driver/Src/stm32f0xx_hal_rcc.c ****   ******************************************************************************
  49:Drivers/STM32F0xx_HAL_Driver/Src/stm32f0xx_hal_rcc.c ****   * @attention
  50:Drivers/STM32F0xx_HAL_Driver/Src/stm32f0xx_hal_rcc.c ****   *
  51:Drivers/STM32F0xx_HAL_Driver/Src/stm32f0xx_hal_rcc.c ****   * <h2><center>&copy; COPYRIGHT(c) 2016 STMicroelectronics</center></h2>
  52:Drivers/STM32F0xx_HAL_Driver/Src/stm32f0xx_hal_rcc.c ****   *
  53:Drivers/STM32F0xx_HAL_Driver/Src/stm32f0xx_hal_rcc.c ****   * Redistribution and use in source and binary forms, with or without modification,
  54:Drivers/STM32F0xx_HAL_Driver/Src/stm32f0xx_hal_rcc.c ****   * are permitted provided that the following conditions are met:
  55:Drivers/STM32F0xx_HAL_Driver/Src/stm32f0xx_hal_rcc.c ****   *   1. Redistributions of source code must retain the above copyright notice,
  56:Drivers/STM32F0xx_HAL_Driver/Src/stm32f0xx_hal_rcc.c ****   *      this list of conditions and the following disclaimer.
  57:Drivers/STM32F0xx_HAL_Driver/Src/stm32f0xx_hal_rcc.c ****   *   2. Redistributions in binary form must reproduce the above copyright notice,
  58:Drivers/STM32F0xx_HAL_Driver/Src/stm32f0xx_hal_rcc.c ****   *      this list of conditions and the following disclaimer in the documentation
  59:Drivers/STM32F0xx_HAL_Driver/Src/stm32f0xx_hal_rcc.c ****   *      and/or other materials provided with the distribution.
  60:Drivers/STM32F0xx_HAL_Driver/Src/stm32f0xx_hal_rcc.c ****   *   3. Neither the name of STMicroelectronics nor the names of its contributors
  61:Drivers/STM32F0xx_HAL_Driver/Src/stm32f0xx_hal_rcc.c ****   *      may be used to endorse or promote products derived from this software
  62:Drivers/STM32F0xx_HAL_Driver/Src/stm32f0xx_hal_rcc.c ****   *      without specific prior written permission.
  63:Drivers/STM32F0xx_HAL_Driver/Src/stm32f0xx_hal_rcc.c ****   *
  64:Drivers/STM32F0xx_HAL_Driver/Src/stm32f0xx_hal_rcc.c ****   * THIS SOFTWARE IS PROVIDED BY THE COPYRIGHT HOLDERS AND CONTRIBUTORS "AS IS"
  65:Drivers/STM32F0xx_HAL_Driver/Src/stm32f0xx_hal_rcc.c ****   * AND ANY EXPRESS OR IMPLIED WARRANTIES, INCLUDING, BUT NOT LIMITED TO, THE
  66:Drivers/STM32F0xx_HAL_Driver/Src/stm32f0xx_hal_rcc.c ****   * IMPLIED WARRANTIES OF MERCHANTABILITY AND FITNESS FOR A PARTICULAR PURPOSE ARE
  67:Drivers/STM32F0xx_HAL_Driver/Src/stm32f0xx_hal_rcc.c ****   * DISCLAIMED. IN NO EVENT SHALL THE COPYRIGHT HOLDER OR CONTRIBUTORS BE LIABLE
  68:Drivers/STM32F0xx_HAL_Driver/Src/stm32f0xx_hal_rcc.c ****   * FOR ANY DIRECT, INDIRECT, INCIDENTAL, SPECIAL, EXEMPLARY, OR CONSEQUENTIAL
  69:Drivers/STM32F0xx_HAL_Driver/Src/stm32f0xx_hal_rcc.c ****   * DAMAGES (INCLUDING, BUT NOT LIMITED TO, PROCUREMENT OF SUBSTITUTE GOODS OR
  70:Drivers/STM32F0xx_HAL_Driver/Src/stm32f0xx_hal_rcc.c ****   * SERVICES; LOSS OF USE, DATA, OR PROFITS; OR BUSINESS INTERRUPTION) HOWEVER
  71:Drivers/STM32F0xx_HAL_Driver/Src/stm32f0xx_hal_rcc.c ****   * CAUSED AND ON ANY THEORY OF LIABILITY, WHETHER IN CONTRACT, STRICT LIABILITY,
  72:Drivers/STM32F0xx_HAL_Driver/Src/stm32f0xx_hal_rcc.c ****   * OR TORT (INCLUDING NEGLIGENCE OR OTHERWISE) ARISING IN ANY WAY OUT OF THE USE
  73:Drivers/STM32F0xx_HAL_Driver/Src/stm32f0xx_hal_rcc.c ****   * OF THIS SOFTWARE, EVEN IF ADVISED OF THE POSSIBILITY OF SUCH DAMAGE.
  74:Drivers/STM32F0xx_HAL_Driver/Src/stm32f0xx_hal_rcc.c ****   *
  75:Drivers/STM32F0xx_HAL_Driver/Src/stm32f0xx_hal_rcc.c ****   ******************************************************************************  
  76:Drivers/STM32F0xx_HAL_Driver/Src/stm32f0xx_hal_rcc.c **** */
  77:Drivers/STM32F0xx_HAL_Driver/Src/stm32f0xx_hal_rcc.c **** 
  78:Drivers/STM32F0xx_HAL_Driver/Src/stm32f0xx_hal_rcc.c **** /* Includes ------------------------------------------------------------------*/
  79:Drivers/STM32F0xx_HAL_Driver/Src/stm32f0xx_hal_rcc.c **** #include "stm32f0xx_hal.h"
  80:Drivers/STM32F0xx_HAL_Driver/Src/stm32f0xx_hal_rcc.c **** 
  81:Drivers/STM32F0xx_HAL_Driver/Src/stm32f0xx_hal_rcc.c **** /** @addtogroup STM32F0xx_HAL_Driver
  82:Drivers/STM32F0xx_HAL_Driver/Src/stm32f0xx_hal_rcc.c ****   * @{
  83:Drivers/STM32F0xx_HAL_Driver/Src/stm32f0xx_hal_rcc.c ****   */
  84:Drivers/STM32F0xx_HAL_Driver/Src/stm32f0xx_hal_rcc.c **** 
  85:Drivers/STM32F0xx_HAL_Driver/Src/stm32f0xx_hal_rcc.c **** /** @defgroup RCC RCC
  86:Drivers/STM32F0xx_HAL_Driver/Src/stm32f0xx_hal_rcc.c **** * @brief RCC HAL module driver
  87:Drivers/STM32F0xx_HAL_Driver/Src/stm32f0xx_hal_rcc.c ****   * @{
  88:Drivers/STM32F0xx_HAL_Driver/Src/stm32f0xx_hal_rcc.c ****   */
  89:Drivers/STM32F0xx_HAL_Driver/Src/stm32f0xx_hal_rcc.c **** 
ARM GAS  C:\Users\ADMINI~1\AppData\Local\Temp\ccoLOygm.s 			page 3


  90:Drivers/STM32F0xx_HAL_Driver/Src/stm32f0xx_hal_rcc.c **** #ifdef HAL_RCC_MODULE_ENABLED
  91:Drivers/STM32F0xx_HAL_Driver/Src/stm32f0xx_hal_rcc.c **** 
  92:Drivers/STM32F0xx_HAL_Driver/Src/stm32f0xx_hal_rcc.c **** /* Private typedef -----------------------------------------------------------*/
  93:Drivers/STM32F0xx_HAL_Driver/Src/stm32f0xx_hal_rcc.c **** /* Private define ------------------------------------------------------------*/
  94:Drivers/STM32F0xx_HAL_Driver/Src/stm32f0xx_hal_rcc.c **** /** @defgroup RCC_Private_Constants RCC Private Constants
  95:Drivers/STM32F0xx_HAL_Driver/Src/stm32f0xx_hal_rcc.c ****  * @{
  96:Drivers/STM32F0xx_HAL_Driver/Src/stm32f0xx_hal_rcc.c ****  */
  97:Drivers/STM32F0xx_HAL_Driver/Src/stm32f0xx_hal_rcc.c **** /**
  98:Drivers/STM32F0xx_HAL_Driver/Src/stm32f0xx_hal_rcc.c ****   * @}
  99:Drivers/STM32F0xx_HAL_Driver/Src/stm32f0xx_hal_rcc.c ****   */
 100:Drivers/STM32F0xx_HAL_Driver/Src/stm32f0xx_hal_rcc.c **** /* Private macro -------------------------------------------------------------*/
 101:Drivers/STM32F0xx_HAL_Driver/Src/stm32f0xx_hal_rcc.c **** /** @defgroup RCC_Private_Macros RCC Private Macros
 102:Drivers/STM32F0xx_HAL_Driver/Src/stm32f0xx_hal_rcc.c ****   * @{
 103:Drivers/STM32F0xx_HAL_Driver/Src/stm32f0xx_hal_rcc.c ****   */
 104:Drivers/STM32F0xx_HAL_Driver/Src/stm32f0xx_hal_rcc.c **** 
 105:Drivers/STM32F0xx_HAL_Driver/Src/stm32f0xx_hal_rcc.c **** #define MCO1_CLK_ENABLE()     __HAL_RCC_GPIOA_CLK_ENABLE()
 106:Drivers/STM32F0xx_HAL_Driver/Src/stm32f0xx_hal_rcc.c **** #define MCO1_GPIO_PORT        GPIOA
 107:Drivers/STM32F0xx_HAL_Driver/Src/stm32f0xx_hal_rcc.c **** #define MCO1_PIN              GPIO_PIN_8
 108:Drivers/STM32F0xx_HAL_Driver/Src/stm32f0xx_hal_rcc.c **** 
 109:Drivers/STM32F0xx_HAL_Driver/Src/stm32f0xx_hal_rcc.c **** /**
 110:Drivers/STM32F0xx_HAL_Driver/Src/stm32f0xx_hal_rcc.c ****   * @}
 111:Drivers/STM32F0xx_HAL_Driver/Src/stm32f0xx_hal_rcc.c ****   */
 112:Drivers/STM32F0xx_HAL_Driver/Src/stm32f0xx_hal_rcc.c **** 
 113:Drivers/STM32F0xx_HAL_Driver/Src/stm32f0xx_hal_rcc.c **** /* Private variables ---------------------------------------------------------*/
 114:Drivers/STM32F0xx_HAL_Driver/Src/stm32f0xx_hal_rcc.c **** /** @defgroup RCC_Private_Variables RCC Private Variables
 115:Drivers/STM32F0xx_HAL_Driver/Src/stm32f0xx_hal_rcc.c ****   * @{
 116:Drivers/STM32F0xx_HAL_Driver/Src/stm32f0xx_hal_rcc.c ****   */
 117:Drivers/STM32F0xx_HAL_Driver/Src/stm32f0xx_hal_rcc.c **** /**
 118:Drivers/STM32F0xx_HAL_Driver/Src/stm32f0xx_hal_rcc.c ****   * @}
 119:Drivers/STM32F0xx_HAL_Driver/Src/stm32f0xx_hal_rcc.c ****   */
 120:Drivers/STM32F0xx_HAL_Driver/Src/stm32f0xx_hal_rcc.c **** 
 121:Drivers/STM32F0xx_HAL_Driver/Src/stm32f0xx_hal_rcc.c **** /* Private function prototypes -----------------------------------------------*/
 122:Drivers/STM32F0xx_HAL_Driver/Src/stm32f0xx_hal_rcc.c **** /* Exported functions ---------------------------------------------------------*/
 123:Drivers/STM32F0xx_HAL_Driver/Src/stm32f0xx_hal_rcc.c **** 
 124:Drivers/STM32F0xx_HAL_Driver/Src/stm32f0xx_hal_rcc.c **** /** @defgroup RCC_Exported_Functions RCC Exported Functions
 125:Drivers/STM32F0xx_HAL_Driver/Src/stm32f0xx_hal_rcc.c ****   * @{
 126:Drivers/STM32F0xx_HAL_Driver/Src/stm32f0xx_hal_rcc.c ****   */
 127:Drivers/STM32F0xx_HAL_Driver/Src/stm32f0xx_hal_rcc.c **** 
 128:Drivers/STM32F0xx_HAL_Driver/Src/stm32f0xx_hal_rcc.c **** /** @defgroup RCC_Exported_Functions_Group1 Initialization and de-initialization functions 
 129:Drivers/STM32F0xx_HAL_Driver/Src/stm32f0xx_hal_rcc.c ****   *  @brief    Initialization and Configuration functions 
 130:Drivers/STM32F0xx_HAL_Driver/Src/stm32f0xx_hal_rcc.c ****   *
 131:Drivers/STM32F0xx_HAL_Driver/Src/stm32f0xx_hal_rcc.c ****   @verbatim    
 132:Drivers/STM32F0xx_HAL_Driver/Src/stm32f0xx_hal_rcc.c ****   ===============================================================================
 133:Drivers/STM32F0xx_HAL_Driver/Src/stm32f0xx_hal_rcc.c ****            ##### Initialization and de-initialization functions #####
 134:Drivers/STM32F0xx_HAL_Driver/Src/stm32f0xx_hal_rcc.c ****   ===============================================================================
 135:Drivers/STM32F0xx_HAL_Driver/Src/stm32f0xx_hal_rcc.c ****     [..]
 136:Drivers/STM32F0xx_HAL_Driver/Src/stm32f0xx_hal_rcc.c ****       This section provides functions allowing to configure the internal/external oscillators
 137:Drivers/STM32F0xx_HAL_Driver/Src/stm32f0xx_hal_rcc.c ****       (HSE, HSI, HSI14, HSI48, LSE, LSI, PLL, CSS and MCO) and the System buses clocks (SYSCLK, 
 138:Drivers/STM32F0xx_HAL_Driver/Src/stm32f0xx_hal_rcc.c ****       AHB and APB1).
 139:Drivers/STM32F0xx_HAL_Driver/Src/stm32f0xx_hal_rcc.c **** 
 140:Drivers/STM32F0xx_HAL_Driver/Src/stm32f0xx_hal_rcc.c ****     [..] Internal/external clock and PLL configuration
 141:Drivers/STM32F0xx_HAL_Driver/Src/stm32f0xx_hal_rcc.c ****       (#) HSI (high-speed internal), 8 MHz factory-trimmed RC used directly or through
 142:Drivers/STM32F0xx_HAL_Driver/Src/stm32f0xx_hal_rcc.c ****           the PLL as System clock source.
 143:Drivers/STM32F0xx_HAL_Driver/Src/stm32f0xx_hal_rcc.c ****           The HSI clock can be used also to clock the USART and I2C peripherals.
 144:Drivers/STM32F0xx_HAL_Driver/Src/stm32f0xx_hal_rcc.c **** 
 145:Drivers/STM32F0xx_HAL_Driver/Src/stm32f0xx_hal_rcc.c ****       (#) HSI14 (high-speed internal), 14 MHz factory-trimmed RC used directly to clock 
 146:Drivers/STM32F0xx_HAL_Driver/Src/stm32f0xx_hal_rcc.c ****           the ADC peripheral.
ARM GAS  C:\Users\ADMINI~1\AppData\Local\Temp\ccoLOygm.s 			page 4


 147:Drivers/STM32F0xx_HAL_Driver/Src/stm32f0xx_hal_rcc.c **** 
 148:Drivers/STM32F0xx_HAL_Driver/Src/stm32f0xx_hal_rcc.c ****       (#) LSI (low-speed internal), ~40 KHz low consumption RC used as IWDG and/or RTC
 149:Drivers/STM32F0xx_HAL_Driver/Src/stm32f0xx_hal_rcc.c ****           clock source.
 150:Drivers/STM32F0xx_HAL_Driver/Src/stm32f0xx_hal_rcc.c **** 
 151:Drivers/STM32F0xx_HAL_Driver/Src/stm32f0xx_hal_rcc.c ****       (#) HSE (high-speed external), 4 to 32 MHz crystal oscillator used directly or
 152:Drivers/STM32F0xx_HAL_Driver/Src/stm32f0xx_hal_rcc.c ****           through the PLL as System clock source. Can be used also as RTC clock source.
 153:Drivers/STM32F0xx_HAL_Driver/Src/stm32f0xx_hal_rcc.c **** 
 154:Drivers/STM32F0xx_HAL_Driver/Src/stm32f0xx_hal_rcc.c ****       (#) LSE (low-speed external), 32 KHz oscillator used as RTC clock source.   
 155:Drivers/STM32F0xx_HAL_Driver/Src/stm32f0xx_hal_rcc.c **** 
 156:Drivers/STM32F0xx_HAL_Driver/Src/stm32f0xx_hal_rcc.c ****       (#) PLL (clocked by HSI, HSI48 or HSE), featuring different output clocks:
 157:Drivers/STM32F0xx_HAL_Driver/Src/stm32f0xx_hal_rcc.c ****        (++) The first output is used to generate the high speed system clock (up to 48 MHz)
 158:Drivers/STM32F0xx_HAL_Driver/Src/stm32f0xx_hal_rcc.c ****        (++) The second output is used to generate the clock for the USB FS (48 MHz)
 159:Drivers/STM32F0xx_HAL_Driver/Src/stm32f0xx_hal_rcc.c ****        (++) The third output may be used to generate the clock for the TIM, I2C and USART 
 160:Drivers/STM32F0xx_HAL_Driver/Src/stm32f0xx_hal_rcc.c ****             peripherals (up to 48 MHz)
 161:Drivers/STM32F0xx_HAL_Driver/Src/stm32f0xx_hal_rcc.c **** 
 162:Drivers/STM32F0xx_HAL_Driver/Src/stm32f0xx_hal_rcc.c ****       (#) CSS (Clock security system), once enable using the macro __HAL_RCC_CSS_ENABLE()
 163:Drivers/STM32F0xx_HAL_Driver/Src/stm32f0xx_hal_rcc.c ****           and if a HSE clock failure occurs(HSE used directly or through PLL as System 
 164:Drivers/STM32F0xx_HAL_Driver/Src/stm32f0xx_hal_rcc.c ****           clock source), the System clocks automatically switched to HSI and an interrupt
 165:Drivers/STM32F0xx_HAL_Driver/Src/stm32f0xx_hal_rcc.c ****           is generated if enabled. The interrupt is linked to the Cortex-M0 NMI 
 166:Drivers/STM32F0xx_HAL_Driver/Src/stm32f0xx_hal_rcc.c ****           (Non-Maskable Interrupt) exception vector.   
 167:Drivers/STM32F0xx_HAL_Driver/Src/stm32f0xx_hal_rcc.c **** 
 168:Drivers/STM32F0xx_HAL_Driver/Src/stm32f0xx_hal_rcc.c ****       (#) MCO (microcontroller clock output), used to output SYSCLK, HSI, HSE, LSI, LSE or PLL
 169:Drivers/STM32F0xx_HAL_Driver/Src/stm32f0xx_hal_rcc.c ****           clock (divided by 2) output on pin (such as PA8 pin).
 170:Drivers/STM32F0xx_HAL_Driver/Src/stm32f0xx_hal_rcc.c **** 
 171:Drivers/STM32F0xx_HAL_Driver/Src/stm32f0xx_hal_rcc.c ****     [..] System, AHB and APB buses clocks configuration
 172:Drivers/STM32F0xx_HAL_Driver/Src/stm32f0xx_hal_rcc.c ****       (#) Several clock sources can be used to drive the System clock (SYSCLK): HSI,
 173:Drivers/STM32F0xx_HAL_Driver/Src/stm32f0xx_hal_rcc.c ****           HSE and PLL.
 174:Drivers/STM32F0xx_HAL_Driver/Src/stm32f0xx_hal_rcc.c ****           The AHB clock (HCLK) is derived from System clock through configurable
 175:Drivers/STM32F0xx_HAL_Driver/Src/stm32f0xx_hal_rcc.c ****           prescaler and used to clock the CPU, memory and peripherals mapped
 176:Drivers/STM32F0xx_HAL_Driver/Src/stm32f0xx_hal_rcc.c ****           on AHB bus (DMA, GPIO...). APB1 (PCLK1) clock is derived
 177:Drivers/STM32F0xx_HAL_Driver/Src/stm32f0xx_hal_rcc.c ****           from AHB clock through configurable prescalers and used to clock
 178:Drivers/STM32F0xx_HAL_Driver/Src/stm32f0xx_hal_rcc.c ****           the peripherals mapped on these buses. You can use
 179:Drivers/STM32F0xx_HAL_Driver/Src/stm32f0xx_hal_rcc.c ****           "@ref HAL_RCC_GetSysClockFreq()" function to retrieve the frequencies of these clocks.
 180:Drivers/STM32F0xx_HAL_Driver/Src/stm32f0xx_hal_rcc.c **** 
 181:Drivers/STM32F0xx_HAL_Driver/Src/stm32f0xx_hal_rcc.c ****       (#) All the peripheral clocks are derived from the System clock (SYSCLK) except:
 182:Drivers/STM32F0xx_HAL_Driver/Src/stm32f0xx_hal_rcc.c ****         (++) The FLASH program/erase clock  which is always HSI 8MHz clock.
 183:Drivers/STM32F0xx_HAL_Driver/Src/stm32f0xx_hal_rcc.c ****         (++) The USB 48 MHz clock which is derived from the PLL VCO clock.
 184:Drivers/STM32F0xx_HAL_Driver/Src/stm32f0xx_hal_rcc.c ****         (++) The USART clock which can be derived as well from HSI 8MHz, LSI or LSE.
 185:Drivers/STM32F0xx_HAL_Driver/Src/stm32f0xx_hal_rcc.c ****         (++) The I2C clock which can be derived as well from HSI 8MHz clock.
 186:Drivers/STM32F0xx_HAL_Driver/Src/stm32f0xx_hal_rcc.c ****         (++) The ADC clock which is derived from PLL output.
 187:Drivers/STM32F0xx_HAL_Driver/Src/stm32f0xx_hal_rcc.c ****         (++) The RTC clock which is derived from the LSE, LSI or 1 MHz HSE_RTC
 188:Drivers/STM32F0xx_HAL_Driver/Src/stm32f0xx_hal_rcc.c ****              (HSE divided by a programmable prescaler). The System clock (SYSCLK)
 189:Drivers/STM32F0xx_HAL_Driver/Src/stm32f0xx_hal_rcc.c ****              frequency must be higher or equal to the RTC clock frequency.
 190:Drivers/STM32F0xx_HAL_Driver/Src/stm32f0xx_hal_rcc.c ****         (++) IWDG clock which is always the LSI clock.
 191:Drivers/STM32F0xx_HAL_Driver/Src/stm32f0xx_hal_rcc.c **** 
 192:Drivers/STM32F0xx_HAL_Driver/Src/stm32f0xx_hal_rcc.c ****       (#) For the STM32F0xx devices, the maximum frequency of the SYSCLK, HCLK and PCLK1 is 48 MHz,
 193:Drivers/STM32F0xx_HAL_Driver/Src/stm32f0xx_hal_rcc.c ****           Depending on the SYSCLK frequency, the flash latency should be adapted accordingly.
 194:Drivers/STM32F0xx_HAL_Driver/Src/stm32f0xx_hal_rcc.c **** 
 195:Drivers/STM32F0xx_HAL_Driver/Src/stm32f0xx_hal_rcc.c ****       (#) After reset, the System clock source is the HSI (8 MHz) with 0 WS and
 196:Drivers/STM32F0xx_HAL_Driver/Src/stm32f0xx_hal_rcc.c ****           prefetch is disabled.
 197:Drivers/STM32F0xx_HAL_Driver/Src/stm32f0xx_hal_rcc.c ****   @endverbatim
 198:Drivers/STM32F0xx_HAL_Driver/Src/stm32f0xx_hal_rcc.c ****   * @{
 199:Drivers/STM32F0xx_HAL_Driver/Src/stm32f0xx_hal_rcc.c ****   */
 200:Drivers/STM32F0xx_HAL_Driver/Src/stm32f0xx_hal_rcc.c ****   
 201:Drivers/STM32F0xx_HAL_Driver/Src/stm32f0xx_hal_rcc.c **** /*
 202:Drivers/STM32F0xx_HAL_Driver/Src/stm32f0xx_hal_rcc.c ****   Additional consideration on the SYSCLK based on Latency settings:
 203:Drivers/STM32F0xx_HAL_Driver/Src/stm32f0xx_hal_rcc.c ****           +-----------------------------------------------+
ARM GAS  C:\Users\ADMINI~1\AppData\Local\Temp\ccoLOygm.s 			page 5


 204:Drivers/STM32F0xx_HAL_Driver/Src/stm32f0xx_hal_rcc.c ****           | Latency       | SYSCLK clock frequency (MHz)  |
 205:Drivers/STM32F0xx_HAL_Driver/Src/stm32f0xx_hal_rcc.c ****           |---------------|-------------------------------|
 206:Drivers/STM32F0xx_HAL_Driver/Src/stm32f0xx_hal_rcc.c ****           |0WS(1CPU cycle)|       0 < SYSCLK <= 24        |
 207:Drivers/STM32F0xx_HAL_Driver/Src/stm32f0xx_hal_rcc.c ****           |---------------|-------------------------------|
 208:Drivers/STM32F0xx_HAL_Driver/Src/stm32f0xx_hal_rcc.c ****           |1WS(2CPU cycle)|      24 < SYSCLK <= 48        |
 209:Drivers/STM32F0xx_HAL_Driver/Src/stm32f0xx_hal_rcc.c ****           +-----------------------------------------------+
 210:Drivers/STM32F0xx_HAL_Driver/Src/stm32f0xx_hal_rcc.c ****   */
 211:Drivers/STM32F0xx_HAL_Driver/Src/stm32f0xx_hal_rcc.c **** 
 212:Drivers/STM32F0xx_HAL_Driver/Src/stm32f0xx_hal_rcc.c **** /**
 213:Drivers/STM32F0xx_HAL_Driver/Src/stm32f0xx_hal_rcc.c ****   * @brief  Resets the RCC clock configuration to the default reset state.
 214:Drivers/STM32F0xx_HAL_Driver/Src/stm32f0xx_hal_rcc.c ****   * @note   The default reset state of the clock configuration is given below:
 215:Drivers/STM32F0xx_HAL_Driver/Src/stm32f0xx_hal_rcc.c ****   *            - HSI ON and used as system clock source
 216:Drivers/STM32F0xx_HAL_Driver/Src/stm32f0xx_hal_rcc.c ****   *            - HSE and PLL OFF
 217:Drivers/STM32F0xx_HAL_Driver/Src/stm32f0xx_hal_rcc.c ****   *            - AHB, APB1 prescaler set to 1.
 218:Drivers/STM32F0xx_HAL_Driver/Src/stm32f0xx_hal_rcc.c ****   *            - CSS and MCO1 OFF
 219:Drivers/STM32F0xx_HAL_Driver/Src/stm32f0xx_hal_rcc.c ****   *            - All interrupts disabled
 220:Drivers/STM32F0xx_HAL_Driver/Src/stm32f0xx_hal_rcc.c ****   * @note   This function does not modify the configuration of the
 221:Drivers/STM32F0xx_HAL_Driver/Src/stm32f0xx_hal_rcc.c ****   *            - Peripheral clocks
 222:Drivers/STM32F0xx_HAL_Driver/Src/stm32f0xx_hal_rcc.c ****   *            - LSI, LSE and RTC clocks
 223:Drivers/STM32F0xx_HAL_Driver/Src/stm32f0xx_hal_rcc.c ****   * @retval None
 224:Drivers/STM32F0xx_HAL_Driver/Src/stm32f0xx_hal_rcc.c ****   */
 225:Drivers/STM32F0xx_HAL_Driver/Src/stm32f0xx_hal_rcc.c **** void HAL_RCC_DeInit(void)
 226:Drivers/STM32F0xx_HAL_Driver/Src/stm32f0xx_hal_rcc.c **** {
  27              		.loc 1 226 1
  28              		.cfi_startproc
  29              		@ args = 0, pretend = 0, frame = 0
  30              		@ frame_needed = 1, uses_anonymous_args = 0
  31 0000 80B5     		push	{r7, lr}
  32              	.LCFI0:
  33              		.cfi_def_cfa_offset 8
  34              		.cfi_offset 7, -8
  35              		.cfi_offset 14, -4
  36 0002 00AF     		add	r7, sp, #0
  37              	.LCFI1:
  38              		.cfi_def_cfa_register 7
 227:Drivers/STM32F0xx_HAL_Driver/Src/stm32f0xx_hal_rcc.c ****   /* Set HSION bit, HSITRIM[4:0] bits to the reset value*/
 228:Drivers/STM32F0xx_HAL_Driver/Src/stm32f0xx_hal_rcc.c ****   SET_BIT(RCC->CR, RCC_CR_HSION | RCC_CR_HSITRIM_4); 
  39              		.loc 1 228 3
  40 0004 144B     		ldr	r3, .L2
  41 0006 1A68     		ldr	r2, [r3]
  42 0008 134B     		ldr	r3, .L2
  43 000a 8121     		movs	r1, #129
  44 000c 0A43     		orrs	r2, r1
  45 000e 1A60     		str	r2, [r3]
 229:Drivers/STM32F0xx_HAL_Driver/Src/stm32f0xx_hal_rcc.c **** 
 230:Drivers/STM32F0xx_HAL_Driver/Src/stm32f0xx_hal_rcc.c ****   /* Reset SW[1:0], HPRE[3:0], PPRE[2:0] and MCOSEL[2:0] bits */
 231:Drivers/STM32F0xx_HAL_Driver/Src/stm32f0xx_hal_rcc.c ****   CLEAR_BIT(RCC->CFGR, RCC_CFGR_SW | RCC_CFGR_HPRE | RCC_CFGR_PPRE | RCC_CFGR_MCO);
  46              		.loc 1 231 3
  47 0010 114B     		ldr	r3, .L2
  48 0012 5A68     		ldr	r2, [r3, #4]
  49 0014 104B     		ldr	r3, .L2
  50 0016 1149     		ldr	r1, .L2+4
  51 0018 0A40     		ands	r2, r1
  52 001a 5A60     		str	r2, [r3, #4]
 232:Drivers/STM32F0xx_HAL_Driver/Src/stm32f0xx_hal_rcc.c **** 
 233:Drivers/STM32F0xx_HAL_Driver/Src/stm32f0xx_hal_rcc.c ****   /* Reset HSEON, CSSON, PLLON bits */
 234:Drivers/STM32F0xx_HAL_Driver/Src/stm32f0xx_hal_rcc.c ****   CLEAR_BIT(RCC->CR, RCC_CR_PLLON | RCC_CR_CSSON | RCC_CR_HSEON);
ARM GAS  C:\Users\ADMINI~1\AppData\Local\Temp\ccoLOygm.s 			page 6


  53              		.loc 1 234 3
  54 001c 0E4B     		ldr	r3, .L2
  55 001e 1A68     		ldr	r2, [r3]
  56 0020 0D4B     		ldr	r3, .L2
  57 0022 0F49     		ldr	r1, .L2+8
  58 0024 0A40     		ands	r2, r1
  59 0026 1A60     		str	r2, [r3]
 235:Drivers/STM32F0xx_HAL_Driver/Src/stm32f0xx_hal_rcc.c ****   
 236:Drivers/STM32F0xx_HAL_Driver/Src/stm32f0xx_hal_rcc.c ****   /* Reset HSEBYP bit */
 237:Drivers/STM32F0xx_HAL_Driver/Src/stm32f0xx_hal_rcc.c ****   CLEAR_BIT(RCC->CR, RCC_CR_HSEBYP);
  60              		.loc 1 237 3
  61 0028 0B4B     		ldr	r3, .L2
  62 002a 1A68     		ldr	r2, [r3]
  63 002c 0A4B     		ldr	r3, .L2
  64 002e 0D49     		ldr	r1, .L2+12
  65 0030 0A40     		ands	r2, r1
  66 0032 1A60     		str	r2, [r3]
 238:Drivers/STM32F0xx_HAL_Driver/Src/stm32f0xx_hal_rcc.c **** 
 239:Drivers/STM32F0xx_HAL_Driver/Src/stm32f0xx_hal_rcc.c ****   /* Reset CFGR register */
 240:Drivers/STM32F0xx_HAL_Driver/Src/stm32f0xx_hal_rcc.c ****   CLEAR_REG(RCC->CFGR);
  67              		.loc 1 240 3
  68 0034 084B     		ldr	r3, .L2
  69 0036 0022     		movs	r2, #0
  70 0038 5A60     		str	r2, [r3, #4]
 241:Drivers/STM32F0xx_HAL_Driver/Src/stm32f0xx_hal_rcc.c ****   
 242:Drivers/STM32F0xx_HAL_Driver/Src/stm32f0xx_hal_rcc.c ****   /* Reset CFGR2 register */
 243:Drivers/STM32F0xx_HAL_Driver/Src/stm32f0xx_hal_rcc.c ****   CLEAR_REG(RCC->CFGR2);
  71              		.loc 1 243 3
  72 003a 074B     		ldr	r3, .L2
  73 003c 0022     		movs	r2, #0
  74 003e DA62     		str	r2, [r3, #44]
 244:Drivers/STM32F0xx_HAL_Driver/Src/stm32f0xx_hal_rcc.c ****   
 245:Drivers/STM32F0xx_HAL_Driver/Src/stm32f0xx_hal_rcc.c ****   /* Reset CFGR3 register */
 246:Drivers/STM32F0xx_HAL_Driver/Src/stm32f0xx_hal_rcc.c ****   CLEAR_REG(RCC->CFGR3);
  75              		.loc 1 246 3
  76 0040 054B     		ldr	r3, .L2
  77 0042 0022     		movs	r2, #0
  78 0044 1A63     		str	r2, [r3, #48]
 247:Drivers/STM32F0xx_HAL_Driver/Src/stm32f0xx_hal_rcc.c ****   
 248:Drivers/STM32F0xx_HAL_Driver/Src/stm32f0xx_hal_rcc.c ****   /* Disable all interrupts */
 249:Drivers/STM32F0xx_HAL_Driver/Src/stm32f0xx_hal_rcc.c ****   CLEAR_REG(RCC->CIR);
  79              		.loc 1 249 3
  80 0046 044B     		ldr	r3, .L2
  81 0048 0022     		movs	r2, #0
  82 004a 9A60     		str	r2, [r3, #8]
 250:Drivers/STM32F0xx_HAL_Driver/Src/stm32f0xx_hal_rcc.c **** 
 251:Drivers/STM32F0xx_HAL_Driver/Src/stm32f0xx_hal_rcc.c ****   /* Update the SystemCoreClock global variable */
 252:Drivers/STM32F0xx_HAL_Driver/Src/stm32f0xx_hal_rcc.c ****   SystemCoreClock = HSI_VALUE;
  83              		.loc 1 252 19
  84 004c 064B     		ldr	r3, .L2+16
  85 004e 074A     		ldr	r2, .L2+20
  86 0050 1A60     		str	r2, [r3]
 253:Drivers/STM32F0xx_HAL_Driver/Src/stm32f0xx_hal_rcc.c **** }
  87              		.loc 1 253 1
  88 0052 C046     		nop
  89 0054 BD46     		mov	sp, r7
  90              		@ sp needed
ARM GAS  C:\Users\ADMINI~1\AppData\Local\Temp\ccoLOygm.s 			page 7


  91 0056 80BD     		pop	{r7, pc}
  92              	.L3:
  93              		.align	2
  94              	.L2:
  95 0058 00100240 		.word	1073876992
  96 005c 0CF8FFF0 		.word	-251660276
  97 0060 FFFFF6FE 		.word	-17367041
  98 0064 FFFFFBFF 		.word	-262145
  99 0068 00000000 		.word	SystemCoreClock
 100 006c 00127A00 		.word	8000000
 101              		.cfi_endproc
 102              	.LFE37:
 104              		.section	.text.HAL_RCC_OscConfig,"ax",%progbits
 105              		.align	1
 106              		.global	HAL_RCC_OscConfig
 107              		.syntax unified
 108              		.code	16
 109              		.thumb_func
 110              		.fpu softvfp
 112              	HAL_RCC_OscConfig:
 113              	.LFB38:
 254:Drivers/STM32F0xx_HAL_Driver/Src/stm32f0xx_hal_rcc.c **** 
 255:Drivers/STM32F0xx_HAL_Driver/Src/stm32f0xx_hal_rcc.c **** /**
 256:Drivers/STM32F0xx_HAL_Driver/Src/stm32f0xx_hal_rcc.c ****   * @brief  Initializes the RCC Oscillators according to the specified parameters in the
 257:Drivers/STM32F0xx_HAL_Driver/Src/stm32f0xx_hal_rcc.c ****   *         RCC_OscInitTypeDef.
 258:Drivers/STM32F0xx_HAL_Driver/Src/stm32f0xx_hal_rcc.c ****   * @param  RCC_OscInitStruct pointer to an RCC_OscInitTypeDef structure that
 259:Drivers/STM32F0xx_HAL_Driver/Src/stm32f0xx_hal_rcc.c ****   *         contains the configuration information for the RCC Oscillators.
 260:Drivers/STM32F0xx_HAL_Driver/Src/stm32f0xx_hal_rcc.c ****   * @note   The PLL is not disabled when used as system clock.
 261:Drivers/STM32F0xx_HAL_Driver/Src/stm32f0xx_hal_rcc.c ****   * @note   Transitions LSE Bypass to LSE On and LSE On to LSE Bypass are not
 262:Drivers/STM32F0xx_HAL_Driver/Src/stm32f0xx_hal_rcc.c ****   *         supported by this macro. User should request a transition to LSE Off
 263:Drivers/STM32F0xx_HAL_Driver/Src/stm32f0xx_hal_rcc.c ****   *         first and then LSE On or LSE Bypass.
 264:Drivers/STM32F0xx_HAL_Driver/Src/stm32f0xx_hal_rcc.c ****   * @note   Transition HSE Bypass to HSE On and HSE On to HSE Bypass are not
 265:Drivers/STM32F0xx_HAL_Driver/Src/stm32f0xx_hal_rcc.c ****   *         supported by this macro. User should request a transition to HSE Off
 266:Drivers/STM32F0xx_HAL_Driver/Src/stm32f0xx_hal_rcc.c ****   *         first and then HSE On or HSE Bypass.
 267:Drivers/STM32F0xx_HAL_Driver/Src/stm32f0xx_hal_rcc.c ****   * @retval HAL status
 268:Drivers/STM32F0xx_HAL_Driver/Src/stm32f0xx_hal_rcc.c ****   */
 269:Drivers/STM32F0xx_HAL_Driver/Src/stm32f0xx_hal_rcc.c **** HAL_StatusTypeDef HAL_RCC_OscConfig(RCC_OscInitTypeDef  *RCC_OscInitStruct)
 270:Drivers/STM32F0xx_HAL_Driver/Src/stm32f0xx_hal_rcc.c **** {
 114              		.loc 1 270 1
 115              		.cfi_startproc
 116              		@ args = 0, pretend = 0, frame = 24
 117              		@ frame_needed = 1, uses_anonymous_args = 0
 118 0000 80B5     		push	{r7, lr}
 119              	.LCFI2:
 120              		.cfi_def_cfa_offset 8
 121              		.cfi_offset 7, -8
 122              		.cfi_offset 14, -4
 123 0002 86B0     		sub	sp, sp, #24
 124              	.LCFI3:
 125              		.cfi_def_cfa_offset 32
 126 0004 00AF     		add	r7, sp, #0
 127              	.LCFI4:
 128              		.cfi_def_cfa_register 7
 129 0006 7860     		str	r0, [r7, #4]
 271:Drivers/STM32F0xx_HAL_Driver/Src/stm32f0xx_hal_rcc.c ****    uint32_t tickstart = 0U;
 130              		.loc 1 271 13
 131 0008 0023     		movs	r3, #0
ARM GAS  C:\Users\ADMINI~1\AppData\Local\Temp\ccoLOygm.s 			page 8


 132 000a 3B61     		str	r3, [r7, #16]
 272:Drivers/STM32F0xx_HAL_Driver/Src/stm32f0xx_hal_rcc.c ****   
 273:Drivers/STM32F0xx_HAL_Driver/Src/stm32f0xx_hal_rcc.c ****   /* Check the parameters */
 274:Drivers/STM32F0xx_HAL_Driver/Src/stm32f0xx_hal_rcc.c ****   assert_param(RCC_OscInitStruct != NULL);
 275:Drivers/STM32F0xx_HAL_Driver/Src/stm32f0xx_hal_rcc.c ****   assert_param(IS_RCC_OSCILLATORTYPE(RCC_OscInitStruct->OscillatorType));
 276:Drivers/STM32F0xx_HAL_Driver/Src/stm32f0xx_hal_rcc.c **** 
 277:Drivers/STM32F0xx_HAL_Driver/Src/stm32f0xx_hal_rcc.c ****   /*------------------------------- HSE Configuration ------------------------*/ 
 278:Drivers/STM32F0xx_HAL_Driver/Src/stm32f0xx_hal_rcc.c ****   if(((RCC_OscInitStruct->OscillatorType) & RCC_OSCILLATORTYPE_HSE) == RCC_OSCILLATORTYPE_HSE)
 133              		.loc 1 278 25
 134 000c 7B68     		ldr	r3, [r7, #4]
 135 000e 1B68     		ldr	r3, [r3]
 136              		.loc 1 278 43
 137 0010 0122     		movs	r2, #1
 138 0012 1340     		ands	r3, r2
 139              		.loc 1 278 5
 140 0014 00D1     		bne	.LCB94
 141 0016 8DE0     		b	.L5	@long jump
 142              	.LCB94:
 279:Drivers/STM32F0xx_HAL_Driver/Src/stm32f0xx_hal_rcc.c ****   {
 280:Drivers/STM32F0xx_HAL_Driver/Src/stm32f0xx_hal_rcc.c ****     /* Check the parameters */
 281:Drivers/STM32F0xx_HAL_Driver/Src/stm32f0xx_hal_rcc.c ****     assert_param(IS_RCC_HSE(RCC_OscInitStruct->HSEState));
 282:Drivers/STM32F0xx_HAL_Driver/Src/stm32f0xx_hal_rcc.c **** 
 283:Drivers/STM32F0xx_HAL_Driver/Src/stm32f0xx_hal_rcc.c ****     /* When the HSE is used as system clock or clock source for PLL in these cases it is not allowe
 284:Drivers/STM32F0xx_HAL_Driver/Src/stm32f0xx_hal_rcc.c ****     if((__HAL_RCC_GET_SYSCLK_SOURCE() == RCC_SYSCLKSOURCE_STATUS_HSE) 
 143              		.loc 1 284 9
 144 0018 C44B     		ldr	r3, .L76
 145 001a 5B68     		ldr	r3, [r3, #4]
 146 001c 0C22     		movs	r2, #12
 147 001e 1340     		ands	r3, r2
 148              		.loc 1 284 7
 149 0020 042B     		cmp	r3, #4
 150 0022 0ED0     		beq	.L6
 285:Drivers/STM32F0xx_HAL_Driver/Src/stm32f0xx_hal_rcc.c ****        || ((__HAL_RCC_GET_SYSCLK_SOURCE() == RCC_SYSCLKSOURCE_STATUS_PLLCLK) && (__HAL_RCC_GET_PLL_
 151              		.loc 1 285 13
 152 0024 C14B     		ldr	r3, .L76
 153 0026 5B68     		ldr	r3, [r3, #4]
 154 0028 0C22     		movs	r2, #12
 155 002a 1340     		ands	r3, r2
 156              		.loc 1 285 8
 157 002c 082B     		cmp	r3, #8
 158 002e 16D1     		bne	.L7
 159              		.loc 1 285 82 discriminator 1
 160 0030 BE4B     		ldr	r3, .L76
 161 0032 5A68     		ldr	r2, [r3, #4]
 162 0034 C023     		movs	r3, #192
 163 0036 5B02     		lsls	r3, r3, #9
 164 0038 1A40     		ands	r2, r3
 165              		.loc 1 285 78 discriminator 1
 166 003a 8023     		movs	r3, #128
 167 003c 5B02     		lsls	r3, r3, #9
 168 003e 9A42     		cmp	r2, r3
 169 0040 0DD1     		bne	.L7
 170              	.L6:
 286:Drivers/STM32F0xx_HAL_Driver/Src/stm32f0xx_hal_rcc.c ****     {
 287:Drivers/STM32F0xx_HAL_Driver/Src/stm32f0xx_hal_rcc.c ****       if((__HAL_RCC_GET_FLAG(RCC_FLAG_HSERDY) != RESET) && (RCC_OscInitStruct->HSEState == RCC_HSE_
 171              		.loc 1 287 11
 172 0042 BA4B     		ldr	r3, .L76
ARM GAS  C:\Users\ADMINI~1\AppData\Local\Temp\ccoLOygm.s 			page 9


 173 0044 1A68     		ldr	r2, [r3]
 174 0046 8023     		movs	r3, #128
 175 0048 9B02     		lsls	r3, r3, #10
 176 004a 1340     		ands	r3, r2
 177              		.loc 1 287 9
 178 004c 00D1     		bne	.LCB123
 179 004e 70E0     		b	.L74	@long jump
 180              	.LCB123:
 181              		.loc 1 287 78 discriminator 1
 182 0050 7B68     		ldr	r3, [r7, #4]
 183 0052 5B68     		ldr	r3, [r3, #4]
 184              		.loc 1 287 57 discriminator 1
 185 0054 002B     		cmp	r3, #0
 186 0056 00D0     		beq	.LCB127
 187 0058 6BE0     		b	.L74	@long jump
 188              	.LCB127:
 288:Drivers/STM32F0xx_HAL_Driver/Src/stm32f0xx_hal_rcc.c ****       {
 289:Drivers/STM32F0xx_HAL_Driver/Src/stm32f0xx_hal_rcc.c ****         return HAL_ERROR;
 189              		.loc 1 289 16
 190 005a 0123     		movs	r3, #1
 191 005c 27E3     		b	.L9
 192              	.L7:
 290:Drivers/STM32F0xx_HAL_Driver/Src/stm32f0xx_hal_rcc.c ****       }
 291:Drivers/STM32F0xx_HAL_Driver/Src/stm32f0xx_hal_rcc.c ****     }
 292:Drivers/STM32F0xx_HAL_Driver/Src/stm32f0xx_hal_rcc.c ****     else
 293:Drivers/STM32F0xx_HAL_Driver/Src/stm32f0xx_hal_rcc.c ****     {
 294:Drivers/STM32F0xx_HAL_Driver/Src/stm32f0xx_hal_rcc.c ****       /* Set the new HSE configuration ---------------------------------------*/
 295:Drivers/STM32F0xx_HAL_Driver/Src/stm32f0xx_hal_rcc.c ****       __HAL_RCC_HSE_CONFIG(RCC_OscInitStruct->HSEState);
 193              		.loc 1 295 7
 194 005e 7B68     		ldr	r3, [r7, #4]
 195 0060 5B68     		ldr	r3, [r3, #4]
 196 0062 012B     		cmp	r3, #1
 197 0064 07D1     		bne	.L10
 198              		.loc 1 295 7 is_stmt 0 discriminator 1
 199 0066 B14B     		ldr	r3, .L76
 200 0068 1A68     		ldr	r2, [r3]
 201 006a B04B     		ldr	r3, .L76
 202 006c 8021     		movs	r1, #128
 203 006e 4902     		lsls	r1, r1, #9
 204 0070 0A43     		orrs	r2, r1
 205 0072 1A60     		str	r2, [r3]
 206 0074 2FE0     		b	.L11
 207              	.L10:
 208              		.loc 1 295 7 discriminator 2
 209 0076 7B68     		ldr	r3, [r7, #4]
 210 0078 5B68     		ldr	r3, [r3, #4]
 211 007a 002B     		cmp	r3, #0
 212 007c 0CD1     		bne	.L12
 213              		.loc 1 295 7 discriminator 3
 214 007e AB4B     		ldr	r3, .L76
 215 0080 1A68     		ldr	r2, [r3]
 216 0082 AA4B     		ldr	r3, .L76
 217 0084 AA49     		ldr	r1, .L76+4
 218 0086 0A40     		ands	r2, r1
 219 0088 1A60     		str	r2, [r3]
 220 008a A84B     		ldr	r3, .L76
 221 008c 1A68     		ldr	r2, [r3]
ARM GAS  C:\Users\ADMINI~1\AppData\Local\Temp\ccoLOygm.s 			page 10


 222 008e A74B     		ldr	r3, .L76
 223 0090 A849     		ldr	r1, .L76+8
 224 0092 0A40     		ands	r2, r1
 225 0094 1A60     		str	r2, [r3]
 226 0096 1EE0     		b	.L11
 227              	.L12:
 228              		.loc 1 295 7 discriminator 4
 229 0098 7B68     		ldr	r3, [r7, #4]
 230 009a 5B68     		ldr	r3, [r3, #4]
 231 009c 052B     		cmp	r3, #5
 232 009e 0ED1     		bne	.L13
 233              		.loc 1 295 7 discriminator 5
 234 00a0 A24B     		ldr	r3, .L76
 235 00a2 1A68     		ldr	r2, [r3]
 236 00a4 A14B     		ldr	r3, .L76
 237 00a6 8021     		movs	r1, #128
 238 00a8 C902     		lsls	r1, r1, #11
 239 00aa 0A43     		orrs	r2, r1
 240 00ac 1A60     		str	r2, [r3]
 241 00ae 9F4B     		ldr	r3, .L76
 242 00b0 1A68     		ldr	r2, [r3]
 243 00b2 9E4B     		ldr	r3, .L76
 244 00b4 8021     		movs	r1, #128
 245 00b6 4902     		lsls	r1, r1, #9
 246 00b8 0A43     		orrs	r2, r1
 247 00ba 1A60     		str	r2, [r3]
 248 00bc 0BE0     		b	.L11
 249              	.L13:
 250              		.loc 1 295 7 discriminator 6
 251 00be 9B4B     		ldr	r3, .L76
 252 00c0 1A68     		ldr	r2, [r3]
 253 00c2 9A4B     		ldr	r3, .L76
 254 00c4 9A49     		ldr	r1, .L76+4
 255 00c6 0A40     		ands	r2, r1
 256 00c8 1A60     		str	r2, [r3]
 257 00ca 984B     		ldr	r3, .L76
 258 00cc 1A68     		ldr	r2, [r3]
 259 00ce 974B     		ldr	r3, .L76
 260 00d0 9849     		ldr	r1, .L76+8
 261 00d2 0A40     		ands	r2, r1
 262 00d4 1A60     		str	r2, [r3]
 263              	.L11:
 296:Drivers/STM32F0xx_HAL_Driver/Src/stm32f0xx_hal_rcc.c ****       
 297:Drivers/STM32F0xx_HAL_Driver/Src/stm32f0xx_hal_rcc.c **** 
 298:Drivers/STM32F0xx_HAL_Driver/Src/stm32f0xx_hal_rcc.c ****        /* Check the HSE State */
 299:Drivers/STM32F0xx_HAL_Driver/Src/stm32f0xx_hal_rcc.c ****       if(RCC_OscInitStruct->HSEState != RCC_HSE_OFF)
 264              		.loc 1 299 27 is_stmt 1
 265 00d6 7B68     		ldr	r3, [r7, #4]
 266 00d8 5B68     		ldr	r3, [r3, #4]
 267              		.loc 1 299 9
 268 00da 002B     		cmp	r3, #0
 269 00dc 14D0     		beq	.L14
 300:Drivers/STM32F0xx_HAL_Driver/Src/stm32f0xx_hal_rcc.c ****       {
 301:Drivers/STM32F0xx_HAL_Driver/Src/stm32f0xx_hal_rcc.c ****         /* Get Start Tick */
 302:Drivers/STM32F0xx_HAL_Driver/Src/stm32f0xx_hal_rcc.c ****         tickstart = HAL_GetTick();
 270              		.loc 1 302 21
 271 00de FFF7FEFF 		bl	HAL_GetTick
ARM GAS  C:\Users\ADMINI~1\AppData\Local\Temp\ccoLOygm.s 			page 11


 272 00e2 0300     		movs	r3, r0
 273 00e4 3B61     		str	r3, [r7, #16]
 303:Drivers/STM32F0xx_HAL_Driver/Src/stm32f0xx_hal_rcc.c ****         
 304:Drivers/STM32F0xx_HAL_Driver/Src/stm32f0xx_hal_rcc.c ****         /* Wait till HSE is ready */
 305:Drivers/STM32F0xx_HAL_Driver/Src/stm32f0xx_hal_rcc.c ****         while(__HAL_RCC_GET_FLAG(RCC_FLAG_HSERDY) == RESET)
 274              		.loc 1 305 14
 275 00e6 08E0     		b	.L15
 276              	.L16:
 306:Drivers/STM32F0xx_HAL_Driver/Src/stm32f0xx_hal_rcc.c ****         {
 307:Drivers/STM32F0xx_HAL_Driver/Src/stm32f0xx_hal_rcc.c ****           if((HAL_GetTick() - tickstart ) > HSE_TIMEOUT_VALUE)
 277              		.loc 1 307 15
 278 00e8 FFF7FEFF 		bl	HAL_GetTick
 279 00ec 0200     		movs	r2, r0
 280              		.loc 1 307 29
 281 00ee 3B69     		ldr	r3, [r7, #16]
 282 00f0 D31A     		subs	r3, r2, r3
 283              		.loc 1 307 13
 284 00f2 642B     		cmp	r3, #100
 285 00f4 01D9     		bls	.L15
 308:Drivers/STM32F0xx_HAL_Driver/Src/stm32f0xx_hal_rcc.c ****           {
 309:Drivers/STM32F0xx_HAL_Driver/Src/stm32f0xx_hal_rcc.c ****             return HAL_TIMEOUT;
 286              		.loc 1 309 20
 287 00f6 0323     		movs	r3, #3
 288 00f8 D9E2     		b	.L9
 289              	.L15:
 305:Drivers/STM32F0xx_HAL_Driver/Src/stm32f0xx_hal_rcc.c ****         {
 290              		.loc 1 305 15
 291 00fa 8C4B     		ldr	r3, .L76
 292 00fc 1A68     		ldr	r2, [r3]
 293 00fe 8023     		movs	r3, #128
 294 0100 9B02     		lsls	r3, r3, #10
 295 0102 1340     		ands	r3, r2
 305:Drivers/STM32F0xx_HAL_Driver/Src/stm32f0xx_hal_rcc.c ****         {
 296              		.loc 1 305 14
 297 0104 F0D0     		beq	.L16
 298 0106 15E0     		b	.L5
 299              	.L14:
 310:Drivers/STM32F0xx_HAL_Driver/Src/stm32f0xx_hal_rcc.c ****           }
 311:Drivers/STM32F0xx_HAL_Driver/Src/stm32f0xx_hal_rcc.c ****         }
 312:Drivers/STM32F0xx_HAL_Driver/Src/stm32f0xx_hal_rcc.c ****       }
 313:Drivers/STM32F0xx_HAL_Driver/Src/stm32f0xx_hal_rcc.c ****       else
 314:Drivers/STM32F0xx_HAL_Driver/Src/stm32f0xx_hal_rcc.c ****       {
 315:Drivers/STM32F0xx_HAL_Driver/Src/stm32f0xx_hal_rcc.c ****         /* Get Start Tick */
 316:Drivers/STM32F0xx_HAL_Driver/Src/stm32f0xx_hal_rcc.c ****         tickstart = HAL_GetTick();
 300              		.loc 1 316 21
 301 0108 FFF7FEFF 		bl	HAL_GetTick
 302 010c 0300     		movs	r3, r0
 303 010e 3B61     		str	r3, [r7, #16]
 317:Drivers/STM32F0xx_HAL_Driver/Src/stm32f0xx_hal_rcc.c ****         
 318:Drivers/STM32F0xx_HAL_Driver/Src/stm32f0xx_hal_rcc.c ****         /* Wait till HSE is disabled */
 319:Drivers/STM32F0xx_HAL_Driver/Src/stm32f0xx_hal_rcc.c ****         while(__HAL_RCC_GET_FLAG(RCC_FLAG_HSERDY) != RESET)
 304              		.loc 1 319 14
 305 0110 08E0     		b	.L17
 306              	.L18:
 320:Drivers/STM32F0xx_HAL_Driver/Src/stm32f0xx_hal_rcc.c ****         {
 321:Drivers/STM32F0xx_HAL_Driver/Src/stm32f0xx_hal_rcc.c ****            if((HAL_GetTick() - tickstart ) > HSE_TIMEOUT_VALUE)
 307              		.loc 1 321 16
ARM GAS  C:\Users\ADMINI~1\AppData\Local\Temp\ccoLOygm.s 			page 12


 308 0112 FFF7FEFF 		bl	HAL_GetTick
 309 0116 0200     		movs	r2, r0
 310              		.loc 1 321 30
 311 0118 3B69     		ldr	r3, [r7, #16]
 312 011a D31A     		subs	r3, r2, r3
 313              		.loc 1 321 14
 314 011c 642B     		cmp	r3, #100
 315 011e 01D9     		bls	.L17
 322:Drivers/STM32F0xx_HAL_Driver/Src/stm32f0xx_hal_rcc.c ****           {
 323:Drivers/STM32F0xx_HAL_Driver/Src/stm32f0xx_hal_rcc.c ****             return HAL_TIMEOUT;
 316              		.loc 1 323 20
 317 0120 0323     		movs	r3, #3
 318 0122 C4E2     		b	.L9
 319              	.L17:
 319:Drivers/STM32F0xx_HAL_Driver/Src/stm32f0xx_hal_rcc.c ****         {
 320              		.loc 1 319 15
 321 0124 814B     		ldr	r3, .L76
 322 0126 1A68     		ldr	r2, [r3]
 323 0128 8023     		movs	r3, #128
 324 012a 9B02     		lsls	r3, r3, #10
 325 012c 1340     		ands	r3, r2
 319:Drivers/STM32F0xx_HAL_Driver/Src/stm32f0xx_hal_rcc.c ****         {
 326              		.loc 1 319 14
 327 012e F0D1     		bne	.L18
 328 0130 00E0     		b	.L5
 329              	.L74:
 287:Drivers/STM32F0xx_HAL_Driver/Src/stm32f0xx_hal_rcc.c ****       {
 330              		.loc 1 287 9
 331 0132 C046     		nop
 332              	.L5:
 324:Drivers/STM32F0xx_HAL_Driver/Src/stm32f0xx_hal_rcc.c ****           }
 325:Drivers/STM32F0xx_HAL_Driver/Src/stm32f0xx_hal_rcc.c ****         }
 326:Drivers/STM32F0xx_HAL_Driver/Src/stm32f0xx_hal_rcc.c ****       }
 327:Drivers/STM32F0xx_HAL_Driver/Src/stm32f0xx_hal_rcc.c ****     }
 328:Drivers/STM32F0xx_HAL_Driver/Src/stm32f0xx_hal_rcc.c ****   }
 329:Drivers/STM32F0xx_HAL_Driver/Src/stm32f0xx_hal_rcc.c ****   /*----------------------------- HSI Configuration --------------------------*/ 
 330:Drivers/STM32F0xx_HAL_Driver/Src/stm32f0xx_hal_rcc.c ****   if(((RCC_OscInitStruct->OscillatorType) & RCC_OSCILLATORTYPE_HSI) == RCC_OSCILLATORTYPE_HSI)
 333              		.loc 1 330 25
 334 0134 7B68     		ldr	r3, [r7, #4]
 335 0136 1B68     		ldr	r3, [r3]
 336              		.loc 1 330 43
 337 0138 0222     		movs	r2, #2
 338 013a 1340     		ands	r3, r2
 339              		.loc 1 330 5
 340 013c 00D1     		bne	.LCB274
 341 013e 6CE0     		b	.L19	@long jump
 342              	.LCB274:
 331:Drivers/STM32F0xx_HAL_Driver/Src/stm32f0xx_hal_rcc.c ****   {
 332:Drivers/STM32F0xx_HAL_Driver/Src/stm32f0xx_hal_rcc.c ****     /* Check the parameters */
 333:Drivers/STM32F0xx_HAL_Driver/Src/stm32f0xx_hal_rcc.c ****     assert_param(IS_RCC_HSI(RCC_OscInitStruct->HSIState));
 334:Drivers/STM32F0xx_HAL_Driver/Src/stm32f0xx_hal_rcc.c ****     assert_param(IS_RCC_CALIBRATION_VALUE(RCC_OscInitStruct->HSICalibrationValue));
 335:Drivers/STM32F0xx_HAL_Driver/Src/stm32f0xx_hal_rcc.c ****     
 336:Drivers/STM32F0xx_HAL_Driver/Src/stm32f0xx_hal_rcc.c ****     /* Check if HSI is used as system clock or as PLL source when PLL is selected as system clock *
 337:Drivers/STM32F0xx_HAL_Driver/Src/stm32f0xx_hal_rcc.c ****     if((__HAL_RCC_GET_SYSCLK_SOURCE() == RCC_SYSCLKSOURCE_STATUS_HSI) 
 343              		.loc 1 337 9
 344 0140 7A4B     		ldr	r3, .L76
 345 0142 5B68     		ldr	r3, [r3, #4]
ARM GAS  C:\Users\ADMINI~1\AppData\Local\Temp\ccoLOygm.s 			page 13


 346 0144 0C22     		movs	r2, #12
 347 0146 1340     		ands	r3, r2
 348              		.loc 1 337 7
 349 0148 0ED0     		beq	.L20
 338:Drivers/STM32F0xx_HAL_Driver/Src/stm32f0xx_hal_rcc.c ****        || ((__HAL_RCC_GET_SYSCLK_SOURCE() == RCC_SYSCLKSOURCE_STATUS_PLLCLK) && (__HAL_RCC_GET_PLL_
 350              		.loc 1 338 13
 351 014a 784B     		ldr	r3, .L76
 352 014c 5B68     		ldr	r3, [r3, #4]
 353 014e 0C22     		movs	r2, #12
 354 0150 1340     		ands	r3, r2
 355              		.loc 1 338 8
 356 0152 082B     		cmp	r3, #8
 357 0154 1FD1     		bne	.L21
 358              		.loc 1 338 82 discriminator 1
 359 0156 754B     		ldr	r3, .L76
 360 0158 5A68     		ldr	r2, [r3, #4]
 361 015a C023     		movs	r3, #192
 362 015c 5B02     		lsls	r3, r3, #9
 363 015e 1A40     		ands	r2, r3
 364              		.loc 1 338 78 discriminator 1
 365 0160 8023     		movs	r3, #128
 366 0162 1B02     		lsls	r3, r3, #8
 367 0164 9A42     		cmp	r2, r3
 368 0166 16D1     		bne	.L21
 369              	.L20:
 339:Drivers/STM32F0xx_HAL_Driver/Src/stm32f0xx_hal_rcc.c ****     {
 340:Drivers/STM32F0xx_HAL_Driver/Src/stm32f0xx_hal_rcc.c ****       /* When HSI is used as system clock it will not disabled */
 341:Drivers/STM32F0xx_HAL_Driver/Src/stm32f0xx_hal_rcc.c ****       if((__HAL_RCC_GET_FLAG(RCC_FLAG_HSIRDY) != RESET) && (RCC_OscInitStruct->HSIState != RCC_HSI_
 370              		.loc 1 341 11
 371 0168 704B     		ldr	r3, .L76
 372 016a 1B68     		ldr	r3, [r3]
 373 016c 0222     		movs	r2, #2
 374 016e 1340     		ands	r3, r2
 375              		.loc 1 341 9
 376 0170 05D0     		beq	.L22
 377              		.loc 1 341 78 discriminator 1
 378 0172 7B68     		ldr	r3, [r7, #4]
 379 0174 DB68     		ldr	r3, [r3, #12]
 380              		.loc 1 341 57 discriminator 1
 381 0176 012B     		cmp	r3, #1
 382 0178 01D0     		beq	.L22
 342:Drivers/STM32F0xx_HAL_Driver/Src/stm32f0xx_hal_rcc.c ****       {
 343:Drivers/STM32F0xx_HAL_Driver/Src/stm32f0xx_hal_rcc.c ****         return HAL_ERROR;
 383              		.loc 1 343 16
 384 017a 0123     		movs	r3, #1
 385 017c 97E2     		b	.L9
 386              	.L22:
 344:Drivers/STM32F0xx_HAL_Driver/Src/stm32f0xx_hal_rcc.c ****       }
 345:Drivers/STM32F0xx_HAL_Driver/Src/stm32f0xx_hal_rcc.c ****       /* Otherwise, just the calibration is allowed */
 346:Drivers/STM32F0xx_HAL_Driver/Src/stm32f0xx_hal_rcc.c ****       else
 347:Drivers/STM32F0xx_HAL_Driver/Src/stm32f0xx_hal_rcc.c ****       {
 348:Drivers/STM32F0xx_HAL_Driver/Src/stm32f0xx_hal_rcc.c ****         /* Adjusts the Internal High Speed oscillator (HSI) calibration value.*/
 349:Drivers/STM32F0xx_HAL_Driver/Src/stm32f0xx_hal_rcc.c ****         __HAL_RCC_HSI_CALIBRATIONVALUE_ADJUST(RCC_OscInitStruct->HSICalibrationValue);
 387              		.loc 1 349 9
 388 017e 6B4B     		ldr	r3, .L76
 389 0180 1B68     		ldr	r3, [r3]
 390 0182 F822     		movs	r2, #248
ARM GAS  C:\Users\ADMINI~1\AppData\Local\Temp\ccoLOygm.s 			page 14


 391 0184 9343     		bics	r3, r2
 392 0186 1900     		movs	r1, r3
 393 0188 7B68     		ldr	r3, [r7, #4]
 394 018a 1B69     		ldr	r3, [r3, #16]
 395 018c DA00     		lsls	r2, r3, #3
 396 018e 674B     		ldr	r3, .L76
 397 0190 0A43     		orrs	r2, r1
 398 0192 1A60     		str	r2, [r3]
 341:Drivers/STM32F0xx_HAL_Driver/Src/stm32f0xx_hal_rcc.c ****       {
 399              		.loc 1 341 9
 400 0194 41E0     		b	.L19
 401              	.L21:
 350:Drivers/STM32F0xx_HAL_Driver/Src/stm32f0xx_hal_rcc.c ****       }
 351:Drivers/STM32F0xx_HAL_Driver/Src/stm32f0xx_hal_rcc.c ****     }
 352:Drivers/STM32F0xx_HAL_Driver/Src/stm32f0xx_hal_rcc.c ****     else
 353:Drivers/STM32F0xx_HAL_Driver/Src/stm32f0xx_hal_rcc.c ****     {
 354:Drivers/STM32F0xx_HAL_Driver/Src/stm32f0xx_hal_rcc.c ****       /* Check the HSI State */
 355:Drivers/STM32F0xx_HAL_Driver/Src/stm32f0xx_hal_rcc.c ****       if(RCC_OscInitStruct->HSIState != RCC_HSI_OFF)
 402              		.loc 1 355 27
 403 0196 7B68     		ldr	r3, [r7, #4]
 404 0198 DB68     		ldr	r3, [r3, #12]
 405              		.loc 1 355 9
 406 019a 002B     		cmp	r3, #0
 407 019c 24D0     		beq	.L23
 356:Drivers/STM32F0xx_HAL_Driver/Src/stm32f0xx_hal_rcc.c ****       {
 357:Drivers/STM32F0xx_HAL_Driver/Src/stm32f0xx_hal_rcc.c ****        /* Enable the Internal High Speed oscillator (HSI). */
 358:Drivers/STM32F0xx_HAL_Driver/Src/stm32f0xx_hal_rcc.c ****         __HAL_RCC_HSI_ENABLE();
 408              		.loc 1 358 9
 409 019e 634B     		ldr	r3, .L76
 410 01a0 1A68     		ldr	r2, [r3]
 411 01a2 624B     		ldr	r3, .L76
 412 01a4 0121     		movs	r1, #1
 413 01a6 0A43     		orrs	r2, r1
 414 01a8 1A60     		str	r2, [r3]
 359:Drivers/STM32F0xx_HAL_Driver/Src/stm32f0xx_hal_rcc.c ****         
 360:Drivers/STM32F0xx_HAL_Driver/Src/stm32f0xx_hal_rcc.c ****         /* Get Start Tick */
 361:Drivers/STM32F0xx_HAL_Driver/Src/stm32f0xx_hal_rcc.c ****         tickstart = HAL_GetTick();
 415              		.loc 1 361 21
 416 01aa FFF7FEFF 		bl	HAL_GetTick
 417 01ae 0300     		movs	r3, r0
 418 01b0 3B61     		str	r3, [r7, #16]
 362:Drivers/STM32F0xx_HAL_Driver/Src/stm32f0xx_hal_rcc.c ****         
 363:Drivers/STM32F0xx_HAL_Driver/Src/stm32f0xx_hal_rcc.c ****         /* Wait till HSI is ready */
 364:Drivers/STM32F0xx_HAL_Driver/Src/stm32f0xx_hal_rcc.c ****         while(__HAL_RCC_GET_FLAG(RCC_FLAG_HSIRDY) == RESET)
 419              		.loc 1 364 14
 420 01b2 08E0     		b	.L24
 421              	.L25:
 365:Drivers/STM32F0xx_HAL_Driver/Src/stm32f0xx_hal_rcc.c ****         {
 366:Drivers/STM32F0xx_HAL_Driver/Src/stm32f0xx_hal_rcc.c ****           if((HAL_GetTick() - tickstart ) > HSI_TIMEOUT_VALUE)
 422              		.loc 1 366 15
 423 01b4 FFF7FEFF 		bl	HAL_GetTick
 424 01b8 0200     		movs	r2, r0
 425              		.loc 1 366 29
 426 01ba 3B69     		ldr	r3, [r7, #16]
 427 01bc D31A     		subs	r3, r2, r3
 428              		.loc 1 366 13
 429 01be 022B     		cmp	r3, #2
ARM GAS  C:\Users\ADMINI~1\AppData\Local\Temp\ccoLOygm.s 			page 15


 430 01c0 01D9     		bls	.L24
 367:Drivers/STM32F0xx_HAL_Driver/Src/stm32f0xx_hal_rcc.c ****           {
 368:Drivers/STM32F0xx_HAL_Driver/Src/stm32f0xx_hal_rcc.c ****             return HAL_TIMEOUT;
 431              		.loc 1 368 20
 432 01c2 0323     		movs	r3, #3
 433 01c4 73E2     		b	.L9
 434              	.L24:
 364:Drivers/STM32F0xx_HAL_Driver/Src/stm32f0xx_hal_rcc.c ****         {
 435              		.loc 1 364 15
 436 01c6 594B     		ldr	r3, .L76
 437 01c8 1B68     		ldr	r3, [r3]
 438 01ca 0222     		movs	r2, #2
 439 01cc 1340     		ands	r3, r2
 364:Drivers/STM32F0xx_HAL_Driver/Src/stm32f0xx_hal_rcc.c ****         {
 440              		.loc 1 364 14
 441 01ce F1D0     		beq	.L25
 369:Drivers/STM32F0xx_HAL_Driver/Src/stm32f0xx_hal_rcc.c ****           }
 370:Drivers/STM32F0xx_HAL_Driver/Src/stm32f0xx_hal_rcc.c ****         }
 371:Drivers/STM32F0xx_HAL_Driver/Src/stm32f0xx_hal_rcc.c ****                 
 372:Drivers/STM32F0xx_HAL_Driver/Src/stm32f0xx_hal_rcc.c ****         /* Adjusts the Internal High Speed oscillator (HSI) calibration value.*/
 373:Drivers/STM32F0xx_HAL_Driver/Src/stm32f0xx_hal_rcc.c ****         __HAL_RCC_HSI_CALIBRATIONVALUE_ADJUST(RCC_OscInitStruct->HSICalibrationValue);
 442              		.loc 1 373 9
 443 01d0 564B     		ldr	r3, .L76
 444 01d2 1B68     		ldr	r3, [r3]
 445 01d4 F822     		movs	r2, #248
 446 01d6 9343     		bics	r3, r2
 447 01d8 1900     		movs	r1, r3
 448 01da 7B68     		ldr	r3, [r7, #4]
 449 01dc 1B69     		ldr	r3, [r3, #16]
 450 01de DA00     		lsls	r2, r3, #3
 451 01e0 524B     		ldr	r3, .L76
 452 01e2 0A43     		orrs	r2, r1
 453 01e4 1A60     		str	r2, [r3]
 454 01e6 18E0     		b	.L19
 455              	.L23:
 374:Drivers/STM32F0xx_HAL_Driver/Src/stm32f0xx_hal_rcc.c ****       }
 375:Drivers/STM32F0xx_HAL_Driver/Src/stm32f0xx_hal_rcc.c ****       else
 376:Drivers/STM32F0xx_HAL_Driver/Src/stm32f0xx_hal_rcc.c ****       {
 377:Drivers/STM32F0xx_HAL_Driver/Src/stm32f0xx_hal_rcc.c ****         /* Disable the Internal High Speed oscillator (HSI). */
 378:Drivers/STM32F0xx_HAL_Driver/Src/stm32f0xx_hal_rcc.c ****         __HAL_RCC_HSI_DISABLE();
 456              		.loc 1 378 9
 457 01e8 504B     		ldr	r3, .L76
 458 01ea 1A68     		ldr	r2, [r3]
 459 01ec 4F4B     		ldr	r3, .L76
 460 01ee 0121     		movs	r1, #1
 461 01f0 8A43     		bics	r2, r1
 462 01f2 1A60     		str	r2, [r3]
 379:Drivers/STM32F0xx_HAL_Driver/Src/stm32f0xx_hal_rcc.c ****         
 380:Drivers/STM32F0xx_HAL_Driver/Src/stm32f0xx_hal_rcc.c ****         /* Get Start Tick */
 381:Drivers/STM32F0xx_HAL_Driver/Src/stm32f0xx_hal_rcc.c ****         tickstart = HAL_GetTick();
 463              		.loc 1 381 21
 464 01f4 FFF7FEFF 		bl	HAL_GetTick
 465 01f8 0300     		movs	r3, r0
 466 01fa 3B61     		str	r3, [r7, #16]
 382:Drivers/STM32F0xx_HAL_Driver/Src/stm32f0xx_hal_rcc.c ****         
 383:Drivers/STM32F0xx_HAL_Driver/Src/stm32f0xx_hal_rcc.c ****         /* Wait till HSI is disabled */
 384:Drivers/STM32F0xx_HAL_Driver/Src/stm32f0xx_hal_rcc.c ****         while(__HAL_RCC_GET_FLAG(RCC_FLAG_HSIRDY) != RESET)
ARM GAS  C:\Users\ADMINI~1\AppData\Local\Temp\ccoLOygm.s 			page 16


 467              		.loc 1 384 14
 468 01fc 08E0     		b	.L26
 469              	.L27:
 385:Drivers/STM32F0xx_HAL_Driver/Src/stm32f0xx_hal_rcc.c ****         {
 386:Drivers/STM32F0xx_HAL_Driver/Src/stm32f0xx_hal_rcc.c ****           if((HAL_GetTick() - tickstart ) > HSI_TIMEOUT_VALUE)
 470              		.loc 1 386 15
 471 01fe FFF7FEFF 		bl	HAL_GetTick
 472 0202 0200     		movs	r2, r0
 473              		.loc 1 386 29
 474 0204 3B69     		ldr	r3, [r7, #16]
 475 0206 D31A     		subs	r3, r2, r3
 476              		.loc 1 386 13
 477 0208 022B     		cmp	r3, #2
 478 020a 01D9     		bls	.L26
 387:Drivers/STM32F0xx_HAL_Driver/Src/stm32f0xx_hal_rcc.c ****           {
 388:Drivers/STM32F0xx_HAL_Driver/Src/stm32f0xx_hal_rcc.c ****             return HAL_TIMEOUT;
 479              		.loc 1 388 20
 480 020c 0323     		movs	r3, #3
 481 020e 4EE2     		b	.L9
 482              	.L26:
 384:Drivers/STM32F0xx_HAL_Driver/Src/stm32f0xx_hal_rcc.c ****         {
 483              		.loc 1 384 15
 484 0210 464B     		ldr	r3, .L76
 485 0212 1B68     		ldr	r3, [r3]
 486 0214 0222     		movs	r2, #2
 487 0216 1340     		ands	r3, r2
 384:Drivers/STM32F0xx_HAL_Driver/Src/stm32f0xx_hal_rcc.c ****         {
 488              		.loc 1 384 14
 489 0218 F1D1     		bne	.L27
 490              	.L19:
 389:Drivers/STM32F0xx_HAL_Driver/Src/stm32f0xx_hal_rcc.c ****           }
 390:Drivers/STM32F0xx_HAL_Driver/Src/stm32f0xx_hal_rcc.c ****         }
 391:Drivers/STM32F0xx_HAL_Driver/Src/stm32f0xx_hal_rcc.c ****       }
 392:Drivers/STM32F0xx_HAL_Driver/Src/stm32f0xx_hal_rcc.c ****     }
 393:Drivers/STM32F0xx_HAL_Driver/Src/stm32f0xx_hal_rcc.c ****   }
 394:Drivers/STM32F0xx_HAL_Driver/Src/stm32f0xx_hal_rcc.c ****   /*------------------------------ LSI Configuration -------------------------*/ 
 395:Drivers/STM32F0xx_HAL_Driver/Src/stm32f0xx_hal_rcc.c ****   if(((RCC_OscInitStruct->OscillatorType) & RCC_OSCILLATORTYPE_LSI) == RCC_OSCILLATORTYPE_LSI)
 491              		.loc 1 395 25
 492 021a 7B68     		ldr	r3, [r7, #4]
 493 021c 1B68     		ldr	r3, [r3]
 494              		.loc 1 395 43
 495 021e 0822     		movs	r2, #8
 496 0220 1340     		ands	r3, r2
 497              		.loc 1 395 5
 498 0222 36D0     		beq	.L28
 396:Drivers/STM32F0xx_HAL_Driver/Src/stm32f0xx_hal_rcc.c ****   {
 397:Drivers/STM32F0xx_HAL_Driver/Src/stm32f0xx_hal_rcc.c ****     /* Check the parameters */
 398:Drivers/STM32F0xx_HAL_Driver/Src/stm32f0xx_hal_rcc.c ****     assert_param(IS_RCC_LSI(RCC_OscInitStruct->LSIState));
 399:Drivers/STM32F0xx_HAL_Driver/Src/stm32f0xx_hal_rcc.c ****     
 400:Drivers/STM32F0xx_HAL_Driver/Src/stm32f0xx_hal_rcc.c ****     /* Check the LSI State */
 401:Drivers/STM32F0xx_HAL_Driver/Src/stm32f0xx_hal_rcc.c ****     if(RCC_OscInitStruct->LSIState != RCC_LSI_OFF)
 499              		.loc 1 401 25
 500 0224 7B68     		ldr	r3, [r7, #4]
 501 0226 DB69     		ldr	r3, [r3, #28]
 502              		.loc 1 401 7
 503 0228 002B     		cmp	r3, #0
 504 022a 19D0     		beq	.L29
ARM GAS  C:\Users\ADMINI~1\AppData\Local\Temp\ccoLOygm.s 			page 17


 402:Drivers/STM32F0xx_HAL_Driver/Src/stm32f0xx_hal_rcc.c ****     {
 403:Drivers/STM32F0xx_HAL_Driver/Src/stm32f0xx_hal_rcc.c ****       /* Enable the Internal Low Speed oscillator (LSI). */
 404:Drivers/STM32F0xx_HAL_Driver/Src/stm32f0xx_hal_rcc.c ****       __HAL_RCC_LSI_ENABLE();
 505              		.loc 1 404 7
 506 022c 3F4B     		ldr	r3, .L76
 507 022e 5A6A     		ldr	r2, [r3, #36]
 508 0230 3E4B     		ldr	r3, .L76
 509 0232 0121     		movs	r1, #1
 510 0234 0A43     		orrs	r2, r1
 511 0236 5A62     		str	r2, [r3, #36]
 405:Drivers/STM32F0xx_HAL_Driver/Src/stm32f0xx_hal_rcc.c ****       
 406:Drivers/STM32F0xx_HAL_Driver/Src/stm32f0xx_hal_rcc.c ****       /* Get Start Tick */
 407:Drivers/STM32F0xx_HAL_Driver/Src/stm32f0xx_hal_rcc.c ****       tickstart = HAL_GetTick();
 512              		.loc 1 407 19
 513 0238 FFF7FEFF 		bl	HAL_GetTick
 514 023c 0300     		movs	r3, r0
 515 023e 3B61     		str	r3, [r7, #16]
 408:Drivers/STM32F0xx_HAL_Driver/Src/stm32f0xx_hal_rcc.c ****       
 409:Drivers/STM32F0xx_HAL_Driver/Src/stm32f0xx_hal_rcc.c ****       /* Wait till LSI is ready */  
 410:Drivers/STM32F0xx_HAL_Driver/Src/stm32f0xx_hal_rcc.c ****       while(__HAL_RCC_GET_FLAG(RCC_FLAG_LSIRDY) == RESET)
 516              		.loc 1 410 12
 517 0240 08E0     		b	.L30
 518              	.L31:
 411:Drivers/STM32F0xx_HAL_Driver/Src/stm32f0xx_hal_rcc.c ****       {
 412:Drivers/STM32F0xx_HAL_Driver/Src/stm32f0xx_hal_rcc.c ****         if((HAL_GetTick() - tickstart ) > LSI_TIMEOUT_VALUE)
 519              		.loc 1 412 13
 520 0242 FFF7FEFF 		bl	HAL_GetTick
 521 0246 0200     		movs	r2, r0
 522              		.loc 1 412 27
 523 0248 3B69     		ldr	r3, [r7, #16]
 524 024a D31A     		subs	r3, r2, r3
 525              		.loc 1 412 11
 526 024c 022B     		cmp	r3, #2
 527 024e 01D9     		bls	.L30
 413:Drivers/STM32F0xx_HAL_Driver/Src/stm32f0xx_hal_rcc.c ****         {
 414:Drivers/STM32F0xx_HAL_Driver/Src/stm32f0xx_hal_rcc.c ****           return HAL_TIMEOUT;
 528              		.loc 1 414 18
 529 0250 0323     		movs	r3, #3
 530 0252 2CE2     		b	.L9
 531              	.L30:
 410:Drivers/STM32F0xx_HAL_Driver/Src/stm32f0xx_hal_rcc.c ****       {
 532              		.loc 1 410 13
 533 0254 354B     		ldr	r3, .L76
 534 0256 5B6A     		ldr	r3, [r3, #36]
 535 0258 0222     		movs	r2, #2
 536 025a 1340     		ands	r3, r2
 410:Drivers/STM32F0xx_HAL_Driver/Src/stm32f0xx_hal_rcc.c ****       {
 537              		.loc 1 410 12
 538 025c F1D0     		beq	.L31
 539 025e 18E0     		b	.L28
 540              	.L29:
 415:Drivers/STM32F0xx_HAL_Driver/Src/stm32f0xx_hal_rcc.c ****         }
 416:Drivers/STM32F0xx_HAL_Driver/Src/stm32f0xx_hal_rcc.c ****       }
 417:Drivers/STM32F0xx_HAL_Driver/Src/stm32f0xx_hal_rcc.c ****     }
 418:Drivers/STM32F0xx_HAL_Driver/Src/stm32f0xx_hal_rcc.c ****     else
 419:Drivers/STM32F0xx_HAL_Driver/Src/stm32f0xx_hal_rcc.c ****     {
 420:Drivers/STM32F0xx_HAL_Driver/Src/stm32f0xx_hal_rcc.c ****       /* Disable the Internal Low Speed oscillator (LSI). */
ARM GAS  C:\Users\ADMINI~1\AppData\Local\Temp\ccoLOygm.s 			page 18


 421:Drivers/STM32F0xx_HAL_Driver/Src/stm32f0xx_hal_rcc.c ****       __HAL_RCC_LSI_DISABLE();
 541              		.loc 1 421 7
 542 0260 324B     		ldr	r3, .L76
 543 0262 5A6A     		ldr	r2, [r3, #36]
 544 0264 314B     		ldr	r3, .L76
 545 0266 0121     		movs	r1, #1
 546 0268 8A43     		bics	r2, r1
 547 026a 5A62     		str	r2, [r3, #36]
 422:Drivers/STM32F0xx_HAL_Driver/Src/stm32f0xx_hal_rcc.c ****       
 423:Drivers/STM32F0xx_HAL_Driver/Src/stm32f0xx_hal_rcc.c ****       /* Get Start Tick */
 424:Drivers/STM32F0xx_HAL_Driver/Src/stm32f0xx_hal_rcc.c ****       tickstart = HAL_GetTick();
 548              		.loc 1 424 19
 549 026c FFF7FEFF 		bl	HAL_GetTick
 550 0270 0300     		movs	r3, r0
 551 0272 3B61     		str	r3, [r7, #16]
 425:Drivers/STM32F0xx_HAL_Driver/Src/stm32f0xx_hal_rcc.c ****       
 426:Drivers/STM32F0xx_HAL_Driver/Src/stm32f0xx_hal_rcc.c ****       /* Wait till LSI is disabled */  
 427:Drivers/STM32F0xx_HAL_Driver/Src/stm32f0xx_hal_rcc.c ****       while(__HAL_RCC_GET_FLAG(RCC_FLAG_LSIRDY) != RESET)
 552              		.loc 1 427 12
 553 0274 08E0     		b	.L32
 554              	.L33:
 428:Drivers/STM32F0xx_HAL_Driver/Src/stm32f0xx_hal_rcc.c ****       {
 429:Drivers/STM32F0xx_HAL_Driver/Src/stm32f0xx_hal_rcc.c ****         if((HAL_GetTick() - tickstart ) > LSI_TIMEOUT_VALUE)
 555              		.loc 1 429 13
 556 0276 FFF7FEFF 		bl	HAL_GetTick
 557 027a 0200     		movs	r2, r0
 558              		.loc 1 429 27
 559 027c 3B69     		ldr	r3, [r7, #16]
 560 027e D31A     		subs	r3, r2, r3
 561              		.loc 1 429 11
 562 0280 022B     		cmp	r3, #2
 563 0282 01D9     		bls	.L32
 430:Drivers/STM32F0xx_HAL_Driver/Src/stm32f0xx_hal_rcc.c ****         {
 431:Drivers/STM32F0xx_HAL_Driver/Src/stm32f0xx_hal_rcc.c ****           return HAL_TIMEOUT;
 564              		.loc 1 431 18
 565 0284 0323     		movs	r3, #3
 566 0286 12E2     		b	.L9
 567              	.L32:
 427:Drivers/STM32F0xx_HAL_Driver/Src/stm32f0xx_hal_rcc.c ****       {
 568              		.loc 1 427 13
 569 0288 284B     		ldr	r3, .L76
 570 028a 5B6A     		ldr	r3, [r3, #36]
 571 028c 0222     		movs	r2, #2
 572 028e 1340     		ands	r3, r2
 427:Drivers/STM32F0xx_HAL_Driver/Src/stm32f0xx_hal_rcc.c ****       {
 573              		.loc 1 427 12
 574 0290 F1D1     		bne	.L33
 575              	.L28:
 432:Drivers/STM32F0xx_HAL_Driver/Src/stm32f0xx_hal_rcc.c ****         }
 433:Drivers/STM32F0xx_HAL_Driver/Src/stm32f0xx_hal_rcc.c ****       }
 434:Drivers/STM32F0xx_HAL_Driver/Src/stm32f0xx_hal_rcc.c ****     }
 435:Drivers/STM32F0xx_HAL_Driver/Src/stm32f0xx_hal_rcc.c ****   }
 436:Drivers/STM32F0xx_HAL_Driver/Src/stm32f0xx_hal_rcc.c ****   /*------------------------------ LSE Configuration -------------------------*/ 
 437:Drivers/STM32F0xx_HAL_Driver/Src/stm32f0xx_hal_rcc.c ****   if(((RCC_OscInitStruct->OscillatorType) & RCC_OSCILLATORTYPE_LSE) == RCC_OSCILLATORTYPE_LSE)
 576              		.loc 1 437 25
 577 0292 7B68     		ldr	r3, [r7, #4]
 578 0294 1B68     		ldr	r3, [r3]
ARM GAS  C:\Users\ADMINI~1\AppData\Local\Temp\ccoLOygm.s 			page 19


 579              		.loc 1 437 43
 580 0296 0422     		movs	r2, #4
 581 0298 1340     		ands	r3, r2
 582              		.loc 1 437 5
 583 029a 00D1     		bne	.LCB487
 584 029c B4E0     		b	.L34	@long jump
 585              	.LCB487:
 586              	.LBB2:
 438:Drivers/STM32F0xx_HAL_Driver/Src/stm32f0xx_hal_rcc.c ****   {
 439:Drivers/STM32F0xx_HAL_Driver/Src/stm32f0xx_hal_rcc.c ****     FlagStatus       pwrclkchanged = RESET;
 587              		.loc 1 439 22
 588 029e 1720     		movs	r0, #23
 589 02a0 3B18     		adds	r3, r7, r0
 590 02a2 0022     		movs	r2, #0
 591 02a4 1A70     		strb	r2, [r3]
 440:Drivers/STM32F0xx_HAL_Driver/Src/stm32f0xx_hal_rcc.c ****     
 441:Drivers/STM32F0xx_HAL_Driver/Src/stm32f0xx_hal_rcc.c ****     /* Check the parameters */
 442:Drivers/STM32F0xx_HAL_Driver/Src/stm32f0xx_hal_rcc.c ****     assert_param(IS_RCC_LSE(RCC_OscInitStruct->LSEState));
 443:Drivers/STM32F0xx_HAL_Driver/Src/stm32f0xx_hal_rcc.c **** 
 444:Drivers/STM32F0xx_HAL_Driver/Src/stm32f0xx_hal_rcc.c ****     /* Update LSE configuration in Backup Domain control register    */
 445:Drivers/STM32F0xx_HAL_Driver/Src/stm32f0xx_hal_rcc.c ****     /* Requires to enable write access to Backup Domain of necessary */
 446:Drivers/STM32F0xx_HAL_Driver/Src/stm32f0xx_hal_rcc.c ****     if(__HAL_RCC_PWR_IS_CLK_DISABLED())
 592              		.loc 1 446 8
 593 02a6 214B     		ldr	r3, .L76
 594 02a8 DA69     		ldr	r2, [r3, #28]
 595 02aa 8023     		movs	r3, #128
 596 02ac 5B05     		lsls	r3, r3, #21
 597 02ae 1340     		ands	r3, r2
 598              		.loc 1 446 7
 599 02b0 10D1     		bne	.L35
 600              	.LBB3:
 447:Drivers/STM32F0xx_HAL_Driver/Src/stm32f0xx_hal_rcc.c ****     {
 448:Drivers/STM32F0xx_HAL_Driver/Src/stm32f0xx_hal_rcc.c ****       __HAL_RCC_PWR_CLK_ENABLE();
 601              		.loc 1 448 7
 602 02b2 1E4B     		ldr	r3, .L76
 603 02b4 DA69     		ldr	r2, [r3, #28]
 604 02b6 1D4B     		ldr	r3, .L76
 605 02b8 8021     		movs	r1, #128
 606 02ba 4905     		lsls	r1, r1, #21
 607 02bc 0A43     		orrs	r2, r1
 608 02be DA61     		str	r2, [r3, #28]
 609 02c0 1A4B     		ldr	r3, .L76
 610 02c2 DA69     		ldr	r2, [r3, #28]
 611 02c4 8023     		movs	r3, #128
 612 02c6 5B05     		lsls	r3, r3, #21
 613 02c8 1340     		ands	r3, r2
 614 02ca FB60     		str	r3, [r7, #12]
 615 02cc FB68     		ldr	r3, [r7, #12]
 616              	.LBE3:
 449:Drivers/STM32F0xx_HAL_Driver/Src/stm32f0xx_hal_rcc.c ****       pwrclkchanged = SET;
 617              		.loc 1 449 21
 618 02ce 3B18     		adds	r3, r7, r0
 619 02d0 0122     		movs	r2, #1
 620 02d2 1A70     		strb	r2, [r3]
 621              	.L35:
 450:Drivers/STM32F0xx_HAL_Driver/Src/stm32f0xx_hal_rcc.c ****     }
 451:Drivers/STM32F0xx_HAL_Driver/Src/stm32f0xx_hal_rcc.c ****     
ARM GAS  C:\Users\ADMINI~1\AppData\Local\Temp\ccoLOygm.s 			page 20


 452:Drivers/STM32F0xx_HAL_Driver/Src/stm32f0xx_hal_rcc.c ****     if(HAL_IS_BIT_CLR(PWR->CR, PWR_CR_DBP))
 622              		.loc 1 452 8
 623 02d4 184B     		ldr	r3, .L76+12
 624 02d6 1A68     		ldr	r2, [r3]
 625 02d8 8023     		movs	r3, #128
 626 02da 5B00     		lsls	r3, r3, #1
 627 02dc 1340     		ands	r3, r2
 628              		.loc 1 452 7
 629 02de 1AD1     		bne	.L36
 453:Drivers/STM32F0xx_HAL_Driver/Src/stm32f0xx_hal_rcc.c ****     {
 454:Drivers/STM32F0xx_HAL_Driver/Src/stm32f0xx_hal_rcc.c ****       /* Enable write access to Backup domain */
 455:Drivers/STM32F0xx_HAL_Driver/Src/stm32f0xx_hal_rcc.c ****       SET_BIT(PWR->CR, PWR_CR_DBP);
 630              		.loc 1 455 7
 631 02e0 154B     		ldr	r3, .L76+12
 632 02e2 1A68     		ldr	r2, [r3]
 633 02e4 144B     		ldr	r3, .L76+12
 634 02e6 8021     		movs	r1, #128
 635 02e8 4900     		lsls	r1, r1, #1
 636 02ea 0A43     		orrs	r2, r1
 637 02ec 1A60     		str	r2, [r3]
 456:Drivers/STM32F0xx_HAL_Driver/Src/stm32f0xx_hal_rcc.c ****       
 457:Drivers/STM32F0xx_HAL_Driver/Src/stm32f0xx_hal_rcc.c ****       /* Wait for Backup domain Write protection disable */
 458:Drivers/STM32F0xx_HAL_Driver/Src/stm32f0xx_hal_rcc.c ****       tickstart = HAL_GetTick();
 638              		.loc 1 458 19
 639 02ee FFF7FEFF 		bl	HAL_GetTick
 640 02f2 0300     		movs	r3, r0
 641 02f4 3B61     		str	r3, [r7, #16]
 459:Drivers/STM32F0xx_HAL_Driver/Src/stm32f0xx_hal_rcc.c **** 
 460:Drivers/STM32F0xx_HAL_Driver/Src/stm32f0xx_hal_rcc.c ****       while(HAL_IS_BIT_CLR(PWR->CR, PWR_CR_DBP))
 642              		.loc 1 460 12
 643 02f6 08E0     		b	.L37
 644              	.L38:
 461:Drivers/STM32F0xx_HAL_Driver/Src/stm32f0xx_hal_rcc.c ****       {
 462:Drivers/STM32F0xx_HAL_Driver/Src/stm32f0xx_hal_rcc.c ****         if((HAL_GetTick() - tickstart) > RCC_DBP_TIMEOUT_VALUE)
 645              		.loc 1 462 13
 646 02f8 FFF7FEFF 		bl	HAL_GetTick
 647 02fc 0200     		movs	r2, r0
 648              		.loc 1 462 27
 649 02fe 3B69     		ldr	r3, [r7, #16]
 650 0300 D31A     		subs	r3, r2, r3
 651              		.loc 1 462 11
 652 0302 642B     		cmp	r3, #100
 653 0304 01D9     		bls	.L37
 463:Drivers/STM32F0xx_HAL_Driver/Src/stm32f0xx_hal_rcc.c ****         {
 464:Drivers/STM32F0xx_HAL_Driver/Src/stm32f0xx_hal_rcc.c ****           return HAL_TIMEOUT;
 654              		.loc 1 464 18
 655 0306 0323     		movs	r3, #3
 656 0308 D1E1     		b	.L9
 657              	.L37:
 460:Drivers/STM32F0xx_HAL_Driver/Src/stm32f0xx_hal_rcc.c ****       {
 658              		.loc 1 460 13
 659 030a 0B4B     		ldr	r3, .L76+12
 660 030c 1A68     		ldr	r2, [r3]
 661 030e 8023     		movs	r3, #128
 662 0310 5B00     		lsls	r3, r3, #1
 663 0312 1340     		ands	r3, r2
 460:Drivers/STM32F0xx_HAL_Driver/Src/stm32f0xx_hal_rcc.c ****       {
ARM GAS  C:\Users\ADMINI~1\AppData\Local\Temp\ccoLOygm.s 			page 21


 664              		.loc 1 460 12
 665 0314 F0D0     		beq	.L38
 666              	.L36:
 465:Drivers/STM32F0xx_HAL_Driver/Src/stm32f0xx_hal_rcc.c ****         }
 466:Drivers/STM32F0xx_HAL_Driver/Src/stm32f0xx_hal_rcc.c ****       }
 467:Drivers/STM32F0xx_HAL_Driver/Src/stm32f0xx_hal_rcc.c ****     }
 468:Drivers/STM32F0xx_HAL_Driver/Src/stm32f0xx_hal_rcc.c **** 
 469:Drivers/STM32F0xx_HAL_Driver/Src/stm32f0xx_hal_rcc.c ****     /* Set the new LSE configuration -----------------------------------------*/
 470:Drivers/STM32F0xx_HAL_Driver/Src/stm32f0xx_hal_rcc.c ****     __HAL_RCC_LSE_CONFIG(RCC_OscInitStruct->LSEState);
 667              		.loc 1 470 5
 668 0316 7B68     		ldr	r3, [r7, #4]
 669 0318 9B68     		ldr	r3, [r3, #8]
 670 031a 012B     		cmp	r3, #1
 671 031c 0ED1     		bne	.L39
 672              		.loc 1 470 5 is_stmt 0 discriminator 1
 673 031e 034B     		ldr	r3, .L76
 674 0320 1A6A     		ldr	r2, [r3, #32]
 675 0322 024B     		ldr	r3, .L76
 676 0324 0121     		movs	r1, #1
 677 0326 0A43     		orrs	r2, r1
 678 0328 1A62     		str	r2, [r3, #32]
 679 032a 35E0     		b	.L40
 680              	.L77:
 681              		.align	2
 682              	.L76:
 683 032c 00100240 		.word	1073876992
 684 0330 FFFFFEFF 		.word	-65537
 685 0334 FFFFFBFF 		.word	-262145
 686 0338 00700040 		.word	1073770496
 687              	.L39:
 688              		.loc 1 470 5 discriminator 2
 689 033c 7B68     		ldr	r3, [r7, #4]
 690 033e 9B68     		ldr	r3, [r3, #8]
 691 0340 002B     		cmp	r3, #0
 692 0342 0CD1     		bne	.L41
 693              		.loc 1 470 5 discriminator 3
 694 0344 CA4B     		ldr	r3, .L78
 695 0346 1A6A     		ldr	r2, [r3, #32]
 696 0348 C94B     		ldr	r3, .L78
 697 034a 0121     		movs	r1, #1
 698 034c 8A43     		bics	r2, r1
 699 034e 1A62     		str	r2, [r3, #32]
 700 0350 C74B     		ldr	r3, .L78
 701 0352 1A6A     		ldr	r2, [r3, #32]
 702 0354 C64B     		ldr	r3, .L78
 703 0356 0421     		movs	r1, #4
 704 0358 8A43     		bics	r2, r1
 705 035a 1A62     		str	r2, [r3, #32]
 706 035c 1CE0     		b	.L40
 707              	.L41:
 708              		.loc 1 470 5 discriminator 4
 709 035e 7B68     		ldr	r3, [r7, #4]
 710 0360 9B68     		ldr	r3, [r3, #8]
 711 0362 052B     		cmp	r3, #5
 712 0364 0CD1     		bne	.L42
 713              		.loc 1 470 5 discriminator 5
 714 0366 C24B     		ldr	r3, .L78
ARM GAS  C:\Users\ADMINI~1\AppData\Local\Temp\ccoLOygm.s 			page 22


 715 0368 1A6A     		ldr	r2, [r3, #32]
 716 036a C14B     		ldr	r3, .L78
 717 036c 0421     		movs	r1, #4
 718 036e 0A43     		orrs	r2, r1
 719 0370 1A62     		str	r2, [r3, #32]
 720 0372 BF4B     		ldr	r3, .L78
 721 0374 1A6A     		ldr	r2, [r3, #32]
 722 0376 BE4B     		ldr	r3, .L78
 723 0378 0121     		movs	r1, #1
 724 037a 0A43     		orrs	r2, r1
 725 037c 1A62     		str	r2, [r3, #32]
 726 037e 0BE0     		b	.L40
 727              	.L42:
 728              		.loc 1 470 5 discriminator 6
 729 0380 BB4B     		ldr	r3, .L78
 730 0382 1A6A     		ldr	r2, [r3, #32]
 731 0384 BA4B     		ldr	r3, .L78
 732 0386 0121     		movs	r1, #1
 733 0388 8A43     		bics	r2, r1
 734 038a 1A62     		str	r2, [r3, #32]
 735 038c B84B     		ldr	r3, .L78
 736 038e 1A6A     		ldr	r2, [r3, #32]
 737 0390 B74B     		ldr	r3, .L78
 738 0392 0421     		movs	r1, #4
 739 0394 8A43     		bics	r2, r1
 740 0396 1A62     		str	r2, [r3, #32]
 741              	.L40:
 471:Drivers/STM32F0xx_HAL_Driver/Src/stm32f0xx_hal_rcc.c ****     /* Check the LSE State */
 472:Drivers/STM32F0xx_HAL_Driver/Src/stm32f0xx_hal_rcc.c ****     if(RCC_OscInitStruct->LSEState != RCC_LSE_OFF)
 742              		.loc 1 472 25 is_stmt 1
 743 0398 7B68     		ldr	r3, [r7, #4]
 744 039a 9B68     		ldr	r3, [r3, #8]
 745              		.loc 1 472 7
 746 039c 002B     		cmp	r3, #0
 747 039e 14D0     		beq	.L43
 473:Drivers/STM32F0xx_HAL_Driver/Src/stm32f0xx_hal_rcc.c ****     {
 474:Drivers/STM32F0xx_HAL_Driver/Src/stm32f0xx_hal_rcc.c ****       /* Get Start Tick */
 475:Drivers/STM32F0xx_HAL_Driver/Src/stm32f0xx_hal_rcc.c ****       tickstart = HAL_GetTick();
 748              		.loc 1 475 19
 749 03a0 FFF7FEFF 		bl	HAL_GetTick
 750 03a4 0300     		movs	r3, r0
 751 03a6 3B61     		str	r3, [r7, #16]
 476:Drivers/STM32F0xx_HAL_Driver/Src/stm32f0xx_hal_rcc.c ****       
 477:Drivers/STM32F0xx_HAL_Driver/Src/stm32f0xx_hal_rcc.c ****       /* Wait till LSE is ready */  
 478:Drivers/STM32F0xx_HAL_Driver/Src/stm32f0xx_hal_rcc.c ****       while(__HAL_RCC_GET_FLAG(RCC_FLAG_LSERDY) == RESET)
 752              		.loc 1 478 12
 753 03a8 09E0     		b	.L44
 754              	.L45:
 479:Drivers/STM32F0xx_HAL_Driver/Src/stm32f0xx_hal_rcc.c ****       {
 480:Drivers/STM32F0xx_HAL_Driver/Src/stm32f0xx_hal_rcc.c ****         if((HAL_GetTick() - tickstart ) > RCC_LSE_TIMEOUT_VALUE)
 755              		.loc 1 480 13
 756 03aa FFF7FEFF 		bl	HAL_GetTick
 757 03ae 0200     		movs	r2, r0
 758              		.loc 1 480 27
 759 03b0 3B69     		ldr	r3, [r7, #16]
 760 03b2 D31A     		subs	r3, r2, r3
 761              		.loc 1 480 11
ARM GAS  C:\Users\ADMINI~1\AppData\Local\Temp\ccoLOygm.s 			page 23


 762 03b4 AF4A     		ldr	r2, .L78+4
 763 03b6 9342     		cmp	r3, r2
 764 03b8 01D9     		bls	.L44
 481:Drivers/STM32F0xx_HAL_Driver/Src/stm32f0xx_hal_rcc.c ****         {
 482:Drivers/STM32F0xx_HAL_Driver/Src/stm32f0xx_hal_rcc.c ****           return HAL_TIMEOUT;
 765              		.loc 1 482 18
 766 03ba 0323     		movs	r3, #3
 767 03bc 77E1     		b	.L9
 768              	.L44:
 478:Drivers/STM32F0xx_HAL_Driver/Src/stm32f0xx_hal_rcc.c ****       {
 769              		.loc 1 478 13
 770 03be AC4B     		ldr	r3, .L78
 771 03c0 1B6A     		ldr	r3, [r3, #32]
 772 03c2 0222     		movs	r2, #2
 773 03c4 1340     		ands	r3, r2
 478:Drivers/STM32F0xx_HAL_Driver/Src/stm32f0xx_hal_rcc.c ****       {
 774              		.loc 1 478 12
 775 03c6 F0D0     		beq	.L45
 776 03c8 13E0     		b	.L46
 777              	.L43:
 483:Drivers/STM32F0xx_HAL_Driver/Src/stm32f0xx_hal_rcc.c ****         }
 484:Drivers/STM32F0xx_HAL_Driver/Src/stm32f0xx_hal_rcc.c ****       }
 485:Drivers/STM32F0xx_HAL_Driver/Src/stm32f0xx_hal_rcc.c ****     }
 486:Drivers/STM32F0xx_HAL_Driver/Src/stm32f0xx_hal_rcc.c ****     else
 487:Drivers/STM32F0xx_HAL_Driver/Src/stm32f0xx_hal_rcc.c ****     {
 488:Drivers/STM32F0xx_HAL_Driver/Src/stm32f0xx_hal_rcc.c ****       /* Get Start Tick */
 489:Drivers/STM32F0xx_HAL_Driver/Src/stm32f0xx_hal_rcc.c ****       tickstart = HAL_GetTick();
 778              		.loc 1 489 19
 779 03ca FFF7FEFF 		bl	HAL_GetTick
 780 03ce 0300     		movs	r3, r0
 781 03d0 3B61     		str	r3, [r7, #16]
 490:Drivers/STM32F0xx_HAL_Driver/Src/stm32f0xx_hal_rcc.c ****       
 491:Drivers/STM32F0xx_HAL_Driver/Src/stm32f0xx_hal_rcc.c ****       /* Wait till LSE is disabled */  
 492:Drivers/STM32F0xx_HAL_Driver/Src/stm32f0xx_hal_rcc.c ****       while(__HAL_RCC_GET_FLAG(RCC_FLAG_LSERDY) != RESET)
 782              		.loc 1 492 12
 783 03d2 09E0     		b	.L47
 784              	.L48:
 493:Drivers/STM32F0xx_HAL_Driver/Src/stm32f0xx_hal_rcc.c ****       {
 494:Drivers/STM32F0xx_HAL_Driver/Src/stm32f0xx_hal_rcc.c ****         if((HAL_GetTick() - tickstart ) > RCC_LSE_TIMEOUT_VALUE)
 785              		.loc 1 494 13
 786 03d4 FFF7FEFF 		bl	HAL_GetTick
 787 03d8 0200     		movs	r2, r0
 788              		.loc 1 494 27
 789 03da 3B69     		ldr	r3, [r7, #16]
 790 03dc D31A     		subs	r3, r2, r3
 791              		.loc 1 494 11
 792 03de A54A     		ldr	r2, .L78+4
 793 03e0 9342     		cmp	r3, r2
 794 03e2 01D9     		bls	.L47
 495:Drivers/STM32F0xx_HAL_Driver/Src/stm32f0xx_hal_rcc.c ****         {
 496:Drivers/STM32F0xx_HAL_Driver/Src/stm32f0xx_hal_rcc.c ****           return HAL_TIMEOUT;
 795              		.loc 1 496 18
 796 03e4 0323     		movs	r3, #3
 797 03e6 62E1     		b	.L9
 798              	.L47:
 492:Drivers/STM32F0xx_HAL_Driver/Src/stm32f0xx_hal_rcc.c ****       {
 799              		.loc 1 492 13
ARM GAS  C:\Users\ADMINI~1\AppData\Local\Temp\ccoLOygm.s 			page 24


 800 03e8 A14B     		ldr	r3, .L78
 801 03ea 1B6A     		ldr	r3, [r3, #32]
 802 03ec 0222     		movs	r2, #2
 803 03ee 1340     		ands	r3, r2
 492:Drivers/STM32F0xx_HAL_Driver/Src/stm32f0xx_hal_rcc.c ****       {
 804              		.loc 1 492 12
 805 03f0 F0D1     		bne	.L48
 806              	.L46:
 497:Drivers/STM32F0xx_HAL_Driver/Src/stm32f0xx_hal_rcc.c ****         }
 498:Drivers/STM32F0xx_HAL_Driver/Src/stm32f0xx_hal_rcc.c ****       }
 499:Drivers/STM32F0xx_HAL_Driver/Src/stm32f0xx_hal_rcc.c ****     }
 500:Drivers/STM32F0xx_HAL_Driver/Src/stm32f0xx_hal_rcc.c **** 
 501:Drivers/STM32F0xx_HAL_Driver/Src/stm32f0xx_hal_rcc.c ****     /* Require to disable power clock if necessary */
 502:Drivers/STM32F0xx_HAL_Driver/Src/stm32f0xx_hal_rcc.c ****     if(pwrclkchanged == SET)
 807              		.loc 1 502 7
 808 03f2 1723     		movs	r3, #23
 809 03f4 FB18     		adds	r3, r7, r3
 810 03f6 1B78     		ldrb	r3, [r3]
 811 03f8 012B     		cmp	r3, #1
 812 03fa 05D1     		bne	.L34
 503:Drivers/STM32F0xx_HAL_Driver/Src/stm32f0xx_hal_rcc.c ****     {
 504:Drivers/STM32F0xx_HAL_Driver/Src/stm32f0xx_hal_rcc.c ****       __HAL_RCC_PWR_CLK_DISABLE();
 813              		.loc 1 504 7
 814 03fc 9C4B     		ldr	r3, .L78
 815 03fe DA69     		ldr	r2, [r3, #28]
 816 0400 9B4B     		ldr	r3, .L78
 817 0402 9D49     		ldr	r1, .L78+8
 818 0404 0A40     		ands	r2, r1
 819 0406 DA61     		str	r2, [r3, #28]
 820              	.L34:
 821              	.LBE2:
 505:Drivers/STM32F0xx_HAL_Driver/Src/stm32f0xx_hal_rcc.c ****     }
 506:Drivers/STM32F0xx_HAL_Driver/Src/stm32f0xx_hal_rcc.c ****   }
 507:Drivers/STM32F0xx_HAL_Driver/Src/stm32f0xx_hal_rcc.c **** 
 508:Drivers/STM32F0xx_HAL_Driver/Src/stm32f0xx_hal_rcc.c ****   /*----------------------------- HSI14 Configuration --------------------------*/
 509:Drivers/STM32F0xx_HAL_Driver/Src/stm32f0xx_hal_rcc.c ****   if(((RCC_OscInitStruct->OscillatorType) & RCC_OSCILLATORTYPE_HSI14) == RCC_OSCILLATORTYPE_HSI14)
 822              		.loc 1 509 25
 823 0408 7B68     		ldr	r3, [r7, #4]
 824 040a 1B68     		ldr	r3, [r3]
 825              		.loc 1 509 43
 826 040c 1022     		movs	r2, #16
 827 040e 1340     		ands	r3, r2
 828              		.loc 1 509 5
 829 0410 63D0     		beq	.L49
 510:Drivers/STM32F0xx_HAL_Driver/Src/stm32f0xx_hal_rcc.c ****   {
 511:Drivers/STM32F0xx_HAL_Driver/Src/stm32f0xx_hal_rcc.c ****     /* Check the parameters */
 512:Drivers/STM32F0xx_HAL_Driver/Src/stm32f0xx_hal_rcc.c ****     assert_param(IS_RCC_HSI14(RCC_OscInitStruct->HSI14State));
 513:Drivers/STM32F0xx_HAL_Driver/Src/stm32f0xx_hal_rcc.c ****     assert_param(IS_RCC_CALIBRATION_VALUE(RCC_OscInitStruct->HSI14CalibrationValue));
 514:Drivers/STM32F0xx_HAL_Driver/Src/stm32f0xx_hal_rcc.c **** 
 515:Drivers/STM32F0xx_HAL_Driver/Src/stm32f0xx_hal_rcc.c ****     /* Check the HSI14 State */
 516:Drivers/STM32F0xx_HAL_Driver/Src/stm32f0xx_hal_rcc.c ****     if(RCC_OscInitStruct->HSI14State == RCC_HSI14_ON)
 830              		.loc 1 516 25
 831 0412 7B68     		ldr	r3, [r7, #4]
 832 0414 5B69     		ldr	r3, [r3, #20]
 833              		.loc 1 516 7
 834 0416 012B     		cmp	r3, #1
 835 0418 2AD1     		bne	.L50
ARM GAS  C:\Users\ADMINI~1\AppData\Local\Temp\ccoLOygm.s 			page 25


 517:Drivers/STM32F0xx_HAL_Driver/Src/stm32f0xx_hal_rcc.c ****     {
 518:Drivers/STM32F0xx_HAL_Driver/Src/stm32f0xx_hal_rcc.c ****       /* Disable ADC control of the Internal High Speed oscillator HSI14 */
 519:Drivers/STM32F0xx_HAL_Driver/Src/stm32f0xx_hal_rcc.c ****       __HAL_RCC_HSI14ADC_DISABLE();
 836              		.loc 1 519 7
 837 041a 954B     		ldr	r3, .L78
 838 041c 5A6B     		ldr	r2, [r3, #52]
 839 041e 944B     		ldr	r3, .L78
 840 0420 0421     		movs	r1, #4
 841 0422 0A43     		orrs	r2, r1
 842 0424 5A63     		str	r2, [r3, #52]
 520:Drivers/STM32F0xx_HAL_Driver/Src/stm32f0xx_hal_rcc.c **** 
 521:Drivers/STM32F0xx_HAL_Driver/Src/stm32f0xx_hal_rcc.c ****       /* Enable the Internal High Speed oscillator (HSI). */
 522:Drivers/STM32F0xx_HAL_Driver/Src/stm32f0xx_hal_rcc.c ****       __HAL_RCC_HSI14_ENABLE();
 843              		.loc 1 522 7
 844 0426 924B     		ldr	r3, .L78
 845 0428 5A6B     		ldr	r2, [r3, #52]
 846 042a 914B     		ldr	r3, .L78
 847 042c 0121     		movs	r1, #1
 848 042e 0A43     		orrs	r2, r1
 849 0430 5A63     		str	r2, [r3, #52]
 523:Drivers/STM32F0xx_HAL_Driver/Src/stm32f0xx_hal_rcc.c **** 
 524:Drivers/STM32F0xx_HAL_Driver/Src/stm32f0xx_hal_rcc.c ****       /* Get Start Tick */
 525:Drivers/STM32F0xx_HAL_Driver/Src/stm32f0xx_hal_rcc.c ****       tickstart = HAL_GetTick();
 850              		.loc 1 525 19
 851 0432 FFF7FEFF 		bl	HAL_GetTick
 852 0436 0300     		movs	r3, r0
 853 0438 3B61     		str	r3, [r7, #16]
 526:Drivers/STM32F0xx_HAL_Driver/Src/stm32f0xx_hal_rcc.c ****       
 527:Drivers/STM32F0xx_HAL_Driver/Src/stm32f0xx_hal_rcc.c ****       /* Wait till HSI is ready */  
 528:Drivers/STM32F0xx_HAL_Driver/Src/stm32f0xx_hal_rcc.c ****       while(__HAL_RCC_GET_FLAG(RCC_FLAG_HSI14RDY) == RESET)
 854              		.loc 1 528 12
 855 043a 08E0     		b	.L51
 856              	.L52:
 529:Drivers/STM32F0xx_HAL_Driver/Src/stm32f0xx_hal_rcc.c ****       {
 530:Drivers/STM32F0xx_HAL_Driver/Src/stm32f0xx_hal_rcc.c ****         if((HAL_GetTick() - tickstart) > HSI14_TIMEOUT_VALUE)
 857              		.loc 1 530 13
 858 043c FFF7FEFF 		bl	HAL_GetTick
 859 0440 0200     		movs	r2, r0
 860              		.loc 1 530 27
 861 0442 3B69     		ldr	r3, [r7, #16]
 862 0444 D31A     		subs	r3, r2, r3
 863              		.loc 1 530 11
 864 0446 022B     		cmp	r3, #2
 865 0448 01D9     		bls	.L51
 531:Drivers/STM32F0xx_HAL_Driver/Src/stm32f0xx_hal_rcc.c ****         {
 532:Drivers/STM32F0xx_HAL_Driver/Src/stm32f0xx_hal_rcc.c ****           return HAL_TIMEOUT;
 866              		.loc 1 532 18
 867 044a 0323     		movs	r3, #3
 868 044c 2FE1     		b	.L9
 869              	.L51:
 528:Drivers/STM32F0xx_HAL_Driver/Src/stm32f0xx_hal_rcc.c ****       {
 870              		.loc 1 528 13
 871 044e 884B     		ldr	r3, .L78
 872 0450 5B6B     		ldr	r3, [r3, #52]
 873 0452 0222     		movs	r2, #2
 874 0454 1340     		ands	r3, r2
 528:Drivers/STM32F0xx_HAL_Driver/Src/stm32f0xx_hal_rcc.c ****       {
ARM GAS  C:\Users\ADMINI~1\AppData\Local\Temp\ccoLOygm.s 			page 26


 875              		.loc 1 528 12
 876 0456 F1D0     		beq	.L52
 533:Drivers/STM32F0xx_HAL_Driver/Src/stm32f0xx_hal_rcc.c ****         }      
 534:Drivers/STM32F0xx_HAL_Driver/Src/stm32f0xx_hal_rcc.c ****       } 
 535:Drivers/STM32F0xx_HAL_Driver/Src/stm32f0xx_hal_rcc.c **** 
 536:Drivers/STM32F0xx_HAL_Driver/Src/stm32f0xx_hal_rcc.c ****       /* Adjusts the Internal High Speed oscillator 14Mhz (HSI14) calibration value. */
 537:Drivers/STM32F0xx_HAL_Driver/Src/stm32f0xx_hal_rcc.c ****       __HAL_RCC_HSI14_CALIBRATIONVALUE_ADJUST(RCC_OscInitStruct->HSI14CalibrationValue);
 877              		.loc 1 537 7
 878 0458 854B     		ldr	r3, .L78
 879 045a 5B6B     		ldr	r3, [r3, #52]
 880 045c F822     		movs	r2, #248
 881 045e 9343     		bics	r3, r2
 882 0460 1900     		movs	r1, r3
 883 0462 7B68     		ldr	r3, [r7, #4]
 884 0464 9B69     		ldr	r3, [r3, #24]
 885 0466 DA00     		lsls	r2, r3, #3
 886 0468 814B     		ldr	r3, .L78
 887 046a 0A43     		orrs	r2, r1
 888 046c 5A63     		str	r2, [r3, #52]
 889 046e 34E0     		b	.L49
 890              	.L50:
 538:Drivers/STM32F0xx_HAL_Driver/Src/stm32f0xx_hal_rcc.c ****     }
 539:Drivers/STM32F0xx_HAL_Driver/Src/stm32f0xx_hal_rcc.c ****     else if(RCC_OscInitStruct->HSI14State == RCC_HSI14_ADC_CONTROL)
 891              		.loc 1 539 30
 892 0470 7B68     		ldr	r3, [r7, #4]
 893 0472 5B69     		ldr	r3, [r3, #20]
 894              		.loc 1 539 12
 895 0474 0533     		adds	r3, r3, #5
 896 0476 11D1     		bne	.L53
 540:Drivers/STM32F0xx_HAL_Driver/Src/stm32f0xx_hal_rcc.c ****     {
 541:Drivers/STM32F0xx_HAL_Driver/Src/stm32f0xx_hal_rcc.c ****       /* Enable ADC control of the Internal High Speed oscillator HSI14 */
 542:Drivers/STM32F0xx_HAL_Driver/Src/stm32f0xx_hal_rcc.c ****       __HAL_RCC_HSI14ADC_ENABLE();
 897              		.loc 1 542 7
 898 0478 7D4B     		ldr	r3, .L78
 899 047a 5A6B     		ldr	r2, [r3, #52]
 900 047c 7C4B     		ldr	r3, .L78
 901 047e 0421     		movs	r1, #4
 902 0480 8A43     		bics	r2, r1
 903 0482 5A63     		str	r2, [r3, #52]
 543:Drivers/STM32F0xx_HAL_Driver/Src/stm32f0xx_hal_rcc.c **** 
 544:Drivers/STM32F0xx_HAL_Driver/Src/stm32f0xx_hal_rcc.c ****       /* Adjusts the Internal High Speed oscillator 14Mhz (HSI14) calibration value. */
 545:Drivers/STM32F0xx_HAL_Driver/Src/stm32f0xx_hal_rcc.c ****       __HAL_RCC_HSI14_CALIBRATIONVALUE_ADJUST(RCC_OscInitStruct->HSI14CalibrationValue);
 904              		.loc 1 545 7
 905 0484 7A4B     		ldr	r3, .L78
 906 0486 5B6B     		ldr	r3, [r3, #52]
 907 0488 F822     		movs	r2, #248
 908 048a 9343     		bics	r3, r2
 909 048c 1900     		movs	r1, r3
 910 048e 7B68     		ldr	r3, [r7, #4]
 911 0490 9B69     		ldr	r3, [r3, #24]
 912 0492 DA00     		lsls	r2, r3, #3
 913 0494 764B     		ldr	r3, .L78
 914 0496 0A43     		orrs	r2, r1
 915 0498 5A63     		str	r2, [r3, #52]
 916 049a 1EE0     		b	.L49
 917              	.L53:
 546:Drivers/STM32F0xx_HAL_Driver/Src/stm32f0xx_hal_rcc.c ****     }
ARM GAS  C:\Users\ADMINI~1\AppData\Local\Temp\ccoLOygm.s 			page 27


 547:Drivers/STM32F0xx_HAL_Driver/Src/stm32f0xx_hal_rcc.c ****     else
 548:Drivers/STM32F0xx_HAL_Driver/Src/stm32f0xx_hal_rcc.c ****     {
 549:Drivers/STM32F0xx_HAL_Driver/Src/stm32f0xx_hal_rcc.c ****       /* Disable ADC control of the Internal High Speed oscillator HSI14 */
 550:Drivers/STM32F0xx_HAL_Driver/Src/stm32f0xx_hal_rcc.c ****       __HAL_RCC_HSI14ADC_DISABLE();
 918              		.loc 1 550 7
 919 049c 744B     		ldr	r3, .L78
 920 049e 5A6B     		ldr	r2, [r3, #52]
 921 04a0 734B     		ldr	r3, .L78
 922 04a2 0421     		movs	r1, #4
 923 04a4 0A43     		orrs	r2, r1
 924 04a6 5A63     		str	r2, [r3, #52]
 551:Drivers/STM32F0xx_HAL_Driver/Src/stm32f0xx_hal_rcc.c **** 
 552:Drivers/STM32F0xx_HAL_Driver/Src/stm32f0xx_hal_rcc.c ****       /* Disable the Internal High Speed oscillator (HSI). */
 553:Drivers/STM32F0xx_HAL_Driver/Src/stm32f0xx_hal_rcc.c ****       __HAL_RCC_HSI14_DISABLE();
 925              		.loc 1 553 7
 926 04a8 714B     		ldr	r3, .L78
 927 04aa 5A6B     		ldr	r2, [r3, #52]
 928 04ac 704B     		ldr	r3, .L78
 929 04ae 0121     		movs	r1, #1
 930 04b0 8A43     		bics	r2, r1
 931 04b2 5A63     		str	r2, [r3, #52]
 554:Drivers/STM32F0xx_HAL_Driver/Src/stm32f0xx_hal_rcc.c **** 
 555:Drivers/STM32F0xx_HAL_Driver/Src/stm32f0xx_hal_rcc.c ****       /* Get Start Tick */
 556:Drivers/STM32F0xx_HAL_Driver/Src/stm32f0xx_hal_rcc.c ****       tickstart = HAL_GetTick();
 932              		.loc 1 556 19
 933 04b4 FFF7FEFF 		bl	HAL_GetTick
 934 04b8 0300     		movs	r3, r0
 935 04ba 3B61     		str	r3, [r7, #16]
 557:Drivers/STM32F0xx_HAL_Driver/Src/stm32f0xx_hal_rcc.c ****       
 558:Drivers/STM32F0xx_HAL_Driver/Src/stm32f0xx_hal_rcc.c ****       /* Wait till HSI is ready */  
 559:Drivers/STM32F0xx_HAL_Driver/Src/stm32f0xx_hal_rcc.c ****       while(__HAL_RCC_GET_FLAG(RCC_FLAG_HSI14RDY) != RESET)
 936              		.loc 1 559 12
 937 04bc 08E0     		b	.L54
 938              	.L55:
 560:Drivers/STM32F0xx_HAL_Driver/Src/stm32f0xx_hal_rcc.c ****       {
 561:Drivers/STM32F0xx_HAL_Driver/Src/stm32f0xx_hal_rcc.c ****         if((HAL_GetTick() - tickstart) > HSI14_TIMEOUT_VALUE)
 939              		.loc 1 561 13
 940 04be FFF7FEFF 		bl	HAL_GetTick
 941 04c2 0200     		movs	r2, r0
 942              		.loc 1 561 27
 943 04c4 3B69     		ldr	r3, [r7, #16]
 944 04c6 D31A     		subs	r3, r2, r3
 945              		.loc 1 561 11
 946 04c8 022B     		cmp	r3, #2
 947 04ca 01D9     		bls	.L54
 562:Drivers/STM32F0xx_HAL_Driver/Src/stm32f0xx_hal_rcc.c ****         {
 563:Drivers/STM32F0xx_HAL_Driver/Src/stm32f0xx_hal_rcc.c ****           return HAL_TIMEOUT;
 948              		.loc 1 563 18
 949 04cc 0323     		movs	r3, #3
 950 04ce EEE0     		b	.L9
 951              	.L54:
 559:Drivers/STM32F0xx_HAL_Driver/Src/stm32f0xx_hal_rcc.c ****       {
 952              		.loc 1 559 13
 953 04d0 674B     		ldr	r3, .L78
 954 04d2 5B6B     		ldr	r3, [r3, #52]
 955 04d4 0222     		movs	r2, #2
 956 04d6 1340     		ands	r3, r2
ARM GAS  C:\Users\ADMINI~1\AppData\Local\Temp\ccoLOygm.s 			page 28


 559:Drivers/STM32F0xx_HAL_Driver/Src/stm32f0xx_hal_rcc.c ****       {
 957              		.loc 1 559 12
 958 04d8 F1D1     		bne	.L55
 959              	.L49:
 564:Drivers/STM32F0xx_HAL_Driver/Src/stm32f0xx_hal_rcc.c ****         }
 565:Drivers/STM32F0xx_HAL_Driver/Src/stm32f0xx_hal_rcc.c ****       }
 566:Drivers/STM32F0xx_HAL_Driver/Src/stm32f0xx_hal_rcc.c ****     }
 567:Drivers/STM32F0xx_HAL_Driver/Src/stm32f0xx_hal_rcc.c ****   }
 568:Drivers/STM32F0xx_HAL_Driver/Src/stm32f0xx_hal_rcc.c **** 
 569:Drivers/STM32F0xx_HAL_Driver/Src/stm32f0xx_hal_rcc.c **** #if defined(RCC_HSI48_SUPPORT)
 570:Drivers/STM32F0xx_HAL_Driver/Src/stm32f0xx_hal_rcc.c ****   /*----------------------------- HSI48 Configuration --------------------------*/
 571:Drivers/STM32F0xx_HAL_Driver/Src/stm32f0xx_hal_rcc.c ****   if(((RCC_OscInitStruct->OscillatorType) & RCC_OSCILLATORTYPE_HSI48) == RCC_OSCILLATORTYPE_HSI48)
 960              		.loc 1 571 25
 961 04da 7B68     		ldr	r3, [r7, #4]
 962 04dc 1B68     		ldr	r3, [r3]
 963              		.loc 1 571 43
 964 04de 2022     		movs	r2, #32
 965 04e0 1340     		ands	r3, r2
 966              		.loc 1 571 5
 967 04e2 5CD0     		beq	.L56
 572:Drivers/STM32F0xx_HAL_Driver/Src/stm32f0xx_hal_rcc.c ****   {
 573:Drivers/STM32F0xx_HAL_Driver/Src/stm32f0xx_hal_rcc.c ****     /* Check the parameters */
 574:Drivers/STM32F0xx_HAL_Driver/Src/stm32f0xx_hal_rcc.c ****     assert_param(IS_RCC_HSI48(RCC_OscInitStruct->HSI48State));
 575:Drivers/STM32F0xx_HAL_Driver/Src/stm32f0xx_hal_rcc.c **** 
 576:Drivers/STM32F0xx_HAL_Driver/Src/stm32f0xx_hal_rcc.c ****     /* When the HSI48 is used as system clock it is not allowed to be disabled */
 577:Drivers/STM32F0xx_HAL_Driver/Src/stm32f0xx_hal_rcc.c ****     if((__HAL_RCC_GET_SYSCLK_SOURCE() == RCC_SYSCLKSOURCE_STATUS_HSI48) ||
 968              		.loc 1 577 9
 969 04e4 624B     		ldr	r3, .L78
 970 04e6 5B68     		ldr	r3, [r3, #4]
 971 04e8 0C22     		movs	r2, #12
 972 04ea 1340     		ands	r3, r2
 973              		.loc 1 577 7
 974 04ec 0C2B     		cmp	r3, #12
 975 04ee 0ED0     		beq	.L57
 578:Drivers/STM32F0xx_HAL_Driver/Src/stm32f0xx_hal_rcc.c ****        ((__HAL_RCC_GET_SYSCLK_SOURCE() == RCC_SYSCLKSOURCE_STATUS_PLLCLK) && (__HAL_RCC_GET_PLL_OSC
 976              		.loc 1 578 10 discriminator 1
 977 04f0 5F4B     		ldr	r3, .L78
 978 04f2 5B68     		ldr	r3, [r3, #4]
 979 04f4 0C22     		movs	r2, #12
 980 04f6 1340     		ands	r3, r2
 577:Drivers/STM32F0xx_HAL_Driver/Src/stm32f0xx_hal_rcc.c ****        ((__HAL_RCC_GET_SYSCLK_SOURCE() == RCC_SYSCLKSOURCE_STATUS_PLLCLK) && (__HAL_RCC_GET_PLL_OSC
 981              		.loc 1 577 73 discriminator 1
 982 04f8 082B     		cmp	r3, #8
 983 04fa 14D1     		bne	.L58
 984              		.loc 1 578 79
 985 04fc 5C4B     		ldr	r3, .L78
 986 04fe 5A68     		ldr	r2, [r3, #4]
 987 0500 C023     		movs	r3, #192
 988 0502 5B02     		lsls	r3, r3, #9
 989 0504 1A40     		ands	r2, r3
 990              		.loc 1 578 75
 991 0506 C023     		movs	r3, #192
 992 0508 5B02     		lsls	r3, r3, #9
 993 050a 9A42     		cmp	r2, r3
 994 050c 0BD1     		bne	.L58
 995              	.L57:
 579:Drivers/STM32F0xx_HAL_Driver/Src/stm32f0xx_hal_rcc.c ****     {
ARM GAS  C:\Users\ADMINI~1\AppData\Local\Temp\ccoLOygm.s 			page 29


 580:Drivers/STM32F0xx_HAL_Driver/Src/stm32f0xx_hal_rcc.c ****       if((__HAL_RCC_GET_FLAG(RCC_FLAG_HSI48RDY) != RESET) && (RCC_OscInitStruct->HSI48State != RCC_
 996              		.loc 1 580 11
 997 050e 584B     		ldr	r3, .L78
 998 0510 5A6B     		ldr	r2, [r3, #52]
 999 0512 8023     		movs	r3, #128
 1000 0514 5B02     		lsls	r3, r3, #9
 1001 0516 1340     		ands	r3, r2
 1002              		.loc 1 580 9
 1003 0518 40D0     		beq	.L75
 1004              		.loc 1 580 80 discriminator 1
 1005 051a 7B68     		ldr	r3, [r7, #4]
 1006 051c 1B6A     		ldr	r3, [r3, #32]
 1007              		.loc 1 580 59 discriminator 1
 1008 051e 012B     		cmp	r3, #1
 1009 0520 3CD0     		beq	.L75
 581:Drivers/STM32F0xx_HAL_Driver/Src/stm32f0xx_hal_rcc.c ****       {
 582:Drivers/STM32F0xx_HAL_Driver/Src/stm32f0xx_hal_rcc.c ****         return HAL_ERROR;
 1010              		.loc 1 582 16
 1011 0522 0123     		movs	r3, #1
 1012 0524 C3E0     		b	.L9
 1013              	.L58:
 583:Drivers/STM32F0xx_HAL_Driver/Src/stm32f0xx_hal_rcc.c ****       }
 584:Drivers/STM32F0xx_HAL_Driver/Src/stm32f0xx_hal_rcc.c ****     }
 585:Drivers/STM32F0xx_HAL_Driver/Src/stm32f0xx_hal_rcc.c ****     else
 586:Drivers/STM32F0xx_HAL_Driver/Src/stm32f0xx_hal_rcc.c ****     {
 587:Drivers/STM32F0xx_HAL_Driver/Src/stm32f0xx_hal_rcc.c ****       /* Check the HSI48 State */
 588:Drivers/STM32F0xx_HAL_Driver/Src/stm32f0xx_hal_rcc.c ****       if(RCC_OscInitStruct->HSI48State != RCC_HSI48_OFF)
 1014              		.loc 1 588 27
 1015 0526 7B68     		ldr	r3, [r7, #4]
 1016 0528 1B6A     		ldr	r3, [r3, #32]
 1017              		.loc 1 588 9
 1018 052a 002B     		cmp	r3, #0
 1019 052c 1BD0     		beq	.L60
 589:Drivers/STM32F0xx_HAL_Driver/Src/stm32f0xx_hal_rcc.c ****       {
 590:Drivers/STM32F0xx_HAL_Driver/Src/stm32f0xx_hal_rcc.c ****         /* Enable the Internal High Speed oscillator (HSI48). */
 591:Drivers/STM32F0xx_HAL_Driver/Src/stm32f0xx_hal_rcc.c ****         __HAL_RCC_HSI48_ENABLE();
 1020              		.loc 1 591 9
 1021 052e 504B     		ldr	r3, .L78
 1022 0530 5A6B     		ldr	r2, [r3, #52]
 1023 0532 4F4B     		ldr	r3, .L78
 1024 0534 8021     		movs	r1, #128
 1025 0536 4902     		lsls	r1, r1, #9
 1026 0538 0A43     		orrs	r2, r1
 1027 053a 5A63     		str	r2, [r3, #52]
 592:Drivers/STM32F0xx_HAL_Driver/Src/stm32f0xx_hal_rcc.c **** 
 593:Drivers/STM32F0xx_HAL_Driver/Src/stm32f0xx_hal_rcc.c ****         /* Get Start Tick */
 594:Drivers/STM32F0xx_HAL_Driver/Src/stm32f0xx_hal_rcc.c ****         tickstart = HAL_GetTick();
 1028              		.loc 1 594 21
 1029 053c FFF7FEFF 		bl	HAL_GetTick
 1030 0540 0300     		movs	r3, r0
 1031 0542 3B61     		str	r3, [r7, #16]
 595:Drivers/STM32F0xx_HAL_Driver/Src/stm32f0xx_hal_rcc.c ****       
 596:Drivers/STM32F0xx_HAL_Driver/Src/stm32f0xx_hal_rcc.c ****         /* Wait till HSI48 is ready */  
 597:Drivers/STM32F0xx_HAL_Driver/Src/stm32f0xx_hal_rcc.c ****         while(__HAL_RCC_GET_FLAG(RCC_FLAG_HSI48RDY) == RESET)
 1032              		.loc 1 597 14
 1033 0544 08E0     		b	.L61
 1034              	.L62:
ARM GAS  C:\Users\ADMINI~1\AppData\Local\Temp\ccoLOygm.s 			page 30


 598:Drivers/STM32F0xx_HAL_Driver/Src/stm32f0xx_hal_rcc.c ****         {
 599:Drivers/STM32F0xx_HAL_Driver/Src/stm32f0xx_hal_rcc.c ****           if((HAL_GetTick() - tickstart) > HSI48_TIMEOUT_VALUE)
 1035              		.loc 1 599 15
 1036 0546 FFF7FEFF 		bl	HAL_GetTick
 1037 054a 0200     		movs	r2, r0
 1038              		.loc 1 599 29
 1039 054c 3B69     		ldr	r3, [r7, #16]
 1040 054e D31A     		subs	r3, r2, r3
 1041              		.loc 1 599 13
 1042 0550 022B     		cmp	r3, #2
 1043 0552 01D9     		bls	.L61
 600:Drivers/STM32F0xx_HAL_Driver/Src/stm32f0xx_hal_rcc.c ****           {
 601:Drivers/STM32F0xx_HAL_Driver/Src/stm32f0xx_hal_rcc.c ****             return HAL_TIMEOUT;
 1044              		.loc 1 601 20
 1045 0554 0323     		movs	r3, #3
 1046 0556 AAE0     		b	.L9
 1047              	.L61:
 597:Drivers/STM32F0xx_HAL_Driver/Src/stm32f0xx_hal_rcc.c ****         {
 1048              		.loc 1 597 15
 1049 0558 454B     		ldr	r3, .L78
 1050 055a 5A6B     		ldr	r2, [r3, #52]
 1051 055c 8023     		movs	r3, #128
 1052 055e 5B02     		lsls	r3, r3, #9
 1053 0560 1340     		ands	r3, r2
 597:Drivers/STM32F0xx_HAL_Driver/Src/stm32f0xx_hal_rcc.c ****         {
 1054              		.loc 1 597 14
 1055 0562 F0D0     		beq	.L62
 1056 0564 1BE0     		b	.L56
 1057              	.L60:
 602:Drivers/STM32F0xx_HAL_Driver/Src/stm32f0xx_hal_rcc.c ****           }
 603:Drivers/STM32F0xx_HAL_Driver/Src/stm32f0xx_hal_rcc.c ****         } 
 604:Drivers/STM32F0xx_HAL_Driver/Src/stm32f0xx_hal_rcc.c ****       }
 605:Drivers/STM32F0xx_HAL_Driver/Src/stm32f0xx_hal_rcc.c ****       else
 606:Drivers/STM32F0xx_HAL_Driver/Src/stm32f0xx_hal_rcc.c ****       {
 607:Drivers/STM32F0xx_HAL_Driver/Src/stm32f0xx_hal_rcc.c ****         /* Disable the Internal High Speed oscillator (HSI48). */
 608:Drivers/STM32F0xx_HAL_Driver/Src/stm32f0xx_hal_rcc.c ****         __HAL_RCC_HSI48_DISABLE();
 1058              		.loc 1 608 9
 1059 0566 424B     		ldr	r3, .L78
 1060 0568 5A6B     		ldr	r2, [r3, #52]
 1061 056a 414B     		ldr	r3, .L78
 1062 056c 4349     		ldr	r1, .L78+12
 1063 056e 0A40     		ands	r2, r1
 1064 0570 5A63     		str	r2, [r3, #52]
 609:Drivers/STM32F0xx_HAL_Driver/Src/stm32f0xx_hal_rcc.c **** 
 610:Drivers/STM32F0xx_HAL_Driver/Src/stm32f0xx_hal_rcc.c ****         /* Get Start Tick */
 611:Drivers/STM32F0xx_HAL_Driver/Src/stm32f0xx_hal_rcc.c ****         tickstart = HAL_GetTick();
 1065              		.loc 1 611 21
 1066 0572 FFF7FEFF 		bl	HAL_GetTick
 1067 0576 0300     		movs	r3, r0
 1068 0578 3B61     		str	r3, [r7, #16]
 612:Drivers/STM32F0xx_HAL_Driver/Src/stm32f0xx_hal_rcc.c ****       
 613:Drivers/STM32F0xx_HAL_Driver/Src/stm32f0xx_hal_rcc.c ****         /* Wait till HSI48 is ready */  
 614:Drivers/STM32F0xx_HAL_Driver/Src/stm32f0xx_hal_rcc.c ****         while(__HAL_RCC_GET_FLAG(RCC_FLAG_HSI48RDY) != RESET)
 1069              		.loc 1 614 14
 1070 057a 08E0     		b	.L63
 1071              	.L64:
 615:Drivers/STM32F0xx_HAL_Driver/Src/stm32f0xx_hal_rcc.c ****         {
ARM GAS  C:\Users\ADMINI~1\AppData\Local\Temp\ccoLOygm.s 			page 31


 616:Drivers/STM32F0xx_HAL_Driver/Src/stm32f0xx_hal_rcc.c ****           if((HAL_GetTick() - tickstart) > HSI48_TIMEOUT_VALUE)
 1072              		.loc 1 616 15
 1073 057c FFF7FEFF 		bl	HAL_GetTick
 1074 0580 0200     		movs	r2, r0
 1075              		.loc 1 616 29
 1076 0582 3B69     		ldr	r3, [r7, #16]
 1077 0584 D31A     		subs	r3, r2, r3
 1078              		.loc 1 616 13
 1079 0586 022B     		cmp	r3, #2
 1080 0588 01D9     		bls	.L63
 617:Drivers/STM32F0xx_HAL_Driver/Src/stm32f0xx_hal_rcc.c ****           {
 618:Drivers/STM32F0xx_HAL_Driver/Src/stm32f0xx_hal_rcc.c ****             return HAL_TIMEOUT;
 1081              		.loc 1 618 20
 1082 058a 0323     		movs	r3, #3
 1083 058c 8FE0     		b	.L9
 1084              	.L63:
 614:Drivers/STM32F0xx_HAL_Driver/Src/stm32f0xx_hal_rcc.c ****         {
 1085              		.loc 1 614 15
 1086 058e 384B     		ldr	r3, .L78
 1087 0590 5A6B     		ldr	r2, [r3, #52]
 1088 0592 8023     		movs	r3, #128
 1089 0594 5B02     		lsls	r3, r3, #9
 1090 0596 1340     		ands	r3, r2
 614:Drivers/STM32F0xx_HAL_Driver/Src/stm32f0xx_hal_rcc.c ****         {
 1091              		.loc 1 614 14
 1092 0598 F0D1     		bne	.L64
 1093 059a 00E0     		b	.L56
 1094              	.L75:
 580:Drivers/STM32F0xx_HAL_Driver/Src/stm32f0xx_hal_rcc.c ****       {
 1095              		.loc 1 580 9
 1096 059c C046     		nop
 1097              	.L56:
 619:Drivers/STM32F0xx_HAL_Driver/Src/stm32f0xx_hal_rcc.c ****           }
 620:Drivers/STM32F0xx_HAL_Driver/Src/stm32f0xx_hal_rcc.c ****         }
 621:Drivers/STM32F0xx_HAL_Driver/Src/stm32f0xx_hal_rcc.c ****       }
 622:Drivers/STM32F0xx_HAL_Driver/Src/stm32f0xx_hal_rcc.c ****     }
 623:Drivers/STM32F0xx_HAL_Driver/Src/stm32f0xx_hal_rcc.c ****   }
 624:Drivers/STM32F0xx_HAL_Driver/Src/stm32f0xx_hal_rcc.c **** #endif /* RCC_HSI48_SUPPORT */
 625:Drivers/STM32F0xx_HAL_Driver/Src/stm32f0xx_hal_rcc.c ****        
 626:Drivers/STM32F0xx_HAL_Driver/Src/stm32f0xx_hal_rcc.c ****   /*-------------------------------- PLL Configuration -----------------------*/
 627:Drivers/STM32F0xx_HAL_Driver/Src/stm32f0xx_hal_rcc.c ****   /* Check the parameters */
 628:Drivers/STM32F0xx_HAL_Driver/Src/stm32f0xx_hal_rcc.c ****   assert_param(IS_RCC_PLL(RCC_OscInitStruct->PLL.PLLState));
 629:Drivers/STM32F0xx_HAL_Driver/Src/stm32f0xx_hal_rcc.c ****   if ((RCC_OscInitStruct->PLL.PLLState) != RCC_PLL_NONE)
 1098              		.loc 1 629 30
 1099 059e 7B68     		ldr	r3, [r7, #4]
 1100 05a0 5B6A     		ldr	r3, [r3, #36]
 1101              		.loc 1 629 6
 1102 05a2 002B     		cmp	r3, #0
 1103 05a4 00D1     		bne	.LCB960
 1104 05a6 81E0     		b	.L65	@long jump
 1105              	.LCB960:
 630:Drivers/STM32F0xx_HAL_Driver/Src/stm32f0xx_hal_rcc.c ****   {
 631:Drivers/STM32F0xx_HAL_Driver/Src/stm32f0xx_hal_rcc.c ****     /* Check if the PLL is used as system clock or not */
 632:Drivers/STM32F0xx_HAL_Driver/Src/stm32f0xx_hal_rcc.c ****     if(__HAL_RCC_GET_SYSCLK_SOURCE() != RCC_SYSCLKSOURCE_STATUS_PLLCLK)
 1106              		.loc 1 632 8
 1107 05a8 314B     		ldr	r3, .L78
 1108 05aa 5B68     		ldr	r3, [r3, #4]
ARM GAS  C:\Users\ADMINI~1\AppData\Local\Temp\ccoLOygm.s 			page 32


 1109 05ac 0C22     		movs	r2, #12
 1110 05ae 1340     		ands	r3, r2
 1111              		.loc 1 632 7
 1112 05b0 082B     		cmp	r3, #8
 1113 05b2 00D1     		bne	.LCB966
 1114 05b4 78E0     		b	.L66	@long jump
 1115              	.LCB966:
 633:Drivers/STM32F0xx_HAL_Driver/Src/stm32f0xx_hal_rcc.c ****     { 
 634:Drivers/STM32F0xx_HAL_Driver/Src/stm32f0xx_hal_rcc.c ****       if((RCC_OscInitStruct->PLL.PLLState) == RCC_PLL_ON)
 1116              		.loc 1 634 33
 1117 05b6 7B68     		ldr	r3, [r7, #4]
 1118 05b8 5B6A     		ldr	r3, [r3, #36]
 1119              		.loc 1 634 9
 1120 05ba 022B     		cmp	r3, #2
 1121 05bc 4CD1     		bne	.L67
 635:Drivers/STM32F0xx_HAL_Driver/Src/stm32f0xx_hal_rcc.c ****       {
 636:Drivers/STM32F0xx_HAL_Driver/Src/stm32f0xx_hal_rcc.c ****         /* Check the parameters */
 637:Drivers/STM32F0xx_HAL_Driver/Src/stm32f0xx_hal_rcc.c ****         assert_param(IS_RCC_PLLSOURCE(RCC_OscInitStruct->PLL.PLLSource));
 638:Drivers/STM32F0xx_HAL_Driver/Src/stm32f0xx_hal_rcc.c ****         assert_param(IS_RCC_PLL_MUL(RCC_OscInitStruct->PLL.PLLMUL));
 639:Drivers/STM32F0xx_HAL_Driver/Src/stm32f0xx_hal_rcc.c ****         assert_param(IS_RCC_PREDIV(RCC_OscInitStruct->PLL.PREDIV));
 640:Drivers/STM32F0xx_HAL_Driver/Src/stm32f0xx_hal_rcc.c ****   
 641:Drivers/STM32F0xx_HAL_Driver/Src/stm32f0xx_hal_rcc.c ****         /* Disable the main PLL. */
 642:Drivers/STM32F0xx_HAL_Driver/Src/stm32f0xx_hal_rcc.c ****         __HAL_RCC_PLL_DISABLE();
 1122              		.loc 1 642 9
 1123 05be 2C4B     		ldr	r3, .L78
 1124 05c0 1A68     		ldr	r2, [r3]
 1125 05c2 2B4B     		ldr	r3, .L78
 1126 05c4 2E49     		ldr	r1, .L78+16
 1127 05c6 0A40     		ands	r2, r1
 1128 05c8 1A60     		str	r2, [r3]
 643:Drivers/STM32F0xx_HAL_Driver/Src/stm32f0xx_hal_rcc.c ****         
 644:Drivers/STM32F0xx_HAL_Driver/Src/stm32f0xx_hal_rcc.c ****         /* Get Start Tick */
 645:Drivers/STM32F0xx_HAL_Driver/Src/stm32f0xx_hal_rcc.c ****         tickstart = HAL_GetTick();
 1129              		.loc 1 645 21
 1130 05ca FFF7FEFF 		bl	HAL_GetTick
 1131 05ce 0300     		movs	r3, r0
 1132 05d0 3B61     		str	r3, [r7, #16]
 646:Drivers/STM32F0xx_HAL_Driver/Src/stm32f0xx_hal_rcc.c ****         
 647:Drivers/STM32F0xx_HAL_Driver/Src/stm32f0xx_hal_rcc.c ****         /* Wait till PLL is disabled */
 648:Drivers/STM32F0xx_HAL_Driver/Src/stm32f0xx_hal_rcc.c ****         while(__HAL_RCC_GET_FLAG(RCC_FLAG_PLLRDY)  != RESET)
 1133              		.loc 1 648 14
 1134 05d2 08E0     		b	.L68
 1135              	.L69:
 649:Drivers/STM32F0xx_HAL_Driver/Src/stm32f0xx_hal_rcc.c ****         {
 650:Drivers/STM32F0xx_HAL_Driver/Src/stm32f0xx_hal_rcc.c ****           if((HAL_GetTick() - tickstart ) > PLL_TIMEOUT_VALUE)
 1136              		.loc 1 650 15
 1137 05d4 FFF7FEFF 		bl	HAL_GetTick
 1138 05d8 0200     		movs	r2, r0
 1139              		.loc 1 650 29
 1140 05da 3B69     		ldr	r3, [r7, #16]
 1141 05dc D31A     		subs	r3, r2, r3
 1142              		.loc 1 650 13
 1143 05de 022B     		cmp	r3, #2
 1144 05e0 01D9     		bls	.L68
 651:Drivers/STM32F0xx_HAL_Driver/Src/stm32f0xx_hal_rcc.c ****           {
 652:Drivers/STM32F0xx_HAL_Driver/Src/stm32f0xx_hal_rcc.c ****             return HAL_TIMEOUT;
 1145              		.loc 1 652 20
ARM GAS  C:\Users\ADMINI~1\AppData\Local\Temp\ccoLOygm.s 			page 33


 1146 05e2 0323     		movs	r3, #3
 1147 05e4 63E0     		b	.L9
 1148              	.L68:
 648:Drivers/STM32F0xx_HAL_Driver/Src/stm32f0xx_hal_rcc.c ****         {
 1149              		.loc 1 648 15
 1150 05e6 224B     		ldr	r3, .L78
 1151 05e8 1A68     		ldr	r2, [r3]
 1152 05ea 8023     		movs	r3, #128
 1153 05ec 9B04     		lsls	r3, r3, #18
 1154 05ee 1340     		ands	r3, r2
 648:Drivers/STM32F0xx_HAL_Driver/Src/stm32f0xx_hal_rcc.c ****         {
 1155              		.loc 1 648 14
 1156 05f0 F0D1     		bne	.L69
 653:Drivers/STM32F0xx_HAL_Driver/Src/stm32f0xx_hal_rcc.c ****           }
 654:Drivers/STM32F0xx_HAL_Driver/Src/stm32f0xx_hal_rcc.c ****         }
 655:Drivers/STM32F0xx_HAL_Driver/Src/stm32f0xx_hal_rcc.c **** 
 656:Drivers/STM32F0xx_HAL_Driver/Src/stm32f0xx_hal_rcc.c ****         /* Configure the main PLL clock source, predivider and multiplication factor. */
 657:Drivers/STM32F0xx_HAL_Driver/Src/stm32f0xx_hal_rcc.c ****         __HAL_RCC_PLL_CONFIG(RCC_OscInitStruct->PLL.PLLSource,
 1157              		.loc 1 657 9
 1158 05f2 1F4B     		ldr	r3, .L78
 1159 05f4 DB6A     		ldr	r3, [r3, #44]
 1160 05f6 0F22     		movs	r2, #15
 1161 05f8 9343     		bics	r3, r2
 1162 05fa 1900     		movs	r1, r3
 1163 05fc 7B68     		ldr	r3, [r7, #4]
 1164 05fe 1A6B     		ldr	r2, [r3, #48]
 1165 0600 1B4B     		ldr	r3, .L78
 1166 0602 0A43     		orrs	r2, r1
 1167 0604 DA62     		str	r2, [r3, #44]
 1168 0606 1A4B     		ldr	r3, .L78
 1169 0608 5B68     		ldr	r3, [r3, #4]
 1170 060a 1E4A     		ldr	r2, .L78+20
 1171 060c 1340     		ands	r3, r2
 1172 060e 1900     		movs	r1, r3
 1173 0610 7B68     		ldr	r3, [r7, #4]
 1174 0612 DA6A     		ldr	r2, [r3, #44]
 1175 0614 7B68     		ldr	r3, [r7, #4]
 1176 0616 9B6A     		ldr	r3, [r3, #40]
 1177 0618 1A43     		orrs	r2, r3
 1178 061a 154B     		ldr	r3, .L78
 1179 061c 0A43     		orrs	r2, r1
 1180 061e 5A60     		str	r2, [r3, #4]
 658:Drivers/STM32F0xx_HAL_Driver/Src/stm32f0xx_hal_rcc.c ****                              RCC_OscInitStruct->PLL.PREDIV,
 659:Drivers/STM32F0xx_HAL_Driver/Src/stm32f0xx_hal_rcc.c ****                              RCC_OscInitStruct->PLL.PLLMUL);
 660:Drivers/STM32F0xx_HAL_Driver/Src/stm32f0xx_hal_rcc.c ****         /* Enable the main PLL. */
 661:Drivers/STM32F0xx_HAL_Driver/Src/stm32f0xx_hal_rcc.c ****         __HAL_RCC_PLL_ENABLE();
 1181              		.loc 1 661 9
 1182 0620 134B     		ldr	r3, .L78
 1183 0622 1A68     		ldr	r2, [r3]
 1184 0624 124B     		ldr	r3, .L78
 1185 0626 8021     		movs	r1, #128
 1186 0628 4904     		lsls	r1, r1, #17
 1187 062a 0A43     		orrs	r2, r1
 1188 062c 1A60     		str	r2, [r3]
 662:Drivers/STM32F0xx_HAL_Driver/Src/stm32f0xx_hal_rcc.c ****         
 663:Drivers/STM32F0xx_HAL_Driver/Src/stm32f0xx_hal_rcc.c ****         /* Get Start Tick */
 664:Drivers/STM32F0xx_HAL_Driver/Src/stm32f0xx_hal_rcc.c ****         tickstart = HAL_GetTick();
ARM GAS  C:\Users\ADMINI~1\AppData\Local\Temp\ccoLOygm.s 			page 34


 1189              		.loc 1 664 21
 1190 062e FFF7FEFF 		bl	HAL_GetTick
 1191 0632 0300     		movs	r3, r0
 1192 0634 3B61     		str	r3, [r7, #16]
 665:Drivers/STM32F0xx_HAL_Driver/Src/stm32f0xx_hal_rcc.c ****         
 666:Drivers/STM32F0xx_HAL_Driver/Src/stm32f0xx_hal_rcc.c ****         /* Wait till PLL is ready */
 667:Drivers/STM32F0xx_HAL_Driver/Src/stm32f0xx_hal_rcc.c ****         while(__HAL_RCC_GET_FLAG(RCC_FLAG_PLLRDY)  == RESET)
 1193              		.loc 1 667 14
 1194 0636 08E0     		b	.L70
 1195              	.L71:
 668:Drivers/STM32F0xx_HAL_Driver/Src/stm32f0xx_hal_rcc.c ****         {
 669:Drivers/STM32F0xx_HAL_Driver/Src/stm32f0xx_hal_rcc.c ****           if((HAL_GetTick() - tickstart ) > PLL_TIMEOUT_VALUE)
 1196              		.loc 1 669 15
 1197 0638 FFF7FEFF 		bl	HAL_GetTick
 1198 063c 0200     		movs	r2, r0
 1199              		.loc 1 669 29
 1200 063e 3B69     		ldr	r3, [r7, #16]
 1201 0640 D31A     		subs	r3, r2, r3
 1202              		.loc 1 669 13
 1203 0642 022B     		cmp	r3, #2
 1204 0644 01D9     		bls	.L70
 670:Drivers/STM32F0xx_HAL_Driver/Src/stm32f0xx_hal_rcc.c ****           {
 671:Drivers/STM32F0xx_HAL_Driver/Src/stm32f0xx_hal_rcc.c ****             return HAL_TIMEOUT;
 1205              		.loc 1 671 20
 1206 0646 0323     		movs	r3, #3
 1207 0648 31E0     		b	.L9
 1208              	.L70:
 667:Drivers/STM32F0xx_HAL_Driver/Src/stm32f0xx_hal_rcc.c ****         {
 1209              		.loc 1 667 15
 1210 064a 094B     		ldr	r3, .L78
 1211 064c 1A68     		ldr	r2, [r3]
 1212 064e 8023     		movs	r3, #128
 1213 0650 9B04     		lsls	r3, r3, #18
 1214 0652 1340     		ands	r3, r2
 667:Drivers/STM32F0xx_HAL_Driver/Src/stm32f0xx_hal_rcc.c ****         {
 1215              		.loc 1 667 14
 1216 0654 F0D0     		beq	.L71
 1217 0656 29E0     		b	.L65
 1218              	.L67:
 672:Drivers/STM32F0xx_HAL_Driver/Src/stm32f0xx_hal_rcc.c ****           }
 673:Drivers/STM32F0xx_HAL_Driver/Src/stm32f0xx_hal_rcc.c ****         }
 674:Drivers/STM32F0xx_HAL_Driver/Src/stm32f0xx_hal_rcc.c ****       }
 675:Drivers/STM32F0xx_HAL_Driver/Src/stm32f0xx_hal_rcc.c ****       else
 676:Drivers/STM32F0xx_HAL_Driver/Src/stm32f0xx_hal_rcc.c ****       {
 677:Drivers/STM32F0xx_HAL_Driver/Src/stm32f0xx_hal_rcc.c ****         /* Disable the main PLL. */
 678:Drivers/STM32F0xx_HAL_Driver/Src/stm32f0xx_hal_rcc.c ****         __HAL_RCC_PLL_DISABLE();
 1219              		.loc 1 678 9
 1220 0658 054B     		ldr	r3, .L78
 1221 065a 1A68     		ldr	r2, [r3]
 1222 065c 044B     		ldr	r3, .L78
 1223 065e 0849     		ldr	r1, .L78+16
 1224 0660 0A40     		ands	r2, r1
 1225 0662 1A60     		str	r2, [r3]
 679:Drivers/STM32F0xx_HAL_Driver/Src/stm32f0xx_hal_rcc.c ****  
 680:Drivers/STM32F0xx_HAL_Driver/Src/stm32f0xx_hal_rcc.c ****         /* Get Start Tick */
 681:Drivers/STM32F0xx_HAL_Driver/Src/stm32f0xx_hal_rcc.c ****         tickstart = HAL_GetTick();
 1226              		.loc 1 681 21
ARM GAS  C:\Users\ADMINI~1\AppData\Local\Temp\ccoLOygm.s 			page 35


 1227 0664 FFF7FEFF 		bl	HAL_GetTick
 1228 0668 0300     		movs	r3, r0
 1229 066a 3B61     		str	r3, [r7, #16]
 682:Drivers/STM32F0xx_HAL_Driver/Src/stm32f0xx_hal_rcc.c ****         
 683:Drivers/STM32F0xx_HAL_Driver/Src/stm32f0xx_hal_rcc.c ****         /* Wait till PLL is disabled */  
 684:Drivers/STM32F0xx_HAL_Driver/Src/stm32f0xx_hal_rcc.c ****         while(__HAL_RCC_GET_FLAG(RCC_FLAG_PLLRDY)  != RESET)
 1230              		.loc 1 684 14
 1231 066c 15E0     		b	.L72
 1232              	.L79:
 1233 066e C046     		.align	2
 1234              	.L78:
 1235 0670 00100240 		.word	1073876992
 1236 0674 88130000 		.word	5000
 1237 0678 FFFFFFEF 		.word	-268435457
 1238 067c FFFFFEFF 		.word	-65537
 1239 0680 FFFFFFFE 		.word	-16777217
 1240 0684 FF7FC2FF 		.word	-4030465
 1241              	.L73:
 685:Drivers/STM32F0xx_HAL_Driver/Src/stm32f0xx_hal_rcc.c ****         {
 686:Drivers/STM32F0xx_HAL_Driver/Src/stm32f0xx_hal_rcc.c ****           if((HAL_GetTick() - tickstart ) > PLL_TIMEOUT_VALUE)
 1242              		.loc 1 686 15
 1243 0688 FFF7FEFF 		bl	HAL_GetTick
 1244 068c 0200     		movs	r2, r0
 1245              		.loc 1 686 29
 1246 068e 3B69     		ldr	r3, [r7, #16]
 1247 0690 D31A     		subs	r3, r2, r3
 1248              		.loc 1 686 13
 1249 0692 022B     		cmp	r3, #2
 1250 0694 01D9     		bls	.L72
 687:Drivers/STM32F0xx_HAL_Driver/Src/stm32f0xx_hal_rcc.c ****           {
 688:Drivers/STM32F0xx_HAL_Driver/Src/stm32f0xx_hal_rcc.c ****             return HAL_TIMEOUT;
 1251              		.loc 1 688 20
 1252 0696 0323     		movs	r3, #3
 1253 0698 09E0     		b	.L9
 1254              	.L72:
 684:Drivers/STM32F0xx_HAL_Driver/Src/stm32f0xx_hal_rcc.c ****         {
 1255              		.loc 1 684 15
 1256 069a 074B     		ldr	r3, .L80
 1257 069c 1A68     		ldr	r2, [r3]
 1258 069e 8023     		movs	r3, #128
 1259 06a0 9B04     		lsls	r3, r3, #18
 1260 06a2 1340     		ands	r3, r2
 684:Drivers/STM32F0xx_HAL_Driver/Src/stm32f0xx_hal_rcc.c ****         {
 1261              		.loc 1 684 14
 1262 06a4 F0D1     		bne	.L73
 1263 06a6 01E0     		b	.L65
 1264              	.L66:
 689:Drivers/STM32F0xx_HAL_Driver/Src/stm32f0xx_hal_rcc.c ****           }
 690:Drivers/STM32F0xx_HAL_Driver/Src/stm32f0xx_hal_rcc.c ****         }
 691:Drivers/STM32F0xx_HAL_Driver/Src/stm32f0xx_hal_rcc.c ****       }
 692:Drivers/STM32F0xx_HAL_Driver/Src/stm32f0xx_hal_rcc.c ****     }
 693:Drivers/STM32F0xx_HAL_Driver/Src/stm32f0xx_hal_rcc.c ****     else
 694:Drivers/STM32F0xx_HAL_Driver/Src/stm32f0xx_hal_rcc.c ****     {
 695:Drivers/STM32F0xx_HAL_Driver/Src/stm32f0xx_hal_rcc.c ****       return HAL_ERROR;
 1265              		.loc 1 695 14
 1266 06a8 0123     		movs	r3, #1
 1267 06aa 00E0     		b	.L9
ARM GAS  C:\Users\ADMINI~1\AppData\Local\Temp\ccoLOygm.s 			page 36


 1268              	.L65:
 696:Drivers/STM32F0xx_HAL_Driver/Src/stm32f0xx_hal_rcc.c ****     }
 697:Drivers/STM32F0xx_HAL_Driver/Src/stm32f0xx_hal_rcc.c ****   }
 698:Drivers/STM32F0xx_HAL_Driver/Src/stm32f0xx_hal_rcc.c ****   
 699:Drivers/STM32F0xx_HAL_Driver/Src/stm32f0xx_hal_rcc.c ****   return HAL_OK;
 1269              		.loc 1 699 10
 1270 06ac 0023     		movs	r3, #0
 1271              	.L9:
 700:Drivers/STM32F0xx_HAL_Driver/Src/stm32f0xx_hal_rcc.c **** }
 1272              		.loc 1 700 1
 1273 06ae 1800     		movs	r0, r3
 1274 06b0 BD46     		mov	sp, r7
 1275 06b2 06B0     		add	sp, sp, #24
 1276              		@ sp needed
 1277 06b4 80BD     		pop	{r7, pc}
 1278              	.L81:
 1279 06b6 C046     		.align	2
 1280              	.L80:
 1281 06b8 00100240 		.word	1073876992
 1282              		.cfi_endproc
 1283              	.LFE38:
 1285              		.section	.text.HAL_RCC_ClockConfig,"ax",%progbits
 1286              		.align	1
 1287              		.global	HAL_RCC_ClockConfig
 1288              		.syntax unified
 1289              		.code	16
 1290              		.thumb_func
 1291              		.fpu softvfp
 1293              	HAL_RCC_ClockConfig:
 1294              	.LFB39:
 701:Drivers/STM32F0xx_HAL_Driver/Src/stm32f0xx_hal_rcc.c **** 
 702:Drivers/STM32F0xx_HAL_Driver/Src/stm32f0xx_hal_rcc.c **** /**
 703:Drivers/STM32F0xx_HAL_Driver/Src/stm32f0xx_hal_rcc.c ****   * @brief  Initializes the CPU, AHB and APB buses clocks according to the specified 
 704:Drivers/STM32F0xx_HAL_Driver/Src/stm32f0xx_hal_rcc.c ****   *         parameters in the RCC_ClkInitStruct.
 705:Drivers/STM32F0xx_HAL_Driver/Src/stm32f0xx_hal_rcc.c ****   * @param  RCC_ClkInitStruct pointer to an RCC_OscInitTypeDef structure that
 706:Drivers/STM32F0xx_HAL_Driver/Src/stm32f0xx_hal_rcc.c ****   *         contains the configuration information for the RCC peripheral.
 707:Drivers/STM32F0xx_HAL_Driver/Src/stm32f0xx_hal_rcc.c ****   * @param  FLatency FLASH Latency                   
 708:Drivers/STM32F0xx_HAL_Driver/Src/stm32f0xx_hal_rcc.c ****   *          The value of this parameter depend on device used within the same series
 709:Drivers/STM32F0xx_HAL_Driver/Src/stm32f0xx_hal_rcc.c ****   * @note   The SystemCoreClock CMSIS variable is used to store System Clock Frequency 
 710:Drivers/STM32F0xx_HAL_Driver/Src/stm32f0xx_hal_rcc.c ****   *         and updated by @ref HAL_RCC_GetHCLKFreq() function called within this function
 711:Drivers/STM32F0xx_HAL_Driver/Src/stm32f0xx_hal_rcc.c ****   *
 712:Drivers/STM32F0xx_HAL_Driver/Src/stm32f0xx_hal_rcc.c ****   * @note   The HSI is used (enabled by hardware) as system clock source after
 713:Drivers/STM32F0xx_HAL_Driver/Src/stm32f0xx_hal_rcc.c ****   *         start-up from Reset, wake-up from STOP and STANDBY mode, or in case
 714:Drivers/STM32F0xx_HAL_Driver/Src/stm32f0xx_hal_rcc.c ****   *         of failure of the HSE used directly or indirectly as system clock
 715:Drivers/STM32F0xx_HAL_Driver/Src/stm32f0xx_hal_rcc.c ****   *         (if the Clock Security System CSS is enabled).
 716:Drivers/STM32F0xx_HAL_Driver/Src/stm32f0xx_hal_rcc.c ****   *           
 717:Drivers/STM32F0xx_HAL_Driver/Src/stm32f0xx_hal_rcc.c ****   * @note   A switch from one clock source to another occurs only if the target
 718:Drivers/STM32F0xx_HAL_Driver/Src/stm32f0xx_hal_rcc.c ****   *         clock source is ready (clock stable after start-up delay or PLL locked). 
 719:Drivers/STM32F0xx_HAL_Driver/Src/stm32f0xx_hal_rcc.c ****   *         If a clock source which is not yet ready is selected, the switch will
 720:Drivers/STM32F0xx_HAL_Driver/Src/stm32f0xx_hal_rcc.c ****   *         occur when the clock source will be ready. 
 721:Drivers/STM32F0xx_HAL_Driver/Src/stm32f0xx_hal_rcc.c ****   *         You can use @ref HAL_RCC_GetClockConfig() function to know which clock is
 722:Drivers/STM32F0xx_HAL_Driver/Src/stm32f0xx_hal_rcc.c ****   *         currently used as system clock source.
 723:Drivers/STM32F0xx_HAL_Driver/Src/stm32f0xx_hal_rcc.c ****   * @retval HAL status
 724:Drivers/STM32F0xx_HAL_Driver/Src/stm32f0xx_hal_rcc.c ****   */
 725:Drivers/STM32F0xx_HAL_Driver/Src/stm32f0xx_hal_rcc.c **** HAL_StatusTypeDef HAL_RCC_ClockConfig(RCC_ClkInitTypeDef  *RCC_ClkInitStruct, uint32_t FLatency)
 726:Drivers/STM32F0xx_HAL_Driver/Src/stm32f0xx_hal_rcc.c **** {
 1295              		.loc 1 726 1
ARM GAS  C:\Users\ADMINI~1\AppData\Local\Temp\ccoLOygm.s 			page 37


 1296              		.cfi_startproc
 1297              		@ args = 0, pretend = 0, frame = 16
 1298              		@ frame_needed = 1, uses_anonymous_args = 0
 1299 0000 80B5     		push	{r7, lr}
 1300              	.LCFI5:
 1301              		.cfi_def_cfa_offset 8
 1302              		.cfi_offset 7, -8
 1303              		.cfi_offset 14, -4
 1304 0002 84B0     		sub	sp, sp, #16
 1305              	.LCFI6:
 1306              		.cfi_def_cfa_offset 24
 1307 0004 00AF     		add	r7, sp, #0
 1308              	.LCFI7:
 1309              		.cfi_def_cfa_register 7
 1310 0006 7860     		str	r0, [r7, #4]
 1311 0008 3960     		str	r1, [r7]
 727:Drivers/STM32F0xx_HAL_Driver/Src/stm32f0xx_hal_rcc.c ****   uint32_t tickstart = 0U;
 1312              		.loc 1 727 12
 1313 000a 0023     		movs	r3, #0
 1314 000c FB60     		str	r3, [r7, #12]
 728:Drivers/STM32F0xx_HAL_Driver/Src/stm32f0xx_hal_rcc.c ****   
 729:Drivers/STM32F0xx_HAL_Driver/Src/stm32f0xx_hal_rcc.c ****   /* Check the parameters */
 730:Drivers/STM32F0xx_HAL_Driver/Src/stm32f0xx_hal_rcc.c ****   assert_param(RCC_ClkInitStruct != NULL);
 731:Drivers/STM32F0xx_HAL_Driver/Src/stm32f0xx_hal_rcc.c ****   assert_param(IS_RCC_CLOCKTYPE(RCC_ClkInitStruct->ClockType));
 732:Drivers/STM32F0xx_HAL_Driver/Src/stm32f0xx_hal_rcc.c ****   assert_param(IS_FLASH_LATENCY(FLatency));
 733:Drivers/STM32F0xx_HAL_Driver/Src/stm32f0xx_hal_rcc.c **** 
 734:Drivers/STM32F0xx_HAL_Driver/Src/stm32f0xx_hal_rcc.c ****   /* To correctly read data from FLASH memory, the number of wait states (LATENCY) 
 735:Drivers/STM32F0xx_HAL_Driver/Src/stm32f0xx_hal_rcc.c ****   must be correctly programmed according to the frequency of the CPU clock 
 736:Drivers/STM32F0xx_HAL_Driver/Src/stm32f0xx_hal_rcc.c ****     (HCLK) of the device. */
 737:Drivers/STM32F0xx_HAL_Driver/Src/stm32f0xx_hal_rcc.c **** 
 738:Drivers/STM32F0xx_HAL_Driver/Src/stm32f0xx_hal_rcc.c ****   /* Increasing the number of wait states because of higher CPU frequency */
 739:Drivers/STM32F0xx_HAL_Driver/Src/stm32f0xx_hal_rcc.c ****   if(FLatency > (FLASH->ACR & FLASH_ACR_LATENCY))
 1315              		.loc 1 739 23
 1316 000e 7B4B     		ldr	r3, .L104
 1317 0010 1B68     		ldr	r3, [r3]
 1318              		.loc 1 739 29
 1319 0012 0122     		movs	r2, #1
 1320 0014 1340     		ands	r3, r2
 1321              		.loc 1 739 5
 1322 0016 3A68     		ldr	r2, [r7]
 1323 0018 9A42     		cmp	r2, r3
 1324 001a 11D9     		bls	.L83
 740:Drivers/STM32F0xx_HAL_Driver/Src/stm32f0xx_hal_rcc.c ****   {    
 741:Drivers/STM32F0xx_HAL_Driver/Src/stm32f0xx_hal_rcc.c ****     /* Program the new number of wait states to the LATENCY bits in the FLASH_ACR register */
 742:Drivers/STM32F0xx_HAL_Driver/Src/stm32f0xx_hal_rcc.c ****     __HAL_FLASH_SET_LATENCY(FLatency);
 1325              		.loc 1 742 5
 1326 001c 774B     		ldr	r3, .L104
 1327 001e 1B68     		ldr	r3, [r3]
 1328 0020 0122     		movs	r2, #1
 1329 0022 9343     		bics	r3, r2
 1330 0024 1900     		movs	r1, r3
 1331 0026 754B     		ldr	r3, .L104
 1332 0028 3A68     		ldr	r2, [r7]
 1333 002a 0A43     		orrs	r2, r1
 1334 002c 1A60     		str	r2, [r3]
 743:Drivers/STM32F0xx_HAL_Driver/Src/stm32f0xx_hal_rcc.c ****     
 744:Drivers/STM32F0xx_HAL_Driver/Src/stm32f0xx_hal_rcc.c ****     /* Check that the new number of wait states is taken into account to access the Flash
ARM GAS  C:\Users\ADMINI~1\AppData\Local\Temp\ccoLOygm.s 			page 38


 745:Drivers/STM32F0xx_HAL_Driver/Src/stm32f0xx_hal_rcc.c ****     memory by reading the FLASH_ACR register */
 746:Drivers/STM32F0xx_HAL_Driver/Src/stm32f0xx_hal_rcc.c ****     if((FLASH->ACR & FLASH_ACR_LATENCY) != FLatency)
 1335              		.loc 1 746 14
 1336 002e 734B     		ldr	r3, .L104
 1337 0030 1B68     		ldr	r3, [r3]
 1338              		.loc 1 746 20
 1339 0032 0122     		movs	r2, #1
 1340 0034 1340     		ands	r3, r2
 1341              		.loc 1 746 7
 1342 0036 3A68     		ldr	r2, [r7]
 1343 0038 9A42     		cmp	r2, r3
 1344 003a 01D0     		beq	.L83
 747:Drivers/STM32F0xx_HAL_Driver/Src/stm32f0xx_hal_rcc.c ****     {
 748:Drivers/STM32F0xx_HAL_Driver/Src/stm32f0xx_hal_rcc.c ****       return HAL_ERROR;
 1345              		.loc 1 748 14
 1346 003c 0123     		movs	r3, #1
 1347 003e D8E0     		b	.L84
 1348              	.L83:
 749:Drivers/STM32F0xx_HAL_Driver/Src/stm32f0xx_hal_rcc.c ****     }
 750:Drivers/STM32F0xx_HAL_Driver/Src/stm32f0xx_hal_rcc.c ****   }
 751:Drivers/STM32F0xx_HAL_Driver/Src/stm32f0xx_hal_rcc.c **** 
 752:Drivers/STM32F0xx_HAL_Driver/Src/stm32f0xx_hal_rcc.c ****   /*-------------------------- HCLK Configuration --------------------------*/
 753:Drivers/STM32F0xx_HAL_Driver/Src/stm32f0xx_hal_rcc.c ****   if(((RCC_ClkInitStruct->ClockType) & RCC_CLOCKTYPE_HCLK) == RCC_CLOCKTYPE_HCLK)
 1349              		.loc 1 753 25
 1350 0040 7B68     		ldr	r3, [r7, #4]
 1351 0042 1B68     		ldr	r3, [r3]
 1352              		.loc 1 753 38
 1353 0044 0222     		movs	r2, #2
 1354 0046 1340     		ands	r3, r2
 1355              		.loc 1 753 5
 1356 0048 09D0     		beq	.L85
 754:Drivers/STM32F0xx_HAL_Driver/Src/stm32f0xx_hal_rcc.c ****   {
 755:Drivers/STM32F0xx_HAL_Driver/Src/stm32f0xx_hal_rcc.c ****     assert_param(IS_RCC_HCLK(RCC_ClkInitStruct->AHBCLKDivider));
 756:Drivers/STM32F0xx_HAL_Driver/Src/stm32f0xx_hal_rcc.c ****     MODIFY_REG(RCC->CFGR, RCC_CFGR_HPRE, RCC_ClkInitStruct->AHBCLKDivider);
 1357              		.loc 1 756 5
 1358 004a 6D4B     		ldr	r3, .L104+4
 1359 004c 5B68     		ldr	r3, [r3, #4]
 1360 004e F022     		movs	r2, #240
 1361 0050 9343     		bics	r3, r2
 1362 0052 1900     		movs	r1, r3
 1363 0054 7B68     		ldr	r3, [r7, #4]
 1364 0056 9A68     		ldr	r2, [r3, #8]
 1365 0058 694B     		ldr	r3, .L104+4
 1366 005a 0A43     		orrs	r2, r1
 1367 005c 5A60     		str	r2, [r3, #4]
 1368              	.L85:
 757:Drivers/STM32F0xx_HAL_Driver/Src/stm32f0xx_hal_rcc.c ****   }
 758:Drivers/STM32F0xx_HAL_Driver/Src/stm32f0xx_hal_rcc.c **** 
 759:Drivers/STM32F0xx_HAL_Driver/Src/stm32f0xx_hal_rcc.c ****   /*------------------------- SYSCLK Configuration ---------------------------*/ 
 760:Drivers/STM32F0xx_HAL_Driver/Src/stm32f0xx_hal_rcc.c ****   if(((RCC_ClkInitStruct->ClockType) & RCC_CLOCKTYPE_SYSCLK) == RCC_CLOCKTYPE_SYSCLK)
 1369              		.loc 1 760 25
 1370 005e 7B68     		ldr	r3, [r7, #4]
 1371 0060 1B68     		ldr	r3, [r3]
 1372              		.loc 1 760 38
 1373 0062 0122     		movs	r2, #1
 1374 0064 1340     		ands	r3, r2
 1375              		.loc 1 760 5
ARM GAS  C:\Users\ADMINI~1\AppData\Local\Temp\ccoLOygm.s 			page 39


 1376 0066 00D1     		bne	.LCB1202
 1377 0068 89E0     		b	.L86	@long jump
 1378              	.LCB1202:
 761:Drivers/STM32F0xx_HAL_Driver/Src/stm32f0xx_hal_rcc.c ****   {    
 762:Drivers/STM32F0xx_HAL_Driver/Src/stm32f0xx_hal_rcc.c ****     assert_param(IS_RCC_SYSCLKSOURCE(RCC_ClkInitStruct->SYSCLKSource));
 763:Drivers/STM32F0xx_HAL_Driver/Src/stm32f0xx_hal_rcc.c ****     
 764:Drivers/STM32F0xx_HAL_Driver/Src/stm32f0xx_hal_rcc.c ****     /* HSE is selected as System Clock Source */
 765:Drivers/STM32F0xx_HAL_Driver/Src/stm32f0xx_hal_rcc.c ****     if(RCC_ClkInitStruct->SYSCLKSource == RCC_SYSCLKSOURCE_HSE)
 1379              		.loc 1 765 25
 1380 006a 7B68     		ldr	r3, [r7, #4]
 1381 006c 5B68     		ldr	r3, [r3, #4]
 1382              		.loc 1 765 7
 1383 006e 012B     		cmp	r3, #1
 1384 0070 07D1     		bne	.L87
 766:Drivers/STM32F0xx_HAL_Driver/Src/stm32f0xx_hal_rcc.c ****     {
 767:Drivers/STM32F0xx_HAL_Driver/Src/stm32f0xx_hal_rcc.c ****       /* Check the HSE ready flag */  
 768:Drivers/STM32F0xx_HAL_Driver/Src/stm32f0xx_hal_rcc.c ****       if(__HAL_RCC_GET_FLAG(RCC_FLAG_HSERDY) == RESET)
 1385              		.loc 1 768 10
 1386 0072 634B     		ldr	r3, .L104+4
 1387 0074 1A68     		ldr	r2, [r3]
 1388 0076 8023     		movs	r3, #128
 1389 0078 9B02     		lsls	r3, r3, #10
 1390 007a 1340     		ands	r3, r2
 1391              		.loc 1 768 9
 1392 007c 20D1     		bne	.L88
 769:Drivers/STM32F0xx_HAL_Driver/Src/stm32f0xx_hal_rcc.c ****       {
 770:Drivers/STM32F0xx_HAL_Driver/Src/stm32f0xx_hal_rcc.c ****         return HAL_ERROR;
 1393              		.loc 1 770 16
 1394 007e 0123     		movs	r3, #1
 1395 0080 B7E0     		b	.L84
 1396              	.L87:
 771:Drivers/STM32F0xx_HAL_Driver/Src/stm32f0xx_hal_rcc.c ****       }
 772:Drivers/STM32F0xx_HAL_Driver/Src/stm32f0xx_hal_rcc.c ****     }
 773:Drivers/STM32F0xx_HAL_Driver/Src/stm32f0xx_hal_rcc.c ****     /* PLL is selected as System Clock Source */
 774:Drivers/STM32F0xx_HAL_Driver/Src/stm32f0xx_hal_rcc.c ****     else if(RCC_ClkInitStruct->SYSCLKSource == RCC_SYSCLKSOURCE_PLLCLK)
 1397              		.loc 1 774 30
 1398 0082 7B68     		ldr	r3, [r7, #4]
 1399 0084 5B68     		ldr	r3, [r3, #4]
 1400              		.loc 1 774 12
 1401 0086 022B     		cmp	r3, #2
 1402 0088 07D1     		bne	.L89
 775:Drivers/STM32F0xx_HAL_Driver/Src/stm32f0xx_hal_rcc.c ****     {
 776:Drivers/STM32F0xx_HAL_Driver/Src/stm32f0xx_hal_rcc.c ****       /* Check the PLL ready flag */  
 777:Drivers/STM32F0xx_HAL_Driver/Src/stm32f0xx_hal_rcc.c ****       if(__HAL_RCC_GET_FLAG(RCC_FLAG_PLLRDY) == RESET)
 1403              		.loc 1 777 10
 1404 008a 5D4B     		ldr	r3, .L104+4
 1405 008c 1A68     		ldr	r2, [r3]
 1406 008e 8023     		movs	r3, #128
 1407 0090 9B04     		lsls	r3, r3, #18
 1408 0092 1340     		ands	r3, r2
 1409              		.loc 1 777 9
 1410 0094 14D1     		bne	.L88
 778:Drivers/STM32F0xx_HAL_Driver/Src/stm32f0xx_hal_rcc.c ****       {
 779:Drivers/STM32F0xx_HAL_Driver/Src/stm32f0xx_hal_rcc.c ****         return HAL_ERROR;
 1411              		.loc 1 779 16
 1412 0096 0123     		movs	r3, #1
 1413 0098 ABE0     		b	.L84
ARM GAS  C:\Users\ADMINI~1\AppData\Local\Temp\ccoLOygm.s 			page 40


 1414              	.L89:
 780:Drivers/STM32F0xx_HAL_Driver/Src/stm32f0xx_hal_rcc.c ****       }
 781:Drivers/STM32F0xx_HAL_Driver/Src/stm32f0xx_hal_rcc.c ****     }
 782:Drivers/STM32F0xx_HAL_Driver/Src/stm32f0xx_hal_rcc.c **** #if defined(RCC_CFGR_SWS_HSI48)
 783:Drivers/STM32F0xx_HAL_Driver/Src/stm32f0xx_hal_rcc.c ****     /* HSI48 is selected as System Clock Source */
 784:Drivers/STM32F0xx_HAL_Driver/Src/stm32f0xx_hal_rcc.c ****     else if(RCC_ClkInitStruct->SYSCLKSource == RCC_SYSCLKSOURCE_HSI48)
 1415              		.loc 1 784 30
 1416 009a 7B68     		ldr	r3, [r7, #4]
 1417 009c 5B68     		ldr	r3, [r3, #4]
 1418              		.loc 1 784 12
 1419 009e 032B     		cmp	r3, #3
 1420 00a0 07D1     		bne	.L90
 785:Drivers/STM32F0xx_HAL_Driver/Src/stm32f0xx_hal_rcc.c ****     {
 786:Drivers/STM32F0xx_HAL_Driver/Src/stm32f0xx_hal_rcc.c ****       /* Check the HSI48 ready flag */
 787:Drivers/STM32F0xx_HAL_Driver/Src/stm32f0xx_hal_rcc.c ****       if(__HAL_RCC_GET_FLAG(RCC_FLAG_HSI48RDY) == RESET)
 1421              		.loc 1 787 10
 1422 00a2 574B     		ldr	r3, .L104+4
 1423 00a4 5A6B     		ldr	r2, [r3, #52]
 1424 00a6 8023     		movs	r3, #128
 1425 00a8 5B02     		lsls	r3, r3, #9
 1426 00aa 1340     		ands	r3, r2
 1427              		.loc 1 787 9
 1428 00ac 08D1     		bne	.L88
 788:Drivers/STM32F0xx_HAL_Driver/Src/stm32f0xx_hal_rcc.c ****       {
 789:Drivers/STM32F0xx_HAL_Driver/Src/stm32f0xx_hal_rcc.c ****         return HAL_ERROR;
 1429              		.loc 1 789 16
 1430 00ae 0123     		movs	r3, #1
 1431 00b0 9FE0     		b	.L84
 1432              	.L90:
 790:Drivers/STM32F0xx_HAL_Driver/Src/stm32f0xx_hal_rcc.c ****       }
 791:Drivers/STM32F0xx_HAL_Driver/Src/stm32f0xx_hal_rcc.c ****     }
 792:Drivers/STM32F0xx_HAL_Driver/Src/stm32f0xx_hal_rcc.c **** #endif /* RCC_CFGR_SWS_HSI48 */
 793:Drivers/STM32F0xx_HAL_Driver/Src/stm32f0xx_hal_rcc.c ****     /* HSI is selected as System Clock Source */
 794:Drivers/STM32F0xx_HAL_Driver/Src/stm32f0xx_hal_rcc.c ****     else
 795:Drivers/STM32F0xx_HAL_Driver/Src/stm32f0xx_hal_rcc.c ****     {
 796:Drivers/STM32F0xx_HAL_Driver/Src/stm32f0xx_hal_rcc.c ****       /* Check the HSI ready flag */  
 797:Drivers/STM32F0xx_HAL_Driver/Src/stm32f0xx_hal_rcc.c ****       if(__HAL_RCC_GET_FLAG(RCC_FLAG_HSIRDY) == RESET)
 1433              		.loc 1 797 10
 1434 00b2 534B     		ldr	r3, .L104+4
 1435 00b4 1B68     		ldr	r3, [r3]
 1436 00b6 0222     		movs	r2, #2
 1437 00b8 1340     		ands	r3, r2
 1438              		.loc 1 797 9
 1439 00ba 01D1     		bne	.L88
 798:Drivers/STM32F0xx_HAL_Driver/Src/stm32f0xx_hal_rcc.c ****       {
 799:Drivers/STM32F0xx_HAL_Driver/Src/stm32f0xx_hal_rcc.c ****         return HAL_ERROR;
 1440              		.loc 1 799 16
 1441 00bc 0123     		movs	r3, #1
 1442 00be 98E0     		b	.L84
 1443              	.L88:
 800:Drivers/STM32F0xx_HAL_Driver/Src/stm32f0xx_hal_rcc.c ****       }
 801:Drivers/STM32F0xx_HAL_Driver/Src/stm32f0xx_hal_rcc.c ****     }
 802:Drivers/STM32F0xx_HAL_Driver/Src/stm32f0xx_hal_rcc.c ****     __HAL_RCC_SYSCLK_CONFIG(RCC_ClkInitStruct->SYSCLKSource);
 1444              		.loc 1 802 5
 1445 00c0 4F4B     		ldr	r3, .L104+4
 1446 00c2 5B68     		ldr	r3, [r3, #4]
 1447 00c4 0322     		movs	r2, #3
ARM GAS  C:\Users\ADMINI~1\AppData\Local\Temp\ccoLOygm.s 			page 41


 1448 00c6 9343     		bics	r3, r2
 1449 00c8 1900     		movs	r1, r3
 1450 00ca 7B68     		ldr	r3, [r7, #4]
 1451 00cc 5A68     		ldr	r2, [r3, #4]
 1452 00ce 4C4B     		ldr	r3, .L104+4
 1453 00d0 0A43     		orrs	r2, r1
 1454 00d2 5A60     		str	r2, [r3, #4]
 803:Drivers/STM32F0xx_HAL_Driver/Src/stm32f0xx_hal_rcc.c **** 
 804:Drivers/STM32F0xx_HAL_Driver/Src/stm32f0xx_hal_rcc.c ****     /* Get Start Tick */
 805:Drivers/STM32F0xx_HAL_Driver/Src/stm32f0xx_hal_rcc.c ****     tickstart = HAL_GetTick();
 1455              		.loc 1 805 17
 1456 00d4 FFF7FEFF 		bl	HAL_GetTick
 1457 00d8 0300     		movs	r3, r0
 1458 00da FB60     		str	r3, [r7, #12]
 806:Drivers/STM32F0xx_HAL_Driver/Src/stm32f0xx_hal_rcc.c ****     
 807:Drivers/STM32F0xx_HAL_Driver/Src/stm32f0xx_hal_rcc.c ****     if(RCC_ClkInitStruct->SYSCLKSource == RCC_SYSCLKSOURCE_HSE)
 1459              		.loc 1 807 25
 1460 00dc 7B68     		ldr	r3, [r7, #4]
 1461 00de 5B68     		ldr	r3, [r3, #4]
 1462              		.loc 1 807 7
 1463 00e0 012B     		cmp	r3, #1
 1464 00e2 11D1     		bne	.L91
 808:Drivers/STM32F0xx_HAL_Driver/Src/stm32f0xx_hal_rcc.c ****     {
 809:Drivers/STM32F0xx_HAL_Driver/Src/stm32f0xx_hal_rcc.c ****       while (__HAL_RCC_GET_SYSCLK_SOURCE() != RCC_SYSCLKSOURCE_STATUS_HSE)
 1465              		.loc 1 809 13
 1466 00e4 09E0     		b	.L92
 1467              	.L93:
 810:Drivers/STM32F0xx_HAL_Driver/Src/stm32f0xx_hal_rcc.c ****       {
 811:Drivers/STM32F0xx_HAL_Driver/Src/stm32f0xx_hal_rcc.c ****         if((HAL_GetTick() - tickstart ) > CLOCKSWITCH_TIMEOUT_VALUE)
 1468              		.loc 1 811 13
 1469 00e6 FFF7FEFF 		bl	HAL_GetTick
 1470 00ea 0200     		movs	r2, r0
 1471              		.loc 1 811 27
 1472 00ec FB68     		ldr	r3, [r7, #12]
 1473 00ee D31A     		subs	r3, r2, r3
 1474              		.loc 1 811 11
 1475 00f0 444A     		ldr	r2, .L104+8
 1476 00f2 9342     		cmp	r3, r2
 1477 00f4 01D9     		bls	.L92
 812:Drivers/STM32F0xx_HAL_Driver/Src/stm32f0xx_hal_rcc.c ****         {
 813:Drivers/STM32F0xx_HAL_Driver/Src/stm32f0xx_hal_rcc.c ****           return HAL_TIMEOUT;
 1478              		.loc 1 813 18
 1479 00f6 0323     		movs	r3, #3
 1480 00f8 7BE0     		b	.L84
 1481              	.L92:
 809:Drivers/STM32F0xx_HAL_Driver/Src/stm32f0xx_hal_rcc.c ****       {
 1482              		.loc 1 809 14
 1483 00fa 414B     		ldr	r3, .L104+4
 1484 00fc 5B68     		ldr	r3, [r3, #4]
 1485 00fe 0C22     		movs	r2, #12
 1486 0100 1340     		ands	r3, r2
 809:Drivers/STM32F0xx_HAL_Driver/Src/stm32f0xx_hal_rcc.c ****       {
 1487              		.loc 1 809 13
 1488 0102 042B     		cmp	r3, #4
 1489 0104 EFD1     		bne	.L93
 1490 0106 3AE0     		b	.L86
 1491              	.L91:
ARM GAS  C:\Users\ADMINI~1\AppData\Local\Temp\ccoLOygm.s 			page 42


 814:Drivers/STM32F0xx_HAL_Driver/Src/stm32f0xx_hal_rcc.c ****         }
 815:Drivers/STM32F0xx_HAL_Driver/Src/stm32f0xx_hal_rcc.c ****       }
 816:Drivers/STM32F0xx_HAL_Driver/Src/stm32f0xx_hal_rcc.c ****     }
 817:Drivers/STM32F0xx_HAL_Driver/Src/stm32f0xx_hal_rcc.c ****     else if(RCC_ClkInitStruct->SYSCLKSource == RCC_SYSCLKSOURCE_PLLCLK)
 1492              		.loc 1 817 30
 1493 0108 7B68     		ldr	r3, [r7, #4]
 1494 010a 5B68     		ldr	r3, [r3, #4]
 1495              		.loc 1 817 12
 1496 010c 022B     		cmp	r3, #2
 1497 010e 11D1     		bne	.L94
 818:Drivers/STM32F0xx_HAL_Driver/Src/stm32f0xx_hal_rcc.c ****     {
 819:Drivers/STM32F0xx_HAL_Driver/Src/stm32f0xx_hal_rcc.c ****       while (__HAL_RCC_GET_SYSCLK_SOURCE() != RCC_SYSCLKSOURCE_STATUS_PLLCLK)
 1498              		.loc 1 819 13
 1499 0110 09E0     		b	.L95
 1500              	.L96:
 820:Drivers/STM32F0xx_HAL_Driver/Src/stm32f0xx_hal_rcc.c ****       {
 821:Drivers/STM32F0xx_HAL_Driver/Src/stm32f0xx_hal_rcc.c ****         if((HAL_GetTick() - tickstart ) > CLOCKSWITCH_TIMEOUT_VALUE)
 1501              		.loc 1 821 13
 1502 0112 FFF7FEFF 		bl	HAL_GetTick
 1503 0116 0200     		movs	r2, r0
 1504              		.loc 1 821 27
 1505 0118 FB68     		ldr	r3, [r7, #12]
 1506 011a D31A     		subs	r3, r2, r3
 1507              		.loc 1 821 11
 1508 011c 394A     		ldr	r2, .L104+8
 1509 011e 9342     		cmp	r3, r2
 1510 0120 01D9     		bls	.L95
 822:Drivers/STM32F0xx_HAL_Driver/Src/stm32f0xx_hal_rcc.c ****         {
 823:Drivers/STM32F0xx_HAL_Driver/Src/stm32f0xx_hal_rcc.c ****           return HAL_TIMEOUT;
 1511              		.loc 1 823 18
 1512 0122 0323     		movs	r3, #3
 1513 0124 65E0     		b	.L84
 1514              	.L95:
 819:Drivers/STM32F0xx_HAL_Driver/Src/stm32f0xx_hal_rcc.c ****       {
 1515              		.loc 1 819 14
 1516 0126 364B     		ldr	r3, .L104+4
 1517 0128 5B68     		ldr	r3, [r3, #4]
 1518 012a 0C22     		movs	r2, #12
 1519 012c 1340     		ands	r3, r2
 819:Drivers/STM32F0xx_HAL_Driver/Src/stm32f0xx_hal_rcc.c ****       {
 1520              		.loc 1 819 13
 1521 012e 082B     		cmp	r3, #8
 1522 0130 EFD1     		bne	.L96
 1523 0132 24E0     		b	.L86
 1524              	.L94:
 824:Drivers/STM32F0xx_HAL_Driver/Src/stm32f0xx_hal_rcc.c ****         }
 825:Drivers/STM32F0xx_HAL_Driver/Src/stm32f0xx_hal_rcc.c ****       }
 826:Drivers/STM32F0xx_HAL_Driver/Src/stm32f0xx_hal_rcc.c ****     }
 827:Drivers/STM32F0xx_HAL_Driver/Src/stm32f0xx_hal_rcc.c **** #if defined(RCC_CFGR_SWS_HSI48)
 828:Drivers/STM32F0xx_HAL_Driver/Src/stm32f0xx_hal_rcc.c ****     else if(RCC_ClkInitStruct->SYSCLKSource == RCC_SYSCLKSOURCE_HSI48)
 1525              		.loc 1 828 30
 1526 0134 7B68     		ldr	r3, [r7, #4]
 1527 0136 5B68     		ldr	r3, [r3, #4]
 1528              		.loc 1 828 12
 1529 0138 032B     		cmp	r3, #3
 1530 013a 1BD1     		bne	.L100
 829:Drivers/STM32F0xx_HAL_Driver/Src/stm32f0xx_hal_rcc.c ****     {
ARM GAS  C:\Users\ADMINI~1\AppData\Local\Temp\ccoLOygm.s 			page 43


 830:Drivers/STM32F0xx_HAL_Driver/Src/stm32f0xx_hal_rcc.c ****       while (__HAL_RCC_GET_SYSCLK_SOURCE() != RCC_SYSCLKSOURCE_STATUS_HSI48)
 1531              		.loc 1 830 13
 1532 013c 09E0     		b	.L98
 1533              	.L99:
 831:Drivers/STM32F0xx_HAL_Driver/Src/stm32f0xx_hal_rcc.c ****       {
 832:Drivers/STM32F0xx_HAL_Driver/Src/stm32f0xx_hal_rcc.c ****         if((HAL_GetTick() - tickstart) > CLOCKSWITCH_TIMEOUT_VALUE)
 1534              		.loc 1 832 13
 1535 013e FFF7FEFF 		bl	HAL_GetTick
 1536 0142 0200     		movs	r2, r0
 1537              		.loc 1 832 27
 1538 0144 FB68     		ldr	r3, [r7, #12]
 1539 0146 D31A     		subs	r3, r2, r3
 1540              		.loc 1 832 11
 1541 0148 2E4A     		ldr	r2, .L104+8
 1542 014a 9342     		cmp	r3, r2
 1543 014c 01D9     		bls	.L98
 833:Drivers/STM32F0xx_HAL_Driver/Src/stm32f0xx_hal_rcc.c ****         {
 834:Drivers/STM32F0xx_HAL_Driver/Src/stm32f0xx_hal_rcc.c ****           return HAL_TIMEOUT;
 1544              		.loc 1 834 18
 1545 014e 0323     		movs	r3, #3
 1546 0150 4FE0     		b	.L84
 1547              	.L98:
 830:Drivers/STM32F0xx_HAL_Driver/Src/stm32f0xx_hal_rcc.c ****       {
 1548              		.loc 1 830 14
 1549 0152 2B4B     		ldr	r3, .L104+4
 1550 0154 5B68     		ldr	r3, [r3, #4]
 1551 0156 0C22     		movs	r2, #12
 1552 0158 1340     		ands	r3, r2
 830:Drivers/STM32F0xx_HAL_Driver/Src/stm32f0xx_hal_rcc.c ****       {
 1553              		.loc 1 830 13
 1554 015a 0C2B     		cmp	r3, #12
 1555 015c EFD1     		bne	.L99
 1556 015e 0EE0     		b	.L86
 1557              	.L101:
 835:Drivers/STM32F0xx_HAL_Driver/Src/stm32f0xx_hal_rcc.c ****         }
 836:Drivers/STM32F0xx_HAL_Driver/Src/stm32f0xx_hal_rcc.c ****       }
 837:Drivers/STM32F0xx_HAL_Driver/Src/stm32f0xx_hal_rcc.c ****     }
 838:Drivers/STM32F0xx_HAL_Driver/Src/stm32f0xx_hal_rcc.c **** #endif /* RCC_CFGR_SWS_HSI48 */
 839:Drivers/STM32F0xx_HAL_Driver/Src/stm32f0xx_hal_rcc.c ****     else
 840:Drivers/STM32F0xx_HAL_Driver/Src/stm32f0xx_hal_rcc.c ****     {
 841:Drivers/STM32F0xx_HAL_Driver/Src/stm32f0xx_hal_rcc.c ****       while (__HAL_RCC_GET_SYSCLK_SOURCE() != RCC_SYSCLKSOURCE_STATUS_HSI)
 842:Drivers/STM32F0xx_HAL_Driver/Src/stm32f0xx_hal_rcc.c ****       {
 843:Drivers/STM32F0xx_HAL_Driver/Src/stm32f0xx_hal_rcc.c ****         if((HAL_GetTick() - tickstart ) > CLOCKSWITCH_TIMEOUT_VALUE)
 1558              		.loc 1 843 13
 1559 0160 FFF7FEFF 		bl	HAL_GetTick
 1560 0164 0200     		movs	r2, r0
 1561              		.loc 1 843 27
 1562 0166 FB68     		ldr	r3, [r7, #12]
 1563 0168 D31A     		subs	r3, r2, r3
 1564              		.loc 1 843 11
 1565 016a 264A     		ldr	r2, .L104+8
 1566 016c 9342     		cmp	r3, r2
 1567 016e 01D9     		bls	.L100
 844:Drivers/STM32F0xx_HAL_Driver/Src/stm32f0xx_hal_rcc.c ****         {
 845:Drivers/STM32F0xx_HAL_Driver/Src/stm32f0xx_hal_rcc.c ****           return HAL_TIMEOUT;
 1568              		.loc 1 845 18
 1569 0170 0323     		movs	r3, #3
ARM GAS  C:\Users\ADMINI~1\AppData\Local\Temp\ccoLOygm.s 			page 44


 1570 0172 3EE0     		b	.L84
 1571              	.L100:
 841:Drivers/STM32F0xx_HAL_Driver/Src/stm32f0xx_hal_rcc.c ****       {
 1572              		.loc 1 841 14
 1573 0174 224B     		ldr	r3, .L104+4
 1574 0176 5B68     		ldr	r3, [r3, #4]
 1575 0178 0C22     		movs	r2, #12
 1576 017a 1340     		ands	r3, r2
 841:Drivers/STM32F0xx_HAL_Driver/Src/stm32f0xx_hal_rcc.c ****       {
 1577              		.loc 1 841 13
 1578 017c F0D1     		bne	.L101
 1579              	.L86:
 846:Drivers/STM32F0xx_HAL_Driver/Src/stm32f0xx_hal_rcc.c ****         }
 847:Drivers/STM32F0xx_HAL_Driver/Src/stm32f0xx_hal_rcc.c ****       }
 848:Drivers/STM32F0xx_HAL_Driver/Src/stm32f0xx_hal_rcc.c ****     }      
 849:Drivers/STM32F0xx_HAL_Driver/Src/stm32f0xx_hal_rcc.c ****   }    
 850:Drivers/STM32F0xx_HAL_Driver/Src/stm32f0xx_hal_rcc.c ****   /* Decreasing the number of wait states because of lower CPU frequency */
 851:Drivers/STM32F0xx_HAL_Driver/Src/stm32f0xx_hal_rcc.c ****   if(FLatency < (FLASH->ACR & FLASH_ACR_LATENCY))
 1580              		.loc 1 851 23
 1581 017e 1F4B     		ldr	r3, .L104
 1582 0180 1B68     		ldr	r3, [r3]
 1583              		.loc 1 851 29
 1584 0182 0122     		movs	r2, #1
 1585 0184 1340     		ands	r3, r2
 1586              		.loc 1 851 5
 1587 0186 3A68     		ldr	r2, [r7]
 1588 0188 9A42     		cmp	r2, r3
 1589 018a 11D2     		bcs	.L102
 852:Drivers/STM32F0xx_HAL_Driver/Src/stm32f0xx_hal_rcc.c ****   {    
 853:Drivers/STM32F0xx_HAL_Driver/Src/stm32f0xx_hal_rcc.c ****     /* Program the new number of wait states to the LATENCY bits in the FLASH_ACR register */
 854:Drivers/STM32F0xx_HAL_Driver/Src/stm32f0xx_hal_rcc.c ****     __HAL_FLASH_SET_LATENCY(FLatency);
 1590              		.loc 1 854 5
 1591 018c 1B4B     		ldr	r3, .L104
 1592 018e 1B68     		ldr	r3, [r3]
 1593 0190 0122     		movs	r2, #1
 1594 0192 9343     		bics	r3, r2
 1595 0194 1900     		movs	r1, r3
 1596 0196 194B     		ldr	r3, .L104
 1597 0198 3A68     		ldr	r2, [r7]
 1598 019a 0A43     		orrs	r2, r1
 1599 019c 1A60     		str	r2, [r3]
 855:Drivers/STM32F0xx_HAL_Driver/Src/stm32f0xx_hal_rcc.c ****     
 856:Drivers/STM32F0xx_HAL_Driver/Src/stm32f0xx_hal_rcc.c ****     /* Check that the new number of wait states is taken into account to access the Flash
 857:Drivers/STM32F0xx_HAL_Driver/Src/stm32f0xx_hal_rcc.c ****     memory by reading the FLASH_ACR register */
 858:Drivers/STM32F0xx_HAL_Driver/Src/stm32f0xx_hal_rcc.c ****     if((FLASH->ACR & FLASH_ACR_LATENCY) != FLatency)
 1600              		.loc 1 858 14
 1601 019e 174B     		ldr	r3, .L104
 1602 01a0 1B68     		ldr	r3, [r3]
 1603              		.loc 1 858 20
 1604 01a2 0122     		movs	r2, #1
 1605 01a4 1340     		ands	r3, r2
 1606              		.loc 1 858 7
 1607 01a6 3A68     		ldr	r2, [r7]
 1608 01a8 9A42     		cmp	r2, r3
 1609 01aa 01D0     		beq	.L102
 859:Drivers/STM32F0xx_HAL_Driver/Src/stm32f0xx_hal_rcc.c ****     {
 860:Drivers/STM32F0xx_HAL_Driver/Src/stm32f0xx_hal_rcc.c ****       return HAL_ERROR;
ARM GAS  C:\Users\ADMINI~1\AppData\Local\Temp\ccoLOygm.s 			page 45


 1610              		.loc 1 860 14
 1611 01ac 0123     		movs	r3, #1
 1612 01ae 20E0     		b	.L84
 1613              	.L102:
 861:Drivers/STM32F0xx_HAL_Driver/Src/stm32f0xx_hal_rcc.c ****     }
 862:Drivers/STM32F0xx_HAL_Driver/Src/stm32f0xx_hal_rcc.c ****   }    
 863:Drivers/STM32F0xx_HAL_Driver/Src/stm32f0xx_hal_rcc.c **** 
 864:Drivers/STM32F0xx_HAL_Driver/Src/stm32f0xx_hal_rcc.c ****   /*-------------------------- PCLK1 Configuration ---------------------------*/ 
 865:Drivers/STM32F0xx_HAL_Driver/Src/stm32f0xx_hal_rcc.c ****   if(((RCC_ClkInitStruct->ClockType) & RCC_CLOCKTYPE_PCLK1) == RCC_CLOCKTYPE_PCLK1)
 1614              		.loc 1 865 25
 1615 01b0 7B68     		ldr	r3, [r7, #4]
 1616 01b2 1B68     		ldr	r3, [r3]
 1617              		.loc 1 865 38
 1618 01b4 0422     		movs	r2, #4
 1619 01b6 1340     		ands	r3, r2
 1620              		.loc 1 865 5
 1621 01b8 09D0     		beq	.L103
 866:Drivers/STM32F0xx_HAL_Driver/Src/stm32f0xx_hal_rcc.c ****   {
 867:Drivers/STM32F0xx_HAL_Driver/Src/stm32f0xx_hal_rcc.c ****     assert_param(IS_RCC_PCLK(RCC_ClkInitStruct->APB1CLKDivider));
 868:Drivers/STM32F0xx_HAL_Driver/Src/stm32f0xx_hal_rcc.c ****     MODIFY_REG(RCC->CFGR, RCC_CFGR_PPRE, RCC_ClkInitStruct->APB1CLKDivider);
 1622              		.loc 1 868 5
 1623 01ba 114B     		ldr	r3, .L104+4
 1624 01bc 5B68     		ldr	r3, [r3, #4]
 1625 01be 124A     		ldr	r2, .L104+12
 1626 01c0 1340     		ands	r3, r2
 1627 01c2 1900     		movs	r1, r3
 1628 01c4 7B68     		ldr	r3, [r7, #4]
 1629 01c6 DA68     		ldr	r2, [r3, #12]
 1630 01c8 0D4B     		ldr	r3, .L104+4
 1631 01ca 0A43     		orrs	r2, r1
 1632 01cc 5A60     		str	r2, [r3, #4]
 1633              	.L103:
 869:Drivers/STM32F0xx_HAL_Driver/Src/stm32f0xx_hal_rcc.c ****   }
 870:Drivers/STM32F0xx_HAL_Driver/Src/stm32f0xx_hal_rcc.c ****   
 871:Drivers/STM32F0xx_HAL_Driver/Src/stm32f0xx_hal_rcc.c ****   /* Update the SystemCoreClock global variable */
 872:Drivers/STM32F0xx_HAL_Driver/Src/stm32f0xx_hal_rcc.c ****   SystemCoreClock = HAL_RCC_GetSysClockFreq() >> AHBPrescTable[(RCC->CFGR & RCC_CFGR_HPRE)>> RCC_CF
 1634              		.loc 1 872 21
 1635 01ce FFF7FEFF 		bl	HAL_RCC_GetSysClockFreq
 1636 01d2 0100     		movs	r1, r0
 1637              		.loc 1 872 68
 1638 01d4 0A4B     		ldr	r3, .L104+4
 1639 01d6 5B68     		ldr	r3, [r3, #4]
 1640              		.loc 1 872 91
 1641 01d8 1B09     		lsrs	r3, r3, #4
 1642 01da 0F22     		movs	r2, #15
 1643 01dc 1340     		ands	r3, r2
 1644              		.loc 1 872 63
 1645 01de 0B4A     		ldr	r2, .L104+16
 1646 01e0 D35C     		ldrb	r3, [r2, r3]
 1647              		.loc 1 872 47
 1648 01e2 0A00     		movs	r2, r1
 1649 01e4 DA40     		lsrs	r2, r2, r3
 1650              		.loc 1 872 19
 1651 01e6 0A4B     		ldr	r3, .L104+20
 1652 01e8 1A60     		str	r2, [r3]
 873:Drivers/STM32F0xx_HAL_Driver/Src/stm32f0xx_hal_rcc.c **** 
 874:Drivers/STM32F0xx_HAL_Driver/Src/stm32f0xx_hal_rcc.c ****   /* Configure the source of time base considering new system clocks settings*/
ARM GAS  C:\Users\ADMINI~1\AppData\Local\Temp\ccoLOygm.s 			page 46


 875:Drivers/STM32F0xx_HAL_Driver/Src/stm32f0xx_hal_rcc.c ****   HAL_InitTick (TICK_INT_PRIORITY);
 1653              		.loc 1 875 3
 1654 01ea 0020     		movs	r0, #0
 1655 01ec FFF7FEFF 		bl	HAL_InitTick
 876:Drivers/STM32F0xx_HAL_Driver/Src/stm32f0xx_hal_rcc.c ****   
 877:Drivers/STM32F0xx_HAL_Driver/Src/stm32f0xx_hal_rcc.c ****   return HAL_OK;
 1656              		.loc 1 877 10
 1657 01f0 0023     		movs	r3, #0
 1658              	.L84:
 878:Drivers/STM32F0xx_HAL_Driver/Src/stm32f0xx_hal_rcc.c **** }
 1659              		.loc 1 878 1
 1660 01f2 1800     		movs	r0, r3
 1661 01f4 BD46     		mov	sp, r7
 1662 01f6 04B0     		add	sp, sp, #16
 1663              		@ sp needed
 1664 01f8 80BD     		pop	{r7, pc}
 1665              	.L105:
 1666 01fa C046     		.align	2
 1667              	.L104:
 1668 01fc 00200240 		.word	1073881088
 1669 0200 00100240 		.word	1073876992
 1670 0204 88130000 		.word	5000
 1671 0208 FFF8FFFF 		.word	-1793
 1672 020c 00000000 		.word	AHBPrescTable
 1673 0210 00000000 		.word	SystemCoreClock
 1674              		.cfi_endproc
 1675              	.LFE39:
 1677              		.section	.text.HAL_RCC_MCOConfig,"ax",%progbits
 1678              		.align	1
 1679              		.global	HAL_RCC_MCOConfig
 1680              		.syntax unified
 1681              		.code	16
 1682              		.thumb_func
 1683              		.fpu softvfp
 1685              	HAL_RCC_MCOConfig:
 1686              	.LFB40:
 879:Drivers/STM32F0xx_HAL_Driver/Src/stm32f0xx_hal_rcc.c **** 
 880:Drivers/STM32F0xx_HAL_Driver/Src/stm32f0xx_hal_rcc.c **** /**
 881:Drivers/STM32F0xx_HAL_Driver/Src/stm32f0xx_hal_rcc.c ****   * @}
 882:Drivers/STM32F0xx_HAL_Driver/Src/stm32f0xx_hal_rcc.c ****   */
 883:Drivers/STM32F0xx_HAL_Driver/Src/stm32f0xx_hal_rcc.c **** 
 884:Drivers/STM32F0xx_HAL_Driver/Src/stm32f0xx_hal_rcc.c **** /** @defgroup RCC_Exported_Functions_Group2 Peripheral Control functions
 885:Drivers/STM32F0xx_HAL_Driver/Src/stm32f0xx_hal_rcc.c ****   *  @brief   RCC clocks control functions
 886:Drivers/STM32F0xx_HAL_Driver/Src/stm32f0xx_hal_rcc.c ****   *
 887:Drivers/STM32F0xx_HAL_Driver/Src/stm32f0xx_hal_rcc.c ****   @verbatim   
 888:Drivers/STM32F0xx_HAL_Driver/Src/stm32f0xx_hal_rcc.c ****   ===============================================================================
 889:Drivers/STM32F0xx_HAL_Driver/Src/stm32f0xx_hal_rcc.c ****                   ##### Peripheral Control functions #####
 890:Drivers/STM32F0xx_HAL_Driver/Src/stm32f0xx_hal_rcc.c ****   ===============================================================================  
 891:Drivers/STM32F0xx_HAL_Driver/Src/stm32f0xx_hal_rcc.c ****     [..]
 892:Drivers/STM32F0xx_HAL_Driver/Src/stm32f0xx_hal_rcc.c ****     This subsection provides a set of functions allowing to control the RCC Clocks 
 893:Drivers/STM32F0xx_HAL_Driver/Src/stm32f0xx_hal_rcc.c ****     frequencies.
 894:Drivers/STM32F0xx_HAL_Driver/Src/stm32f0xx_hal_rcc.c **** 
 895:Drivers/STM32F0xx_HAL_Driver/Src/stm32f0xx_hal_rcc.c ****   @endverbatim
 896:Drivers/STM32F0xx_HAL_Driver/Src/stm32f0xx_hal_rcc.c ****   * @{
 897:Drivers/STM32F0xx_HAL_Driver/Src/stm32f0xx_hal_rcc.c ****   */
 898:Drivers/STM32F0xx_HAL_Driver/Src/stm32f0xx_hal_rcc.c **** 
 899:Drivers/STM32F0xx_HAL_Driver/Src/stm32f0xx_hal_rcc.c **** #if defined(RCC_CFGR_MCOPRE)
ARM GAS  C:\Users\ADMINI~1\AppData\Local\Temp\ccoLOygm.s 			page 47


 900:Drivers/STM32F0xx_HAL_Driver/Src/stm32f0xx_hal_rcc.c **** /**
 901:Drivers/STM32F0xx_HAL_Driver/Src/stm32f0xx_hal_rcc.c ****   * @brief  Selects the clock source to output on MCO pin.
 902:Drivers/STM32F0xx_HAL_Driver/Src/stm32f0xx_hal_rcc.c ****   * @note   MCO pin should be configured in alternate function mode.
 903:Drivers/STM32F0xx_HAL_Driver/Src/stm32f0xx_hal_rcc.c ****   * @param  RCC_MCOx specifies the output direction for the clock source.
 904:Drivers/STM32F0xx_HAL_Driver/Src/stm32f0xx_hal_rcc.c ****   *          This parameter can be one of the following values:
 905:Drivers/STM32F0xx_HAL_Driver/Src/stm32f0xx_hal_rcc.c ****   *            @arg @ref RCC_MCO1 Clock source to output on MCO1 pin(PA8).
 906:Drivers/STM32F0xx_HAL_Driver/Src/stm32f0xx_hal_rcc.c ****   * @param  RCC_MCOSource specifies the clock source to output.
 907:Drivers/STM32F0xx_HAL_Driver/Src/stm32f0xx_hal_rcc.c ****   *          This parameter can be one of the following values:
 908:Drivers/STM32F0xx_HAL_Driver/Src/stm32f0xx_hal_rcc.c ****   *            @arg @ref RCC_MCO1SOURCE_NOCLOCK     No clock selected
 909:Drivers/STM32F0xx_HAL_Driver/Src/stm32f0xx_hal_rcc.c ****   *            @arg @ref RCC_MCO1SOURCE_SYSCLK      System Clock selected as MCO clock
 910:Drivers/STM32F0xx_HAL_Driver/Src/stm32f0xx_hal_rcc.c ****   *            @arg @ref RCC_MCO1SOURCE_HSI         HSI selected as MCO clock
 911:Drivers/STM32F0xx_HAL_Driver/Src/stm32f0xx_hal_rcc.c ****   *            @arg @ref RCC_MCO1SOURCE_HSE         HSE selected as MCO clock
 912:Drivers/STM32F0xx_HAL_Driver/Src/stm32f0xx_hal_rcc.c ****   *            @arg @ref RCC_MCO1SOURCE_LSI         LSI selected as MCO clock
 913:Drivers/STM32F0xx_HAL_Driver/Src/stm32f0xx_hal_rcc.c ****   *            @arg @ref RCC_MCO1SOURCE_LSE         LSE selected as MCO clock
 914:Drivers/STM32F0xx_HAL_Driver/Src/stm32f0xx_hal_rcc.c ****   *            @arg @ref RCC_MCO1SOURCE_HSI14       HSI14 selected as MCO clock
 915:Drivers/STM32F0xx_HAL_Driver/Src/stm32f0xx_hal_rcc.c ****   @if STM32F042x6
 916:Drivers/STM32F0xx_HAL_Driver/Src/stm32f0xx_hal_rcc.c ****   *            @arg @ref RCC_MCO1SOURCE_HSI48       HSI48 selected as MCO clock
 917:Drivers/STM32F0xx_HAL_Driver/Src/stm32f0xx_hal_rcc.c ****   *            @arg @ref RCC_MCO1SOURCE_PLLCLK      PLLCLK selected as MCO clock
 918:Drivers/STM32F0xx_HAL_Driver/Src/stm32f0xx_hal_rcc.c ****   @elseif STM32F048xx
 919:Drivers/STM32F0xx_HAL_Driver/Src/stm32f0xx_hal_rcc.c ****   *            @arg @ref RCC_MCO1SOURCE_HSI48       HSI48 selected as MCO clock
 920:Drivers/STM32F0xx_HAL_Driver/Src/stm32f0xx_hal_rcc.c ****   *            @arg @ref RCC_MCO1SOURCE_PLLCLK      PLLCLK selected as MCO clock
 921:Drivers/STM32F0xx_HAL_Driver/Src/stm32f0xx_hal_rcc.c ****   @elseif STM32F071xB
 922:Drivers/STM32F0xx_HAL_Driver/Src/stm32f0xx_hal_rcc.c ****   *            @arg @ref RCC_MCO1SOURCE_HSI48       HSI48 selected as MCO clock
 923:Drivers/STM32F0xx_HAL_Driver/Src/stm32f0xx_hal_rcc.c ****   *            @arg @ref RCC_MCO1SOURCE_PLLCLK      PLLCLK selected as MCO clock
 924:Drivers/STM32F0xx_HAL_Driver/Src/stm32f0xx_hal_rcc.c ****   @elseif STM32F072xB
 925:Drivers/STM32F0xx_HAL_Driver/Src/stm32f0xx_hal_rcc.c ****   *            @arg @ref RCC_MCO1SOURCE_HSI48       HSI48 selected as MCO clock
 926:Drivers/STM32F0xx_HAL_Driver/Src/stm32f0xx_hal_rcc.c ****   *            @arg @ref RCC_MCO1SOURCE_PLLCLK      PLLCLK selected as MCO clock
 927:Drivers/STM32F0xx_HAL_Driver/Src/stm32f0xx_hal_rcc.c ****   @elseif STM32F078xx
 928:Drivers/STM32F0xx_HAL_Driver/Src/stm32f0xx_hal_rcc.c ****   *            @arg @ref RCC_MCO1SOURCE_HSI48       HSI48 selected as MCO clock
 929:Drivers/STM32F0xx_HAL_Driver/Src/stm32f0xx_hal_rcc.c ****   *            @arg @ref RCC_MCO1SOURCE_PLLCLK      PLLCLK selected as MCO clock
 930:Drivers/STM32F0xx_HAL_Driver/Src/stm32f0xx_hal_rcc.c ****   @elseif STM32F091xC
 931:Drivers/STM32F0xx_HAL_Driver/Src/stm32f0xx_hal_rcc.c ****   *            @arg @ref RCC_MCO1SOURCE_HSI48       HSI48 selected as MCO clock
 932:Drivers/STM32F0xx_HAL_Driver/Src/stm32f0xx_hal_rcc.c ****   *            @arg @ref RCC_MCO1SOURCE_PLLCLK      PLLCLK selected as MCO clock
 933:Drivers/STM32F0xx_HAL_Driver/Src/stm32f0xx_hal_rcc.c ****   @elseif STM32F098xx
 934:Drivers/STM32F0xx_HAL_Driver/Src/stm32f0xx_hal_rcc.c ****   *            @arg @ref RCC_MCO1SOURCE_HSI48       HSI48 selected as MCO clock
 935:Drivers/STM32F0xx_HAL_Driver/Src/stm32f0xx_hal_rcc.c ****   *            @arg @ref RCC_MCO1SOURCE_PLLCLK      PLLCLK selected as MCO clock
 936:Drivers/STM32F0xx_HAL_Driver/Src/stm32f0xx_hal_rcc.c ****   @elif STM32F030x6
 937:Drivers/STM32F0xx_HAL_Driver/Src/stm32f0xx_hal_rcc.c ****   *            @arg @ref RCC_MCO1SOURCE_PLLCLK      PLLCLK selected as MCO clock
 938:Drivers/STM32F0xx_HAL_Driver/Src/stm32f0xx_hal_rcc.c ****   @elif STM32F030xC
 939:Drivers/STM32F0xx_HAL_Driver/Src/stm32f0xx_hal_rcc.c ****   *            @arg @ref RCC_MCO1SOURCE_PLLCLK      PLLCLK selected as MCO clock
 940:Drivers/STM32F0xx_HAL_Driver/Src/stm32f0xx_hal_rcc.c ****   @elif STM32F031x6
 941:Drivers/STM32F0xx_HAL_Driver/Src/stm32f0xx_hal_rcc.c ****   *            @arg @ref RCC_MCO1SOURCE_PLLCLK      PLLCLK selected as MCO clock
 942:Drivers/STM32F0xx_HAL_Driver/Src/stm32f0xx_hal_rcc.c ****   @elif STM32F038xx
 943:Drivers/STM32F0xx_HAL_Driver/Src/stm32f0xx_hal_rcc.c ****   *            @arg @ref RCC_MCO1SOURCE_PLLCLK      PLLCLK selected as MCO clock
 944:Drivers/STM32F0xx_HAL_Driver/Src/stm32f0xx_hal_rcc.c ****   @elif STM32F070x6
 945:Drivers/STM32F0xx_HAL_Driver/Src/stm32f0xx_hal_rcc.c ****   *            @arg @ref RCC_MCO1SOURCE_PLLCLK      PLLCLK selected as MCO clock
 946:Drivers/STM32F0xx_HAL_Driver/Src/stm32f0xx_hal_rcc.c ****   @elif STM32F070xB
 947:Drivers/STM32F0xx_HAL_Driver/Src/stm32f0xx_hal_rcc.c ****   *            @arg @ref RCC_MCO1SOURCE_PLLCLK      PLLCLK selected as MCO clock
 948:Drivers/STM32F0xx_HAL_Driver/Src/stm32f0xx_hal_rcc.c ****   @endif
 949:Drivers/STM32F0xx_HAL_Driver/Src/stm32f0xx_hal_rcc.c ****   *            @arg @ref RCC_MCO1SOURCE_PLLCLK_DIV2 PLLCLK Divided by 2 selected as MCO clock
 950:Drivers/STM32F0xx_HAL_Driver/Src/stm32f0xx_hal_rcc.c ****   * @param  RCC_MCODiv specifies the MCO DIV.
 951:Drivers/STM32F0xx_HAL_Driver/Src/stm32f0xx_hal_rcc.c ****   *          This parameter can be one of the following values:
 952:Drivers/STM32F0xx_HAL_Driver/Src/stm32f0xx_hal_rcc.c ****   *            @arg @ref RCC_MCODIV_1   no division applied to MCO clock
 953:Drivers/STM32F0xx_HAL_Driver/Src/stm32f0xx_hal_rcc.c ****   *            @arg @ref RCC_MCODIV_2   division by 2 applied to MCO clock
 954:Drivers/STM32F0xx_HAL_Driver/Src/stm32f0xx_hal_rcc.c ****   *            @arg @ref RCC_MCODIV_4   division by 4 applied to MCO clock
 955:Drivers/STM32F0xx_HAL_Driver/Src/stm32f0xx_hal_rcc.c ****   *            @arg @ref RCC_MCODIV_8   division by 8 applied to MCO clock
 956:Drivers/STM32F0xx_HAL_Driver/Src/stm32f0xx_hal_rcc.c ****   *            @arg @ref RCC_MCODIV_16  division by 16 applied to MCO clock
ARM GAS  C:\Users\ADMINI~1\AppData\Local\Temp\ccoLOygm.s 			page 48


 957:Drivers/STM32F0xx_HAL_Driver/Src/stm32f0xx_hal_rcc.c ****   *            @arg @ref RCC_MCODIV_32  division by 32 applied to MCO clock
 958:Drivers/STM32F0xx_HAL_Driver/Src/stm32f0xx_hal_rcc.c ****   *            @arg @ref RCC_MCODIV_64  division by 64 applied to MCO clock
 959:Drivers/STM32F0xx_HAL_Driver/Src/stm32f0xx_hal_rcc.c ****   *            @arg @ref RCC_MCODIV_128 division by 128 applied to MCO clock
 960:Drivers/STM32F0xx_HAL_Driver/Src/stm32f0xx_hal_rcc.c ****   * @retval None
 961:Drivers/STM32F0xx_HAL_Driver/Src/stm32f0xx_hal_rcc.c ****   */
 962:Drivers/STM32F0xx_HAL_Driver/Src/stm32f0xx_hal_rcc.c **** #else
 963:Drivers/STM32F0xx_HAL_Driver/Src/stm32f0xx_hal_rcc.c **** /**
 964:Drivers/STM32F0xx_HAL_Driver/Src/stm32f0xx_hal_rcc.c ****   * @brief  Selects the clock source to output on MCO pin.
 965:Drivers/STM32F0xx_HAL_Driver/Src/stm32f0xx_hal_rcc.c ****   * @note   MCO pin should be configured in alternate function mode.
 966:Drivers/STM32F0xx_HAL_Driver/Src/stm32f0xx_hal_rcc.c ****   * @param  RCC_MCOx specifies the output direction for the clock source.
 967:Drivers/STM32F0xx_HAL_Driver/Src/stm32f0xx_hal_rcc.c ****   *          This parameter can be one of the following values:
 968:Drivers/STM32F0xx_HAL_Driver/Src/stm32f0xx_hal_rcc.c ****   *            @arg @ref RCC_MCO1 Clock source to output on MCO1 pin(PA8).
 969:Drivers/STM32F0xx_HAL_Driver/Src/stm32f0xx_hal_rcc.c ****   * @param  RCC_MCOSource specifies the clock source to output.
 970:Drivers/STM32F0xx_HAL_Driver/Src/stm32f0xx_hal_rcc.c ****   *          This parameter can be one of the following values:
 971:Drivers/STM32F0xx_HAL_Driver/Src/stm32f0xx_hal_rcc.c ****   *            @arg @ref RCC_MCO1SOURCE_NOCLOCK     No clock selected as MCO clock
 972:Drivers/STM32F0xx_HAL_Driver/Src/stm32f0xx_hal_rcc.c ****   *            @arg @ref RCC_MCO1SOURCE_SYSCLK      System clock selected as MCO clock
 973:Drivers/STM32F0xx_HAL_Driver/Src/stm32f0xx_hal_rcc.c ****   *            @arg @ref RCC_MCO1SOURCE_HSI         HSI selected as MCO clock
 974:Drivers/STM32F0xx_HAL_Driver/Src/stm32f0xx_hal_rcc.c ****   *            @arg @ref RCC_MCO1SOURCE_HSE         HSE selected as MCO clock
 975:Drivers/STM32F0xx_HAL_Driver/Src/stm32f0xx_hal_rcc.c ****   *            @arg @ref RCC_MCO1SOURCE_LSI         LSI selected as MCO clock
 976:Drivers/STM32F0xx_HAL_Driver/Src/stm32f0xx_hal_rcc.c ****   *            @arg @ref RCC_MCO1SOURCE_LSE         LSE selected as MCO clock
 977:Drivers/STM32F0xx_HAL_Driver/Src/stm32f0xx_hal_rcc.c ****   *            @arg @ref RCC_MCO1SOURCE_HSI14       HSI14 selected as MCO clock
 978:Drivers/STM32F0xx_HAL_Driver/Src/stm32f0xx_hal_rcc.c ****   *            @arg @ref RCC_MCO1SOURCE_PLLCLK_DIV2 PLLCLK Divided by 2 selected as MCO clock
 979:Drivers/STM32F0xx_HAL_Driver/Src/stm32f0xx_hal_rcc.c ****   * @param  RCC_MCODiv specifies the MCO DIV.
 980:Drivers/STM32F0xx_HAL_Driver/Src/stm32f0xx_hal_rcc.c ****   *          This parameter can be one of the following values:
 981:Drivers/STM32F0xx_HAL_Driver/Src/stm32f0xx_hal_rcc.c ****   *            @arg @ref RCC_MCODIV_1 no division applied to MCO clock
 982:Drivers/STM32F0xx_HAL_Driver/Src/stm32f0xx_hal_rcc.c ****   * @retval None
 983:Drivers/STM32F0xx_HAL_Driver/Src/stm32f0xx_hal_rcc.c ****   */
 984:Drivers/STM32F0xx_HAL_Driver/Src/stm32f0xx_hal_rcc.c **** #endif
 985:Drivers/STM32F0xx_HAL_Driver/Src/stm32f0xx_hal_rcc.c **** void HAL_RCC_MCOConfig(uint32_t RCC_MCOx, uint32_t RCC_MCOSource, uint32_t RCC_MCODiv)
 986:Drivers/STM32F0xx_HAL_Driver/Src/stm32f0xx_hal_rcc.c **** {
 1687              		.loc 1 986 1
 1688              		.cfi_startproc
 1689              		@ args = 0, pretend = 0, frame = 40
 1690              		@ frame_needed = 1, uses_anonymous_args = 0
 1691 0000 80B5     		push	{r7, lr}
 1692              	.LCFI8:
 1693              		.cfi_def_cfa_offset 8
 1694              		.cfi_offset 7, -8
 1695              		.cfi_offset 14, -4
 1696 0002 8AB0     		sub	sp, sp, #40
 1697              	.LCFI9:
 1698              		.cfi_def_cfa_offset 48
 1699 0004 00AF     		add	r7, sp, #0
 1700              	.LCFI10:
 1701              		.cfi_def_cfa_register 7
 1702 0006 F860     		str	r0, [r7, #12]
 1703 0008 B960     		str	r1, [r7, #8]
 1704 000a 7A60     		str	r2, [r7, #4]
 987:Drivers/STM32F0xx_HAL_Driver/Src/stm32f0xx_hal_rcc.c ****   GPIO_InitTypeDef gpio;
 988:Drivers/STM32F0xx_HAL_Driver/Src/stm32f0xx_hal_rcc.c **** 
 989:Drivers/STM32F0xx_HAL_Driver/Src/stm32f0xx_hal_rcc.c ****   /* Check the parameters */
 990:Drivers/STM32F0xx_HAL_Driver/Src/stm32f0xx_hal_rcc.c ****   assert_param(IS_RCC_MCO(RCC_MCOx));
 991:Drivers/STM32F0xx_HAL_Driver/Src/stm32f0xx_hal_rcc.c ****   assert_param(IS_RCC_MCODIV(RCC_MCODiv));
 992:Drivers/STM32F0xx_HAL_Driver/Src/stm32f0xx_hal_rcc.c ****   assert_param(IS_RCC_MCO1SOURCE(RCC_MCOSource));
 993:Drivers/STM32F0xx_HAL_Driver/Src/stm32f0xx_hal_rcc.c ****   
 994:Drivers/STM32F0xx_HAL_Driver/Src/stm32f0xx_hal_rcc.c ****   /* Configure the MCO1 pin in alternate function mode */
 995:Drivers/STM32F0xx_HAL_Driver/Src/stm32f0xx_hal_rcc.c ****   gpio.Mode      = GPIO_MODE_AF_PP;
ARM GAS  C:\Users\ADMINI~1\AppData\Local\Temp\ccoLOygm.s 			page 49


 1705              		.loc 1 995 18
 1706 000c 1420     		movs	r0, #20
 1707 000e 3B18     		adds	r3, r7, r0
 1708 0010 0222     		movs	r2, #2
 1709 0012 5A60     		str	r2, [r3, #4]
 996:Drivers/STM32F0xx_HAL_Driver/Src/stm32f0xx_hal_rcc.c ****   gpio.Speed     = GPIO_SPEED_FREQ_HIGH;
 1710              		.loc 1 996 18
 1711 0014 3B18     		adds	r3, r7, r0
 1712 0016 0322     		movs	r2, #3
 1713 0018 DA60     		str	r2, [r3, #12]
 997:Drivers/STM32F0xx_HAL_Driver/Src/stm32f0xx_hal_rcc.c ****   gpio.Pull      = GPIO_NOPULL;
 1714              		.loc 1 997 18
 1715 001a 3B18     		adds	r3, r7, r0
 1716 001c 0022     		movs	r2, #0
 1717 001e 9A60     		str	r2, [r3, #8]
 998:Drivers/STM32F0xx_HAL_Driver/Src/stm32f0xx_hal_rcc.c ****   gpio.Pin       = MCO1_PIN;
 1718              		.loc 1 998 18
 1719 0020 3B18     		adds	r3, r7, r0
 1720 0022 8022     		movs	r2, #128
 1721 0024 5200     		lsls	r2, r2, #1
 1722 0026 1A60     		str	r2, [r3]
 999:Drivers/STM32F0xx_HAL_Driver/Src/stm32f0xx_hal_rcc.c ****   gpio.Alternate = GPIO_AF0_MCO;
 1723              		.loc 1 999 18
 1724 0028 3B18     		adds	r3, r7, r0
 1725 002a 0022     		movs	r2, #0
 1726 002c 1A61     		str	r2, [r3, #16]
 1727              	.LBB4:
1000:Drivers/STM32F0xx_HAL_Driver/Src/stm32f0xx_hal_rcc.c **** 
1001:Drivers/STM32F0xx_HAL_Driver/Src/stm32f0xx_hal_rcc.c ****   /* MCO1 Clock Enable */
1002:Drivers/STM32F0xx_HAL_Driver/Src/stm32f0xx_hal_rcc.c ****   MCO1_CLK_ENABLE();
 1728              		.loc 1 1002 3
 1729 002e 124B     		ldr	r3, .L107
 1730 0030 5A69     		ldr	r2, [r3, #20]
 1731 0032 114B     		ldr	r3, .L107
 1732 0034 8021     		movs	r1, #128
 1733 0036 8902     		lsls	r1, r1, #10
 1734 0038 0A43     		orrs	r2, r1
 1735 003a 5A61     		str	r2, [r3, #20]
 1736 003c 0E4B     		ldr	r3, .L107
 1737 003e 5A69     		ldr	r2, [r3, #20]
 1738 0040 8023     		movs	r3, #128
 1739 0042 9B02     		lsls	r3, r3, #10
 1740 0044 1340     		ands	r3, r2
 1741 0046 3B61     		str	r3, [r7, #16]
 1742 0048 3B69     		ldr	r3, [r7, #16]
 1743              	.LBE4:
1003:Drivers/STM32F0xx_HAL_Driver/Src/stm32f0xx_hal_rcc.c ****   
1004:Drivers/STM32F0xx_HAL_Driver/Src/stm32f0xx_hal_rcc.c ****   HAL_GPIO_Init(MCO1_GPIO_PORT, &gpio);
 1744              		.loc 1 1004 3
 1745 004a 3A18     		adds	r2, r7, r0
 1746 004c 9023     		movs	r3, #144
 1747 004e DB05     		lsls	r3, r3, #23
 1748 0050 1100     		movs	r1, r2
 1749 0052 1800     		movs	r0, r3
 1750 0054 FFF7FEFF 		bl	HAL_GPIO_Init
1005:Drivers/STM32F0xx_HAL_Driver/Src/stm32f0xx_hal_rcc.c ****   
1006:Drivers/STM32F0xx_HAL_Driver/Src/stm32f0xx_hal_rcc.c ****   /* Configure the MCO clock source */
ARM GAS  C:\Users\ADMINI~1\AppData\Local\Temp\ccoLOygm.s 			page 50


1007:Drivers/STM32F0xx_HAL_Driver/Src/stm32f0xx_hal_rcc.c ****   __HAL_RCC_MCO1_CONFIG(RCC_MCOSource, RCC_MCODiv);
 1751              		.loc 1 1007 3
 1752 0058 074B     		ldr	r3, .L107
 1753 005a 5B68     		ldr	r3, [r3, #4]
 1754 005c 074A     		ldr	r2, .L107+4
 1755 005e 1340     		ands	r3, r2
 1756 0060 1900     		movs	r1, r3
 1757 0062 BA68     		ldr	r2, [r7, #8]
 1758 0064 7B68     		ldr	r3, [r7, #4]
 1759 0066 1A43     		orrs	r2, r3
 1760 0068 034B     		ldr	r3, .L107
 1761 006a 0A43     		orrs	r2, r1
 1762 006c 5A60     		str	r2, [r3, #4]
1008:Drivers/STM32F0xx_HAL_Driver/Src/stm32f0xx_hal_rcc.c **** }
 1763              		.loc 1 1008 1
 1764 006e C046     		nop
 1765 0070 BD46     		mov	sp, r7
 1766 0072 0AB0     		add	sp, sp, #40
 1767              		@ sp needed
 1768 0074 80BD     		pop	{r7, pc}
 1769              	.L108:
 1770 0076 C046     		.align	2
 1771              	.L107:
 1772 0078 00100240 		.word	1073876992
 1773 007c FFFFFF80 		.word	-2130706433
 1774              		.cfi_endproc
 1775              	.LFE40:
 1777              		.section	.text.HAL_RCC_EnableCSS,"ax",%progbits
 1778              		.align	1
 1779              		.global	HAL_RCC_EnableCSS
 1780              		.syntax unified
 1781              		.code	16
 1782              		.thumb_func
 1783              		.fpu softvfp
 1785              	HAL_RCC_EnableCSS:
 1786              	.LFB41:
1009:Drivers/STM32F0xx_HAL_Driver/Src/stm32f0xx_hal_rcc.c **** 
1010:Drivers/STM32F0xx_HAL_Driver/Src/stm32f0xx_hal_rcc.c **** /**
1011:Drivers/STM32F0xx_HAL_Driver/Src/stm32f0xx_hal_rcc.c ****   * @brief  Enables the Clock Security System.
1012:Drivers/STM32F0xx_HAL_Driver/Src/stm32f0xx_hal_rcc.c ****   * @note   If a failure is detected on the HSE oscillator clock, this oscillator
1013:Drivers/STM32F0xx_HAL_Driver/Src/stm32f0xx_hal_rcc.c ****   *         is automatically disabled and an interrupt is generated to inform the
1014:Drivers/STM32F0xx_HAL_Driver/Src/stm32f0xx_hal_rcc.c ****   *         software about the failure (Clock Security System Interrupt, CSSI),
1015:Drivers/STM32F0xx_HAL_Driver/Src/stm32f0xx_hal_rcc.c ****   *         allowing the MCU to perform rescue operations. The CSSI is linked to 
1016:Drivers/STM32F0xx_HAL_Driver/Src/stm32f0xx_hal_rcc.c ****   *         the Cortex-M0 NMI (Non-Maskable Interrupt) exception vector.  
1017:Drivers/STM32F0xx_HAL_Driver/Src/stm32f0xx_hal_rcc.c ****   * @retval None
1018:Drivers/STM32F0xx_HAL_Driver/Src/stm32f0xx_hal_rcc.c ****   */
1019:Drivers/STM32F0xx_HAL_Driver/Src/stm32f0xx_hal_rcc.c **** void HAL_RCC_EnableCSS(void)
1020:Drivers/STM32F0xx_HAL_Driver/Src/stm32f0xx_hal_rcc.c **** {
 1787              		.loc 1 1020 1
 1788              		.cfi_startproc
 1789              		@ args = 0, pretend = 0, frame = 0
 1790              		@ frame_needed = 1, uses_anonymous_args = 0
 1791 0000 80B5     		push	{r7, lr}
 1792              	.LCFI11:
 1793              		.cfi_def_cfa_offset 8
 1794              		.cfi_offset 7, -8
 1795              		.cfi_offset 14, -4
ARM GAS  C:\Users\ADMINI~1\AppData\Local\Temp\ccoLOygm.s 			page 51


 1796 0002 00AF     		add	r7, sp, #0
 1797              	.LCFI12:
 1798              		.cfi_def_cfa_register 7
1021:Drivers/STM32F0xx_HAL_Driver/Src/stm32f0xx_hal_rcc.c ****   SET_BIT(RCC->CR, RCC_CR_CSSON) ;
 1799              		.loc 1 1021 3
 1800 0004 044B     		ldr	r3, .L110
 1801 0006 1A68     		ldr	r2, [r3]
 1802 0008 034B     		ldr	r3, .L110
 1803 000a 8021     		movs	r1, #128
 1804 000c 0903     		lsls	r1, r1, #12
 1805 000e 0A43     		orrs	r2, r1
 1806 0010 1A60     		str	r2, [r3]
1022:Drivers/STM32F0xx_HAL_Driver/Src/stm32f0xx_hal_rcc.c **** }
 1807              		.loc 1 1022 1
 1808 0012 C046     		nop
 1809 0014 BD46     		mov	sp, r7
 1810              		@ sp needed
 1811 0016 80BD     		pop	{r7, pc}
 1812              	.L111:
 1813              		.align	2
 1814              	.L110:
 1815 0018 00100240 		.word	1073876992
 1816              		.cfi_endproc
 1817              	.LFE41:
 1819              		.section	.text.HAL_RCC_DisableCSS,"ax",%progbits
 1820              		.align	1
 1821              		.global	HAL_RCC_DisableCSS
 1822              		.syntax unified
 1823              		.code	16
 1824              		.thumb_func
 1825              		.fpu softvfp
 1827              	HAL_RCC_DisableCSS:
 1828              	.LFB42:
1023:Drivers/STM32F0xx_HAL_Driver/Src/stm32f0xx_hal_rcc.c **** 
1024:Drivers/STM32F0xx_HAL_Driver/Src/stm32f0xx_hal_rcc.c **** /**
1025:Drivers/STM32F0xx_HAL_Driver/Src/stm32f0xx_hal_rcc.c ****   * @brief  Disables the Clock Security System.
1026:Drivers/STM32F0xx_HAL_Driver/Src/stm32f0xx_hal_rcc.c ****   * @retval None
1027:Drivers/STM32F0xx_HAL_Driver/Src/stm32f0xx_hal_rcc.c ****   */
1028:Drivers/STM32F0xx_HAL_Driver/Src/stm32f0xx_hal_rcc.c **** void HAL_RCC_DisableCSS(void)
1029:Drivers/STM32F0xx_HAL_Driver/Src/stm32f0xx_hal_rcc.c **** {
 1829              		.loc 1 1029 1
 1830              		.cfi_startproc
 1831              		@ args = 0, pretend = 0, frame = 0
 1832              		@ frame_needed = 1, uses_anonymous_args = 0
 1833 0000 80B5     		push	{r7, lr}
 1834              	.LCFI13:
 1835              		.cfi_def_cfa_offset 8
 1836              		.cfi_offset 7, -8
 1837              		.cfi_offset 14, -4
 1838 0002 00AF     		add	r7, sp, #0
 1839              	.LCFI14:
 1840              		.cfi_def_cfa_register 7
1030:Drivers/STM32F0xx_HAL_Driver/Src/stm32f0xx_hal_rcc.c ****   CLEAR_BIT(RCC->CR, RCC_CR_CSSON) ;
 1841              		.loc 1 1030 3
 1842 0004 044B     		ldr	r3, .L113
 1843 0006 1A68     		ldr	r2, [r3]
 1844 0008 034B     		ldr	r3, .L113
ARM GAS  C:\Users\ADMINI~1\AppData\Local\Temp\ccoLOygm.s 			page 52


 1845 000a 0449     		ldr	r1, .L113+4
 1846 000c 0A40     		ands	r2, r1
 1847 000e 1A60     		str	r2, [r3]
1031:Drivers/STM32F0xx_HAL_Driver/Src/stm32f0xx_hal_rcc.c **** }
 1848              		.loc 1 1031 1
 1849 0010 C046     		nop
 1850 0012 BD46     		mov	sp, r7
 1851              		@ sp needed
 1852 0014 80BD     		pop	{r7, pc}
 1853              	.L114:
 1854 0016 C046     		.align	2
 1855              	.L113:
 1856 0018 00100240 		.word	1073876992
 1857 001c FFFFF7FF 		.word	-524289
 1858              		.cfi_endproc
 1859              	.LFE42:
 1861              		.global	__aeabi_uidiv
 1862              		.section	.rodata
 1863              		.align	2
 1864              	.LC3:
 1865 0000 02030405 		.ascii	"\002\003\004\005\006\007\010\011\012\013\014\015\016"
 1865      06070809 
 1865      0A0B0C0D 
 1865      0E
 1866 000d 0F1010   		.ascii	"\017\020\020"
 1867              		.align	2
 1868              	.LC5:
 1869 0010 01020304 		.ascii	"\001\002\003\004\005\006\007\010\011\012\013\014\015"
 1869      05060708 
 1869      090A0B0C 
 1869      0D
 1870 001d 0E0F10   		.ascii	"\016\017\020"
 1871              		.section	.text.HAL_RCC_GetSysClockFreq,"ax",%progbits
 1872              		.align	1
 1873              		.global	HAL_RCC_GetSysClockFreq
 1874              		.syntax unified
 1875              		.code	16
 1876              		.thumb_func
 1877              		.fpu softvfp
 1879              	HAL_RCC_GetSysClockFreq:
 1880              	.LFB43:
1032:Drivers/STM32F0xx_HAL_Driver/Src/stm32f0xx_hal_rcc.c **** 
1033:Drivers/STM32F0xx_HAL_Driver/Src/stm32f0xx_hal_rcc.c **** /**
1034:Drivers/STM32F0xx_HAL_Driver/Src/stm32f0xx_hal_rcc.c ****   * @brief  Returns the SYSCLK frequency     
1035:Drivers/STM32F0xx_HAL_Driver/Src/stm32f0xx_hal_rcc.c ****   * @note   The system frequency computed by this function is not the real 
1036:Drivers/STM32F0xx_HAL_Driver/Src/stm32f0xx_hal_rcc.c ****   *         frequency in the chip. It is calculated based on the predefined 
1037:Drivers/STM32F0xx_HAL_Driver/Src/stm32f0xx_hal_rcc.c ****   *         constant and the selected clock source:
1038:Drivers/STM32F0xx_HAL_Driver/Src/stm32f0xx_hal_rcc.c ****   * @note     If SYSCLK source is HSI, function returns values based on HSI_VALUE(*)
1039:Drivers/STM32F0xx_HAL_Driver/Src/stm32f0xx_hal_rcc.c ****   * @note     If SYSCLK source is HSE, function returns a value based on HSE_VALUE
1040:Drivers/STM32F0xx_HAL_Driver/Src/stm32f0xx_hal_rcc.c ****   *           divided by PREDIV factor(**)
1041:Drivers/STM32F0xx_HAL_Driver/Src/stm32f0xx_hal_rcc.c ****   * @note     If SYSCLK source is PLL, function returns a value based on HSE_VALUE
1042:Drivers/STM32F0xx_HAL_Driver/Src/stm32f0xx_hal_rcc.c ****   *           divided by PREDIV factor(**) or depending on STM32F0xxxx devices either a value based
1043:Drivers/STM32F0xx_HAL_Driver/Src/stm32f0xx_hal_rcc.c ****   *           on HSI_VALUE divided by 2 or HSI_VALUE divided by PREDIV factor(*) multiplied by the 
1044:Drivers/STM32F0xx_HAL_Driver/Src/stm32f0xx_hal_rcc.c ****   *           PLL factor.
1045:Drivers/STM32F0xx_HAL_Driver/Src/stm32f0xx_hal_rcc.c ****   * @note     (*) HSI_VALUE is a constant defined in stm32f0xx_hal_conf.h file (default value
1046:Drivers/STM32F0xx_HAL_Driver/Src/stm32f0xx_hal_rcc.c ****   *               8 MHz) but the real value may vary depending on the variations
1047:Drivers/STM32F0xx_HAL_Driver/Src/stm32f0xx_hal_rcc.c ****   *               in voltage and temperature.
ARM GAS  C:\Users\ADMINI~1\AppData\Local\Temp\ccoLOygm.s 			page 53


1048:Drivers/STM32F0xx_HAL_Driver/Src/stm32f0xx_hal_rcc.c ****   * @note     (**) HSE_VALUE is a constant defined in stm32f0xx_hal_conf.h file (default value
1049:Drivers/STM32F0xx_HAL_Driver/Src/stm32f0xx_hal_rcc.c ****   *                8 MHz), user has to ensure that HSE_VALUE is same as the real
1050:Drivers/STM32F0xx_HAL_Driver/Src/stm32f0xx_hal_rcc.c ****   *                frequency of the crystal used. Otherwise, this function may
1051:Drivers/STM32F0xx_HAL_Driver/Src/stm32f0xx_hal_rcc.c ****   *                have wrong result.
1052:Drivers/STM32F0xx_HAL_Driver/Src/stm32f0xx_hal_rcc.c ****   *                  
1053:Drivers/STM32F0xx_HAL_Driver/Src/stm32f0xx_hal_rcc.c ****   * @note   The result of this function could be not correct when using fractional
1054:Drivers/STM32F0xx_HAL_Driver/Src/stm32f0xx_hal_rcc.c ****   *         value for HSE crystal.
1055:Drivers/STM32F0xx_HAL_Driver/Src/stm32f0xx_hal_rcc.c ****   *           
1056:Drivers/STM32F0xx_HAL_Driver/Src/stm32f0xx_hal_rcc.c ****   * @note   This function can be used by the user application to compute the 
1057:Drivers/STM32F0xx_HAL_Driver/Src/stm32f0xx_hal_rcc.c ****   *         baud-rate for the communication peripherals or configure other parameters.
1058:Drivers/STM32F0xx_HAL_Driver/Src/stm32f0xx_hal_rcc.c ****   *           
1059:Drivers/STM32F0xx_HAL_Driver/Src/stm32f0xx_hal_rcc.c ****   * @note   Each time SYSCLK changes, this function must be called to update the
1060:Drivers/STM32F0xx_HAL_Driver/Src/stm32f0xx_hal_rcc.c ****   *         right SYSCLK value. Otherwise, any configuration based on this function will be incorre
1061:Drivers/STM32F0xx_HAL_Driver/Src/stm32f0xx_hal_rcc.c ****   *         
1062:Drivers/STM32F0xx_HAL_Driver/Src/stm32f0xx_hal_rcc.c ****   * @retval SYSCLK frequency
1063:Drivers/STM32F0xx_HAL_Driver/Src/stm32f0xx_hal_rcc.c ****   */
1064:Drivers/STM32F0xx_HAL_Driver/Src/stm32f0xx_hal_rcc.c **** uint32_t HAL_RCC_GetSysClockFreq(void)
1065:Drivers/STM32F0xx_HAL_Driver/Src/stm32f0xx_hal_rcc.c **** {
 1881              		.loc 1 1065 1
 1882              		.cfi_startproc
 1883              		@ args = 0, pretend = 0, frame = 56
 1884              		@ frame_needed = 1, uses_anonymous_args = 0
 1885 0000 90B5     		push	{r4, r7, lr}
 1886              	.LCFI15:
 1887              		.cfi_def_cfa_offset 12
 1888              		.cfi_offset 4, -12
 1889              		.cfi_offset 7, -8
 1890              		.cfi_offset 14, -4
 1891 0002 8FB0     		sub	sp, sp, #60
 1892              	.LCFI16:
 1893              		.cfi_def_cfa_offset 72
 1894 0004 00AF     		add	r7, sp, #0
 1895              	.LCFI17:
 1896              		.cfi_def_cfa_register 7
1066:Drivers/STM32F0xx_HAL_Driver/Src/stm32f0xx_hal_rcc.c ****   const uint8_t aPLLMULFactorTable[16] = { 2U,  3U,  4U,  5U,  6U,  7U,  8U,  9U,
 1897              		.loc 1 1066 17
 1898 0006 1423     		movs	r3, #20
 1899 0008 FB18     		adds	r3, r7, r3
 1900 000a 384A     		ldr	r2, .L125
 1901 000c 13CA     		ldmia	r2!, {r0, r1, r4}
 1902 000e 13C3     		stmia	r3!, {r0, r1, r4}
 1903 0010 1268     		ldr	r2, [r2]
 1904 0012 1A60     		str	r2, [r3]
1067:Drivers/STM32F0xx_HAL_Driver/Src/stm32f0xx_hal_rcc.c ****                                          10U, 11U, 12U, 13U, 14U, 15U, 16U, 16U};
1068:Drivers/STM32F0xx_HAL_Driver/Src/stm32f0xx_hal_rcc.c ****   const uint8_t aPredivFactorTable[16] = { 1U, 2U,  3U,  4U,  5U,  6U,  7U,  8U,
 1905              		.loc 1 1068 17
 1906 0014 3B1D     		adds	r3, r7, #4
 1907 0016 364A     		ldr	r2, .L125+4
 1908 0018 13CA     		ldmia	r2!, {r0, r1, r4}
 1909 001a 13C3     		stmia	r3!, {r0, r1, r4}
 1910 001c 1268     		ldr	r2, [r2]
 1911 001e 1A60     		str	r2, [r3]
1069:Drivers/STM32F0xx_HAL_Driver/Src/stm32f0xx_hal_rcc.c ****                                            9U,10U, 11U, 12U, 13U, 14U, 15U, 16U};
1070:Drivers/STM32F0xx_HAL_Driver/Src/stm32f0xx_hal_rcc.c **** 
1071:Drivers/STM32F0xx_HAL_Driver/Src/stm32f0xx_hal_rcc.c ****   uint32_t tmpreg = 0U, prediv = 0U, pllclk = 0U, pllmul = 0U;
 1912              		.loc 1 1071 12
 1913 0020 0023     		movs	r3, #0
ARM GAS  C:\Users\ADMINI~1\AppData\Local\Temp\ccoLOygm.s 			page 54


 1914 0022 FB62     		str	r3, [r7, #44]
 1915              		.loc 1 1071 25
 1916 0024 0023     		movs	r3, #0
 1917 0026 BB62     		str	r3, [r7, #40]
 1918              		.loc 1 1071 38
 1919 0028 0023     		movs	r3, #0
 1920 002a 7B63     		str	r3, [r7, #52]
 1921              		.loc 1 1071 51
 1922 002c 0023     		movs	r3, #0
 1923 002e 7B62     		str	r3, [r7, #36]
1072:Drivers/STM32F0xx_HAL_Driver/Src/stm32f0xx_hal_rcc.c ****   uint32_t sysclockfreq = 0U;
 1924              		.loc 1 1072 12
 1925 0030 0023     		movs	r3, #0
 1926 0032 3B63     		str	r3, [r7, #48]
1073:Drivers/STM32F0xx_HAL_Driver/Src/stm32f0xx_hal_rcc.c ****   
1074:Drivers/STM32F0xx_HAL_Driver/Src/stm32f0xx_hal_rcc.c ****   tmpreg = RCC->CFGR;
 1927              		.loc 1 1074 15
 1928 0034 2F4B     		ldr	r3, .L125+8
 1929              		.loc 1 1074 10
 1930 0036 5B68     		ldr	r3, [r3, #4]
 1931 0038 FB62     		str	r3, [r7, #44]
1075:Drivers/STM32F0xx_HAL_Driver/Src/stm32f0xx_hal_rcc.c ****   
1076:Drivers/STM32F0xx_HAL_Driver/Src/stm32f0xx_hal_rcc.c ****   /* Get SYSCLK source -------------------------------------------------------*/
1077:Drivers/STM32F0xx_HAL_Driver/Src/stm32f0xx_hal_rcc.c ****   switch (tmpreg & RCC_CFGR_SWS)
 1932              		.loc 1 1077 18
 1933 003a FB6A     		ldr	r3, [r7, #44]
 1934 003c 0C22     		movs	r2, #12
 1935 003e 1340     		ands	r3, r2
 1936              		.loc 1 1077 3
 1937 0040 0C2B     		cmp	r3, #12
 1938 0042 47D0     		beq	.L116
 1939 0044 49D8     		bhi	.L117
 1940 0046 042B     		cmp	r3, #4
 1941 0048 02D0     		beq	.L118
 1942 004a 082B     		cmp	r3, #8
 1943 004c 03D0     		beq	.L119
 1944 004e 44E0     		b	.L117
 1945              	.L118:
1078:Drivers/STM32F0xx_HAL_Driver/Src/stm32f0xx_hal_rcc.c ****   {
1079:Drivers/STM32F0xx_HAL_Driver/Src/stm32f0xx_hal_rcc.c ****     case RCC_SYSCLKSOURCE_STATUS_HSE:  /* HSE used as system clock */
1080:Drivers/STM32F0xx_HAL_Driver/Src/stm32f0xx_hal_rcc.c ****     {
1081:Drivers/STM32F0xx_HAL_Driver/Src/stm32f0xx_hal_rcc.c ****       sysclockfreq = HSE_VALUE;
 1946              		.loc 1 1081 20
 1947 0050 294B     		ldr	r3, .L125+12
 1948 0052 3B63     		str	r3, [r7, #48]
1082:Drivers/STM32F0xx_HAL_Driver/Src/stm32f0xx_hal_rcc.c ****       break;
 1949              		.loc 1 1082 7
 1950 0054 44E0     		b	.L120
 1951              	.L119:
1083:Drivers/STM32F0xx_HAL_Driver/Src/stm32f0xx_hal_rcc.c ****     }
1084:Drivers/STM32F0xx_HAL_Driver/Src/stm32f0xx_hal_rcc.c ****     case RCC_SYSCLKSOURCE_STATUS_PLLCLK:  /* PLL used as system clock */
1085:Drivers/STM32F0xx_HAL_Driver/Src/stm32f0xx_hal_rcc.c ****     {
1086:Drivers/STM32F0xx_HAL_Driver/Src/stm32f0xx_hal_rcc.c ****       pllmul = aPLLMULFactorTable[(uint32_t)(tmpreg & RCC_CFGR_PLLMUL) >> RCC_CFGR_PLLMUL_BITNUMBER
 1952              		.loc 1 1086 72
 1953 0056 FB6A     		ldr	r3, [r7, #44]
 1954 0058 9B0C     		lsrs	r3, r3, #18
 1955 005a 0F22     		movs	r2, #15
ARM GAS  C:\Users\ADMINI~1\AppData\Local\Temp\ccoLOygm.s 			page 55


 1956 005c 1340     		ands	r3, r2
 1957              		.loc 1 1086 34
 1958 005e 1422     		movs	r2, #20
 1959 0060 BA18     		adds	r2, r7, r2
 1960 0062 D35C     		ldrb	r3, [r2, r3]
 1961              		.loc 1 1086 14
 1962 0064 7B62     		str	r3, [r7, #36]
1087:Drivers/STM32F0xx_HAL_Driver/Src/stm32f0xx_hal_rcc.c ****       prediv = aPredivFactorTable[(uint32_t)(RCC->CFGR2 & RCC_CFGR2_PREDIV) >> RCC_CFGR2_PREDIV_BIT
 1963              		.loc 1 1087 49
 1964 0066 234B     		ldr	r3, .L125+8
 1965 0068 DB6A     		ldr	r3, [r3, #44]
 1966              		.loc 1 1087 77
 1967 006a 0F22     		movs	r2, #15
 1968 006c 1340     		ands	r3, r2
 1969              		.loc 1 1087 34
 1970 006e 3A1D     		adds	r2, r7, #4
 1971 0070 D35C     		ldrb	r3, [r2, r3]
 1972              		.loc 1 1087 14
 1973 0072 BB62     		str	r3, [r7, #40]
1088:Drivers/STM32F0xx_HAL_Driver/Src/stm32f0xx_hal_rcc.c ****       if ((tmpreg & RCC_CFGR_PLLSRC) == RCC_PLLSOURCE_HSE)
 1974              		.loc 1 1088 19
 1975 0074 FA6A     		ldr	r2, [r7, #44]
 1976 0076 C023     		movs	r3, #192
 1977 0078 5B02     		lsls	r3, r3, #9
 1978 007a 1A40     		ands	r2, r3
 1979              		.loc 1 1088 10
 1980 007c 8023     		movs	r3, #128
 1981 007e 5B02     		lsls	r3, r3, #9
 1982 0080 9A42     		cmp	r2, r3
 1983 0082 09D1     		bne	.L121
1089:Drivers/STM32F0xx_HAL_Driver/Src/stm32f0xx_hal_rcc.c ****       {
1090:Drivers/STM32F0xx_HAL_Driver/Src/stm32f0xx_hal_rcc.c ****         /* HSE used as PLL clock source : PLLCLK = HSE/PREDIV * PLLMUL */
1091:Drivers/STM32F0xx_HAL_Driver/Src/stm32f0xx_hal_rcc.c ****         pllclk = (HSE_VALUE / prediv) * pllmul;
 1984              		.loc 1 1091 29
 1985 0084 B96A     		ldr	r1, [r7, #40]
 1986 0086 1C48     		ldr	r0, .L125+12
 1987 0088 FFF7FEFF 		bl	__aeabi_uidiv
 1988              	.LVL0:
 1989 008c 0300     		movs	r3, r0
 1990 008e 1A00     		movs	r2, r3
 1991              		.loc 1 1091 16
 1992 0090 7B6A     		ldr	r3, [r7, #36]
 1993 0092 5343     		muls	r3, r2
 1994 0094 7B63     		str	r3, [r7, #52]
 1995 0096 1AE0     		b	.L122
 1996              	.L121:
1092:Drivers/STM32F0xx_HAL_Driver/Src/stm32f0xx_hal_rcc.c ****       }
1093:Drivers/STM32F0xx_HAL_Driver/Src/stm32f0xx_hal_rcc.c **** #if defined(RCC_CFGR_PLLSRC_HSI48_PREDIV)
1094:Drivers/STM32F0xx_HAL_Driver/Src/stm32f0xx_hal_rcc.c ****       else if ((tmpreg & RCC_CFGR_PLLSRC) == RCC_PLLSOURCE_HSI48)
 1997              		.loc 1 1094 24
 1998 0098 FA6A     		ldr	r2, [r7, #44]
 1999 009a C023     		movs	r3, #192
 2000 009c 5B02     		lsls	r3, r3, #9
 2001 009e 1A40     		ands	r2, r3
 2002              		.loc 1 1094 15
 2003 00a0 C023     		movs	r3, #192
 2004 00a2 5B02     		lsls	r3, r3, #9
ARM GAS  C:\Users\ADMINI~1\AppData\Local\Temp\ccoLOygm.s 			page 56


 2005 00a4 9A42     		cmp	r2, r3
 2006 00a6 09D1     		bne	.L123
1095:Drivers/STM32F0xx_HAL_Driver/Src/stm32f0xx_hal_rcc.c ****       {
1096:Drivers/STM32F0xx_HAL_Driver/Src/stm32f0xx_hal_rcc.c ****         /* HSI48 used as PLL clock source : PLLCLK = HSI48/PREDIV * PLLMUL */
1097:Drivers/STM32F0xx_HAL_Driver/Src/stm32f0xx_hal_rcc.c ****         pllclk = (HSI48_VALUE / prediv) * pllmul;
 2007              		.loc 1 1097 31
 2008 00a8 B96A     		ldr	r1, [r7, #40]
 2009 00aa 1448     		ldr	r0, .L125+16
 2010 00ac FFF7FEFF 		bl	__aeabi_uidiv
 2011              	.LVL1:
 2012 00b0 0300     		movs	r3, r0
 2013 00b2 1A00     		movs	r2, r3
 2014              		.loc 1 1097 16
 2015 00b4 7B6A     		ldr	r3, [r7, #36]
 2016 00b6 5343     		muls	r3, r2
 2017 00b8 7B63     		str	r3, [r7, #52]
 2018 00ba 08E0     		b	.L122
 2019              	.L123:
1098:Drivers/STM32F0xx_HAL_Driver/Src/stm32f0xx_hal_rcc.c ****       }
1099:Drivers/STM32F0xx_HAL_Driver/Src/stm32f0xx_hal_rcc.c **** #endif /* RCC_CFGR_PLLSRC_HSI48_PREDIV */
1100:Drivers/STM32F0xx_HAL_Driver/Src/stm32f0xx_hal_rcc.c ****       else
1101:Drivers/STM32F0xx_HAL_Driver/Src/stm32f0xx_hal_rcc.c ****       {
1102:Drivers/STM32F0xx_HAL_Driver/Src/stm32f0xx_hal_rcc.c **** #if  (defined(STM32F042x6) || defined(STM32F048xx) || defined(STM32F070x6) || defined(STM32F071xB) 
1103:Drivers/STM32F0xx_HAL_Driver/Src/stm32f0xx_hal_rcc.c ****         /* HSI used as PLL clock source : PLLCLK = HSI/PREDIV * PLLMUL */
1104:Drivers/STM32F0xx_HAL_Driver/Src/stm32f0xx_hal_rcc.c ****         pllclk = (HSI_VALUE / prediv) * pllmul;
 2020              		.loc 1 1104 29
 2021 00bc B96A     		ldr	r1, [r7, #40]
 2022 00be 0E48     		ldr	r0, .L125+12
 2023 00c0 FFF7FEFF 		bl	__aeabi_uidiv
 2024              	.LVL2:
 2025 00c4 0300     		movs	r3, r0
 2026 00c6 1A00     		movs	r2, r3
 2027              		.loc 1 1104 16
 2028 00c8 7B6A     		ldr	r3, [r7, #36]
 2029 00ca 5343     		muls	r3, r2
 2030 00cc 7B63     		str	r3, [r7, #52]
 2031              	.L122:
1105:Drivers/STM32F0xx_HAL_Driver/Src/stm32f0xx_hal_rcc.c **** #else
1106:Drivers/STM32F0xx_HAL_Driver/Src/stm32f0xx_hal_rcc.c ****         /* HSI used as PLL clock source : PLLCLK = HSI/2 * PLLMUL */
1107:Drivers/STM32F0xx_HAL_Driver/Src/stm32f0xx_hal_rcc.c ****         pllclk = (uint32_t)((HSI_VALUE >> 1U) * pllmul);
1108:Drivers/STM32F0xx_HAL_Driver/Src/stm32f0xx_hal_rcc.c **** #endif
1109:Drivers/STM32F0xx_HAL_Driver/Src/stm32f0xx_hal_rcc.c ****       }
1110:Drivers/STM32F0xx_HAL_Driver/Src/stm32f0xx_hal_rcc.c ****       sysclockfreq = pllclk;
 2032              		.loc 1 1110 20
 2033 00ce 7B6B     		ldr	r3, [r7, #52]
 2034 00d0 3B63     		str	r3, [r7, #48]
1111:Drivers/STM32F0xx_HAL_Driver/Src/stm32f0xx_hal_rcc.c ****       break;
 2035              		.loc 1 1111 7
 2036 00d2 05E0     		b	.L120
 2037              	.L116:
1112:Drivers/STM32F0xx_HAL_Driver/Src/stm32f0xx_hal_rcc.c ****     }
1113:Drivers/STM32F0xx_HAL_Driver/Src/stm32f0xx_hal_rcc.c **** #if defined(RCC_CFGR_SWS_HSI48)
1114:Drivers/STM32F0xx_HAL_Driver/Src/stm32f0xx_hal_rcc.c ****     case RCC_SYSCLKSOURCE_STATUS_HSI48:    /* HSI48 used as system clock source */
1115:Drivers/STM32F0xx_HAL_Driver/Src/stm32f0xx_hal_rcc.c ****     {
1116:Drivers/STM32F0xx_HAL_Driver/Src/stm32f0xx_hal_rcc.c ****       sysclockfreq = HSI48_VALUE;
 2038              		.loc 1 1116 20
 2039 00d4 094B     		ldr	r3, .L125+16
ARM GAS  C:\Users\ADMINI~1\AppData\Local\Temp\ccoLOygm.s 			page 57


 2040 00d6 3B63     		str	r3, [r7, #48]
1117:Drivers/STM32F0xx_HAL_Driver/Src/stm32f0xx_hal_rcc.c ****       break;
 2041              		.loc 1 1117 7
 2042 00d8 02E0     		b	.L120
 2043              	.L117:
1118:Drivers/STM32F0xx_HAL_Driver/Src/stm32f0xx_hal_rcc.c ****     }
1119:Drivers/STM32F0xx_HAL_Driver/Src/stm32f0xx_hal_rcc.c **** #endif /* RCC_CFGR_SWS_HSI48 */
1120:Drivers/STM32F0xx_HAL_Driver/Src/stm32f0xx_hal_rcc.c ****     case RCC_SYSCLKSOURCE_STATUS_HSI:  /* HSI used as system clock source */
1121:Drivers/STM32F0xx_HAL_Driver/Src/stm32f0xx_hal_rcc.c ****     default: /* HSI used as system clock */
1122:Drivers/STM32F0xx_HAL_Driver/Src/stm32f0xx_hal_rcc.c ****     {
1123:Drivers/STM32F0xx_HAL_Driver/Src/stm32f0xx_hal_rcc.c ****       sysclockfreq = HSI_VALUE;
 2044              		.loc 1 1123 20
 2045 00da 074B     		ldr	r3, .L125+12
 2046 00dc 3B63     		str	r3, [r7, #48]
1124:Drivers/STM32F0xx_HAL_Driver/Src/stm32f0xx_hal_rcc.c ****       break;
 2047              		.loc 1 1124 7
 2048 00de C046     		nop
 2049              	.L120:
1125:Drivers/STM32F0xx_HAL_Driver/Src/stm32f0xx_hal_rcc.c ****     }
1126:Drivers/STM32F0xx_HAL_Driver/Src/stm32f0xx_hal_rcc.c ****   }
1127:Drivers/STM32F0xx_HAL_Driver/Src/stm32f0xx_hal_rcc.c ****   return sysclockfreq;
 2050              		.loc 1 1127 10
 2051 00e0 3B6B     		ldr	r3, [r7, #48]
1128:Drivers/STM32F0xx_HAL_Driver/Src/stm32f0xx_hal_rcc.c **** }
 2052              		.loc 1 1128 1
 2053 00e2 1800     		movs	r0, r3
 2054 00e4 BD46     		mov	sp, r7
 2055 00e6 0FB0     		add	sp, sp, #60
 2056              		@ sp needed
 2057 00e8 90BD     		pop	{r4, r7, pc}
 2058              	.L126:
 2059 00ea C046     		.align	2
 2060              	.L125:
 2061 00ec 00000000 		.word	.LC3
 2062 00f0 10000000 		.word	.LC5
 2063 00f4 00100240 		.word	1073876992
 2064 00f8 00127A00 		.word	8000000
 2065 00fc 006CDC02 		.word	48000000
 2066              		.cfi_endproc
 2067              	.LFE43:
 2069              		.section	.text.HAL_RCC_GetHCLKFreq,"ax",%progbits
 2070              		.align	1
 2071              		.global	HAL_RCC_GetHCLKFreq
 2072              		.syntax unified
 2073              		.code	16
 2074              		.thumb_func
 2075              		.fpu softvfp
 2077              	HAL_RCC_GetHCLKFreq:
 2078              	.LFB44:
1129:Drivers/STM32F0xx_HAL_Driver/Src/stm32f0xx_hal_rcc.c **** 
1130:Drivers/STM32F0xx_HAL_Driver/Src/stm32f0xx_hal_rcc.c **** /**
1131:Drivers/STM32F0xx_HAL_Driver/Src/stm32f0xx_hal_rcc.c ****   * @brief  Returns the HCLK frequency     
1132:Drivers/STM32F0xx_HAL_Driver/Src/stm32f0xx_hal_rcc.c ****   * @note   Each time HCLK changes, this function must be called to update the
1133:Drivers/STM32F0xx_HAL_Driver/Src/stm32f0xx_hal_rcc.c ****   *         right HCLK value. Otherwise, any configuration based on this function will be incorrect
1134:Drivers/STM32F0xx_HAL_Driver/Src/stm32f0xx_hal_rcc.c ****   * 
1135:Drivers/STM32F0xx_HAL_Driver/Src/stm32f0xx_hal_rcc.c ****   * @note   The SystemCoreClock CMSIS variable is used to store System Clock Frequency 
1136:Drivers/STM32F0xx_HAL_Driver/Src/stm32f0xx_hal_rcc.c ****   *         and updated within this function
ARM GAS  C:\Users\ADMINI~1\AppData\Local\Temp\ccoLOygm.s 			page 58


1137:Drivers/STM32F0xx_HAL_Driver/Src/stm32f0xx_hal_rcc.c ****   * @retval HCLK frequency
1138:Drivers/STM32F0xx_HAL_Driver/Src/stm32f0xx_hal_rcc.c ****   */
1139:Drivers/STM32F0xx_HAL_Driver/Src/stm32f0xx_hal_rcc.c **** uint32_t HAL_RCC_GetHCLKFreq(void)
1140:Drivers/STM32F0xx_HAL_Driver/Src/stm32f0xx_hal_rcc.c **** {
 2079              		.loc 1 1140 1
 2080              		.cfi_startproc
 2081              		@ args = 0, pretend = 0, frame = 0
 2082              		@ frame_needed = 1, uses_anonymous_args = 0
 2083 0000 80B5     		push	{r7, lr}
 2084              	.LCFI18:
 2085              		.cfi_def_cfa_offset 8
 2086              		.cfi_offset 7, -8
 2087              		.cfi_offset 14, -4
 2088 0002 00AF     		add	r7, sp, #0
 2089              	.LCFI19:
 2090              		.cfi_def_cfa_register 7
1141:Drivers/STM32F0xx_HAL_Driver/Src/stm32f0xx_hal_rcc.c ****   return SystemCoreClock;
 2091              		.loc 1 1141 10
 2092 0004 024B     		ldr	r3, .L129
 2093 0006 1B68     		ldr	r3, [r3]
1142:Drivers/STM32F0xx_HAL_Driver/Src/stm32f0xx_hal_rcc.c **** }
 2094              		.loc 1 1142 1
 2095 0008 1800     		movs	r0, r3
 2096 000a BD46     		mov	sp, r7
 2097              		@ sp needed
 2098 000c 80BD     		pop	{r7, pc}
 2099              	.L130:
 2100 000e C046     		.align	2
 2101              	.L129:
 2102 0010 00000000 		.word	SystemCoreClock
 2103              		.cfi_endproc
 2104              	.LFE44:
 2106              		.section	.text.HAL_RCC_GetPCLK1Freq,"ax",%progbits
 2107              		.align	1
 2108              		.global	HAL_RCC_GetPCLK1Freq
 2109              		.syntax unified
 2110              		.code	16
 2111              		.thumb_func
 2112              		.fpu softvfp
 2114              	HAL_RCC_GetPCLK1Freq:
 2115              	.LFB45:
1143:Drivers/STM32F0xx_HAL_Driver/Src/stm32f0xx_hal_rcc.c **** 
1144:Drivers/STM32F0xx_HAL_Driver/Src/stm32f0xx_hal_rcc.c **** /**
1145:Drivers/STM32F0xx_HAL_Driver/Src/stm32f0xx_hal_rcc.c ****   * @brief  Returns the PCLK1 frequency     
1146:Drivers/STM32F0xx_HAL_Driver/Src/stm32f0xx_hal_rcc.c ****   * @note   Each time PCLK1 changes, this function must be called to update the
1147:Drivers/STM32F0xx_HAL_Driver/Src/stm32f0xx_hal_rcc.c ****   *         right PCLK1 value. Otherwise, any configuration based on this function will be incorrec
1148:Drivers/STM32F0xx_HAL_Driver/Src/stm32f0xx_hal_rcc.c ****   * @retval PCLK1 frequency
1149:Drivers/STM32F0xx_HAL_Driver/Src/stm32f0xx_hal_rcc.c ****   */
1150:Drivers/STM32F0xx_HAL_Driver/Src/stm32f0xx_hal_rcc.c **** uint32_t HAL_RCC_GetPCLK1Freq(void)
1151:Drivers/STM32F0xx_HAL_Driver/Src/stm32f0xx_hal_rcc.c **** {
 2116              		.loc 1 1151 1
 2117              		.cfi_startproc
 2118              		@ args = 0, pretend = 0, frame = 0
 2119              		@ frame_needed = 1, uses_anonymous_args = 0
 2120 0000 80B5     		push	{r7, lr}
 2121              	.LCFI20:
 2122              		.cfi_def_cfa_offset 8
ARM GAS  C:\Users\ADMINI~1\AppData\Local\Temp\ccoLOygm.s 			page 59


 2123              		.cfi_offset 7, -8
 2124              		.cfi_offset 14, -4
 2125 0002 00AF     		add	r7, sp, #0
 2126              	.LCFI21:
 2127              		.cfi_def_cfa_register 7
1152:Drivers/STM32F0xx_HAL_Driver/Src/stm32f0xx_hal_rcc.c ****   /* Get HCLK source and Compute PCLK1 frequency ---------------------------*/
1153:Drivers/STM32F0xx_HAL_Driver/Src/stm32f0xx_hal_rcc.c ****   return (HAL_RCC_GetHCLKFreq() >> APBPrescTable[(RCC->CFGR & RCC_CFGR_PPRE) >> RCC_CFGR_PPRE_BITNU
 2128              		.loc 1 1153 11
 2129 0004 FFF7FEFF 		bl	HAL_RCC_GetHCLKFreq
 2130 0008 0100     		movs	r1, r0
 2131              		.loc 1 1153 54
 2132 000a 064B     		ldr	r3, .L133
 2133 000c 5B68     		ldr	r3, [r3, #4]
 2134              		.loc 1 1153 78
 2135 000e 1B0A     		lsrs	r3, r3, #8
 2136 0010 0722     		movs	r2, #7
 2137 0012 1340     		ands	r3, r2
 2138              		.loc 1 1153 49
 2139 0014 044A     		ldr	r2, .L133+4
 2140 0016 D35C     		ldrb	r3, [r2, r3]
 2141              		.loc 1 1153 33
 2142 0018 D940     		lsrs	r1, r1, r3
 2143 001a 0B00     		movs	r3, r1
1154:Drivers/STM32F0xx_HAL_Driver/Src/stm32f0xx_hal_rcc.c **** }    
 2144              		.loc 1 1154 1
 2145 001c 1800     		movs	r0, r3
 2146 001e BD46     		mov	sp, r7
 2147              		@ sp needed
 2148 0020 80BD     		pop	{r7, pc}
 2149              	.L134:
 2150 0022 C046     		.align	2
 2151              	.L133:
 2152 0024 00100240 		.word	1073876992
 2153 0028 00000000 		.word	APBPrescTable
 2154              		.cfi_endproc
 2155              	.LFE45:
 2157              		.section	.text.HAL_RCC_GetOscConfig,"ax",%progbits
 2158              		.align	1
 2159              		.global	HAL_RCC_GetOscConfig
 2160              		.syntax unified
 2161              		.code	16
 2162              		.thumb_func
 2163              		.fpu softvfp
 2165              	HAL_RCC_GetOscConfig:
 2166              	.LFB46:
1155:Drivers/STM32F0xx_HAL_Driver/Src/stm32f0xx_hal_rcc.c **** 
1156:Drivers/STM32F0xx_HAL_Driver/Src/stm32f0xx_hal_rcc.c **** /**
1157:Drivers/STM32F0xx_HAL_Driver/Src/stm32f0xx_hal_rcc.c ****   * @brief  Configures the RCC_OscInitStruct according to the internal 
1158:Drivers/STM32F0xx_HAL_Driver/Src/stm32f0xx_hal_rcc.c ****   * RCC configuration registers.
1159:Drivers/STM32F0xx_HAL_Driver/Src/stm32f0xx_hal_rcc.c ****   * @param  RCC_OscInitStruct pointer to an RCC_OscInitTypeDef structure that 
1160:Drivers/STM32F0xx_HAL_Driver/Src/stm32f0xx_hal_rcc.c ****   * will be configured.
1161:Drivers/STM32F0xx_HAL_Driver/Src/stm32f0xx_hal_rcc.c ****   * @retval None
1162:Drivers/STM32F0xx_HAL_Driver/Src/stm32f0xx_hal_rcc.c ****   */
1163:Drivers/STM32F0xx_HAL_Driver/Src/stm32f0xx_hal_rcc.c **** void HAL_RCC_GetOscConfig(RCC_OscInitTypeDef  *RCC_OscInitStruct)
1164:Drivers/STM32F0xx_HAL_Driver/Src/stm32f0xx_hal_rcc.c **** {
 2167              		.loc 1 1164 1
 2168              		.cfi_startproc
ARM GAS  C:\Users\ADMINI~1\AppData\Local\Temp\ccoLOygm.s 			page 60


 2169              		@ args = 0, pretend = 0, frame = 8
 2170              		@ frame_needed = 1, uses_anonymous_args = 0
 2171 0000 80B5     		push	{r7, lr}
 2172              	.LCFI22:
 2173              		.cfi_def_cfa_offset 8
 2174              		.cfi_offset 7, -8
 2175              		.cfi_offset 14, -4
 2176 0002 82B0     		sub	sp, sp, #8
 2177              	.LCFI23:
 2178              		.cfi_def_cfa_offset 16
 2179 0004 00AF     		add	r7, sp, #0
 2180              	.LCFI24:
 2181              		.cfi_def_cfa_register 7
 2182 0006 7860     		str	r0, [r7, #4]
1165:Drivers/STM32F0xx_HAL_Driver/Src/stm32f0xx_hal_rcc.c ****   /* Check the parameters */
1166:Drivers/STM32F0xx_HAL_Driver/Src/stm32f0xx_hal_rcc.c ****   assert_param(RCC_OscInitStruct != NULL);
1167:Drivers/STM32F0xx_HAL_Driver/Src/stm32f0xx_hal_rcc.c **** 
1168:Drivers/STM32F0xx_HAL_Driver/Src/stm32f0xx_hal_rcc.c ****   /* Set all possible values for the Oscillator type parameter ---------------*/
1169:Drivers/STM32F0xx_HAL_Driver/Src/stm32f0xx_hal_rcc.c ****   RCC_OscInitStruct->OscillatorType = RCC_OSCILLATORTYPE_HSE | RCC_OSCILLATORTYPE_HSI  \
 2183              		.loc 1 1169 37
 2184 0008 7B68     		ldr	r3, [r7, #4]
 2185 000a 1F22     		movs	r2, #31
 2186 000c 1A60     		str	r2, [r3]
1170:Drivers/STM32F0xx_HAL_Driver/Src/stm32f0xx_hal_rcc.c ****                   | RCC_OSCILLATORTYPE_LSE | RCC_OSCILLATORTYPE_LSI | RCC_OSCILLATORTYPE_HSI14;
1171:Drivers/STM32F0xx_HAL_Driver/Src/stm32f0xx_hal_rcc.c **** #if defined(RCC_HSI48_SUPPORT)
1172:Drivers/STM32F0xx_HAL_Driver/Src/stm32f0xx_hal_rcc.c ****   RCC_OscInitStruct->OscillatorType |= RCC_OSCILLATORTYPE_HSI48;
 2187              		.loc 1 1172 37
 2188 000e 7B68     		ldr	r3, [r7, #4]
 2189 0010 1B68     		ldr	r3, [r3]
 2190 0012 2022     		movs	r2, #32
 2191 0014 1A43     		orrs	r2, r3
 2192 0016 7B68     		ldr	r3, [r7, #4]
 2193 0018 1A60     		str	r2, [r3]
1173:Drivers/STM32F0xx_HAL_Driver/Src/stm32f0xx_hal_rcc.c **** #endif /* RCC_HSI48_SUPPORT */
1174:Drivers/STM32F0xx_HAL_Driver/Src/stm32f0xx_hal_rcc.c **** 
1175:Drivers/STM32F0xx_HAL_Driver/Src/stm32f0xx_hal_rcc.c **** 
1176:Drivers/STM32F0xx_HAL_Driver/Src/stm32f0xx_hal_rcc.c ****   /* Get the HSE configuration -----------------------------------------------*/
1177:Drivers/STM32F0xx_HAL_Driver/Src/stm32f0xx_hal_rcc.c ****   if((RCC->CR &RCC_CR_HSEBYP) == RCC_CR_HSEBYP)
 2194              		.loc 1 1177 10
 2195 001a 4E4B     		ldr	r3, .L150
 2196 001c 1A68     		ldr	r2, [r3]
 2197              		.loc 1 1177 15
 2198 001e 8023     		movs	r3, #128
 2199 0020 DB02     		lsls	r3, r3, #11
 2200 0022 1A40     		ands	r2, r3
 2201              		.loc 1 1177 5
 2202 0024 8023     		movs	r3, #128
 2203 0026 DB02     		lsls	r3, r3, #11
 2204 0028 9A42     		cmp	r2, r3
 2205 002a 03D1     		bne	.L136
1178:Drivers/STM32F0xx_HAL_Driver/Src/stm32f0xx_hal_rcc.c ****   {
1179:Drivers/STM32F0xx_HAL_Driver/Src/stm32f0xx_hal_rcc.c ****     RCC_OscInitStruct->HSEState = RCC_HSE_BYPASS;
 2206              		.loc 1 1179 33
 2207 002c 7B68     		ldr	r3, [r7, #4]
 2208 002e 0522     		movs	r2, #5
 2209 0030 5A60     		str	r2, [r3, #4]
 2210 0032 0FE0     		b	.L137
ARM GAS  C:\Users\ADMINI~1\AppData\Local\Temp\ccoLOygm.s 			page 61


 2211              	.L136:
1180:Drivers/STM32F0xx_HAL_Driver/Src/stm32f0xx_hal_rcc.c ****   }
1181:Drivers/STM32F0xx_HAL_Driver/Src/stm32f0xx_hal_rcc.c ****   else if((RCC->CR &RCC_CR_HSEON) == RCC_CR_HSEON)
 2212              		.loc 1 1181 15
 2213 0034 474B     		ldr	r3, .L150
 2214 0036 1A68     		ldr	r2, [r3]
 2215              		.loc 1 1181 20
 2216 0038 8023     		movs	r3, #128
 2217 003a 5B02     		lsls	r3, r3, #9
 2218 003c 1A40     		ands	r2, r3
 2219              		.loc 1 1181 10
 2220 003e 8023     		movs	r3, #128
 2221 0040 5B02     		lsls	r3, r3, #9
 2222 0042 9A42     		cmp	r2, r3
 2223 0044 03D1     		bne	.L138
1182:Drivers/STM32F0xx_HAL_Driver/Src/stm32f0xx_hal_rcc.c ****   {
1183:Drivers/STM32F0xx_HAL_Driver/Src/stm32f0xx_hal_rcc.c ****     RCC_OscInitStruct->HSEState = RCC_HSE_ON;
 2224              		.loc 1 1183 33
 2225 0046 7B68     		ldr	r3, [r7, #4]
 2226 0048 0122     		movs	r2, #1
 2227 004a 5A60     		str	r2, [r3, #4]
 2228 004c 02E0     		b	.L137
 2229              	.L138:
1184:Drivers/STM32F0xx_HAL_Driver/Src/stm32f0xx_hal_rcc.c ****   }
1185:Drivers/STM32F0xx_HAL_Driver/Src/stm32f0xx_hal_rcc.c ****   else
1186:Drivers/STM32F0xx_HAL_Driver/Src/stm32f0xx_hal_rcc.c ****   {
1187:Drivers/STM32F0xx_HAL_Driver/Src/stm32f0xx_hal_rcc.c ****     RCC_OscInitStruct->HSEState = RCC_HSE_OFF;
 2230              		.loc 1 1187 33
 2231 004e 7B68     		ldr	r3, [r7, #4]
 2232 0050 0022     		movs	r2, #0
 2233 0052 5A60     		str	r2, [r3, #4]
 2234              	.L137:
1188:Drivers/STM32F0xx_HAL_Driver/Src/stm32f0xx_hal_rcc.c ****   }
1189:Drivers/STM32F0xx_HAL_Driver/Src/stm32f0xx_hal_rcc.c **** 
1190:Drivers/STM32F0xx_HAL_Driver/Src/stm32f0xx_hal_rcc.c ****   /* Get the HSI configuration -----------------------------------------------*/
1191:Drivers/STM32F0xx_HAL_Driver/Src/stm32f0xx_hal_rcc.c ****   if((RCC->CR &RCC_CR_HSION) == RCC_CR_HSION)
 2235              		.loc 1 1191 10
 2236 0054 3F4B     		ldr	r3, .L150
 2237 0056 1B68     		ldr	r3, [r3]
 2238              		.loc 1 1191 15
 2239 0058 0122     		movs	r2, #1
 2240 005a 1340     		ands	r3, r2
 2241              		.loc 1 1191 5
 2242 005c 012B     		cmp	r3, #1
 2243 005e 03D1     		bne	.L139
1192:Drivers/STM32F0xx_HAL_Driver/Src/stm32f0xx_hal_rcc.c ****   {
1193:Drivers/STM32F0xx_HAL_Driver/Src/stm32f0xx_hal_rcc.c ****     RCC_OscInitStruct->HSIState = RCC_HSI_ON;
 2244              		.loc 1 1193 33
 2245 0060 7B68     		ldr	r3, [r7, #4]
 2246 0062 0122     		movs	r2, #1
 2247 0064 DA60     		str	r2, [r3, #12]
 2248 0066 02E0     		b	.L140
 2249              	.L139:
1194:Drivers/STM32F0xx_HAL_Driver/Src/stm32f0xx_hal_rcc.c ****   }
1195:Drivers/STM32F0xx_HAL_Driver/Src/stm32f0xx_hal_rcc.c ****   else
1196:Drivers/STM32F0xx_HAL_Driver/Src/stm32f0xx_hal_rcc.c ****   {
1197:Drivers/STM32F0xx_HAL_Driver/Src/stm32f0xx_hal_rcc.c ****     RCC_OscInitStruct->HSIState = RCC_HSI_OFF;
ARM GAS  C:\Users\ADMINI~1\AppData\Local\Temp\ccoLOygm.s 			page 62


 2250              		.loc 1 1197 33
 2251 0068 7B68     		ldr	r3, [r7, #4]
 2252 006a 0022     		movs	r2, #0
 2253 006c DA60     		str	r2, [r3, #12]
 2254              	.L140:
1198:Drivers/STM32F0xx_HAL_Driver/Src/stm32f0xx_hal_rcc.c ****   }
1199:Drivers/STM32F0xx_HAL_Driver/Src/stm32f0xx_hal_rcc.c ****   
1200:Drivers/STM32F0xx_HAL_Driver/Src/stm32f0xx_hal_rcc.c ****   RCC_OscInitStruct->HSICalibrationValue = (uint32_t)((RCC->CR &RCC_CR_HSITRIM) >> RCC_CR_HSITRIM_B
 2255              		.loc 1 1200 59
 2256 006e 394B     		ldr	r3, .L150
 2257 0070 1B68     		ldr	r3, [r3]
 2258              		.loc 1 1200 44
 2259 0072 DB08     		lsrs	r3, r3, #3
 2260 0074 1F22     		movs	r2, #31
 2261 0076 1A40     		ands	r2, r3
 2262              		.loc 1 1200 42
 2263 0078 7B68     		ldr	r3, [r7, #4]
 2264 007a 1A61     		str	r2, [r3, #16]
1201:Drivers/STM32F0xx_HAL_Driver/Src/stm32f0xx_hal_rcc.c ****   
1202:Drivers/STM32F0xx_HAL_Driver/Src/stm32f0xx_hal_rcc.c ****   /* Get the LSE configuration -----------------------------------------------*/
1203:Drivers/STM32F0xx_HAL_Driver/Src/stm32f0xx_hal_rcc.c ****   if((RCC->BDCR &RCC_BDCR_LSEBYP) == RCC_BDCR_LSEBYP)
 2265              		.loc 1 1203 10
 2266 007c 354B     		ldr	r3, .L150
 2267 007e 1B6A     		ldr	r3, [r3, #32]
 2268              		.loc 1 1203 17
 2269 0080 0422     		movs	r2, #4
 2270 0082 1340     		ands	r3, r2
 2271              		.loc 1 1203 5
 2272 0084 042B     		cmp	r3, #4
 2273 0086 03D1     		bne	.L141
1204:Drivers/STM32F0xx_HAL_Driver/Src/stm32f0xx_hal_rcc.c ****   {
1205:Drivers/STM32F0xx_HAL_Driver/Src/stm32f0xx_hal_rcc.c ****     RCC_OscInitStruct->LSEState = RCC_LSE_BYPASS;
 2274              		.loc 1 1205 33
 2275 0088 7B68     		ldr	r3, [r7, #4]
 2276 008a 0522     		movs	r2, #5
 2277 008c 9A60     		str	r2, [r3, #8]
 2278 008e 0CE0     		b	.L142
 2279              	.L141:
1206:Drivers/STM32F0xx_HAL_Driver/Src/stm32f0xx_hal_rcc.c ****   }
1207:Drivers/STM32F0xx_HAL_Driver/Src/stm32f0xx_hal_rcc.c ****   else if((RCC->BDCR &RCC_BDCR_LSEON) == RCC_BDCR_LSEON)
 2280              		.loc 1 1207 15
 2281 0090 304B     		ldr	r3, .L150
 2282 0092 1B6A     		ldr	r3, [r3, #32]
 2283              		.loc 1 1207 22
 2284 0094 0122     		movs	r2, #1
 2285 0096 1340     		ands	r3, r2
 2286              		.loc 1 1207 10
 2287 0098 012B     		cmp	r3, #1
 2288 009a 03D1     		bne	.L143
1208:Drivers/STM32F0xx_HAL_Driver/Src/stm32f0xx_hal_rcc.c ****   {
1209:Drivers/STM32F0xx_HAL_Driver/Src/stm32f0xx_hal_rcc.c ****     RCC_OscInitStruct->LSEState = RCC_LSE_ON;
 2289              		.loc 1 1209 33
 2290 009c 7B68     		ldr	r3, [r7, #4]
 2291 009e 0122     		movs	r2, #1
 2292 00a0 9A60     		str	r2, [r3, #8]
 2293 00a2 02E0     		b	.L142
 2294              	.L143:
ARM GAS  C:\Users\ADMINI~1\AppData\Local\Temp\ccoLOygm.s 			page 63


1210:Drivers/STM32F0xx_HAL_Driver/Src/stm32f0xx_hal_rcc.c ****   }
1211:Drivers/STM32F0xx_HAL_Driver/Src/stm32f0xx_hal_rcc.c ****   else
1212:Drivers/STM32F0xx_HAL_Driver/Src/stm32f0xx_hal_rcc.c ****   {
1213:Drivers/STM32F0xx_HAL_Driver/Src/stm32f0xx_hal_rcc.c ****     RCC_OscInitStruct->LSEState = RCC_LSE_OFF;
 2295              		.loc 1 1213 33
 2296 00a4 7B68     		ldr	r3, [r7, #4]
 2297 00a6 0022     		movs	r2, #0
 2298 00a8 9A60     		str	r2, [r3, #8]
 2299              	.L142:
1214:Drivers/STM32F0xx_HAL_Driver/Src/stm32f0xx_hal_rcc.c ****   }
1215:Drivers/STM32F0xx_HAL_Driver/Src/stm32f0xx_hal_rcc.c ****   
1216:Drivers/STM32F0xx_HAL_Driver/Src/stm32f0xx_hal_rcc.c ****   /* Get the LSI configuration -----------------------------------------------*/
1217:Drivers/STM32F0xx_HAL_Driver/Src/stm32f0xx_hal_rcc.c ****   if((RCC->CSR &RCC_CSR_LSION) == RCC_CSR_LSION)
 2300              		.loc 1 1217 10
 2301 00aa 2A4B     		ldr	r3, .L150
 2302 00ac 5B6A     		ldr	r3, [r3, #36]
 2303              		.loc 1 1217 16
 2304 00ae 0122     		movs	r2, #1
 2305 00b0 1340     		ands	r3, r2
 2306              		.loc 1 1217 5
 2307 00b2 012B     		cmp	r3, #1
 2308 00b4 03D1     		bne	.L144
1218:Drivers/STM32F0xx_HAL_Driver/Src/stm32f0xx_hal_rcc.c ****   {
1219:Drivers/STM32F0xx_HAL_Driver/Src/stm32f0xx_hal_rcc.c ****     RCC_OscInitStruct->LSIState = RCC_LSI_ON;
 2309              		.loc 1 1219 33
 2310 00b6 7B68     		ldr	r3, [r7, #4]
 2311 00b8 0122     		movs	r2, #1
 2312 00ba DA61     		str	r2, [r3, #28]
 2313 00bc 02E0     		b	.L145
 2314              	.L144:
1220:Drivers/STM32F0xx_HAL_Driver/Src/stm32f0xx_hal_rcc.c ****   }
1221:Drivers/STM32F0xx_HAL_Driver/Src/stm32f0xx_hal_rcc.c ****   else
1222:Drivers/STM32F0xx_HAL_Driver/Src/stm32f0xx_hal_rcc.c ****   {
1223:Drivers/STM32F0xx_HAL_Driver/Src/stm32f0xx_hal_rcc.c ****     RCC_OscInitStruct->LSIState = RCC_LSI_OFF;
 2315              		.loc 1 1223 33
 2316 00be 7B68     		ldr	r3, [r7, #4]
 2317 00c0 0022     		movs	r2, #0
 2318 00c2 DA61     		str	r2, [r3, #28]
 2319              	.L145:
1224:Drivers/STM32F0xx_HAL_Driver/Src/stm32f0xx_hal_rcc.c ****   }
1225:Drivers/STM32F0xx_HAL_Driver/Src/stm32f0xx_hal_rcc.c ****   
1226:Drivers/STM32F0xx_HAL_Driver/Src/stm32f0xx_hal_rcc.c ****   /* Get the HSI14 configuration -----------------------------------------------*/
1227:Drivers/STM32F0xx_HAL_Driver/Src/stm32f0xx_hal_rcc.c ****   if((RCC->CR2 & RCC_CR2_HSI14ON) == RCC_CR2_HSI14ON)
 2320              		.loc 1 1227 10
 2321 00c4 234B     		ldr	r3, .L150
 2322 00c6 5B6B     		ldr	r3, [r3, #52]
 2323              		.loc 1 1227 16
 2324 00c8 0122     		movs	r2, #1
 2325 00ca 1340     		ands	r3, r2
 2326              		.loc 1 1227 5
 2327 00cc 012B     		cmp	r3, #1
 2328 00ce 03D1     		bne	.L146
1228:Drivers/STM32F0xx_HAL_Driver/Src/stm32f0xx_hal_rcc.c ****   {
1229:Drivers/STM32F0xx_HAL_Driver/Src/stm32f0xx_hal_rcc.c ****     RCC_OscInitStruct->HSI14State = RCC_HSI_ON;
 2329              		.loc 1 1229 35
 2330 00d0 7B68     		ldr	r3, [r7, #4]
 2331 00d2 0122     		movs	r2, #1
ARM GAS  C:\Users\ADMINI~1\AppData\Local\Temp\ccoLOygm.s 			page 64


 2332 00d4 5A61     		str	r2, [r3, #20]
 2333 00d6 02E0     		b	.L147
 2334              	.L146:
1230:Drivers/STM32F0xx_HAL_Driver/Src/stm32f0xx_hal_rcc.c ****   }
1231:Drivers/STM32F0xx_HAL_Driver/Src/stm32f0xx_hal_rcc.c ****   else
1232:Drivers/STM32F0xx_HAL_Driver/Src/stm32f0xx_hal_rcc.c ****   {
1233:Drivers/STM32F0xx_HAL_Driver/Src/stm32f0xx_hal_rcc.c ****     RCC_OscInitStruct->HSI14State = RCC_HSI_OFF;
 2335              		.loc 1 1233 35
 2336 00d8 7B68     		ldr	r3, [r7, #4]
 2337 00da 0022     		movs	r2, #0
 2338 00dc 5A61     		str	r2, [r3, #20]
 2339              	.L147:
1234:Drivers/STM32F0xx_HAL_Driver/Src/stm32f0xx_hal_rcc.c ****   }
1235:Drivers/STM32F0xx_HAL_Driver/Src/stm32f0xx_hal_rcc.c **** 
1236:Drivers/STM32F0xx_HAL_Driver/Src/stm32f0xx_hal_rcc.c ****   RCC_OscInitStruct->HSI14CalibrationValue = (uint32_t)((RCC->CR2 & RCC_CR2_HSI14TRIM) >> RCC_HSI14
 2340              		.loc 1 1236 61
 2341 00de 1D4B     		ldr	r3, .L150
 2342 00e0 5B6B     		ldr	r3, [r3, #52]
 2343              		.loc 1 1236 46
 2344 00e2 DB08     		lsrs	r3, r3, #3
 2345 00e4 1F22     		movs	r2, #31
 2346 00e6 1A40     		ands	r2, r3
 2347              		.loc 1 1236 44
 2348 00e8 7B68     		ldr	r3, [r7, #4]
 2349 00ea 9A61     		str	r2, [r3, #24]
1237:Drivers/STM32F0xx_HAL_Driver/Src/stm32f0xx_hal_rcc.c ****   
1238:Drivers/STM32F0xx_HAL_Driver/Src/stm32f0xx_hal_rcc.c **** #if defined(RCC_HSI48_SUPPORT)
1239:Drivers/STM32F0xx_HAL_Driver/Src/stm32f0xx_hal_rcc.c ****   /* Get the HSI48 configuration if any-----------------------------------------*/
1240:Drivers/STM32F0xx_HAL_Driver/Src/stm32f0xx_hal_rcc.c ****   RCC_OscInitStruct->HSI48State = __HAL_RCC_GET_HSI48_STATE();
 2350              		.loc 1 1240 35
 2351 00ec 194B     		ldr	r3, .L150
 2352 00ee 5A6B     		ldr	r2, [r3, #52]
 2353 00f0 8023     		movs	r3, #128
 2354 00f2 5B02     		lsls	r3, r3, #9
 2355 00f4 1340     		ands	r3, r2
 2356 00f6 5A1E     		subs	r2, r3, #1
 2357 00f8 9341     		sbcs	r3, r3, r2
 2358 00fa DBB2     		uxtb	r3, r3
 2359 00fc 1A00     		movs	r2, r3
 2360              		.loc 1 1240 33
 2361 00fe 7B68     		ldr	r3, [r7, #4]
 2362 0100 1A62     		str	r2, [r3, #32]
1241:Drivers/STM32F0xx_HAL_Driver/Src/stm32f0xx_hal_rcc.c **** #endif /* RCC_HSI48_SUPPORT */
1242:Drivers/STM32F0xx_HAL_Driver/Src/stm32f0xx_hal_rcc.c **** 
1243:Drivers/STM32F0xx_HAL_Driver/Src/stm32f0xx_hal_rcc.c ****   /* Get the PLL configuration -----------------------------------------------*/
1244:Drivers/STM32F0xx_HAL_Driver/Src/stm32f0xx_hal_rcc.c ****   if((RCC->CR &RCC_CR_PLLON) == RCC_CR_PLLON)
 2363              		.loc 1 1244 10
 2364 0102 144B     		ldr	r3, .L150
 2365 0104 1A68     		ldr	r2, [r3]
 2366              		.loc 1 1244 15
 2367 0106 8023     		movs	r3, #128
 2368 0108 5B04     		lsls	r3, r3, #17
 2369 010a 1A40     		ands	r2, r3
 2370              		.loc 1 1244 5
 2371 010c 8023     		movs	r3, #128
 2372 010e 5B04     		lsls	r3, r3, #17
 2373 0110 9A42     		cmp	r2, r3
ARM GAS  C:\Users\ADMINI~1\AppData\Local\Temp\ccoLOygm.s 			page 65


 2374 0112 03D1     		bne	.L148
1245:Drivers/STM32F0xx_HAL_Driver/Src/stm32f0xx_hal_rcc.c ****   {
1246:Drivers/STM32F0xx_HAL_Driver/Src/stm32f0xx_hal_rcc.c ****     RCC_OscInitStruct->PLL.PLLState = RCC_PLL_ON;
 2375              		.loc 1 1246 37
 2376 0114 7B68     		ldr	r3, [r7, #4]
 2377 0116 0222     		movs	r2, #2
 2378 0118 5A62     		str	r2, [r3, #36]
 2379 011a 02E0     		b	.L149
 2380              	.L148:
1247:Drivers/STM32F0xx_HAL_Driver/Src/stm32f0xx_hal_rcc.c ****   }
1248:Drivers/STM32F0xx_HAL_Driver/Src/stm32f0xx_hal_rcc.c ****   else
1249:Drivers/STM32F0xx_HAL_Driver/Src/stm32f0xx_hal_rcc.c ****   {
1250:Drivers/STM32F0xx_HAL_Driver/Src/stm32f0xx_hal_rcc.c ****     RCC_OscInitStruct->PLL.PLLState = RCC_PLL_OFF;
 2381              		.loc 1 1250 37
 2382 011c 7B68     		ldr	r3, [r7, #4]
 2383 011e 0122     		movs	r2, #1
 2384 0120 5A62     		str	r2, [r3, #36]
 2385              	.L149:
1251:Drivers/STM32F0xx_HAL_Driver/Src/stm32f0xx_hal_rcc.c ****   }
1252:Drivers/STM32F0xx_HAL_Driver/Src/stm32f0xx_hal_rcc.c ****   RCC_OscInitStruct->PLL.PLLSource = (uint32_t)(RCC->CFGR & RCC_CFGR_PLLSRC);
 2386              		.loc 1 1252 52
 2387 0122 0C4B     		ldr	r3, .L150
 2388 0124 5A68     		ldr	r2, [r3, #4]
 2389              		.loc 1 1252 38
 2390 0126 C023     		movs	r3, #192
 2391 0128 5B02     		lsls	r3, r3, #9
 2392 012a 1A40     		ands	r2, r3
 2393              		.loc 1 1252 36
 2394 012c 7B68     		ldr	r3, [r7, #4]
 2395 012e 9A62     		str	r2, [r3, #40]
1253:Drivers/STM32F0xx_HAL_Driver/Src/stm32f0xx_hal_rcc.c ****   RCC_OscInitStruct->PLL.PLLMUL = (uint32_t)(RCC->CFGR & RCC_CFGR_PLLMUL);
 2396              		.loc 1 1253 49
 2397 0130 084B     		ldr	r3, .L150
 2398 0132 5A68     		ldr	r2, [r3, #4]
 2399              		.loc 1 1253 35
 2400 0134 F023     		movs	r3, #240
 2401 0136 9B03     		lsls	r3, r3, #14
 2402 0138 1A40     		ands	r2, r3
 2403              		.loc 1 1253 33
 2404 013a 7B68     		ldr	r3, [r7, #4]
 2405 013c DA62     		str	r2, [r3, #44]
1254:Drivers/STM32F0xx_HAL_Driver/Src/stm32f0xx_hal_rcc.c ****   RCC_OscInitStruct->PLL.PREDIV = (uint32_t)(RCC->CFGR2 & RCC_CFGR2_PREDIV);
 2406              		.loc 1 1254 49
 2407 013e 054B     		ldr	r3, .L150
 2408 0140 DB6A     		ldr	r3, [r3, #44]
 2409              		.loc 1 1254 35
 2410 0142 0F22     		movs	r2, #15
 2411 0144 1A40     		ands	r2, r3
 2412              		.loc 1 1254 33
 2413 0146 7B68     		ldr	r3, [r7, #4]
 2414 0148 1A63     		str	r2, [r3, #48]
1255:Drivers/STM32F0xx_HAL_Driver/Src/stm32f0xx_hal_rcc.c **** }
 2415              		.loc 1 1255 1
 2416 014a C046     		nop
 2417 014c BD46     		mov	sp, r7
 2418 014e 02B0     		add	sp, sp, #8
 2419              		@ sp needed
ARM GAS  C:\Users\ADMINI~1\AppData\Local\Temp\ccoLOygm.s 			page 66


 2420 0150 80BD     		pop	{r7, pc}
 2421              	.L151:
 2422 0152 C046     		.align	2
 2423              	.L150:
 2424 0154 00100240 		.word	1073876992
 2425              		.cfi_endproc
 2426              	.LFE46:
 2428              		.section	.text.HAL_RCC_GetClockConfig,"ax",%progbits
 2429              		.align	1
 2430              		.global	HAL_RCC_GetClockConfig
 2431              		.syntax unified
 2432              		.code	16
 2433              		.thumb_func
 2434              		.fpu softvfp
 2436              	HAL_RCC_GetClockConfig:
 2437              	.LFB47:
1256:Drivers/STM32F0xx_HAL_Driver/Src/stm32f0xx_hal_rcc.c **** 
1257:Drivers/STM32F0xx_HAL_Driver/Src/stm32f0xx_hal_rcc.c **** /**
1258:Drivers/STM32F0xx_HAL_Driver/Src/stm32f0xx_hal_rcc.c ****   * @brief  Get the RCC_ClkInitStruct according to the internal 
1259:Drivers/STM32F0xx_HAL_Driver/Src/stm32f0xx_hal_rcc.c ****   * RCC configuration registers.
1260:Drivers/STM32F0xx_HAL_Driver/Src/stm32f0xx_hal_rcc.c ****   * @param  RCC_ClkInitStruct pointer to an RCC_ClkInitTypeDef structure that 
1261:Drivers/STM32F0xx_HAL_Driver/Src/stm32f0xx_hal_rcc.c ****   * contains the current clock configuration.
1262:Drivers/STM32F0xx_HAL_Driver/Src/stm32f0xx_hal_rcc.c ****   * @param  pFLatency Pointer on the Flash Latency.
1263:Drivers/STM32F0xx_HAL_Driver/Src/stm32f0xx_hal_rcc.c ****   * @retval None
1264:Drivers/STM32F0xx_HAL_Driver/Src/stm32f0xx_hal_rcc.c ****   */
1265:Drivers/STM32F0xx_HAL_Driver/Src/stm32f0xx_hal_rcc.c **** void HAL_RCC_GetClockConfig(RCC_ClkInitTypeDef  *RCC_ClkInitStruct, uint32_t *pFLatency)
1266:Drivers/STM32F0xx_HAL_Driver/Src/stm32f0xx_hal_rcc.c **** {
 2438              		.loc 1 1266 1
 2439              		.cfi_startproc
 2440              		@ args = 0, pretend = 0, frame = 8
 2441              		@ frame_needed = 1, uses_anonymous_args = 0
 2442 0000 80B5     		push	{r7, lr}
 2443              	.LCFI25:
 2444              		.cfi_def_cfa_offset 8
 2445              		.cfi_offset 7, -8
 2446              		.cfi_offset 14, -4
 2447 0002 82B0     		sub	sp, sp, #8
 2448              	.LCFI26:
 2449              		.cfi_def_cfa_offset 16
 2450 0004 00AF     		add	r7, sp, #0
 2451              	.LCFI27:
 2452              		.cfi_def_cfa_register 7
 2453 0006 7860     		str	r0, [r7, #4]
 2454 0008 3960     		str	r1, [r7]
1267:Drivers/STM32F0xx_HAL_Driver/Src/stm32f0xx_hal_rcc.c ****   /* Check the parameters */
1268:Drivers/STM32F0xx_HAL_Driver/Src/stm32f0xx_hal_rcc.c ****   assert_param(RCC_ClkInitStruct != NULL);
1269:Drivers/STM32F0xx_HAL_Driver/Src/stm32f0xx_hal_rcc.c ****   assert_param(pFLatency != NULL);
1270:Drivers/STM32F0xx_HAL_Driver/Src/stm32f0xx_hal_rcc.c **** 
1271:Drivers/STM32F0xx_HAL_Driver/Src/stm32f0xx_hal_rcc.c ****   /* Set all possible values for the Clock type parameter --------------------*/
1272:Drivers/STM32F0xx_HAL_Driver/Src/stm32f0xx_hal_rcc.c ****   RCC_ClkInitStruct->ClockType = RCC_CLOCKTYPE_SYSCLK | RCC_CLOCKTYPE_HCLK | RCC_CLOCKTYPE_PCLK1;
 2455              		.loc 1 1272 32
 2456 000a 7B68     		ldr	r3, [r7, #4]
 2457 000c 0722     		movs	r2, #7
 2458 000e 1A60     		str	r2, [r3]
1273:Drivers/STM32F0xx_HAL_Driver/Src/stm32f0xx_hal_rcc.c ****   
1274:Drivers/STM32F0xx_HAL_Driver/Src/stm32f0xx_hal_rcc.c ****   /* Get the SYSCLK configuration --------------------------------------------*/ 
1275:Drivers/STM32F0xx_HAL_Driver/Src/stm32f0xx_hal_rcc.c ****   RCC_ClkInitStruct->SYSCLKSource = (uint32_t)(RCC->CFGR & RCC_CFGR_SW);
ARM GAS  C:\Users\ADMINI~1\AppData\Local\Temp\ccoLOygm.s 			page 67


 2459              		.loc 1 1275 51
 2460 0010 0E4B     		ldr	r3, .L153
 2461 0012 5B68     		ldr	r3, [r3, #4]
 2462              		.loc 1 1275 37
 2463 0014 0322     		movs	r2, #3
 2464 0016 1A40     		ands	r2, r3
 2465              		.loc 1 1275 35
 2466 0018 7B68     		ldr	r3, [r7, #4]
 2467 001a 5A60     		str	r2, [r3, #4]
1276:Drivers/STM32F0xx_HAL_Driver/Src/stm32f0xx_hal_rcc.c ****   
1277:Drivers/STM32F0xx_HAL_Driver/Src/stm32f0xx_hal_rcc.c ****   /* Get the HCLK configuration ----------------------------------------------*/ 
1278:Drivers/STM32F0xx_HAL_Driver/Src/stm32f0xx_hal_rcc.c ****   RCC_ClkInitStruct->AHBCLKDivider = (uint32_t)(RCC->CFGR & RCC_CFGR_HPRE); 
 2468              		.loc 1 1278 52
 2469 001c 0B4B     		ldr	r3, .L153
 2470 001e 5B68     		ldr	r3, [r3, #4]
 2471              		.loc 1 1278 38
 2472 0020 F022     		movs	r2, #240
 2473 0022 1A40     		ands	r2, r3
 2474              		.loc 1 1278 36
 2475 0024 7B68     		ldr	r3, [r7, #4]
 2476 0026 9A60     		str	r2, [r3, #8]
1279:Drivers/STM32F0xx_HAL_Driver/Src/stm32f0xx_hal_rcc.c ****   
1280:Drivers/STM32F0xx_HAL_Driver/Src/stm32f0xx_hal_rcc.c ****   /* Get the APB1 configuration ----------------------------------------------*/ 
1281:Drivers/STM32F0xx_HAL_Driver/Src/stm32f0xx_hal_rcc.c ****   RCC_ClkInitStruct->APB1CLKDivider = (uint32_t)(RCC->CFGR & RCC_CFGR_PPRE);   
 2477              		.loc 1 1281 53
 2478 0028 084B     		ldr	r3, .L153
 2479 002a 5A68     		ldr	r2, [r3, #4]
 2480              		.loc 1 1281 39
 2481 002c E023     		movs	r3, #224
 2482 002e DB00     		lsls	r3, r3, #3
 2483 0030 1A40     		ands	r2, r3
 2484              		.loc 1 1281 37
 2485 0032 7B68     		ldr	r3, [r7, #4]
 2486 0034 DA60     		str	r2, [r3, #12]
1282:Drivers/STM32F0xx_HAL_Driver/Src/stm32f0xx_hal_rcc.c ****   /* Get the Flash Wait State (Latency) configuration ------------------------*/   
1283:Drivers/STM32F0xx_HAL_Driver/Src/stm32f0xx_hal_rcc.c ****   *pFLatency = (uint32_t)(FLASH->ACR & FLASH_ACR_LATENCY); 
 2487              		.loc 1 1283 32
 2488 0036 064B     		ldr	r3, .L153+4
 2489 0038 1B68     		ldr	r3, [r3]
 2490              		.loc 1 1283 16
 2491 003a 0122     		movs	r2, #1
 2492 003c 1A40     		ands	r2, r3
 2493              		.loc 1 1283 14
 2494 003e 3B68     		ldr	r3, [r7]
 2495 0040 1A60     		str	r2, [r3]
1284:Drivers/STM32F0xx_HAL_Driver/Src/stm32f0xx_hal_rcc.c **** }
 2496              		.loc 1 1284 1
 2497 0042 C046     		nop
 2498 0044 BD46     		mov	sp, r7
 2499 0046 02B0     		add	sp, sp, #8
 2500              		@ sp needed
 2501 0048 80BD     		pop	{r7, pc}
 2502              	.L154:
 2503 004a C046     		.align	2
 2504              	.L153:
 2505 004c 00100240 		.word	1073876992
 2506 0050 00200240 		.word	1073881088
ARM GAS  C:\Users\ADMINI~1\AppData\Local\Temp\ccoLOygm.s 			page 68


 2507              		.cfi_endproc
 2508              	.LFE47:
 2510              		.section	.text.HAL_RCC_NMI_IRQHandler,"ax",%progbits
 2511              		.align	1
 2512              		.global	HAL_RCC_NMI_IRQHandler
 2513              		.syntax unified
 2514              		.code	16
 2515              		.thumb_func
 2516              		.fpu softvfp
 2518              	HAL_RCC_NMI_IRQHandler:
 2519              	.LFB48:
1285:Drivers/STM32F0xx_HAL_Driver/Src/stm32f0xx_hal_rcc.c **** 
1286:Drivers/STM32F0xx_HAL_Driver/Src/stm32f0xx_hal_rcc.c **** /**
1287:Drivers/STM32F0xx_HAL_Driver/Src/stm32f0xx_hal_rcc.c ****   * @brief This function handles the RCC CSS interrupt request.
1288:Drivers/STM32F0xx_HAL_Driver/Src/stm32f0xx_hal_rcc.c ****   * @note This API should be called under the NMI_Handler().
1289:Drivers/STM32F0xx_HAL_Driver/Src/stm32f0xx_hal_rcc.c ****   * @retval None
1290:Drivers/STM32F0xx_HAL_Driver/Src/stm32f0xx_hal_rcc.c ****   */
1291:Drivers/STM32F0xx_HAL_Driver/Src/stm32f0xx_hal_rcc.c **** void HAL_RCC_NMI_IRQHandler(void)
1292:Drivers/STM32F0xx_HAL_Driver/Src/stm32f0xx_hal_rcc.c **** {
 2520              		.loc 1 1292 1
 2521              		.cfi_startproc
 2522              		@ args = 0, pretend = 0, frame = 0
 2523              		@ frame_needed = 1, uses_anonymous_args = 0
 2524 0000 80B5     		push	{r7, lr}
 2525              	.LCFI28:
 2526              		.cfi_def_cfa_offset 8
 2527              		.cfi_offset 7, -8
 2528              		.cfi_offset 14, -4
 2529 0002 00AF     		add	r7, sp, #0
 2530              	.LCFI29:
 2531              		.cfi_def_cfa_register 7
1293:Drivers/STM32F0xx_HAL_Driver/Src/stm32f0xx_hal_rcc.c ****   /* Check RCC CSSF flag  */
1294:Drivers/STM32F0xx_HAL_Driver/Src/stm32f0xx_hal_rcc.c ****   if(__HAL_RCC_GET_IT(RCC_IT_CSS))
 2532              		.loc 1 1294 6
 2533 0004 064B     		ldr	r3, .L158
 2534 0006 9B68     		ldr	r3, [r3, #8]
 2535 0008 8022     		movs	r2, #128
 2536 000a 1340     		ands	r3, r2
 2537              		.loc 1 1294 5
 2538 000c 802B     		cmp	r3, #128
 2539 000e 04D1     		bne	.L157
1295:Drivers/STM32F0xx_HAL_Driver/Src/stm32f0xx_hal_rcc.c ****   {
1296:Drivers/STM32F0xx_HAL_Driver/Src/stm32f0xx_hal_rcc.c ****     /* RCC Clock Security System interrupt user callback */
1297:Drivers/STM32F0xx_HAL_Driver/Src/stm32f0xx_hal_rcc.c ****     HAL_RCC_CSSCallback();
 2540              		.loc 1 1297 5
 2541 0010 FFF7FEFF 		bl	HAL_RCC_CSSCallback
1298:Drivers/STM32F0xx_HAL_Driver/Src/stm32f0xx_hal_rcc.c ****     
1299:Drivers/STM32F0xx_HAL_Driver/Src/stm32f0xx_hal_rcc.c ****     /* Clear RCC CSS pending bit */
1300:Drivers/STM32F0xx_HAL_Driver/Src/stm32f0xx_hal_rcc.c ****     __HAL_RCC_CLEAR_IT(RCC_IT_CSS);
 2542              		.loc 1 1300 5
 2543 0014 034B     		ldr	r3, .L158+4
 2544 0016 8022     		movs	r2, #128
 2545 0018 1A70     		strb	r2, [r3]
 2546              	.L157:
1301:Drivers/STM32F0xx_HAL_Driver/Src/stm32f0xx_hal_rcc.c ****   }
1302:Drivers/STM32F0xx_HAL_Driver/Src/stm32f0xx_hal_rcc.c **** }
 2547              		.loc 1 1302 1
ARM GAS  C:\Users\ADMINI~1\AppData\Local\Temp\ccoLOygm.s 			page 69


 2548 001a C046     		nop
 2549 001c BD46     		mov	sp, r7
 2550              		@ sp needed
 2551 001e 80BD     		pop	{r7, pc}
 2552              	.L159:
 2553              		.align	2
 2554              	.L158:
 2555 0020 00100240 		.word	1073876992
 2556 0024 0A100240 		.word	1073877002
 2557              		.cfi_endproc
 2558              	.LFE48:
 2560              		.section	.text.HAL_RCC_CSSCallback,"ax",%progbits
 2561              		.align	1
 2562              		.weak	HAL_RCC_CSSCallback
 2563              		.syntax unified
 2564              		.code	16
 2565              		.thumb_func
 2566              		.fpu softvfp
 2568              	HAL_RCC_CSSCallback:
 2569              	.LFB49:
1303:Drivers/STM32F0xx_HAL_Driver/Src/stm32f0xx_hal_rcc.c **** 
1304:Drivers/STM32F0xx_HAL_Driver/Src/stm32f0xx_hal_rcc.c **** /**
1305:Drivers/STM32F0xx_HAL_Driver/Src/stm32f0xx_hal_rcc.c ****   * @brief  RCC Clock Security System interrupt callback
1306:Drivers/STM32F0xx_HAL_Driver/Src/stm32f0xx_hal_rcc.c ****   * @retval none
1307:Drivers/STM32F0xx_HAL_Driver/Src/stm32f0xx_hal_rcc.c ****   */
1308:Drivers/STM32F0xx_HAL_Driver/Src/stm32f0xx_hal_rcc.c **** __weak void HAL_RCC_CSSCallback(void)
1309:Drivers/STM32F0xx_HAL_Driver/Src/stm32f0xx_hal_rcc.c **** {
 2570              		.loc 1 1309 1
 2571              		.cfi_startproc
 2572              		@ args = 0, pretend = 0, frame = 0
 2573              		@ frame_needed = 1, uses_anonymous_args = 0
 2574 0000 80B5     		push	{r7, lr}
 2575              	.LCFI30:
 2576              		.cfi_def_cfa_offset 8
 2577              		.cfi_offset 7, -8
 2578              		.cfi_offset 14, -4
 2579 0002 00AF     		add	r7, sp, #0
 2580              	.LCFI31:
 2581              		.cfi_def_cfa_register 7
1310:Drivers/STM32F0xx_HAL_Driver/Src/stm32f0xx_hal_rcc.c ****   /* NOTE : This function Should not be modified, when the callback is needed,
1311:Drivers/STM32F0xx_HAL_Driver/Src/stm32f0xx_hal_rcc.c ****     the HAL_RCC_CSSCallback could be implemented in the user file
1312:Drivers/STM32F0xx_HAL_Driver/Src/stm32f0xx_hal_rcc.c ****     */ 
1313:Drivers/STM32F0xx_HAL_Driver/Src/stm32f0xx_hal_rcc.c **** }
 2582              		.loc 1 1313 1
 2583 0004 C046     		nop
 2584 0006 BD46     		mov	sp, r7
 2585              		@ sp needed
 2586 0008 80BD     		pop	{r7, pc}
 2587              		.cfi_endproc
 2588              	.LFE49:
 2590              		.text
 2591              	.Letext0:
 2592              		.file 2 "c:\\program files (x86)\\gnu tools arm embedded\\9 2019-q4-major\\arm-none-eabi\\include\
 2593              		.file 3 "c:\\program files (x86)\\gnu tools arm embedded\\9 2019-q4-major\\arm-none-eabi\\include\
 2594              		.file 4 "Drivers/CMSIS/Device/ST/STM32F0xx/Include/system_stm32f0xx.h"
 2595              		.file 5 "Drivers/CMSIS/Device/ST/STM32F0xx/Include/stm32f091xc.h"
 2596              		.file 6 "Drivers/CMSIS/Device/ST/STM32F0xx/Include/stm32f0xx.h"
ARM GAS  C:\Users\ADMINI~1\AppData\Local\Temp\ccoLOygm.s 			page 70


 2597              		.file 7 "c:\\program files (x86)\\gnu tools arm embedded\\9 2019-q4-major\\arm-none-eabi\\include\
 2598              		.file 8 "c:\\program files (x86)\\gnu tools arm embedded\\9 2019-q4-major\\arm-none-eabi\\include\
 2599              		.file 9 "c:\\program files (x86)\\gnu tools arm embedded\\9 2019-q4-major\\lib\\gcc\\arm-none-eabi
 2600              		.file 10 "c:\\program files (x86)\\gnu tools arm embedded\\9 2019-q4-major\\arm-none-eabi\\include
 2601              		.file 11 "Drivers/STM32F0xx_HAL_Driver/Inc/stm32f0xx_hal_def.h"
 2602              		.file 12 "Drivers/STM32F0xx_HAL_Driver/Inc/stm32f0xx_hal_rcc.h"
 2603              		.file 13 "Drivers/STM32F0xx_HAL_Driver/Inc/stm32f0xx_hal_gpio.h"
ARM GAS  C:\Users\ADMINI~1\AppData\Local\Temp\ccoLOygm.s 			page 71

