ARM GAS  C:\Users\ADMINI~1\AppData\Local\Temp\cc3zYV2m.s 			page 1


   1              		.cpu cortex-m0
   2              		.eabi_attribute 20, 1
   3              		.eabi_attribute 21, 1
   4              		.eabi_attribute 23, 3
   5              		.eabi_attribute 24, 1
   6              		.eabi_attribute 25, 1
   7              		.eabi_attribute 26, 1
   8              		.eabi_attribute 30, 6
   9              		.eabi_attribute 34, 0
  10              		.eabi_attribute 18, 4
  11              		.file	"stm32f0xx_hal_i2c.c"
  12              		.text
  13              	.Ltext0:
  14              		.cfi_sections	.debug_frame
  15              		.section	.text.HAL_I2C_Init,"ax",%progbits
  16              		.align	1
  17              		.global	HAL_I2C_Init
  18              		.arch armv6s-m
  19              		.syntax unified
  20              		.code	16
  21              		.thumb_func
  22              		.fpu softvfp
  24              	HAL_I2C_Init:
  25              	.LFB37:
  26              		.file 1 "Drivers/STM32F0xx_HAL_Driver/Src/stm32f0xx_hal_i2c.c"
   1:Drivers/STM32F0xx_HAL_Driver/Src/stm32f0xx_hal_i2c.c **** /**
   2:Drivers/STM32F0xx_HAL_Driver/Src/stm32f0xx_hal_i2c.c ****   ******************************************************************************
   3:Drivers/STM32F0xx_HAL_Driver/Src/stm32f0xx_hal_i2c.c ****   * @file    stm32f0xx_hal_i2c.c
   4:Drivers/STM32F0xx_HAL_Driver/Src/stm32f0xx_hal_i2c.c ****   * @author  MCD Application Team
   5:Drivers/STM32F0xx_HAL_Driver/Src/stm32f0xx_hal_i2c.c ****   * @brief   I2C HAL module driver.
   6:Drivers/STM32F0xx_HAL_Driver/Src/stm32f0xx_hal_i2c.c ****   *          This file provides firmware functions to manage the following
   7:Drivers/STM32F0xx_HAL_Driver/Src/stm32f0xx_hal_i2c.c ****   *          functionalities of the Inter Integrated Circuit (I2C) peripheral:
   8:Drivers/STM32F0xx_HAL_Driver/Src/stm32f0xx_hal_i2c.c ****   *           + Initialization and de-initialization functions
   9:Drivers/STM32F0xx_HAL_Driver/Src/stm32f0xx_hal_i2c.c ****   *           + IO operation functions
  10:Drivers/STM32F0xx_HAL_Driver/Src/stm32f0xx_hal_i2c.c ****   *           + Peripheral State and Errors functions
  11:Drivers/STM32F0xx_HAL_Driver/Src/stm32f0xx_hal_i2c.c ****   *
  12:Drivers/STM32F0xx_HAL_Driver/Src/stm32f0xx_hal_i2c.c ****   @verbatim
  13:Drivers/STM32F0xx_HAL_Driver/Src/stm32f0xx_hal_i2c.c ****   ==============================================================================
  14:Drivers/STM32F0xx_HAL_Driver/Src/stm32f0xx_hal_i2c.c ****                         ##### How to use this driver #####
  15:Drivers/STM32F0xx_HAL_Driver/Src/stm32f0xx_hal_i2c.c ****   ==============================================================================
  16:Drivers/STM32F0xx_HAL_Driver/Src/stm32f0xx_hal_i2c.c ****     [..]
  17:Drivers/STM32F0xx_HAL_Driver/Src/stm32f0xx_hal_i2c.c ****     The I2C HAL driver can be used as follows:
  18:Drivers/STM32F0xx_HAL_Driver/Src/stm32f0xx_hal_i2c.c **** 
  19:Drivers/STM32F0xx_HAL_Driver/Src/stm32f0xx_hal_i2c.c ****     (#) Declare a I2C_HandleTypeDef handle structure, for example:
  20:Drivers/STM32F0xx_HAL_Driver/Src/stm32f0xx_hal_i2c.c ****         I2C_HandleTypeDef  hi2c;
  21:Drivers/STM32F0xx_HAL_Driver/Src/stm32f0xx_hal_i2c.c **** 
  22:Drivers/STM32F0xx_HAL_Driver/Src/stm32f0xx_hal_i2c.c ****     (#)Initialize the I2C low level resources by implementing the HAL_I2C_MspInit() API:
  23:Drivers/STM32F0xx_HAL_Driver/Src/stm32f0xx_hal_i2c.c ****         (##) Enable the I2Cx interface clock
  24:Drivers/STM32F0xx_HAL_Driver/Src/stm32f0xx_hal_i2c.c ****         (##) I2C pins configuration
  25:Drivers/STM32F0xx_HAL_Driver/Src/stm32f0xx_hal_i2c.c ****             (+++) Enable the clock for the I2C GPIOs
  26:Drivers/STM32F0xx_HAL_Driver/Src/stm32f0xx_hal_i2c.c ****             (+++) Configure I2C pins as alternate function open-drain
  27:Drivers/STM32F0xx_HAL_Driver/Src/stm32f0xx_hal_i2c.c ****         (##) NVIC configuration if you need to use interrupt process
  28:Drivers/STM32F0xx_HAL_Driver/Src/stm32f0xx_hal_i2c.c ****             (+++) Configure the I2Cx interrupt priority
  29:Drivers/STM32F0xx_HAL_Driver/Src/stm32f0xx_hal_i2c.c ****             (+++) Enable the NVIC I2C IRQ Channel
  30:Drivers/STM32F0xx_HAL_Driver/Src/stm32f0xx_hal_i2c.c ****         (##) DMA Configuration if you need to use DMA process
  31:Drivers/STM32F0xx_HAL_Driver/Src/stm32f0xx_hal_i2c.c ****             (+++) Declare a DMA_HandleTypeDef handle structure for the transmit or receive channel
  32:Drivers/STM32F0xx_HAL_Driver/Src/stm32f0xx_hal_i2c.c ****             (+++) Enable the DMAx interface clock using
ARM GAS  C:\Users\ADMINI~1\AppData\Local\Temp\cc3zYV2m.s 			page 2


  33:Drivers/STM32F0xx_HAL_Driver/Src/stm32f0xx_hal_i2c.c ****             (+++) Configure the DMA handle parameters
  34:Drivers/STM32F0xx_HAL_Driver/Src/stm32f0xx_hal_i2c.c ****             (+++) Configure the DMA Tx or Rx channel
  35:Drivers/STM32F0xx_HAL_Driver/Src/stm32f0xx_hal_i2c.c ****             (+++) Associate the initialized DMA handle to the hi2c DMA Tx or Rx handle
  36:Drivers/STM32F0xx_HAL_Driver/Src/stm32f0xx_hal_i2c.c ****             (+++) Configure the priority and enable the NVIC for the transfer complete interrupt on
  37:Drivers/STM32F0xx_HAL_Driver/Src/stm32f0xx_hal_i2c.c ****                   the DMA Tx or Rx channel
  38:Drivers/STM32F0xx_HAL_Driver/Src/stm32f0xx_hal_i2c.c **** 
  39:Drivers/STM32F0xx_HAL_Driver/Src/stm32f0xx_hal_i2c.c ****     (#) Configure the Communication Clock Timing, Own Address1, Master Addressing mode, Dual Addres
  40:Drivers/STM32F0xx_HAL_Driver/Src/stm32f0xx_hal_i2c.c ****         Own Address2, Own Address2 Mask, General call and Nostretch mode in the hi2c Init structure
  41:Drivers/STM32F0xx_HAL_Driver/Src/stm32f0xx_hal_i2c.c **** 
  42:Drivers/STM32F0xx_HAL_Driver/Src/stm32f0xx_hal_i2c.c ****     (#) Initialize the I2C registers by calling the HAL_I2C_Init(), configures also the low level H
  43:Drivers/STM32F0xx_HAL_Driver/Src/stm32f0xx_hal_i2c.c ****         (GPIO, CLOCK, NVIC...etc) by calling the customized HAL_I2C_MspInit(&hi2c) API.
  44:Drivers/STM32F0xx_HAL_Driver/Src/stm32f0xx_hal_i2c.c **** 
  45:Drivers/STM32F0xx_HAL_Driver/Src/stm32f0xx_hal_i2c.c ****     (#) To check if target device is ready for communication, use the function HAL_I2C_IsDeviceRead
  46:Drivers/STM32F0xx_HAL_Driver/Src/stm32f0xx_hal_i2c.c **** 
  47:Drivers/STM32F0xx_HAL_Driver/Src/stm32f0xx_hal_i2c.c ****     (#) For I2C IO and IO MEM operations, three operation modes are available within this driver :
  48:Drivers/STM32F0xx_HAL_Driver/Src/stm32f0xx_hal_i2c.c **** 
  49:Drivers/STM32F0xx_HAL_Driver/Src/stm32f0xx_hal_i2c.c ****     *** Polling mode IO operation ***
  50:Drivers/STM32F0xx_HAL_Driver/Src/stm32f0xx_hal_i2c.c ****     =================================
  51:Drivers/STM32F0xx_HAL_Driver/Src/stm32f0xx_hal_i2c.c ****     [..]
  52:Drivers/STM32F0xx_HAL_Driver/Src/stm32f0xx_hal_i2c.c ****       (+) Transmit in master mode an amount of data in blocking mode using HAL_I2C_Master_Transmit(
  53:Drivers/STM32F0xx_HAL_Driver/Src/stm32f0xx_hal_i2c.c ****       (+) Receive in master mode an amount of data in blocking mode using HAL_I2C_Master_Receive()
  54:Drivers/STM32F0xx_HAL_Driver/Src/stm32f0xx_hal_i2c.c ****       (+) Transmit in slave mode an amount of data in blocking mode using HAL_I2C_Slave_Transmit()
  55:Drivers/STM32F0xx_HAL_Driver/Src/stm32f0xx_hal_i2c.c ****       (+) Receive in slave mode an amount of data in blocking mode using HAL_I2C_Slave_Receive()
  56:Drivers/STM32F0xx_HAL_Driver/Src/stm32f0xx_hal_i2c.c **** 
  57:Drivers/STM32F0xx_HAL_Driver/Src/stm32f0xx_hal_i2c.c ****     *** Polling mode IO MEM operation ***
  58:Drivers/STM32F0xx_HAL_Driver/Src/stm32f0xx_hal_i2c.c ****     =====================================
  59:Drivers/STM32F0xx_HAL_Driver/Src/stm32f0xx_hal_i2c.c ****     [..]
  60:Drivers/STM32F0xx_HAL_Driver/Src/stm32f0xx_hal_i2c.c ****       (+) Write an amount of data in blocking mode to a specific memory address using HAL_I2C_Mem_W
  61:Drivers/STM32F0xx_HAL_Driver/Src/stm32f0xx_hal_i2c.c ****       (+) Read an amount of data in blocking mode from a specific memory address using HAL_I2C_Mem_
  62:Drivers/STM32F0xx_HAL_Driver/Src/stm32f0xx_hal_i2c.c **** 
  63:Drivers/STM32F0xx_HAL_Driver/Src/stm32f0xx_hal_i2c.c **** 
  64:Drivers/STM32F0xx_HAL_Driver/Src/stm32f0xx_hal_i2c.c ****     *** Interrupt mode IO operation ***
  65:Drivers/STM32F0xx_HAL_Driver/Src/stm32f0xx_hal_i2c.c ****     ===================================
  66:Drivers/STM32F0xx_HAL_Driver/Src/stm32f0xx_hal_i2c.c ****     [..]
  67:Drivers/STM32F0xx_HAL_Driver/Src/stm32f0xx_hal_i2c.c ****       (+) Transmit in master mode an amount of data in non-blocking mode using HAL_I2C_Master_Trans
  68:Drivers/STM32F0xx_HAL_Driver/Src/stm32f0xx_hal_i2c.c ****       (+) At transmission end of transfer, HAL_I2C_MasterTxCpltCallback() is executed and user can
  69:Drivers/STM32F0xx_HAL_Driver/Src/stm32f0xx_hal_i2c.c ****            add his own code by customization of function pointer HAL_I2C_MasterTxCpltCallback()
  70:Drivers/STM32F0xx_HAL_Driver/Src/stm32f0xx_hal_i2c.c ****       (+) Receive in master mode an amount of data in non-blocking mode using HAL_I2C_Master_Receiv
  71:Drivers/STM32F0xx_HAL_Driver/Src/stm32f0xx_hal_i2c.c ****       (+) At reception end of transfer, HAL_I2C_MasterRxCpltCallback() is executed and user can
  72:Drivers/STM32F0xx_HAL_Driver/Src/stm32f0xx_hal_i2c.c ****            add his own code by customization of function pointer HAL_I2C_MasterRxCpltCallback()
  73:Drivers/STM32F0xx_HAL_Driver/Src/stm32f0xx_hal_i2c.c ****       (+) Transmit in slave mode an amount of data in non-blocking mode using HAL_I2C_Slave_Transmi
  74:Drivers/STM32F0xx_HAL_Driver/Src/stm32f0xx_hal_i2c.c ****       (+) At transmission end of transfer, HAL_I2C_SlaveTxCpltCallback() is executed and user can
  75:Drivers/STM32F0xx_HAL_Driver/Src/stm32f0xx_hal_i2c.c ****            add his own code by customization of function pointer HAL_I2C_SlaveTxCpltCallback()
  76:Drivers/STM32F0xx_HAL_Driver/Src/stm32f0xx_hal_i2c.c ****       (+) Receive in slave mode an amount of data in non-blocking mode using HAL_I2C_Slave_Receive_
  77:Drivers/STM32F0xx_HAL_Driver/Src/stm32f0xx_hal_i2c.c ****       (+) At reception end of transfer, HAL_I2C_SlaveRxCpltCallback() is executed and user can
  78:Drivers/STM32F0xx_HAL_Driver/Src/stm32f0xx_hal_i2c.c ****            add his own code by customization of function pointer HAL_I2C_SlaveRxCpltCallback()
  79:Drivers/STM32F0xx_HAL_Driver/Src/stm32f0xx_hal_i2c.c ****       (+) In case of transfer Error, HAL_I2C_ErrorCallback() function is executed and user can
  80:Drivers/STM32F0xx_HAL_Driver/Src/stm32f0xx_hal_i2c.c ****            add his own code by customization of function pointer HAL_I2C_ErrorCallback()
  81:Drivers/STM32F0xx_HAL_Driver/Src/stm32f0xx_hal_i2c.c ****       (+) Abort a master I2C process communication with Interrupt using HAL_I2C_Master_Abort_IT()
  82:Drivers/STM32F0xx_HAL_Driver/Src/stm32f0xx_hal_i2c.c ****       (+) End of abort process, HAL_I2C_AbortCpltCallback() is executed and user can
  83:Drivers/STM32F0xx_HAL_Driver/Src/stm32f0xx_hal_i2c.c ****            add his own code by customization of function pointer HAL_I2C_AbortCpltCallback()
  84:Drivers/STM32F0xx_HAL_Driver/Src/stm32f0xx_hal_i2c.c ****       (+) Discard a slave I2C process communication using __HAL_I2C_GENERATE_NACK() macro.
  85:Drivers/STM32F0xx_HAL_Driver/Src/stm32f0xx_hal_i2c.c ****            This action will inform Master to generate a Stop condition to discard the communication
  86:Drivers/STM32F0xx_HAL_Driver/Src/stm32f0xx_hal_i2c.c **** 
  87:Drivers/STM32F0xx_HAL_Driver/Src/stm32f0xx_hal_i2c.c **** 
  88:Drivers/STM32F0xx_HAL_Driver/Src/stm32f0xx_hal_i2c.c ****     *** Interrupt mode IO sequential operation ***
  89:Drivers/STM32F0xx_HAL_Driver/Src/stm32f0xx_hal_i2c.c ****     ==============================================
ARM GAS  C:\Users\ADMINI~1\AppData\Local\Temp\cc3zYV2m.s 			page 3


  90:Drivers/STM32F0xx_HAL_Driver/Src/stm32f0xx_hal_i2c.c ****     [..]
  91:Drivers/STM32F0xx_HAL_Driver/Src/stm32f0xx_hal_i2c.c ****       (@) These interfaces allow to manage a sequential transfer with a repeated start condition
  92:Drivers/STM32F0xx_HAL_Driver/Src/stm32f0xx_hal_i2c.c ****           when a direction change during transfer
  93:Drivers/STM32F0xx_HAL_Driver/Src/stm32f0xx_hal_i2c.c ****     [..]
  94:Drivers/STM32F0xx_HAL_Driver/Src/stm32f0xx_hal_i2c.c ****       (+) A specific option field manage the different steps of a sequential transfer
  95:Drivers/STM32F0xx_HAL_Driver/Src/stm32f0xx_hal_i2c.c ****       (+) Option field values are defined through @ref I2C_XFEROPTIONS and are listed below:
  96:Drivers/STM32F0xx_HAL_Driver/Src/stm32f0xx_hal_i2c.c ****       (++) I2C_FIRST_AND_LAST_FRAME: No sequential usage, functionnal is same as associated interfa
  97:Drivers/STM32F0xx_HAL_Driver/Src/stm32f0xx_hal_i2c.c ****       (++) I2C_FIRST_FRAME: Sequential usage, this option allow to manage a sequence with start con
  98:Drivers/STM32F0xx_HAL_Driver/Src/stm32f0xx_hal_i2c.c ****                             and data to transfer without a final stop condition
  99:Drivers/STM32F0xx_HAL_Driver/Src/stm32f0xx_hal_i2c.c ****       (++) I2C_FIRST_AND_NEXT_FRAME: Sequential usage (Master only), this option allow to manage a 
 100:Drivers/STM32F0xx_HAL_Driver/Src/stm32f0xx_hal_i2c.c ****                             and data to transfer without a final stop condition, an then permit a c
 101:Drivers/STM32F0xx_HAL_Driver/Src/stm32f0xx_hal_i2c.c ****                             several times (like HAL_I2C_Master_Sequential_Transmit_IT() then HAL_I2
 102:Drivers/STM32F0xx_HAL_Driver/Src/stm32f0xx_hal_i2c.c ****       (++) I2C_NEXT_FRAME: Sequential usage, this option allow to manage a sequence with a restart 
 103:Drivers/STM32F0xx_HAL_Driver/Src/stm32f0xx_hal_i2c.c ****                             and with new data to transfer if the direction change or manage only th
 104:Drivers/STM32F0xx_HAL_Driver/Src/stm32f0xx_hal_i2c.c ****                             if no direction change and without a final stop condition in both cases
 105:Drivers/STM32F0xx_HAL_Driver/Src/stm32f0xx_hal_i2c.c ****       (++) I2C_LAST_FRAME: Sequential usage, this option allow to manage a sequance with a restart 
 106:Drivers/STM32F0xx_HAL_Driver/Src/stm32f0xx_hal_i2c.c ****                             and with new data to transfer if the direction change or manage only th
 107:Drivers/STM32F0xx_HAL_Driver/Src/stm32f0xx_hal_i2c.c ****                             if no direction change and with a final stop condition in both cases
 108:Drivers/STM32F0xx_HAL_Driver/Src/stm32f0xx_hal_i2c.c **** 
 109:Drivers/STM32F0xx_HAL_Driver/Src/stm32f0xx_hal_i2c.c ****       (+) Differents sequential I2C interfaces are listed below:
 110:Drivers/STM32F0xx_HAL_Driver/Src/stm32f0xx_hal_i2c.c ****       (++) Sequential transmit in master I2C mode an amount of data in non-blocking mode using HAL_
 111:Drivers/STM32F0xx_HAL_Driver/Src/stm32f0xx_hal_i2c.c ****       (+++) At transmission end of current frame transfer, HAL_I2C_MasterTxCpltCallback() is execut
 112:Drivers/STM32F0xx_HAL_Driver/Src/stm32f0xx_hal_i2c.c ****            add his own code by customization of function pointer HAL_I2C_MasterTxCpltCallback()
 113:Drivers/STM32F0xx_HAL_Driver/Src/stm32f0xx_hal_i2c.c ****       (++) Sequential receive in master I2C mode an amount of data in non-blocking mode using HAL_I
 114:Drivers/STM32F0xx_HAL_Driver/Src/stm32f0xx_hal_i2c.c ****       (+++) At reception end of current frame transfer, HAL_I2C_MasterRxCpltCallback() is executed 
 115:Drivers/STM32F0xx_HAL_Driver/Src/stm32f0xx_hal_i2c.c ****            add his own code by customization of function pointer HAL_I2C_MasterRxCpltCallback()
 116:Drivers/STM32F0xx_HAL_Driver/Src/stm32f0xx_hal_i2c.c ****       (++) Abort a master I2C process communication with Interrupt using HAL_I2C_Master_Abort_IT()
 117:Drivers/STM32F0xx_HAL_Driver/Src/stm32f0xx_hal_i2c.c ****       (+++) End of abort process, HAL_I2C_AbortCpltCallback() is executed and user can
 118:Drivers/STM32F0xx_HAL_Driver/Src/stm32f0xx_hal_i2c.c ****            add his own code by customization of function pointer HAL_I2C_AbortCpltCallback()
 119:Drivers/STM32F0xx_HAL_Driver/Src/stm32f0xx_hal_i2c.c ****       (++) Enable/disable the Address listen mode in slave I2C mode using HAL_I2C_EnableListen_IT()
 120:Drivers/STM32F0xx_HAL_Driver/Src/stm32f0xx_hal_i2c.c ****       (+++) When address slave I2C match, HAL_I2C_AddrCallback() is executed and user can
 121:Drivers/STM32F0xx_HAL_Driver/Src/stm32f0xx_hal_i2c.c ****            add his own code to check the Address Match Code and the transmission direction request 
 122:Drivers/STM32F0xx_HAL_Driver/Src/stm32f0xx_hal_i2c.c ****       (+++) At Listen mode end HAL_I2C_ListenCpltCallback() is executed and user can
 123:Drivers/STM32F0xx_HAL_Driver/Src/stm32f0xx_hal_i2c.c ****            add his own code by customization of function pointer HAL_I2C_ListenCpltCallback()
 124:Drivers/STM32F0xx_HAL_Driver/Src/stm32f0xx_hal_i2c.c ****       (++) Sequential transmit in slave I2C mode an amount of data in non-blocking mode using HAL_I
 125:Drivers/STM32F0xx_HAL_Driver/Src/stm32f0xx_hal_i2c.c ****       (+++) At transmission end of current frame transfer, HAL_I2C_SlaveTxCpltCallback() is execute
 126:Drivers/STM32F0xx_HAL_Driver/Src/stm32f0xx_hal_i2c.c ****            add his own code by customization of function pointer HAL_I2C_SlaveTxCpltCallback()
 127:Drivers/STM32F0xx_HAL_Driver/Src/stm32f0xx_hal_i2c.c ****       (++) Sequential receive in slave I2C mode an amount of data in non-blocking mode using HAL_I2
 128:Drivers/STM32F0xx_HAL_Driver/Src/stm32f0xx_hal_i2c.c ****       (+++) At reception end of current frame transfer, HAL_I2C_SlaveRxCpltCallback() is executed a
 129:Drivers/STM32F0xx_HAL_Driver/Src/stm32f0xx_hal_i2c.c ****            add his own code by customization of function pointer HAL_I2C_SlaveRxCpltCallback()
 130:Drivers/STM32F0xx_HAL_Driver/Src/stm32f0xx_hal_i2c.c ****       (++) In case of transfer Error, HAL_I2C_ErrorCallback() function is executed and user can
 131:Drivers/STM32F0xx_HAL_Driver/Src/stm32f0xx_hal_i2c.c ****            add his own code by customization of function pointer HAL_I2C_ErrorCallback()
 132:Drivers/STM32F0xx_HAL_Driver/Src/stm32f0xx_hal_i2c.c ****       (++) Abort a master I2C process communication with Interrupt using HAL_I2C_Master_Abort_IT()
 133:Drivers/STM32F0xx_HAL_Driver/Src/stm32f0xx_hal_i2c.c ****       (++) End of abort process, HAL_I2C_AbortCpltCallback() is executed and user can
 134:Drivers/STM32F0xx_HAL_Driver/Src/stm32f0xx_hal_i2c.c ****            add his own code by customization of function pointer HAL_I2C_AbortCpltCallback()
 135:Drivers/STM32F0xx_HAL_Driver/Src/stm32f0xx_hal_i2c.c ****       (++) Discard a slave I2C process communication using __HAL_I2C_GENERATE_NACK() macro.
 136:Drivers/STM32F0xx_HAL_Driver/Src/stm32f0xx_hal_i2c.c ****            This action will inform Master to generate a Stop condition to discard the communication
 137:Drivers/STM32F0xx_HAL_Driver/Src/stm32f0xx_hal_i2c.c **** 
 138:Drivers/STM32F0xx_HAL_Driver/Src/stm32f0xx_hal_i2c.c ****     *** Interrupt mode IO MEM operation ***
 139:Drivers/STM32F0xx_HAL_Driver/Src/stm32f0xx_hal_i2c.c ****     =======================================
 140:Drivers/STM32F0xx_HAL_Driver/Src/stm32f0xx_hal_i2c.c ****     [..]
 141:Drivers/STM32F0xx_HAL_Driver/Src/stm32f0xx_hal_i2c.c ****       (+) Write an amount of data in non-blocking mode with Interrupt to a specific memory address 
 142:Drivers/STM32F0xx_HAL_Driver/Src/stm32f0xx_hal_i2c.c ****           HAL_I2C_Mem_Write_IT()
 143:Drivers/STM32F0xx_HAL_Driver/Src/stm32f0xx_hal_i2c.c ****       (+) At Memory end of write transfer, HAL_I2C_MemTxCpltCallback() is executed and user can
 144:Drivers/STM32F0xx_HAL_Driver/Src/stm32f0xx_hal_i2c.c ****            add his own code by customization of function pointer HAL_I2C_MemTxCpltCallback()
 145:Drivers/STM32F0xx_HAL_Driver/Src/stm32f0xx_hal_i2c.c ****       (+) Read an amount of data in non-blocking mode with Interrupt from a specific memory address
 146:Drivers/STM32F0xx_HAL_Driver/Src/stm32f0xx_hal_i2c.c ****           HAL_I2C_Mem_Read_IT()
ARM GAS  C:\Users\ADMINI~1\AppData\Local\Temp\cc3zYV2m.s 			page 4


 147:Drivers/STM32F0xx_HAL_Driver/Src/stm32f0xx_hal_i2c.c ****       (+) At Memory end of read transfer, HAL_I2C_MemRxCpltCallback() is executed and user can
 148:Drivers/STM32F0xx_HAL_Driver/Src/stm32f0xx_hal_i2c.c ****            add his own code by customization of function pointer HAL_I2C_MemRxCpltCallback()
 149:Drivers/STM32F0xx_HAL_Driver/Src/stm32f0xx_hal_i2c.c ****       (+) In case of transfer Error, HAL_I2C_ErrorCallback() function is executed and user can
 150:Drivers/STM32F0xx_HAL_Driver/Src/stm32f0xx_hal_i2c.c ****            add his own code by customization of function pointer HAL_I2C_ErrorCallback()
 151:Drivers/STM32F0xx_HAL_Driver/Src/stm32f0xx_hal_i2c.c **** 
 152:Drivers/STM32F0xx_HAL_Driver/Src/stm32f0xx_hal_i2c.c ****     *** DMA mode IO operation ***
 153:Drivers/STM32F0xx_HAL_Driver/Src/stm32f0xx_hal_i2c.c ****     ==============================
 154:Drivers/STM32F0xx_HAL_Driver/Src/stm32f0xx_hal_i2c.c ****     [..]
 155:Drivers/STM32F0xx_HAL_Driver/Src/stm32f0xx_hal_i2c.c ****       (+) Transmit in master mode an amount of data in non-blocking mode (DMA) using
 156:Drivers/STM32F0xx_HAL_Driver/Src/stm32f0xx_hal_i2c.c ****           HAL_I2C_Master_Transmit_DMA()
 157:Drivers/STM32F0xx_HAL_Driver/Src/stm32f0xx_hal_i2c.c ****       (+) At transmission end of transfer, HAL_I2C_MasterTxCpltCallback() is executed and user can
 158:Drivers/STM32F0xx_HAL_Driver/Src/stm32f0xx_hal_i2c.c ****            add his own code by customization of function pointer HAL_I2C_MasterTxCpltCallback()
 159:Drivers/STM32F0xx_HAL_Driver/Src/stm32f0xx_hal_i2c.c ****       (+) Receive in master mode an amount of data in non-blocking mode (DMA) using
 160:Drivers/STM32F0xx_HAL_Driver/Src/stm32f0xx_hal_i2c.c ****           HAL_I2C_Master_Receive_DMA()
 161:Drivers/STM32F0xx_HAL_Driver/Src/stm32f0xx_hal_i2c.c ****       (+) At reception end of transfer, HAL_I2C_MasterRxCpltCallback() is executed and user can
 162:Drivers/STM32F0xx_HAL_Driver/Src/stm32f0xx_hal_i2c.c ****            add his own code by customization of function pointer HAL_I2C_MasterRxCpltCallback()
 163:Drivers/STM32F0xx_HAL_Driver/Src/stm32f0xx_hal_i2c.c ****       (+) Transmit in slave mode an amount of data in non-blocking mode (DMA) using
 164:Drivers/STM32F0xx_HAL_Driver/Src/stm32f0xx_hal_i2c.c ****           HAL_I2C_Slave_Transmit_DMA()
 165:Drivers/STM32F0xx_HAL_Driver/Src/stm32f0xx_hal_i2c.c ****       (+) At transmission end of transfer, HAL_I2C_SlaveTxCpltCallback() is executed and user can
 166:Drivers/STM32F0xx_HAL_Driver/Src/stm32f0xx_hal_i2c.c ****            add his own code by customization of function pointer HAL_I2C_SlaveTxCpltCallback()
 167:Drivers/STM32F0xx_HAL_Driver/Src/stm32f0xx_hal_i2c.c ****       (+) Receive in slave mode an amount of data in non-blocking mode (DMA) using
 168:Drivers/STM32F0xx_HAL_Driver/Src/stm32f0xx_hal_i2c.c ****           HAL_I2C_Slave_Receive_DMA()
 169:Drivers/STM32F0xx_HAL_Driver/Src/stm32f0xx_hal_i2c.c ****       (+) At reception end of transfer, HAL_I2C_SlaveRxCpltCallback() is executed and user can
 170:Drivers/STM32F0xx_HAL_Driver/Src/stm32f0xx_hal_i2c.c ****            add his own code by customization of function pointer HAL_I2C_SlaveRxCpltCallback()
 171:Drivers/STM32F0xx_HAL_Driver/Src/stm32f0xx_hal_i2c.c ****       (+) In case of transfer Error, HAL_I2C_ErrorCallback() function is executed and user can
 172:Drivers/STM32F0xx_HAL_Driver/Src/stm32f0xx_hal_i2c.c ****            add his own code by customization of function pointer HAL_I2C_ErrorCallback()
 173:Drivers/STM32F0xx_HAL_Driver/Src/stm32f0xx_hal_i2c.c ****       (+) Abort a master I2C process communication with Interrupt using HAL_I2C_Master_Abort_IT()
 174:Drivers/STM32F0xx_HAL_Driver/Src/stm32f0xx_hal_i2c.c ****       (+) End of abort process, HAL_I2C_AbortCpltCallback() is executed and user can
 175:Drivers/STM32F0xx_HAL_Driver/Src/stm32f0xx_hal_i2c.c ****            add his own code by customization of function pointer HAL_I2C_AbortCpltCallback()
 176:Drivers/STM32F0xx_HAL_Driver/Src/stm32f0xx_hal_i2c.c ****       (+) Discard a slave I2C process communication using __HAL_I2C_GENERATE_NACK() macro.
 177:Drivers/STM32F0xx_HAL_Driver/Src/stm32f0xx_hal_i2c.c ****            This action will inform Master to generate a Stop condition to discard the communication
 178:Drivers/STM32F0xx_HAL_Driver/Src/stm32f0xx_hal_i2c.c **** 
 179:Drivers/STM32F0xx_HAL_Driver/Src/stm32f0xx_hal_i2c.c ****     *** DMA mode IO MEM operation ***
 180:Drivers/STM32F0xx_HAL_Driver/Src/stm32f0xx_hal_i2c.c ****     =================================
 181:Drivers/STM32F0xx_HAL_Driver/Src/stm32f0xx_hal_i2c.c ****     [..]
 182:Drivers/STM32F0xx_HAL_Driver/Src/stm32f0xx_hal_i2c.c ****       (+) Write an amount of data in non-blocking mode with DMA to a specific memory address using
 183:Drivers/STM32F0xx_HAL_Driver/Src/stm32f0xx_hal_i2c.c ****           HAL_I2C_Mem_Write_DMA()
 184:Drivers/STM32F0xx_HAL_Driver/Src/stm32f0xx_hal_i2c.c ****       (+) At Memory end of write transfer, HAL_I2C_MemTxCpltCallback() is executed and user can
 185:Drivers/STM32F0xx_HAL_Driver/Src/stm32f0xx_hal_i2c.c ****            add his own code by customization of function pointer HAL_I2C_MemTxCpltCallback()
 186:Drivers/STM32F0xx_HAL_Driver/Src/stm32f0xx_hal_i2c.c ****       (+) Read an amount of data in non-blocking mode with DMA from a specific memory address using
 187:Drivers/STM32F0xx_HAL_Driver/Src/stm32f0xx_hal_i2c.c ****           HAL_I2C_Mem_Read_DMA()
 188:Drivers/STM32F0xx_HAL_Driver/Src/stm32f0xx_hal_i2c.c ****       (+) At Memory end of read transfer, HAL_I2C_MemRxCpltCallback() is executed and user can
 189:Drivers/STM32F0xx_HAL_Driver/Src/stm32f0xx_hal_i2c.c ****            add his own code by customization of function pointer HAL_I2C_MemRxCpltCallback()
 190:Drivers/STM32F0xx_HAL_Driver/Src/stm32f0xx_hal_i2c.c ****       (+) In case of transfer Error, HAL_I2C_ErrorCallback() function is executed and user can
 191:Drivers/STM32F0xx_HAL_Driver/Src/stm32f0xx_hal_i2c.c ****            add his own code by customization of function pointer HAL_I2C_ErrorCallback()
 192:Drivers/STM32F0xx_HAL_Driver/Src/stm32f0xx_hal_i2c.c **** 
 193:Drivers/STM32F0xx_HAL_Driver/Src/stm32f0xx_hal_i2c.c **** 
 194:Drivers/STM32F0xx_HAL_Driver/Src/stm32f0xx_hal_i2c.c ****      *** I2C HAL driver macros list ***
 195:Drivers/STM32F0xx_HAL_Driver/Src/stm32f0xx_hal_i2c.c ****      ==================================
 196:Drivers/STM32F0xx_HAL_Driver/Src/stm32f0xx_hal_i2c.c ****      [..]
 197:Drivers/STM32F0xx_HAL_Driver/Src/stm32f0xx_hal_i2c.c ****        Below the list of most used macros in I2C HAL driver.
 198:Drivers/STM32F0xx_HAL_Driver/Src/stm32f0xx_hal_i2c.c **** 
 199:Drivers/STM32F0xx_HAL_Driver/Src/stm32f0xx_hal_i2c.c ****       (+) __HAL_I2C_ENABLE: Enable the I2C peripheral
 200:Drivers/STM32F0xx_HAL_Driver/Src/stm32f0xx_hal_i2c.c ****       (+) __HAL_I2C_DISABLE: Disable the I2C peripheral
 201:Drivers/STM32F0xx_HAL_Driver/Src/stm32f0xx_hal_i2c.c ****       (+) __HAL_I2C_GENERATE_NACK: Generate a Non-Acknowledge I2C peripheral in Slave mode
 202:Drivers/STM32F0xx_HAL_Driver/Src/stm32f0xx_hal_i2c.c ****       (+) __HAL_I2C_GET_FLAG: Check whether the specified I2C flag is set or not
 203:Drivers/STM32F0xx_HAL_Driver/Src/stm32f0xx_hal_i2c.c ****       (+) __HAL_I2C_CLEAR_FLAG: Clear the specified I2C pending flag
ARM GAS  C:\Users\ADMINI~1\AppData\Local\Temp\cc3zYV2m.s 			page 5


 204:Drivers/STM32F0xx_HAL_Driver/Src/stm32f0xx_hal_i2c.c ****       (+) __HAL_I2C_ENABLE_IT: Enable the specified I2C interrupt
 205:Drivers/STM32F0xx_HAL_Driver/Src/stm32f0xx_hal_i2c.c ****       (+) __HAL_I2C_DISABLE_IT: Disable the specified I2C interrupt
 206:Drivers/STM32F0xx_HAL_Driver/Src/stm32f0xx_hal_i2c.c **** 
 207:Drivers/STM32F0xx_HAL_Driver/Src/stm32f0xx_hal_i2c.c ****      [..]
 208:Drivers/STM32F0xx_HAL_Driver/Src/stm32f0xx_hal_i2c.c ****        (@) You can refer to the I2C HAL driver header file for more useful macros
 209:Drivers/STM32F0xx_HAL_Driver/Src/stm32f0xx_hal_i2c.c **** 
 210:Drivers/STM32F0xx_HAL_Driver/Src/stm32f0xx_hal_i2c.c ****   @endverbatim
 211:Drivers/STM32F0xx_HAL_Driver/Src/stm32f0xx_hal_i2c.c ****   ******************************************************************************
 212:Drivers/STM32F0xx_HAL_Driver/Src/stm32f0xx_hal_i2c.c ****   * @attention
 213:Drivers/STM32F0xx_HAL_Driver/Src/stm32f0xx_hal_i2c.c ****   *
 214:Drivers/STM32F0xx_HAL_Driver/Src/stm32f0xx_hal_i2c.c ****   * <h2><center>&copy; COPYRIGHT(c) 2016 STMicroelectronics</center></h2>
 215:Drivers/STM32F0xx_HAL_Driver/Src/stm32f0xx_hal_i2c.c ****   *
 216:Drivers/STM32F0xx_HAL_Driver/Src/stm32f0xx_hal_i2c.c ****   * Redistribution and use in source and binary forms, with or without modification,
 217:Drivers/STM32F0xx_HAL_Driver/Src/stm32f0xx_hal_i2c.c ****   * are permitted provided that the following conditions are met:
 218:Drivers/STM32F0xx_HAL_Driver/Src/stm32f0xx_hal_i2c.c ****   *   1. Redistributions of source code must retain the above copyright notice,
 219:Drivers/STM32F0xx_HAL_Driver/Src/stm32f0xx_hal_i2c.c ****   *      this list of conditions and the following disclaimer.
 220:Drivers/STM32F0xx_HAL_Driver/Src/stm32f0xx_hal_i2c.c ****   *   2. Redistributions in binary form must reproduce the above copyright notice,
 221:Drivers/STM32F0xx_HAL_Driver/Src/stm32f0xx_hal_i2c.c ****   *      this list of conditions and the following disclaimer in the documentation
 222:Drivers/STM32F0xx_HAL_Driver/Src/stm32f0xx_hal_i2c.c ****   *      and/or other materials provided with the distribution.
 223:Drivers/STM32F0xx_HAL_Driver/Src/stm32f0xx_hal_i2c.c ****   *   3. Neither the name of STMicroelectronics nor the names of its contributors
 224:Drivers/STM32F0xx_HAL_Driver/Src/stm32f0xx_hal_i2c.c ****   *      may be used to endorse or promote products derived from this software
 225:Drivers/STM32F0xx_HAL_Driver/Src/stm32f0xx_hal_i2c.c ****   *      without specific prior written permission.
 226:Drivers/STM32F0xx_HAL_Driver/Src/stm32f0xx_hal_i2c.c ****   *
 227:Drivers/STM32F0xx_HAL_Driver/Src/stm32f0xx_hal_i2c.c ****   * THIS SOFTWARE IS PROVIDED BY THE COPYRIGHT HOLDERS AND CONTRIBUTORS "AS IS"
 228:Drivers/STM32F0xx_HAL_Driver/Src/stm32f0xx_hal_i2c.c ****   * AND ANY EXPRESS OR IMPLIED WARRANTIES, INCLUDING, BUT NOT LIMITED TO, THE
 229:Drivers/STM32F0xx_HAL_Driver/Src/stm32f0xx_hal_i2c.c ****   * IMPLIED WARRANTIES OF MERCHANTABILITY AND FITNESS FOR A PARTICULAR PURPOSE ARE
 230:Drivers/STM32F0xx_HAL_Driver/Src/stm32f0xx_hal_i2c.c ****   * DISCLAIMED. IN NO EVENT SHALL THE COPYRIGHT HOLDER OR CONTRIBUTORS BE LIABLE
 231:Drivers/STM32F0xx_HAL_Driver/Src/stm32f0xx_hal_i2c.c ****   * FOR ANY DIRECT, INDIRECT, INCIDENTAL, SPECIAL, EXEMPLARY, OR CONSEQUENTIAL
 232:Drivers/STM32F0xx_HAL_Driver/Src/stm32f0xx_hal_i2c.c ****   * DAMAGES (INCLUDING, BUT NOT LIMITED TO, PROCUREMENT OF SUBSTITUTE GOODS OR
 233:Drivers/STM32F0xx_HAL_Driver/Src/stm32f0xx_hal_i2c.c ****   * SERVICES; LOSS OF USE, DATA, OR PROFITS; OR BUSINESS INTERRUPTION) HOWEVER
 234:Drivers/STM32F0xx_HAL_Driver/Src/stm32f0xx_hal_i2c.c ****   * CAUSED AND ON ANY THEORY OF LIABILITY, WHETHER IN CONTRACT, STRICT LIABILITY,
 235:Drivers/STM32F0xx_HAL_Driver/Src/stm32f0xx_hal_i2c.c ****   * OR TORT (INCLUDING NEGLIGENCE OR OTHERWISE) ARISING IN ANY WAY OUT OF THE USE
 236:Drivers/STM32F0xx_HAL_Driver/Src/stm32f0xx_hal_i2c.c ****   * OF THIS SOFTWARE, EVEN IF ADVISED OF THE POSSIBILITY OF SUCH DAMAGE.
 237:Drivers/STM32F0xx_HAL_Driver/Src/stm32f0xx_hal_i2c.c ****   *
 238:Drivers/STM32F0xx_HAL_Driver/Src/stm32f0xx_hal_i2c.c ****   ******************************************************************************
 239:Drivers/STM32F0xx_HAL_Driver/Src/stm32f0xx_hal_i2c.c ****   */
 240:Drivers/STM32F0xx_HAL_Driver/Src/stm32f0xx_hal_i2c.c **** 
 241:Drivers/STM32F0xx_HAL_Driver/Src/stm32f0xx_hal_i2c.c **** /* Includes ------------------------------------------------------------------*/
 242:Drivers/STM32F0xx_HAL_Driver/Src/stm32f0xx_hal_i2c.c **** #include "stm32f0xx_hal.h"
 243:Drivers/STM32F0xx_HAL_Driver/Src/stm32f0xx_hal_i2c.c **** 
 244:Drivers/STM32F0xx_HAL_Driver/Src/stm32f0xx_hal_i2c.c **** /** @addtogroup STM32F0xx_HAL_Driver
 245:Drivers/STM32F0xx_HAL_Driver/Src/stm32f0xx_hal_i2c.c ****   * @{
 246:Drivers/STM32F0xx_HAL_Driver/Src/stm32f0xx_hal_i2c.c ****   */
 247:Drivers/STM32F0xx_HAL_Driver/Src/stm32f0xx_hal_i2c.c **** 
 248:Drivers/STM32F0xx_HAL_Driver/Src/stm32f0xx_hal_i2c.c **** /** @defgroup I2C I2C
 249:Drivers/STM32F0xx_HAL_Driver/Src/stm32f0xx_hal_i2c.c ****   * @brief I2C HAL module driver
 250:Drivers/STM32F0xx_HAL_Driver/Src/stm32f0xx_hal_i2c.c ****   * @{
 251:Drivers/STM32F0xx_HAL_Driver/Src/stm32f0xx_hal_i2c.c ****   */
 252:Drivers/STM32F0xx_HAL_Driver/Src/stm32f0xx_hal_i2c.c **** 
 253:Drivers/STM32F0xx_HAL_Driver/Src/stm32f0xx_hal_i2c.c **** #ifdef HAL_I2C_MODULE_ENABLED
 254:Drivers/STM32F0xx_HAL_Driver/Src/stm32f0xx_hal_i2c.c **** 
 255:Drivers/STM32F0xx_HAL_Driver/Src/stm32f0xx_hal_i2c.c **** /* Private typedef -----------------------------------------------------------*/
 256:Drivers/STM32F0xx_HAL_Driver/Src/stm32f0xx_hal_i2c.c **** /* Private define ------------------------------------------------------------*/
 257:Drivers/STM32F0xx_HAL_Driver/Src/stm32f0xx_hal_i2c.c **** 
 258:Drivers/STM32F0xx_HAL_Driver/Src/stm32f0xx_hal_i2c.c **** /** @defgroup I2C_Private_Define I2C Private Define
 259:Drivers/STM32F0xx_HAL_Driver/Src/stm32f0xx_hal_i2c.c ****   * @{
 260:Drivers/STM32F0xx_HAL_Driver/Src/stm32f0xx_hal_i2c.c ****   */
ARM GAS  C:\Users\ADMINI~1\AppData\Local\Temp\cc3zYV2m.s 			page 6


 261:Drivers/STM32F0xx_HAL_Driver/Src/stm32f0xx_hal_i2c.c **** #define TIMING_CLEAR_MASK   (0xF0FFFFFFU)  /*!< I2C TIMING clear register Mask */
 262:Drivers/STM32F0xx_HAL_Driver/Src/stm32f0xx_hal_i2c.c **** #define I2C_TIMEOUT_ADDR    (10000U)       /*!< 10 s  */
 263:Drivers/STM32F0xx_HAL_Driver/Src/stm32f0xx_hal_i2c.c **** #define I2C_TIMEOUT_BUSY    (25U)          /*!< 25 ms */
 264:Drivers/STM32F0xx_HAL_Driver/Src/stm32f0xx_hal_i2c.c **** #define I2C_TIMEOUT_DIR     (25U)          /*!< 25 ms */
 265:Drivers/STM32F0xx_HAL_Driver/Src/stm32f0xx_hal_i2c.c **** #define I2C_TIMEOUT_RXNE    (25U)          /*!< 25 ms */
 266:Drivers/STM32F0xx_HAL_Driver/Src/stm32f0xx_hal_i2c.c **** #define I2C_TIMEOUT_STOPF   (25U)          /*!< 25 ms */
 267:Drivers/STM32F0xx_HAL_Driver/Src/stm32f0xx_hal_i2c.c **** #define I2C_TIMEOUT_TC      (25U)          /*!< 25 ms */
 268:Drivers/STM32F0xx_HAL_Driver/Src/stm32f0xx_hal_i2c.c **** #define I2C_TIMEOUT_TCR     (25U)          /*!< 25 ms */
 269:Drivers/STM32F0xx_HAL_Driver/Src/stm32f0xx_hal_i2c.c **** #define I2C_TIMEOUT_TXIS    (25U)          /*!< 25 ms */
 270:Drivers/STM32F0xx_HAL_Driver/Src/stm32f0xx_hal_i2c.c **** #define I2C_TIMEOUT_FLAG    (25U)          /*!< 25 ms */
 271:Drivers/STM32F0xx_HAL_Driver/Src/stm32f0xx_hal_i2c.c **** 
 272:Drivers/STM32F0xx_HAL_Driver/Src/stm32f0xx_hal_i2c.c **** #define MAX_NBYTE_SIZE      255U
 273:Drivers/STM32F0xx_HAL_Driver/Src/stm32f0xx_hal_i2c.c **** #define SlaveAddr_SHIFT     7U
 274:Drivers/STM32F0xx_HAL_Driver/Src/stm32f0xx_hal_i2c.c **** #define SlaveAddr_MSK       0x06U
 275:Drivers/STM32F0xx_HAL_Driver/Src/stm32f0xx_hal_i2c.c **** 
 276:Drivers/STM32F0xx_HAL_Driver/Src/stm32f0xx_hal_i2c.c **** /* Private define for @ref PreviousState usage */
 277:Drivers/STM32F0xx_HAL_Driver/Src/stm32f0xx_hal_i2c.c **** #define I2C_STATE_MSK             ((uint32_t)((HAL_I2C_STATE_BUSY_TX | HAL_I2C_STATE_BUSY_RX) & (~(
 278:Drivers/STM32F0xx_HAL_Driver/Src/stm32f0xx_hal_i2c.c **** #define I2C_STATE_NONE            ((uint32_t)(HAL_I2C_MODE_NONE))                                  
 279:Drivers/STM32F0xx_HAL_Driver/Src/stm32f0xx_hal_i2c.c **** #define I2C_STATE_MASTER_BUSY_TX  ((uint32_t)((HAL_I2C_STATE_BUSY_TX & I2C_STATE_MSK) | HAL_I2C_MOD
 280:Drivers/STM32F0xx_HAL_Driver/Src/stm32f0xx_hal_i2c.c **** #define I2C_STATE_MASTER_BUSY_RX  ((uint32_t)((HAL_I2C_STATE_BUSY_RX & I2C_STATE_MSK) | HAL_I2C_MOD
 281:Drivers/STM32F0xx_HAL_Driver/Src/stm32f0xx_hal_i2c.c **** #define I2C_STATE_SLAVE_BUSY_TX   ((uint32_t)((HAL_I2C_STATE_BUSY_TX & I2C_STATE_MSK) | HAL_I2C_MOD
 282:Drivers/STM32F0xx_HAL_Driver/Src/stm32f0xx_hal_i2c.c **** #define I2C_STATE_SLAVE_BUSY_RX   ((uint32_t)((HAL_I2C_STATE_BUSY_RX & I2C_STATE_MSK) | HAL_I2C_MOD
 283:Drivers/STM32F0xx_HAL_Driver/Src/stm32f0xx_hal_i2c.c **** #define I2C_STATE_MEM_BUSY_TX     ((uint32_t)((HAL_I2C_STATE_BUSY_TX & I2C_STATE_MSK) | HAL_I2C_MOD
 284:Drivers/STM32F0xx_HAL_Driver/Src/stm32f0xx_hal_i2c.c **** #define I2C_STATE_MEM_BUSY_RX     ((uint32_t)((HAL_I2C_STATE_BUSY_RX & I2C_STATE_MSK) | HAL_I2C_MOD
 285:Drivers/STM32F0xx_HAL_Driver/Src/stm32f0xx_hal_i2c.c **** 
 286:Drivers/STM32F0xx_HAL_Driver/Src/stm32f0xx_hal_i2c.c **** 
 287:Drivers/STM32F0xx_HAL_Driver/Src/stm32f0xx_hal_i2c.c **** /* Private define to centralize the enable/disable of Interrupts */
 288:Drivers/STM32F0xx_HAL_Driver/Src/stm32f0xx_hal_i2c.c **** #define I2C_XFER_TX_IT          (0x00000001U)
 289:Drivers/STM32F0xx_HAL_Driver/Src/stm32f0xx_hal_i2c.c **** #define I2C_XFER_RX_IT          (0x00000002U)
 290:Drivers/STM32F0xx_HAL_Driver/Src/stm32f0xx_hal_i2c.c **** #define I2C_XFER_LISTEN_IT      (0x00000004U)
 291:Drivers/STM32F0xx_HAL_Driver/Src/stm32f0xx_hal_i2c.c **** 
 292:Drivers/STM32F0xx_HAL_Driver/Src/stm32f0xx_hal_i2c.c **** #define I2C_XFER_ERROR_IT       (0x00000011U)
 293:Drivers/STM32F0xx_HAL_Driver/Src/stm32f0xx_hal_i2c.c **** #define I2C_XFER_CPLT_IT        (0x00000012U)
 294:Drivers/STM32F0xx_HAL_Driver/Src/stm32f0xx_hal_i2c.c **** #define I2C_XFER_RELOAD_IT      (0x00000012U)
 295:Drivers/STM32F0xx_HAL_Driver/Src/stm32f0xx_hal_i2c.c **** 
 296:Drivers/STM32F0xx_HAL_Driver/Src/stm32f0xx_hal_i2c.c **** /* Private define Sequential Transfer Options default/reset value */
 297:Drivers/STM32F0xx_HAL_Driver/Src/stm32f0xx_hal_i2c.c **** #define I2C_NO_OPTION_FRAME     (0xFFFF0000U)
 298:Drivers/STM32F0xx_HAL_Driver/Src/stm32f0xx_hal_i2c.c **** /**
 299:Drivers/STM32F0xx_HAL_Driver/Src/stm32f0xx_hal_i2c.c ****   * @}
 300:Drivers/STM32F0xx_HAL_Driver/Src/stm32f0xx_hal_i2c.c ****   */
 301:Drivers/STM32F0xx_HAL_Driver/Src/stm32f0xx_hal_i2c.c **** 
 302:Drivers/STM32F0xx_HAL_Driver/Src/stm32f0xx_hal_i2c.c **** /* Private macro -------------------------------------------------------------*/
 303:Drivers/STM32F0xx_HAL_Driver/Src/stm32f0xx_hal_i2c.c **** #define I2C_GET_DMA_REMAIN_DATA(__HANDLE__) ((((__HANDLE__)->State) == HAL_I2C_STATE_BUSY_TX)   ? \
 304:Drivers/STM32F0xx_HAL_Driver/Src/stm32f0xx_hal_i2c.c ****                                             ((uint32_t)((__HANDLE__)->hdmatx->Instance->CNDTR)) : \
 305:Drivers/STM32F0xx_HAL_Driver/Src/stm32f0xx_hal_i2c.c ****                                             ((uint32_t)((__HANDLE__)->hdmarx->Instance->CNDTR)))
 306:Drivers/STM32F0xx_HAL_Driver/Src/stm32f0xx_hal_i2c.c **** 
 307:Drivers/STM32F0xx_HAL_Driver/Src/stm32f0xx_hal_i2c.c **** /* Private variables ---------------------------------------------------------*/
 308:Drivers/STM32F0xx_HAL_Driver/Src/stm32f0xx_hal_i2c.c **** /* Private function prototypes -----------------------------------------------*/
 309:Drivers/STM32F0xx_HAL_Driver/Src/stm32f0xx_hal_i2c.c **** 
 310:Drivers/STM32F0xx_HAL_Driver/Src/stm32f0xx_hal_i2c.c **** /** @defgroup I2C_Private_Functions I2C Private Functions
 311:Drivers/STM32F0xx_HAL_Driver/Src/stm32f0xx_hal_i2c.c ****   * @{
 312:Drivers/STM32F0xx_HAL_Driver/Src/stm32f0xx_hal_i2c.c ****   */
 313:Drivers/STM32F0xx_HAL_Driver/Src/stm32f0xx_hal_i2c.c **** /* Private functions to handle DMA transfer */
 314:Drivers/STM32F0xx_HAL_Driver/Src/stm32f0xx_hal_i2c.c **** static void I2C_DMAMasterTransmitCplt(DMA_HandleTypeDef *hdma);
 315:Drivers/STM32F0xx_HAL_Driver/Src/stm32f0xx_hal_i2c.c **** static void I2C_DMAMasterReceiveCplt(DMA_HandleTypeDef *hdma);
 316:Drivers/STM32F0xx_HAL_Driver/Src/stm32f0xx_hal_i2c.c **** static void I2C_DMASlaveTransmitCplt(DMA_HandleTypeDef *hdma);
 317:Drivers/STM32F0xx_HAL_Driver/Src/stm32f0xx_hal_i2c.c **** static void I2C_DMASlaveReceiveCplt(DMA_HandleTypeDef *hdma);
ARM GAS  C:\Users\ADMINI~1\AppData\Local\Temp\cc3zYV2m.s 			page 7


 318:Drivers/STM32F0xx_HAL_Driver/Src/stm32f0xx_hal_i2c.c **** static void I2C_DMAError(DMA_HandleTypeDef *hdma);
 319:Drivers/STM32F0xx_HAL_Driver/Src/stm32f0xx_hal_i2c.c **** static void I2C_DMAAbort(DMA_HandleTypeDef *hdma);
 320:Drivers/STM32F0xx_HAL_Driver/Src/stm32f0xx_hal_i2c.c **** 
 321:Drivers/STM32F0xx_HAL_Driver/Src/stm32f0xx_hal_i2c.c **** /* Private functions to handle IT transfer */
 322:Drivers/STM32F0xx_HAL_Driver/Src/stm32f0xx_hal_i2c.c **** static void I2C_ITAddrCplt(I2C_HandleTypeDef *hi2c, uint32_t ITFlags);
 323:Drivers/STM32F0xx_HAL_Driver/Src/stm32f0xx_hal_i2c.c **** static void I2C_ITMasterSequentialCplt(I2C_HandleTypeDef *hi2c);
 324:Drivers/STM32F0xx_HAL_Driver/Src/stm32f0xx_hal_i2c.c **** static void I2C_ITSlaveSequentialCplt(I2C_HandleTypeDef *hi2c);
 325:Drivers/STM32F0xx_HAL_Driver/Src/stm32f0xx_hal_i2c.c **** static void I2C_ITMasterCplt(I2C_HandleTypeDef *hi2c, uint32_t ITFlags);
 326:Drivers/STM32F0xx_HAL_Driver/Src/stm32f0xx_hal_i2c.c **** static void I2C_ITSlaveCplt(I2C_HandleTypeDef *hi2c, uint32_t ITFlags);
 327:Drivers/STM32F0xx_HAL_Driver/Src/stm32f0xx_hal_i2c.c **** static void I2C_ITListenCplt(I2C_HandleTypeDef *hi2c, uint32_t ITFlags);
 328:Drivers/STM32F0xx_HAL_Driver/Src/stm32f0xx_hal_i2c.c **** static void I2C_ITError(I2C_HandleTypeDef *hi2c, uint32_t ErrorCode);
 329:Drivers/STM32F0xx_HAL_Driver/Src/stm32f0xx_hal_i2c.c **** 
 330:Drivers/STM32F0xx_HAL_Driver/Src/stm32f0xx_hal_i2c.c **** /* Private functions to handle IT transfer */
 331:Drivers/STM32F0xx_HAL_Driver/Src/stm32f0xx_hal_i2c.c **** static HAL_StatusTypeDef I2C_RequestMemoryWrite(I2C_HandleTypeDef *hi2c, uint16_t DevAddress, uint1
 332:Drivers/STM32F0xx_HAL_Driver/Src/stm32f0xx_hal_i2c.c **** static HAL_StatusTypeDef I2C_RequestMemoryRead(I2C_HandleTypeDef *hi2c, uint16_t DevAddress, uint16
 333:Drivers/STM32F0xx_HAL_Driver/Src/stm32f0xx_hal_i2c.c **** 
 334:Drivers/STM32F0xx_HAL_Driver/Src/stm32f0xx_hal_i2c.c **** /* Private functions for I2C transfer IRQ handler */
 335:Drivers/STM32F0xx_HAL_Driver/Src/stm32f0xx_hal_i2c.c **** static HAL_StatusTypeDef I2C_Master_ISR_IT(struct __I2C_HandleTypeDef *hi2c, uint32_t ITFlags, uint
 336:Drivers/STM32F0xx_HAL_Driver/Src/stm32f0xx_hal_i2c.c **** static HAL_StatusTypeDef I2C_Slave_ISR_IT(struct __I2C_HandleTypeDef *hi2c, uint32_t ITFlags, uint3
 337:Drivers/STM32F0xx_HAL_Driver/Src/stm32f0xx_hal_i2c.c **** static HAL_StatusTypeDef I2C_Master_ISR_DMA(struct __I2C_HandleTypeDef *hi2c, uint32_t ITFlags, uin
 338:Drivers/STM32F0xx_HAL_Driver/Src/stm32f0xx_hal_i2c.c **** static HAL_StatusTypeDef I2C_Slave_ISR_DMA(struct __I2C_HandleTypeDef *hi2c, uint32_t ITFlags, uint
 339:Drivers/STM32F0xx_HAL_Driver/Src/stm32f0xx_hal_i2c.c **** 
 340:Drivers/STM32F0xx_HAL_Driver/Src/stm32f0xx_hal_i2c.c **** /* Private functions to handle flags during polling transfer */
 341:Drivers/STM32F0xx_HAL_Driver/Src/stm32f0xx_hal_i2c.c **** static HAL_StatusTypeDef I2C_WaitOnFlagUntilTimeout(I2C_HandleTypeDef *hi2c, uint32_t Flag, FlagSta
 342:Drivers/STM32F0xx_HAL_Driver/Src/stm32f0xx_hal_i2c.c **** static HAL_StatusTypeDef I2C_WaitOnTXISFlagUntilTimeout(I2C_HandleTypeDef *hi2c, uint32_t Timeout, 
 343:Drivers/STM32F0xx_HAL_Driver/Src/stm32f0xx_hal_i2c.c **** static HAL_StatusTypeDef I2C_WaitOnRXNEFlagUntilTimeout(I2C_HandleTypeDef *hi2c, uint32_t Timeout, 
 344:Drivers/STM32F0xx_HAL_Driver/Src/stm32f0xx_hal_i2c.c **** static HAL_StatusTypeDef I2C_WaitOnSTOPFlagUntilTimeout(I2C_HandleTypeDef *hi2c, uint32_t Timeout, 
 345:Drivers/STM32F0xx_HAL_Driver/Src/stm32f0xx_hal_i2c.c **** static HAL_StatusTypeDef I2C_IsAcknowledgeFailed(I2C_HandleTypeDef *hi2c, uint32_t Timeout, uint32_
 346:Drivers/STM32F0xx_HAL_Driver/Src/stm32f0xx_hal_i2c.c **** 
 347:Drivers/STM32F0xx_HAL_Driver/Src/stm32f0xx_hal_i2c.c **** /* Private functions to centralize the enable/disable of Interrupts */
 348:Drivers/STM32F0xx_HAL_Driver/Src/stm32f0xx_hal_i2c.c **** static HAL_StatusTypeDef I2C_Enable_IRQ(I2C_HandleTypeDef *hi2c, uint16_t InterruptRequest);
 349:Drivers/STM32F0xx_HAL_Driver/Src/stm32f0xx_hal_i2c.c **** static HAL_StatusTypeDef I2C_Disable_IRQ(I2C_HandleTypeDef *hi2c, uint16_t InterruptRequest);
 350:Drivers/STM32F0xx_HAL_Driver/Src/stm32f0xx_hal_i2c.c **** 
 351:Drivers/STM32F0xx_HAL_Driver/Src/stm32f0xx_hal_i2c.c **** /* Private functions to flush TXDR register */
 352:Drivers/STM32F0xx_HAL_Driver/Src/stm32f0xx_hal_i2c.c **** static void I2C_Flush_TXDR(I2C_HandleTypeDef *hi2c);
 353:Drivers/STM32F0xx_HAL_Driver/Src/stm32f0xx_hal_i2c.c **** 
 354:Drivers/STM32F0xx_HAL_Driver/Src/stm32f0xx_hal_i2c.c **** /* Private functions to handle  start, restart or stop a transfer */
 355:Drivers/STM32F0xx_HAL_Driver/Src/stm32f0xx_hal_i2c.c **** static void I2C_TransferConfig(I2C_HandleTypeDef *hi2c,  uint16_t DevAddress, uint8_t Size, uint32_
 356:Drivers/STM32F0xx_HAL_Driver/Src/stm32f0xx_hal_i2c.c **** /**
 357:Drivers/STM32F0xx_HAL_Driver/Src/stm32f0xx_hal_i2c.c ****   * @}
 358:Drivers/STM32F0xx_HAL_Driver/Src/stm32f0xx_hal_i2c.c ****   */
 359:Drivers/STM32F0xx_HAL_Driver/Src/stm32f0xx_hal_i2c.c **** 
 360:Drivers/STM32F0xx_HAL_Driver/Src/stm32f0xx_hal_i2c.c **** /* Exported functions --------------------------------------------------------*/
 361:Drivers/STM32F0xx_HAL_Driver/Src/stm32f0xx_hal_i2c.c **** 
 362:Drivers/STM32F0xx_HAL_Driver/Src/stm32f0xx_hal_i2c.c **** /** @defgroup I2C_Exported_Functions I2C Exported Functions
 363:Drivers/STM32F0xx_HAL_Driver/Src/stm32f0xx_hal_i2c.c ****   * @{
 364:Drivers/STM32F0xx_HAL_Driver/Src/stm32f0xx_hal_i2c.c ****   */
 365:Drivers/STM32F0xx_HAL_Driver/Src/stm32f0xx_hal_i2c.c **** 
 366:Drivers/STM32F0xx_HAL_Driver/Src/stm32f0xx_hal_i2c.c **** /** @defgroup I2C_Exported_Functions_Group1 Initialization and de-initialization functions
 367:Drivers/STM32F0xx_HAL_Driver/Src/stm32f0xx_hal_i2c.c ****  *  @brief    Initialization and Configuration functions
 368:Drivers/STM32F0xx_HAL_Driver/Src/stm32f0xx_hal_i2c.c ****  *
 369:Drivers/STM32F0xx_HAL_Driver/Src/stm32f0xx_hal_i2c.c **** @verbatim
 370:Drivers/STM32F0xx_HAL_Driver/Src/stm32f0xx_hal_i2c.c ****  ===============================================================================
 371:Drivers/STM32F0xx_HAL_Driver/Src/stm32f0xx_hal_i2c.c ****               ##### Initialization and de-initialization functions #####
 372:Drivers/STM32F0xx_HAL_Driver/Src/stm32f0xx_hal_i2c.c ****  ===============================================================================
 373:Drivers/STM32F0xx_HAL_Driver/Src/stm32f0xx_hal_i2c.c ****     [..]  This subsection provides a set of functions allowing to initialize and
 374:Drivers/STM32F0xx_HAL_Driver/Src/stm32f0xx_hal_i2c.c ****           deinitialize the I2Cx peripheral:
ARM GAS  C:\Users\ADMINI~1\AppData\Local\Temp\cc3zYV2m.s 			page 8


 375:Drivers/STM32F0xx_HAL_Driver/Src/stm32f0xx_hal_i2c.c **** 
 376:Drivers/STM32F0xx_HAL_Driver/Src/stm32f0xx_hal_i2c.c ****       (+) User must Implement HAL_I2C_MspInit() function in which he configures
 377:Drivers/STM32F0xx_HAL_Driver/Src/stm32f0xx_hal_i2c.c ****           all related peripherals resources (CLOCK, GPIO, DMA, IT and NVIC ).
 378:Drivers/STM32F0xx_HAL_Driver/Src/stm32f0xx_hal_i2c.c **** 
 379:Drivers/STM32F0xx_HAL_Driver/Src/stm32f0xx_hal_i2c.c ****       (+) Call the function HAL_I2C_Init() to configure the selected device with
 380:Drivers/STM32F0xx_HAL_Driver/Src/stm32f0xx_hal_i2c.c ****           the selected configuration:
 381:Drivers/STM32F0xx_HAL_Driver/Src/stm32f0xx_hal_i2c.c ****         (++) Clock Timing
 382:Drivers/STM32F0xx_HAL_Driver/Src/stm32f0xx_hal_i2c.c ****         (++) Own Address 1
 383:Drivers/STM32F0xx_HAL_Driver/Src/stm32f0xx_hal_i2c.c ****         (++) Addressing mode (Master, Slave)
 384:Drivers/STM32F0xx_HAL_Driver/Src/stm32f0xx_hal_i2c.c ****         (++) Dual Addressing mode
 385:Drivers/STM32F0xx_HAL_Driver/Src/stm32f0xx_hal_i2c.c ****         (++) Own Address 2
 386:Drivers/STM32F0xx_HAL_Driver/Src/stm32f0xx_hal_i2c.c ****         (++) Own Address 2 Mask
 387:Drivers/STM32F0xx_HAL_Driver/Src/stm32f0xx_hal_i2c.c ****         (++) General call mode
 388:Drivers/STM32F0xx_HAL_Driver/Src/stm32f0xx_hal_i2c.c ****         (++) Nostretch mode
 389:Drivers/STM32F0xx_HAL_Driver/Src/stm32f0xx_hal_i2c.c **** 
 390:Drivers/STM32F0xx_HAL_Driver/Src/stm32f0xx_hal_i2c.c ****       (+) Call the function HAL_I2C_DeInit() to restore the default configuration
 391:Drivers/STM32F0xx_HAL_Driver/Src/stm32f0xx_hal_i2c.c ****           of the selected I2Cx peripheral.
 392:Drivers/STM32F0xx_HAL_Driver/Src/stm32f0xx_hal_i2c.c **** 
 393:Drivers/STM32F0xx_HAL_Driver/Src/stm32f0xx_hal_i2c.c **** @endverbatim
 394:Drivers/STM32F0xx_HAL_Driver/Src/stm32f0xx_hal_i2c.c ****   * @{
 395:Drivers/STM32F0xx_HAL_Driver/Src/stm32f0xx_hal_i2c.c ****   */
 396:Drivers/STM32F0xx_HAL_Driver/Src/stm32f0xx_hal_i2c.c **** 
 397:Drivers/STM32F0xx_HAL_Driver/Src/stm32f0xx_hal_i2c.c **** /**
 398:Drivers/STM32F0xx_HAL_Driver/Src/stm32f0xx_hal_i2c.c ****   * @brief  Initializes the I2C according to the specified parameters
 399:Drivers/STM32F0xx_HAL_Driver/Src/stm32f0xx_hal_i2c.c ****   *         in the I2C_InitTypeDef and initialize the associated handle.
 400:Drivers/STM32F0xx_HAL_Driver/Src/stm32f0xx_hal_i2c.c ****   * @param  hi2c Pointer to a I2C_HandleTypeDef structure that contains
 401:Drivers/STM32F0xx_HAL_Driver/Src/stm32f0xx_hal_i2c.c ****   *                the configuration information for the specified I2C.
 402:Drivers/STM32F0xx_HAL_Driver/Src/stm32f0xx_hal_i2c.c ****   * @retval HAL status
 403:Drivers/STM32F0xx_HAL_Driver/Src/stm32f0xx_hal_i2c.c ****   */
 404:Drivers/STM32F0xx_HAL_Driver/Src/stm32f0xx_hal_i2c.c **** HAL_StatusTypeDef HAL_I2C_Init(I2C_HandleTypeDef *hi2c)
 405:Drivers/STM32F0xx_HAL_Driver/Src/stm32f0xx_hal_i2c.c **** {
  27              		.loc 1 405 1
  28              		.cfi_startproc
  29              		@ args = 0, pretend = 0, frame = 8
  30              		@ frame_needed = 1, uses_anonymous_args = 0
  31 0000 80B5     		push	{r7, lr}
  32              	.LCFI0:
  33              		.cfi_def_cfa_offset 8
  34              		.cfi_offset 7, -8
  35              		.cfi_offset 14, -4
  36 0002 82B0     		sub	sp, sp, #8
  37              	.LCFI1:
  38              		.cfi_def_cfa_offset 16
  39 0004 00AF     		add	r7, sp, #0
  40              	.LCFI2:
  41              		.cfi_def_cfa_register 7
  42 0006 7860     		str	r0, [r7, #4]
 406:Drivers/STM32F0xx_HAL_Driver/Src/stm32f0xx_hal_i2c.c ****   /* Check the I2C handle allocation */
 407:Drivers/STM32F0xx_HAL_Driver/Src/stm32f0xx_hal_i2c.c ****   if (hi2c == NULL)
  43              		.loc 1 407 6
  44 0008 7B68     		ldr	r3, [r7, #4]
  45 000a 002B     		cmp	r3, #0
  46 000c 01D1     		bne	.L2
 408:Drivers/STM32F0xx_HAL_Driver/Src/stm32f0xx_hal_i2c.c ****   {
 409:Drivers/STM32F0xx_HAL_Driver/Src/stm32f0xx_hal_i2c.c ****     return HAL_ERROR;
  47              		.loc 1 409 12
  48 000e 0123     		movs	r3, #1
ARM GAS  C:\Users\ADMINI~1\AppData\Local\Temp\cc3zYV2m.s 			page 9


  49 0010 82E0     		b	.L3
  50              	.L2:
 410:Drivers/STM32F0xx_HAL_Driver/Src/stm32f0xx_hal_i2c.c ****   }
 411:Drivers/STM32F0xx_HAL_Driver/Src/stm32f0xx_hal_i2c.c **** 
 412:Drivers/STM32F0xx_HAL_Driver/Src/stm32f0xx_hal_i2c.c ****   /* Check the parameters */
 413:Drivers/STM32F0xx_HAL_Driver/Src/stm32f0xx_hal_i2c.c ****   assert_param(IS_I2C_ALL_INSTANCE(hi2c->Instance));
 414:Drivers/STM32F0xx_HAL_Driver/Src/stm32f0xx_hal_i2c.c ****   assert_param(IS_I2C_OWN_ADDRESS1(hi2c->Init.OwnAddress1));
 415:Drivers/STM32F0xx_HAL_Driver/Src/stm32f0xx_hal_i2c.c ****   assert_param(IS_I2C_ADDRESSING_MODE(hi2c->Init.AddressingMode));
 416:Drivers/STM32F0xx_HAL_Driver/Src/stm32f0xx_hal_i2c.c ****   assert_param(IS_I2C_DUAL_ADDRESS(hi2c->Init.DualAddressMode));
 417:Drivers/STM32F0xx_HAL_Driver/Src/stm32f0xx_hal_i2c.c ****   assert_param(IS_I2C_OWN_ADDRESS2(hi2c->Init.OwnAddress2));
 418:Drivers/STM32F0xx_HAL_Driver/Src/stm32f0xx_hal_i2c.c ****   assert_param(IS_I2C_OWN_ADDRESS2_MASK(hi2c->Init.OwnAddress2Masks));
 419:Drivers/STM32F0xx_HAL_Driver/Src/stm32f0xx_hal_i2c.c ****   assert_param(IS_I2C_GENERAL_CALL(hi2c->Init.GeneralCallMode));
 420:Drivers/STM32F0xx_HAL_Driver/Src/stm32f0xx_hal_i2c.c ****   assert_param(IS_I2C_NO_STRETCH(hi2c->Init.NoStretchMode));
 421:Drivers/STM32F0xx_HAL_Driver/Src/stm32f0xx_hal_i2c.c **** 
 422:Drivers/STM32F0xx_HAL_Driver/Src/stm32f0xx_hal_i2c.c ****   if (hi2c->State == HAL_I2C_STATE_RESET)
  51              		.loc 1 422 11
  52 0012 7B68     		ldr	r3, [r7, #4]
  53 0014 4122     		movs	r2, #65
  54 0016 9B5C     		ldrb	r3, [r3, r2]
  55 0018 DBB2     		uxtb	r3, r3
  56              		.loc 1 422 6
  57 001a 002B     		cmp	r3, #0
  58 001c 07D1     		bne	.L4
 423:Drivers/STM32F0xx_HAL_Driver/Src/stm32f0xx_hal_i2c.c ****   {
 424:Drivers/STM32F0xx_HAL_Driver/Src/stm32f0xx_hal_i2c.c ****     /* Allocate lock resource and initialize it */
 425:Drivers/STM32F0xx_HAL_Driver/Src/stm32f0xx_hal_i2c.c ****     hi2c->Lock = HAL_UNLOCKED;
  59              		.loc 1 425 16
  60 001e 7B68     		ldr	r3, [r7, #4]
  61 0020 4022     		movs	r2, #64
  62 0022 0021     		movs	r1, #0
  63 0024 9954     		strb	r1, [r3, r2]
 426:Drivers/STM32F0xx_HAL_Driver/Src/stm32f0xx_hal_i2c.c **** 
 427:Drivers/STM32F0xx_HAL_Driver/Src/stm32f0xx_hal_i2c.c ****     /* Init the low level hardware : GPIO, CLOCK, CORTEX...etc */
 428:Drivers/STM32F0xx_HAL_Driver/Src/stm32f0xx_hal_i2c.c ****     HAL_I2C_MspInit(hi2c);
  64              		.loc 1 428 5
  65 0026 7B68     		ldr	r3, [r7, #4]
  66 0028 1800     		movs	r0, r3
  67 002a FFF7FEFF 		bl	HAL_I2C_MspInit
  68              	.L4:
 429:Drivers/STM32F0xx_HAL_Driver/Src/stm32f0xx_hal_i2c.c ****   }
 430:Drivers/STM32F0xx_HAL_Driver/Src/stm32f0xx_hal_i2c.c **** 
 431:Drivers/STM32F0xx_HAL_Driver/Src/stm32f0xx_hal_i2c.c ****   hi2c->State = HAL_I2C_STATE_BUSY;
  69              		.loc 1 431 15
  70 002e 7B68     		ldr	r3, [r7, #4]
  71 0030 4122     		movs	r2, #65
  72 0032 2421     		movs	r1, #36
  73 0034 9954     		strb	r1, [r3, r2]
 432:Drivers/STM32F0xx_HAL_Driver/Src/stm32f0xx_hal_i2c.c **** 
 433:Drivers/STM32F0xx_HAL_Driver/Src/stm32f0xx_hal_i2c.c ****   /* Disable the selected I2C peripheral */
 434:Drivers/STM32F0xx_HAL_Driver/Src/stm32f0xx_hal_i2c.c ****   __HAL_I2C_DISABLE(hi2c);
  74              		.loc 1 434 3
  75 0036 7B68     		ldr	r3, [r7, #4]
  76 0038 1B68     		ldr	r3, [r3]
  77 003a 1A68     		ldr	r2, [r3]
  78 003c 7B68     		ldr	r3, [r7, #4]
  79 003e 1B68     		ldr	r3, [r3]
  80 0040 0121     		movs	r1, #1
ARM GAS  C:\Users\ADMINI~1\AppData\Local\Temp\cc3zYV2m.s 			page 10


  81 0042 8A43     		bics	r2, r1
  82 0044 1A60     		str	r2, [r3]
 435:Drivers/STM32F0xx_HAL_Driver/Src/stm32f0xx_hal_i2c.c **** 
 436:Drivers/STM32F0xx_HAL_Driver/Src/stm32f0xx_hal_i2c.c ****   /*---------------------------- I2Cx TIMINGR Configuration ------------------*/
 437:Drivers/STM32F0xx_HAL_Driver/Src/stm32f0xx_hal_i2c.c ****   /* Configure I2Cx: Frequency range */
 438:Drivers/STM32F0xx_HAL_Driver/Src/stm32f0xx_hal_i2c.c ****   hi2c->Instance->TIMINGR = hi2c->Init.Timing & TIMING_CLEAR_MASK;
  83              		.loc 1 438 39
  84 0046 7B68     		ldr	r3, [r7, #4]
  85 0048 5A68     		ldr	r2, [r3, #4]
  86              		.loc 1 438 7
  87 004a 7B68     		ldr	r3, [r7, #4]
  88 004c 1B68     		ldr	r3, [r3]
  89              		.loc 1 438 47
  90 004e 3449     		ldr	r1, .L8
  91 0050 0A40     		ands	r2, r1
  92              		.loc 1 438 27
  93 0052 1A61     		str	r2, [r3, #16]
 439:Drivers/STM32F0xx_HAL_Driver/Src/stm32f0xx_hal_i2c.c **** 
 440:Drivers/STM32F0xx_HAL_Driver/Src/stm32f0xx_hal_i2c.c ****   /*---------------------------- I2Cx OAR1 Configuration ---------------------*/
 441:Drivers/STM32F0xx_HAL_Driver/Src/stm32f0xx_hal_i2c.c ****   /* Disable Own Address1 before set the Own Address1 configuration */
 442:Drivers/STM32F0xx_HAL_Driver/Src/stm32f0xx_hal_i2c.c ****   hi2c->Instance->OAR1 &= ~I2C_OAR1_OA1EN;
  94              		.loc 1 442 7
  95 0054 7B68     		ldr	r3, [r7, #4]
  96 0056 1B68     		ldr	r3, [r3]
  97              		.loc 1 442 24
  98 0058 9A68     		ldr	r2, [r3, #8]
  99              		.loc 1 442 7
 100 005a 7B68     		ldr	r3, [r7, #4]
 101 005c 1B68     		ldr	r3, [r3]
 102              		.loc 1 442 24
 103 005e 3149     		ldr	r1, .L8+4
 104 0060 0A40     		ands	r2, r1
 105 0062 9A60     		str	r2, [r3, #8]
 443:Drivers/STM32F0xx_HAL_Driver/Src/stm32f0xx_hal_i2c.c **** 
 444:Drivers/STM32F0xx_HAL_Driver/Src/stm32f0xx_hal_i2c.c ****   /* Configure I2Cx: Own Address1 and ack own address1 mode */
 445:Drivers/STM32F0xx_HAL_Driver/Src/stm32f0xx_hal_i2c.c ****   if (hi2c->Init.AddressingMode == I2C_ADDRESSINGMODE_7BIT)
 106              		.loc 1 445 17
 107 0064 7B68     		ldr	r3, [r7, #4]
 108 0066 DB68     		ldr	r3, [r3, #12]
 109              		.loc 1 445 6
 110 0068 012B     		cmp	r3, #1
 111 006a 08D1     		bne	.L5
 446:Drivers/STM32F0xx_HAL_Driver/Src/stm32f0xx_hal_i2c.c ****   {
 447:Drivers/STM32F0xx_HAL_Driver/Src/stm32f0xx_hal_i2c.c ****     hi2c->Instance->OAR1 = (I2C_OAR1_OA1EN | hi2c->Init.OwnAddress1);
 112              		.loc 1 447 56
 113 006c 7B68     		ldr	r3, [r7, #4]
 114 006e 9A68     		ldr	r2, [r3, #8]
 115              		.loc 1 447 9
 116 0070 7B68     		ldr	r3, [r7, #4]
 117 0072 1B68     		ldr	r3, [r3]
 118              		.loc 1 447 44
 119 0074 8021     		movs	r1, #128
 120 0076 0902     		lsls	r1, r1, #8
 121 0078 0A43     		orrs	r2, r1
 122              		.loc 1 447 26
 123 007a 9A60     		str	r2, [r3, #8]
 124 007c 07E0     		b	.L6
ARM GAS  C:\Users\ADMINI~1\AppData\Local\Temp\cc3zYV2m.s 			page 11


 125              	.L5:
 448:Drivers/STM32F0xx_HAL_Driver/Src/stm32f0xx_hal_i2c.c ****   }
 449:Drivers/STM32F0xx_HAL_Driver/Src/stm32f0xx_hal_i2c.c ****   else /* I2C_ADDRESSINGMODE_10BIT */
 450:Drivers/STM32F0xx_HAL_Driver/Src/stm32f0xx_hal_i2c.c ****   {
 451:Drivers/STM32F0xx_HAL_Driver/Src/stm32f0xx_hal_i2c.c ****     hi2c->Instance->OAR1 = (I2C_OAR1_OA1EN | I2C_OAR1_OA1MODE | hi2c->Init.OwnAddress1);
 126              		.loc 1 451 75
 127 007e 7B68     		ldr	r3, [r7, #4]
 128 0080 9A68     		ldr	r2, [r3, #8]
 129              		.loc 1 451 9
 130 0082 7B68     		ldr	r3, [r7, #4]
 131 0084 1B68     		ldr	r3, [r3]
 132              		.loc 1 451 63
 133 0086 8421     		movs	r1, #132
 134 0088 0902     		lsls	r1, r1, #8
 135 008a 0A43     		orrs	r2, r1
 136              		.loc 1 451 26
 137 008c 9A60     		str	r2, [r3, #8]
 138              	.L6:
 452:Drivers/STM32F0xx_HAL_Driver/Src/stm32f0xx_hal_i2c.c ****   }
 453:Drivers/STM32F0xx_HAL_Driver/Src/stm32f0xx_hal_i2c.c **** 
 454:Drivers/STM32F0xx_HAL_Driver/Src/stm32f0xx_hal_i2c.c ****   /*---------------------------- I2Cx CR2 Configuration ----------------------*/
 455:Drivers/STM32F0xx_HAL_Driver/Src/stm32f0xx_hal_i2c.c ****   /* Configure I2Cx: Addressing Master mode */
 456:Drivers/STM32F0xx_HAL_Driver/Src/stm32f0xx_hal_i2c.c ****   if (hi2c->Init.AddressingMode == I2C_ADDRESSINGMODE_10BIT)
 139              		.loc 1 456 17
 140 008e 7B68     		ldr	r3, [r7, #4]
 141 0090 DB68     		ldr	r3, [r3, #12]
 142              		.loc 1 456 6
 143 0092 022B     		cmp	r3, #2
 144 0094 04D1     		bne	.L7
 457:Drivers/STM32F0xx_HAL_Driver/Src/stm32f0xx_hal_i2c.c ****   {
 458:Drivers/STM32F0xx_HAL_Driver/Src/stm32f0xx_hal_i2c.c ****     hi2c->Instance->CR2 = (I2C_CR2_ADD10);
 145              		.loc 1 458 9
 146 0096 7B68     		ldr	r3, [r7, #4]
 147 0098 1B68     		ldr	r3, [r3]
 148              		.loc 1 458 25
 149 009a 8022     		movs	r2, #128
 150 009c 1201     		lsls	r2, r2, #4
 151 009e 5A60     		str	r2, [r3, #4]
 152              	.L7:
 459:Drivers/STM32F0xx_HAL_Driver/Src/stm32f0xx_hal_i2c.c ****   }
 460:Drivers/STM32F0xx_HAL_Driver/Src/stm32f0xx_hal_i2c.c ****   /* Enable the AUTOEND by default, and enable NACK (should be disable only during Slave process */
 461:Drivers/STM32F0xx_HAL_Driver/Src/stm32f0xx_hal_i2c.c ****   hi2c->Instance->CR2 |= (I2C_CR2_AUTOEND | I2C_CR2_NACK);
 153              		.loc 1 461 7
 154 00a0 7B68     		ldr	r3, [r7, #4]
 155 00a2 1B68     		ldr	r3, [r3]
 156              		.loc 1 461 23
 157 00a4 5A68     		ldr	r2, [r3, #4]
 158              		.loc 1 461 7
 159 00a6 7B68     		ldr	r3, [r7, #4]
 160 00a8 1B68     		ldr	r3, [r3]
 161              		.loc 1 461 23
 162 00aa 1F49     		ldr	r1, .L8+8
 163 00ac 0A43     		orrs	r2, r1
 164 00ae 5A60     		str	r2, [r3, #4]
 462:Drivers/STM32F0xx_HAL_Driver/Src/stm32f0xx_hal_i2c.c **** 
 463:Drivers/STM32F0xx_HAL_Driver/Src/stm32f0xx_hal_i2c.c ****   /*---------------------------- I2Cx OAR2 Configuration ---------------------*/
 464:Drivers/STM32F0xx_HAL_Driver/Src/stm32f0xx_hal_i2c.c ****   /* Disable Own Address2 before set the Own Address2 configuration */
ARM GAS  C:\Users\ADMINI~1\AppData\Local\Temp\cc3zYV2m.s 			page 12


 465:Drivers/STM32F0xx_HAL_Driver/Src/stm32f0xx_hal_i2c.c ****   hi2c->Instance->OAR2 &= ~I2C_DUALADDRESS_ENABLE;
 165              		.loc 1 465 7
 166 00b0 7B68     		ldr	r3, [r7, #4]
 167 00b2 1B68     		ldr	r3, [r3]
 168              		.loc 1 465 24
 169 00b4 DA68     		ldr	r2, [r3, #12]
 170              		.loc 1 465 7
 171 00b6 7B68     		ldr	r3, [r7, #4]
 172 00b8 1B68     		ldr	r3, [r3]
 173              		.loc 1 465 24
 174 00ba 1A49     		ldr	r1, .L8+4
 175 00bc 0A40     		ands	r2, r1
 176 00be DA60     		str	r2, [r3, #12]
 466:Drivers/STM32F0xx_HAL_Driver/Src/stm32f0xx_hal_i2c.c **** 
 467:Drivers/STM32F0xx_HAL_Driver/Src/stm32f0xx_hal_i2c.c ****   /* Configure I2Cx: Dual mode and Own Address2 */
 468:Drivers/STM32F0xx_HAL_Driver/Src/stm32f0xx_hal_i2c.c ****   hi2c->Instance->OAR2 = (hi2c->Init.DualAddressMode | hi2c->Init.OwnAddress2 | (hi2c->Init.OwnAddr
 177              		.loc 1 468 37
 178 00c0 7B68     		ldr	r3, [r7, #4]
 179 00c2 1A69     		ldr	r2, [r3, #16]
 180              		.loc 1 468 66
 181 00c4 7B68     		ldr	r3, [r7, #4]
 182 00c6 5B69     		ldr	r3, [r3, #20]
 183              		.loc 1 468 54
 184 00c8 1A43     		orrs	r2, r3
 185 00ca 1100     		movs	r1, r2
 186              		.loc 1 468 92
 187 00cc 7B68     		ldr	r3, [r7, #4]
 188 00ce 9B69     		ldr	r3, [r3, #24]
 189              		.loc 1 468 110
 190 00d0 1A02     		lsls	r2, r3, #8
 191              		.loc 1 468 7
 192 00d2 7B68     		ldr	r3, [r7, #4]
 193 00d4 1B68     		ldr	r3, [r3]
 194              		.loc 1 468 79
 195 00d6 0A43     		orrs	r2, r1
 196              		.loc 1 468 24
 197 00d8 DA60     		str	r2, [r3, #12]
 469:Drivers/STM32F0xx_HAL_Driver/Src/stm32f0xx_hal_i2c.c **** 
 470:Drivers/STM32F0xx_HAL_Driver/Src/stm32f0xx_hal_i2c.c ****   /*---------------------------- I2Cx CR1 Configuration ----------------------*/
 471:Drivers/STM32F0xx_HAL_Driver/Src/stm32f0xx_hal_i2c.c ****   /* Configure I2Cx: Generalcall and NoStretch mode */
 472:Drivers/STM32F0xx_HAL_Driver/Src/stm32f0xx_hal_i2c.c ****   hi2c->Instance->CR1 = (hi2c->Init.GeneralCallMode | hi2c->Init.NoStretchMode);
 198              		.loc 1 472 36
 199 00da 7B68     		ldr	r3, [r7, #4]
 200 00dc D969     		ldr	r1, [r3, #28]
 201              		.loc 1 472 65
 202 00de 7B68     		ldr	r3, [r7, #4]
 203 00e0 1A6A     		ldr	r2, [r3, #32]
 204              		.loc 1 472 7
 205 00e2 7B68     		ldr	r3, [r7, #4]
 206 00e4 1B68     		ldr	r3, [r3]
 207              		.loc 1 472 53
 208 00e6 0A43     		orrs	r2, r1
 209              		.loc 1 472 23
 210 00e8 1A60     		str	r2, [r3]
 473:Drivers/STM32F0xx_HAL_Driver/Src/stm32f0xx_hal_i2c.c **** 
 474:Drivers/STM32F0xx_HAL_Driver/Src/stm32f0xx_hal_i2c.c ****   /* Enable the selected I2C peripheral */
 475:Drivers/STM32F0xx_HAL_Driver/Src/stm32f0xx_hal_i2c.c ****   __HAL_I2C_ENABLE(hi2c);
ARM GAS  C:\Users\ADMINI~1\AppData\Local\Temp\cc3zYV2m.s 			page 13


 211              		.loc 1 475 3
 212 00ea 7B68     		ldr	r3, [r7, #4]
 213 00ec 1B68     		ldr	r3, [r3]
 214 00ee 1A68     		ldr	r2, [r3]
 215 00f0 7B68     		ldr	r3, [r7, #4]
 216 00f2 1B68     		ldr	r3, [r3]
 217 00f4 0121     		movs	r1, #1
 218 00f6 0A43     		orrs	r2, r1
 219 00f8 1A60     		str	r2, [r3]
 476:Drivers/STM32F0xx_HAL_Driver/Src/stm32f0xx_hal_i2c.c **** 
 477:Drivers/STM32F0xx_HAL_Driver/Src/stm32f0xx_hal_i2c.c ****   hi2c->ErrorCode = HAL_I2C_ERROR_NONE;
 220              		.loc 1 477 19
 221 00fa 7B68     		ldr	r3, [r7, #4]
 222 00fc 0022     		movs	r2, #0
 223 00fe 5A64     		str	r2, [r3, #68]
 478:Drivers/STM32F0xx_HAL_Driver/Src/stm32f0xx_hal_i2c.c ****   hi2c->State = HAL_I2C_STATE_READY;
 224              		.loc 1 478 15
 225 0100 7B68     		ldr	r3, [r7, #4]
 226 0102 4122     		movs	r2, #65
 227 0104 2021     		movs	r1, #32
 228 0106 9954     		strb	r1, [r3, r2]
 479:Drivers/STM32F0xx_HAL_Driver/Src/stm32f0xx_hal_i2c.c ****   hi2c->PreviousState = I2C_STATE_NONE;
 229              		.loc 1 479 23
 230 0108 7B68     		ldr	r3, [r7, #4]
 231 010a 0022     		movs	r2, #0
 232 010c 1A63     		str	r2, [r3, #48]
 480:Drivers/STM32F0xx_HAL_Driver/Src/stm32f0xx_hal_i2c.c ****   hi2c->Mode = HAL_I2C_MODE_NONE;
 233              		.loc 1 480 14
 234 010e 7B68     		ldr	r3, [r7, #4]
 235 0110 4222     		movs	r2, #66
 236 0112 0021     		movs	r1, #0
 237 0114 9954     		strb	r1, [r3, r2]
 481:Drivers/STM32F0xx_HAL_Driver/Src/stm32f0xx_hal_i2c.c **** 
 482:Drivers/STM32F0xx_HAL_Driver/Src/stm32f0xx_hal_i2c.c ****   return HAL_OK;
 238              		.loc 1 482 10
 239 0116 0023     		movs	r3, #0
 240              	.L3:
 483:Drivers/STM32F0xx_HAL_Driver/Src/stm32f0xx_hal_i2c.c **** }
 241              		.loc 1 483 1
 242 0118 1800     		movs	r0, r3
 243 011a BD46     		mov	sp, r7
 244 011c 02B0     		add	sp, sp, #8
 245              		@ sp needed
 246 011e 80BD     		pop	{r7, pc}
 247              	.L9:
 248              		.align	2
 249              	.L8:
 250 0120 FFFFFFF0 		.word	-251658241
 251 0124 FF7FFFFF 		.word	-32769
 252 0128 00800002 		.word	33587200
 253              		.cfi_endproc
 254              	.LFE37:
 256              		.section	.text.HAL_I2C_DeInit,"ax",%progbits
 257              		.align	1
 258              		.global	HAL_I2C_DeInit
 259              		.syntax unified
 260              		.code	16
ARM GAS  C:\Users\ADMINI~1\AppData\Local\Temp\cc3zYV2m.s 			page 14


 261              		.thumb_func
 262              		.fpu softvfp
 264              	HAL_I2C_DeInit:
 265              	.LFB38:
 484:Drivers/STM32F0xx_HAL_Driver/Src/stm32f0xx_hal_i2c.c **** 
 485:Drivers/STM32F0xx_HAL_Driver/Src/stm32f0xx_hal_i2c.c **** /**
 486:Drivers/STM32F0xx_HAL_Driver/Src/stm32f0xx_hal_i2c.c ****   * @brief  DeInitialize the I2C peripheral.
 487:Drivers/STM32F0xx_HAL_Driver/Src/stm32f0xx_hal_i2c.c ****   * @param  hi2c Pointer to a I2C_HandleTypeDef structure that contains
 488:Drivers/STM32F0xx_HAL_Driver/Src/stm32f0xx_hal_i2c.c ****   *                the configuration information for the specified I2C.
 489:Drivers/STM32F0xx_HAL_Driver/Src/stm32f0xx_hal_i2c.c ****   * @retval HAL status
 490:Drivers/STM32F0xx_HAL_Driver/Src/stm32f0xx_hal_i2c.c ****   */
 491:Drivers/STM32F0xx_HAL_Driver/Src/stm32f0xx_hal_i2c.c **** HAL_StatusTypeDef HAL_I2C_DeInit(I2C_HandleTypeDef *hi2c)
 492:Drivers/STM32F0xx_HAL_Driver/Src/stm32f0xx_hal_i2c.c **** {
 266              		.loc 1 492 1
 267              		.cfi_startproc
 268              		@ args = 0, pretend = 0, frame = 8
 269              		@ frame_needed = 1, uses_anonymous_args = 0
 270 0000 80B5     		push	{r7, lr}
 271              	.LCFI3:
 272              		.cfi_def_cfa_offset 8
 273              		.cfi_offset 7, -8
 274              		.cfi_offset 14, -4
 275 0002 82B0     		sub	sp, sp, #8
 276              	.LCFI4:
 277              		.cfi_def_cfa_offset 16
 278 0004 00AF     		add	r7, sp, #0
 279              	.LCFI5:
 280              		.cfi_def_cfa_register 7
 281 0006 7860     		str	r0, [r7, #4]
 493:Drivers/STM32F0xx_HAL_Driver/Src/stm32f0xx_hal_i2c.c ****   /* Check the I2C handle allocation */
 494:Drivers/STM32F0xx_HAL_Driver/Src/stm32f0xx_hal_i2c.c ****   if (hi2c == NULL)
 282              		.loc 1 494 6
 283 0008 7B68     		ldr	r3, [r7, #4]
 284 000a 002B     		cmp	r3, #0
 285 000c 01D1     		bne	.L11
 495:Drivers/STM32F0xx_HAL_Driver/Src/stm32f0xx_hal_i2c.c ****   {
 496:Drivers/STM32F0xx_HAL_Driver/Src/stm32f0xx_hal_i2c.c ****     return HAL_ERROR;
 286              		.loc 1 496 12
 287 000e 0123     		movs	r3, #1
 288 0010 22E0     		b	.L12
 289              	.L11:
 497:Drivers/STM32F0xx_HAL_Driver/Src/stm32f0xx_hal_i2c.c ****   }
 498:Drivers/STM32F0xx_HAL_Driver/Src/stm32f0xx_hal_i2c.c **** 
 499:Drivers/STM32F0xx_HAL_Driver/Src/stm32f0xx_hal_i2c.c ****   /* Check the parameters */
 500:Drivers/STM32F0xx_HAL_Driver/Src/stm32f0xx_hal_i2c.c ****   assert_param(IS_I2C_ALL_INSTANCE(hi2c->Instance));
 501:Drivers/STM32F0xx_HAL_Driver/Src/stm32f0xx_hal_i2c.c **** 
 502:Drivers/STM32F0xx_HAL_Driver/Src/stm32f0xx_hal_i2c.c ****   hi2c->State = HAL_I2C_STATE_BUSY;
 290              		.loc 1 502 15
 291 0012 7B68     		ldr	r3, [r7, #4]
 292 0014 4122     		movs	r2, #65
 293 0016 2421     		movs	r1, #36
 294 0018 9954     		strb	r1, [r3, r2]
 503:Drivers/STM32F0xx_HAL_Driver/Src/stm32f0xx_hal_i2c.c **** 
 504:Drivers/STM32F0xx_HAL_Driver/Src/stm32f0xx_hal_i2c.c ****   /* Disable the I2C Peripheral Clock */
 505:Drivers/STM32F0xx_HAL_Driver/Src/stm32f0xx_hal_i2c.c ****   __HAL_I2C_DISABLE(hi2c);
 295              		.loc 1 505 3
 296 001a 7B68     		ldr	r3, [r7, #4]
ARM GAS  C:\Users\ADMINI~1\AppData\Local\Temp\cc3zYV2m.s 			page 15


 297 001c 1B68     		ldr	r3, [r3]
 298 001e 1A68     		ldr	r2, [r3]
 299 0020 7B68     		ldr	r3, [r7, #4]
 300 0022 1B68     		ldr	r3, [r3]
 301 0024 0121     		movs	r1, #1
 302 0026 8A43     		bics	r2, r1
 303 0028 1A60     		str	r2, [r3]
 506:Drivers/STM32F0xx_HAL_Driver/Src/stm32f0xx_hal_i2c.c **** 
 507:Drivers/STM32F0xx_HAL_Driver/Src/stm32f0xx_hal_i2c.c ****   /* DeInit the low level hardware: GPIO, CLOCK, NVIC */
 508:Drivers/STM32F0xx_HAL_Driver/Src/stm32f0xx_hal_i2c.c ****   HAL_I2C_MspDeInit(hi2c);
 304              		.loc 1 508 3
 305 002a 7B68     		ldr	r3, [r7, #4]
 306 002c 1800     		movs	r0, r3
 307 002e FFF7FEFF 		bl	HAL_I2C_MspDeInit
 509:Drivers/STM32F0xx_HAL_Driver/Src/stm32f0xx_hal_i2c.c **** 
 510:Drivers/STM32F0xx_HAL_Driver/Src/stm32f0xx_hal_i2c.c ****   hi2c->ErrorCode = HAL_I2C_ERROR_NONE;
 308              		.loc 1 510 19
 309 0032 7B68     		ldr	r3, [r7, #4]
 310 0034 0022     		movs	r2, #0
 311 0036 5A64     		str	r2, [r3, #68]
 511:Drivers/STM32F0xx_HAL_Driver/Src/stm32f0xx_hal_i2c.c ****   hi2c->State = HAL_I2C_STATE_RESET;
 312              		.loc 1 511 15
 313 0038 7B68     		ldr	r3, [r7, #4]
 314 003a 4122     		movs	r2, #65
 315 003c 0021     		movs	r1, #0
 316 003e 9954     		strb	r1, [r3, r2]
 512:Drivers/STM32F0xx_HAL_Driver/Src/stm32f0xx_hal_i2c.c ****   hi2c->PreviousState = I2C_STATE_NONE;
 317              		.loc 1 512 23
 318 0040 7B68     		ldr	r3, [r7, #4]
 319 0042 0022     		movs	r2, #0
 320 0044 1A63     		str	r2, [r3, #48]
 513:Drivers/STM32F0xx_HAL_Driver/Src/stm32f0xx_hal_i2c.c ****   hi2c->Mode = HAL_I2C_MODE_NONE;
 321              		.loc 1 513 14
 322 0046 7B68     		ldr	r3, [r7, #4]
 323 0048 4222     		movs	r2, #66
 324 004a 0021     		movs	r1, #0
 325 004c 9954     		strb	r1, [r3, r2]
 514:Drivers/STM32F0xx_HAL_Driver/Src/stm32f0xx_hal_i2c.c **** 
 515:Drivers/STM32F0xx_HAL_Driver/Src/stm32f0xx_hal_i2c.c ****   /* Release Lock */
 516:Drivers/STM32F0xx_HAL_Driver/Src/stm32f0xx_hal_i2c.c ****   __HAL_UNLOCK(hi2c);
 326              		.loc 1 516 3
 327 004e 7B68     		ldr	r3, [r7, #4]
 328 0050 4022     		movs	r2, #64
 329 0052 0021     		movs	r1, #0
 330 0054 9954     		strb	r1, [r3, r2]
 517:Drivers/STM32F0xx_HAL_Driver/Src/stm32f0xx_hal_i2c.c **** 
 518:Drivers/STM32F0xx_HAL_Driver/Src/stm32f0xx_hal_i2c.c ****   return HAL_OK;
 331              		.loc 1 518 10
 332 0056 0023     		movs	r3, #0
 333              	.L12:
 519:Drivers/STM32F0xx_HAL_Driver/Src/stm32f0xx_hal_i2c.c **** }
 334              		.loc 1 519 1
 335 0058 1800     		movs	r0, r3
 336 005a BD46     		mov	sp, r7
 337 005c 02B0     		add	sp, sp, #8
 338              		@ sp needed
 339 005e 80BD     		pop	{r7, pc}
ARM GAS  C:\Users\ADMINI~1\AppData\Local\Temp\cc3zYV2m.s 			page 16


 340              		.cfi_endproc
 341              	.LFE38:
 343              		.section	.text.HAL_I2C_MspInit,"ax",%progbits
 344              		.align	1
 345              		.weak	HAL_I2C_MspInit
 346              		.syntax unified
 347              		.code	16
 348              		.thumb_func
 349              		.fpu softvfp
 351              	HAL_I2C_MspInit:
 352              	.LFB39:
 520:Drivers/STM32F0xx_HAL_Driver/Src/stm32f0xx_hal_i2c.c **** 
 521:Drivers/STM32F0xx_HAL_Driver/Src/stm32f0xx_hal_i2c.c **** /**
 522:Drivers/STM32F0xx_HAL_Driver/Src/stm32f0xx_hal_i2c.c ****   * @brief Initialize the I2C MSP.
 523:Drivers/STM32F0xx_HAL_Driver/Src/stm32f0xx_hal_i2c.c ****   * @param  hi2c Pointer to a I2C_HandleTypeDef structure that contains
 524:Drivers/STM32F0xx_HAL_Driver/Src/stm32f0xx_hal_i2c.c ****   *                the configuration information for the specified I2C.
 525:Drivers/STM32F0xx_HAL_Driver/Src/stm32f0xx_hal_i2c.c ****   * @retval None
 526:Drivers/STM32F0xx_HAL_Driver/Src/stm32f0xx_hal_i2c.c ****   */
 527:Drivers/STM32F0xx_HAL_Driver/Src/stm32f0xx_hal_i2c.c **** __weak void HAL_I2C_MspInit(I2C_HandleTypeDef *hi2c)
 528:Drivers/STM32F0xx_HAL_Driver/Src/stm32f0xx_hal_i2c.c **** {
 353              		.loc 1 528 1
 354              		.cfi_startproc
 355              		@ args = 0, pretend = 0, frame = 8
 356              		@ frame_needed = 1, uses_anonymous_args = 0
 357 0000 80B5     		push	{r7, lr}
 358              	.LCFI6:
 359              		.cfi_def_cfa_offset 8
 360              		.cfi_offset 7, -8
 361              		.cfi_offset 14, -4
 362 0002 82B0     		sub	sp, sp, #8
 363              	.LCFI7:
 364              		.cfi_def_cfa_offset 16
 365 0004 00AF     		add	r7, sp, #0
 366              	.LCFI8:
 367              		.cfi_def_cfa_register 7
 368 0006 7860     		str	r0, [r7, #4]
 529:Drivers/STM32F0xx_HAL_Driver/Src/stm32f0xx_hal_i2c.c ****   /* Prevent unused argument(s) compilation warning */
 530:Drivers/STM32F0xx_HAL_Driver/Src/stm32f0xx_hal_i2c.c ****   UNUSED(hi2c);
 531:Drivers/STM32F0xx_HAL_Driver/Src/stm32f0xx_hal_i2c.c **** 
 532:Drivers/STM32F0xx_HAL_Driver/Src/stm32f0xx_hal_i2c.c ****   /* NOTE : This function should not be modified, when the callback is needed,
 533:Drivers/STM32F0xx_HAL_Driver/Src/stm32f0xx_hal_i2c.c ****             the HAL_I2C_MspInit could be implemented in the user file
 534:Drivers/STM32F0xx_HAL_Driver/Src/stm32f0xx_hal_i2c.c ****    */
 535:Drivers/STM32F0xx_HAL_Driver/Src/stm32f0xx_hal_i2c.c **** }
 369              		.loc 1 535 1
 370 0008 C046     		nop
 371 000a BD46     		mov	sp, r7
 372 000c 02B0     		add	sp, sp, #8
 373              		@ sp needed
 374 000e 80BD     		pop	{r7, pc}
 375              		.cfi_endproc
 376              	.LFE39:
 378              		.section	.text.HAL_I2C_MspDeInit,"ax",%progbits
 379              		.align	1
 380              		.weak	HAL_I2C_MspDeInit
 381              		.syntax unified
 382              		.code	16
 383              		.thumb_func
ARM GAS  C:\Users\ADMINI~1\AppData\Local\Temp\cc3zYV2m.s 			page 17


 384              		.fpu softvfp
 386              	HAL_I2C_MspDeInit:
 387              	.LFB40:
 536:Drivers/STM32F0xx_HAL_Driver/Src/stm32f0xx_hal_i2c.c **** 
 537:Drivers/STM32F0xx_HAL_Driver/Src/stm32f0xx_hal_i2c.c **** /**
 538:Drivers/STM32F0xx_HAL_Driver/Src/stm32f0xx_hal_i2c.c ****   * @brief DeInitialize the I2C MSP.
 539:Drivers/STM32F0xx_HAL_Driver/Src/stm32f0xx_hal_i2c.c ****   * @param  hi2c Pointer to a I2C_HandleTypeDef structure that contains
 540:Drivers/STM32F0xx_HAL_Driver/Src/stm32f0xx_hal_i2c.c ****   *                the configuration information for the specified I2C.
 541:Drivers/STM32F0xx_HAL_Driver/Src/stm32f0xx_hal_i2c.c ****   * @retval None
 542:Drivers/STM32F0xx_HAL_Driver/Src/stm32f0xx_hal_i2c.c ****   */
 543:Drivers/STM32F0xx_HAL_Driver/Src/stm32f0xx_hal_i2c.c **** __weak void HAL_I2C_MspDeInit(I2C_HandleTypeDef *hi2c)
 544:Drivers/STM32F0xx_HAL_Driver/Src/stm32f0xx_hal_i2c.c **** {
 388              		.loc 1 544 1
 389              		.cfi_startproc
 390              		@ args = 0, pretend = 0, frame = 8
 391              		@ frame_needed = 1, uses_anonymous_args = 0
 392 0000 80B5     		push	{r7, lr}
 393              	.LCFI9:
 394              		.cfi_def_cfa_offset 8
 395              		.cfi_offset 7, -8
 396              		.cfi_offset 14, -4
 397 0002 82B0     		sub	sp, sp, #8
 398              	.LCFI10:
 399              		.cfi_def_cfa_offset 16
 400 0004 00AF     		add	r7, sp, #0
 401              	.LCFI11:
 402              		.cfi_def_cfa_register 7
 403 0006 7860     		str	r0, [r7, #4]
 545:Drivers/STM32F0xx_HAL_Driver/Src/stm32f0xx_hal_i2c.c ****   /* Prevent unused argument(s) compilation warning */
 546:Drivers/STM32F0xx_HAL_Driver/Src/stm32f0xx_hal_i2c.c ****   UNUSED(hi2c);
 547:Drivers/STM32F0xx_HAL_Driver/Src/stm32f0xx_hal_i2c.c **** 
 548:Drivers/STM32F0xx_HAL_Driver/Src/stm32f0xx_hal_i2c.c ****   /* NOTE : This function should not be modified, when the callback is needed,
 549:Drivers/STM32F0xx_HAL_Driver/Src/stm32f0xx_hal_i2c.c ****             the HAL_I2C_MspDeInit could be implemented in the user file
 550:Drivers/STM32F0xx_HAL_Driver/Src/stm32f0xx_hal_i2c.c ****    */
 551:Drivers/STM32F0xx_HAL_Driver/Src/stm32f0xx_hal_i2c.c **** }
 404              		.loc 1 551 1
 405 0008 C046     		nop
 406 000a BD46     		mov	sp, r7
 407 000c 02B0     		add	sp, sp, #8
 408              		@ sp needed
 409 000e 80BD     		pop	{r7, pc}
 410              		.cfi_endproc
 411              	.LFE40:
 413              		.section	.text.HAL_I2C_Master_Transmit,"ax",%progbits
 414              		.align	1
 415              		.global	HAL_I2C_Master_Transmit
 416              		.syntax unified
 417              		.code	16
 418              		.thumb_func
 419              		.fpu softvfp
 421              	HAL_I2C_Master_Transmit:
 422              	.LFB41:
 552:Drivers/STM32F0xx_HAL_Driver/Src/stm32f0xx_hal_i2c.c **** 
 553:Drivers/STM32F0xx_HAL_Driver/Src/stm32f0xx_hal_i2c.c **** /**
 554:Drivers/STM32F0xx_HAL_Driver/Src/stm32f0xx_hal_i2c.c ****   * @}
 555:Drivers/STM32F0xx_HAL_Driver/Src/stm32f0xx_hal_i2c.c ****   */
 556:Drivers/STM32F0xx_HAL_Driver/Src/stm32f0xx_hal_i2c.c **** 
ARM GAS  C:\Users\ADMINI~1\AppData\Local\Temp\cc3zYV2m.s 			page 18


 557:Drivers/STM32F0xx_HAL_Driver/Src/stm32f0xx_hal_i2c.c **** /** @defgroup I2C_Exported_Functions_Group2 Input and Output operation functions
 558:Drivers/STM32F0xx_HAL_Driver/Src/stm32f0xx_hal_i2c.c ****  *  @brief   Data transfers functions
 559:Drivers/STM32F0xx_HAL_Driver/Src/stm32f0xx_hal_i2c.c ****  *
 560:Drivers/STM32F0xx_HAL_Driver/Src/stm32f0xx_hal_i2c.c **** @verbatim
 561:Drivers/STM32F0xx_HAL_Driver/Src/stm32f0xx_hal_i2c.c ****  ===============================================================================
 562:Drivers/STM32F0xx_HAL_Driver/Src/stm32f0xx_hal_i2c.c ****                       ##### IO operation functions #####
 563:Drivers/STM32F0xx_HAL_Driver/Src/stm32f0xx_hal_i2c.c ****  ===============================================================================
 564:Drivers/STM32F0xx_HAL_Driver/Src/stm32f0xx_hal_i2c.c ****     [..]
 565:Drivers/STM32F0xx_HAL_Driver/Src/stm32f0xx_hal_i2c.c ****     This subsection provides a set of functions allowing to manage the I2C data
 566:Drivers/STM32F0xx_HAL_Driver/Src/stm32f0xx_hal_i2c.c ****     transfers.
 567:Drivers/STM32F0xx_HAL_Driver/Src/stm32f0xx_hal_i2c.c **** 
 568:Drivers/STM32F0xx_HAL_Driver/Src/stm32f0xx_hal_i2c.c ****     (#) There are two modes of transfer:
 569:Drivers/STM32F0xx_HAL_Driver/Src/stm32f0xx_hal_i2c.c ****        (++) Blocking mode : The communication is performed in the polling mode.
 570:Drivers/STM32F0xx_HAL_Driver/Src/stm32f0xx_hal_i2c.c ****             The status of all data processing is returned by the same function
 571:Drivers/STM32F0xx_HAL_Driver/Src/stm32f0xx_hal_i2c.c ****             after finishing transfer.
 572:Drivers/STM32F0xx_HAL_Driver/Src/stm32f0xx_hal_i2c.c ****        (++) No-Blocking mode : The communication is performed using Interrupts
 573:Drivers/STM32F0xx_HAL_Driver/Src/stm32f0xx_hal_i2c.c ****             or DMA. These functions return the status of the transfer startup.
 574:Drivers/STM32F0xx_HAL_Driver/Src/stm32f0xx_hal_i2c.c ****             The end of the data processing will be indicated through the
 575:Drivers/STM32F0xx_HAL_Driver/Src/stm32f0xx_hal_i2c.c ****             dedicated I2C IRQ when using Interrupt mode or the DMA IRQ when
 576:Drivers/STM32F0xx_HAL_Driver/Src/stm32f0xx_hal_i2c.c ****             using DMA mode.
 577:Drivers/STM32F0xx_HAL_Driver/Src/stm32f0xx_hal_i2c.c **** 
 578:Drivers/STM32F0xx_HAL_Driver/Src/stm32f0xx_hal_i2c.c ****     (#) Blocking mode functions are :
 579:Drivers/STM32F0xx_HAL_Driver/Src/stm32f0xx_hal_i2c.c ****         (++) HAL_I2C_Master_Transmit()
 580:Drivers/STM32F0xx_HAL_Driver/Src/stm32f0xx_hal_i2c.c ****         (++) HAL_I2C_Master_Receive()
 581:Drivers/STM32F0xx_HAL_Driver/Src/stm32f0xx_hal_i2c.c ****         (++) HAL_I2C_Slave_Transmit()
 582:Drivers/STM32F0xx_HAL_Driver/Src/stm32f0xx_hal_i2c.c ****         (++) HAL_I2C_Slave_Receive()
 583:Drivers/STM32F0xx_HAL_Driver/Src/stm32f0xx_hal_i2c.c ****         (++) HAL_I2C_Mem_Write()
 584:Drivers/STM32F0xx_HAL_Driver/Src/stm32f0xx_hal_i2c.c ****         (++) HAL_I2C_Mem_Read()
 585:Drivers/STM32F0xx_HAL_Driver/Src/stm32f0xx_hal_i2c.c ****         (++) HAL_I2C_IsDeviceReady()
 586:Drivers/STM32F0xx_HAL_Driver/Src/stm32f0xx_hal_i2c.c **** 
 587:Drivers/STM32F0xx_HAL_Driver/Src/stm32f0xx_hal_i2c.c ****     (#) No-Blocking mode functions with Interrupt are :
 588:Drivers/STM32F0xx_HAL_Driver/Src/stm32f0xx_hal_i2c.c ****         (++) HAL_I2C_Master_Transmit_IT()
 589:Drivers/STM32F0xx_HAL_Driver/Src/stm32f0xx_hal_i2c.c ****         (++) HAL_I2C_Master_Receive_IT()
 590:Drivers/STM32F0xx_HAL_Driver/Src/stm32f0xx_hal_i2c.c ****         (++) HAL_I2C_Slave_Transmit_IT()
 591:Drivers/STM32F0xx_HAL_Driver/Src/stm32f0xx_hal_i2c.c ****         (++) HAL_I2C_Slave_Receive_IT()
 592:Drivers/STM32F0xx_HAL_Driver/Src/stm32f0xx_hal_i2c.c ****         (++) HAL_I2C_Mem_Write_IT()
 593:Drivers/STM32F0xx_HAL_Driver/Src/stm32f0xx_hal_i2c.c ****         (++) HAL_I2C_Mem_Read_IT()
 594:Drivers/STM32F0xx_HAL_Driver/Src/stm32f0xx_hal_i2c.c **** 
 595:Drivers/STM32F0xx_HAL_Driver/Src/stm32f0xx_hal_i2c.c ****     (#) No-Blocking mode functions with DMA are :
 596:Drivers/STM32F0xx_HAL_Driver/Src/stm32f0xx_hal_i2c.c ****         (++) HAL_I2C_Master_Transmit_DMA()
 597:Drivers/STM32F0xx_HAL_Driver/Src/stm32f0xx_hal_i2c.c ****         (++) HAL_I2C_Master_Receive_DMA()
 598:Drivers/STM32F0xx_HAL_Driver/Src/stm32f0xx_hal_i2c.c ****         (++) HAL_I2C_Slave_Transmit_DMA()
 599:Drivers/STM32F0xx_HAL_Driver/Src/stm32f0xx_hal_i2c.c ****         (++) HAL_I2C_Slave_Receive_DMA()
 600:Drivers/STM32F0xx_HAL_Driver/Src/stm32f0xx_hal_i2c.c ****         (++) HAL_I2C_Mem_Write_DMA()
 601:Drivers/STM32F0xx_HAL_Driver/Src/stm32f0xx_hal_i2c.c ****         (++) HAL_I2C_Mem_Read_DMA()
 602:Drivers/STM32F0xx_HAL_Driver/Src/stm32f0xx_hal_i2c.c **** 
 603:Drivers/STM32F0xx_HAL_Driver/Src/stm32f0xx_hal_i2c.c ****     (#) A set of Transfer Complete Callbacks are provided in non Blocking mode:
 604:Drivers/STM32F0xx_HAL_Driver/Src/stm32f0xx_hal_i2c.c ****         (++) HAL_I2C_MemTxCpltCallback()
 605:Drivers/STM32F0xx_HAL_Driver/Src/stm32f0xx_hal_i2c.c ****         (++) HAL_I2C_MemRxCpltCallback()
 606:Drivers/STM32F0xx_HAL_Driver/Src/stm32f0xx_hal_i2c.c ****         (++) HAL_I2C_MasterTxCpltCallback()
 607:Drivers/STM32F0xx_HAL_Driver/Src/stm32f0xx_hal_i2c.c ****         (++) HAL_I2C_MasterRxCpltCallback()
 608:Drivers/STM32F0xx_HAL_Driver/Src/stm32f0xx_hal_i2c.c ****         (++) HAL_I2C_SlaveTxCpltCallback()
 609:Drivers/STM32F0xx_HAL_Driver/Src/stm32f0xx_hal_i2c.c ****         (++) HAL_I2C_SlaveRxCpltCallback()
 610:Drivers/STM32F0xx_HAL_Driver/Src/stm32f0xx_hal_i2c.c ****         (++) HAL_I2C_ErrorCallback()
 611:Drivers/STM32F0xx_HAL_Driver/Src/stm32f0xx_hal_i2c.c **** 
 612:Drivers/STM32F0xx_HAL_Driver/Src/stm32f0xx_hal_i2c.c **** @endverbatim
 613:Drivers/STM32F0xx_HAL_Driver/Src/stm32f0xx_hal_i2c.c ****   * @{
ARM GAS  C:\Users\ADMINI~1\AppData\Local\Temp\cc3zYV2m.s 			page 19


 614:Drivers/STM32F0xx_HAL_Driver/Src/stm32f0xx_hal_i2c.c ****   */
 615:Drivers/STM32F0xx_HAL_Driver/Src/stm32f0xx_hal_i2c.c **** 
 616:Drivers/STM32F0xx_HAL_Driver/Src/stm32f0xx_hal_i2c.c **** /**
 617:Drivers/STM32F0xx_HAL_Driver/Src/stm32f0xx_hal_i2c.c ****   * @brief  Transmits in master mode an amount of data in blocking mode.
 618:Drivers/STM32F0xx_HAL_Driver/Src/stm32f0xx_hal_i2c.c ****   * @param  hi2c Pointer to a I2C_HandleTypeDef structure that contains
 619:Drivers/STM32F0xx_HAL_Driver/Src/stm32f0xx_hal_i2c.c ****   *                the configuration information for the specified I2C.
 620:Drivers/STM32F0xx_HAL_Driver/Src/stm32f0xx_hal_i2c.c ****   * @param  DevAddress Target device address: The device 7 bits address value
 621:Drivers/STM32F0xx_HAL_Driver/Src/stm32f0xx_hal_i2c.c ****   *         in datasheet must be shift at right before call interface
 622:Drivers/STM32F0xx_HAL_Driver/Src/stm32f0xx_hal_i2c.c ****   * @param  pData Pointer to data buffer
 623:Drivers/STM32F0xx_HAL_Driver/Src/stm32f0xx_hal_i2c.c ****   * @param  Size Amount of data to be sent
 624:Drivers/STM32F0xx_HAL_Driver/Src/stm32f0xx_hal_i2c.c ****   * @param  Timeout Timeout duration
 625:Drivers/STM32F0xx_HAL_Driver/Src/stm32f0xx_hal_i2c.c ****   * @retval HAL status
 626:Drivers/STM32F0xx_HAL_Driver/Src/stm32f0xx_hal_i2c.c ****   */
 627:Drivers/STM32F0xx_HAL_Driver/Src/stm32f0xx_hal_i2c.c **** HAL_StatusTypeDef HAL_I2C_Master_Transmit(I2C_HandleTypeDef *hi2c, uint16_t DevAddress, uint8_t *pD
 628:Drivers/STM32F0xx_HAL_Driver/Src/stm32f0xx_hal_i2c.c **** {
 423              		.loc 1 628 1
 424              		.cfi_startproc
 425              		@ args = 4, pretend = 0, frame = 24
 426              		@ frame_needed = 1, uses_anonymous_args = 0
 427 0000 90B5     		push	{r4, r7, lr}
 428              	.LCFI12:
 429              		.cfi_def_cfa_offset 12
 430              		.cfi_offset 4, -12
 431              		.cfi_offset 7, -8
 432              		.cfi_offset 14, -4
 433 0002 89B0     		sub	sp, sp, #36
 434              	.LCFI13:
 435              		.cfi_def_cfa_offset 48
 436 0004 02AF     		add	r7, sp, #8
 437              	.LCFI14:
 438              		.cfi_def_cfa 7, 40
 439 0006 F860     		str	r0, [r7, #12]
 440 0008 0800     		movs	r0, r1
 441 000a 7A60     		str	r2, [r7, #4]
 442 000c 1900     		movs	r1, r3
 443 000e 0A23     		movs	r3, #10
 444 0010 FB18     		adds	r3, r7, r3
 445 0012 021C     		adds	r2, r0, #0
 446 0014 1A80     		strh	r2, [r3]
 447 0016 0823     		movs	r3, #8
 448 0018 FB18     		adds	r3, r7, r3
 449 001a 0A1C     		adds	r2, r1, #0
 450 001c 1A80     		strh	r2, [r3]
 629:Drivers/STM32F0xx_HAL_Driver/Src/stm32f0xx_hal_i2c.c ****   uint32_t tickstart = 0U;
 451              		.loc 1 629 12
 452 001e 0023     		movs	r3, #0
 453 0020 7B61     		str	r3, [r7, #20]
 630:Drivers/STM32F0xx_HAL_Driver/Src/stm32f0xx_hal_i2c.c **** 
 631:Drivers/STM32F0xx_HAL_Driver/Src/stm32f0xx_hal_i2c.c ****   if (hi2c->State == HAL_I2C_STATE_READY)
 454              		.loc 1 631 11
 455 0022 FB68     		ldr	r3, [r7, #12]
 456 0024 4122     		movs	r2, #65
 457 0026 9B5C     		ldrb	r3, [r3, r2]
 458 0028 DBB2     		uxtb	r3, r3
 459              		.loc 1 631 6
 460 002a 202B     		cmp	r3, #32
 461 002c 00D0     		beq	.LCB344
ARM GAS  C:\Users\ADMINI~1\AppData\Local\Temp\cc3zYV2m.s 			page 20


 462 002e F3E0     		b	.L16	@long jump
 463              	.LCB344:
 632:Drivers/STM32F0xx_HAL_Driver/Src/stm32f0xx_hal_i2c.c ****   {
 633:Drivers/STM32F0xx_HAL_Driver/Src/stm32f0xx_hal_i2c.c ****     /* Process Locked */
 634:Drivers/STM32F0xx_HAL_Driver/Src/stm32f0xx_hal_i2c.c ****     __HAL_LOCK(hi2c);
 464              		.loc 1 634 5
 465 0030 FB68     		ldr	r3, [r7, #12]
 466 0032 4022     		movs	r2, #64
 467 0034 9B5C     		ldrb	r3, [r3, r2]
 468 0036 012B     		cmp	r3, #1
 469 0038 01D1     		bne	.L17
 470              		.loc 1 634 5 is_stmt 0 discriminator 1
 471 003a 0223     		movs	r3, #2
 472 003c EDE0     		b	.L18
 473              	.L17:
 474              		.loc 1 634 5 discriminator 2
 475 003e FB68     		ldr	r3, [r7, #12]
 476 0040 4022     		movs	r2, #64
 477 0042 0121     		movs	r1, #1
 478 0044 9954     		strb	r1, [r3, r2]
 635:Drivers/STM32F0xx_HAL_Driver/Src/stm32f0xx_hal_i2c.c **** 
 636:Drivers/STM32F0xx_HAL_Driver/Src/stm32f0xx_hal_i2c.c ****     /* Init tickstart for timeout management*/
 637:Drivers/STM32F0xx_HAL_Driver/Src/stm32f0xx_hal_i2c.c ****     tickstart = HAL_GetTick();
 479              		.loc 1 637 17 is_stmt 1 discriminator 2
 480 0046 FFF7FEFF 		bl	HAL_GetTick
 481 004a 0300     		movs	r3, r0
 482 004c 7B61     		str	r3, [r7, #20]
 638:Drivers/STM32F0xx_HAL_Driver/Src/stm32f0xx_hal_i2c.c **** 
 639:Drivers/STM32F0xx_HAL_Driver/Src/stm32f0xx_hal_i2c.c ****     if (I2C_WaitOnFlagUntilTimeout(hi2c, I2C_FLAG_BUSY, SET, I2C_TIMEOUT_BUSY, tickstart) != HAL_OK
 483              		.loc 1 639 9 discriminator 2
 484 004e 8023     		movs	r3, #128
 485 0050 1902     		lsls	r1, r3, #8
 486 0052 F868     		ldr	r0, [r7, #12]
 487 0054 7B69     		ldr	r3, [r7, #20]
 488 0056 0093     		str	r3, [sp]
 489 0058 1923     		movs	r3, #25
 490 005a 0122     		movs	r2, #1
 491 005c FFF7FEFF 		bl	I2C_WaitOnFlagUntilTimeout
 492 0060 031E     		subs	r3, r0, #0
 493              		.loc 1 639 8 discriminator 2
 494 0062 01D0     		beq	.L19
 640:Drivers/STM32F0xx_HAL_Driver/Src/stm32f0xx_hal_i2c.c ****     {
 641:Drivers/STM32F0xx_HAL_Driver/Src/stm32f0xx_hal_i2c.c ****       return HAL_TIMEOUT;
 495              		.loc 1 641 14
 496 0064 0323     		movs	r3, #3
 497 0066 D8E0     		b	.L18
 498              	.L19:
 642:Drivers/STM32F0xx_HAL_Driver/Src/stm32f0xx_hal_i2c.c ****     }
 643:Drivers/STM32F0xx_HAL_Driver/Src/stm32f0xx_hal_i2c.c **** 
 644:Drivers/STM32F0xx_HAL_Driver/Src/stm32f0xx_hal_i2c.c ****     hi2c->State     = HAL_I2C_STATE_BUSY_TX;
 499              		.loc 1 644 21
 500 0068 FB68     		ldr	r3, [r7, #12]
 501 006a 4122     		movs	r2, #65
 502 006c 2121     		movs	r1, #33
 503 006e 9954     		strb	r1, [r3, r2]
 645:Drivers/STM32F0xx_HAL_Driver/Src/stm32f0xx_hal_i2c.c ****     hi2c->Mode      = HAL_I2C_MODE_MASTER;
 504              		.loc 1 645 21
ARM GAS  C:\Users\ADMINI~1\AppData\Local\Temp\cc3zYV2m.s 			page 21


 505 0070 FB68     		ldr	r3, [r7, #12]
 506 0072 4222     		movs	r2, #66
 507 0074 1021     		movs	r1, #16
 508 0076 9954     		strb	r1, [r3, r2]
 646:Drivers/STM32F0xx_HAL_Driver/Src/stm32f0xx_hal_i2c.c ****     hi2c->ErrorCode = HAL_I2C_ERROR_NONE;
 509              		.loc 1 646 21
 510 0078 FB68     		ldr	r3, [r7, #12]
 511 007a 0022     		movs	r2, #0
 512 007c 5A64     		str	r2, [r3, #68]
 647:Drivers/STM32F0xx_HAL_Driver/Src/stm32f0xx_hal_i2c.c **** 
 648:Drivers/STM32F0xx_HAL_Driver/Src/stm32f0xx_hal_i2c.c ****     /* Prepare transfer parameters */
 649:Drivers/STM32F0xx_HAL_Driver/Src/stm32f0xx_hal_i2c.c ****     hi2c->pBuffPtr  = pData;
 513              		.loc 1 649 21
 514 007e FB68     		ldr	r3, [r7, #12]
 515 0080 7A68     		ldr	r2, [r7, #4]
 516 0082 5A62     		str	r2, [r3, #36]
 650:Drivers/STM32F0xx_HAL_Driver/Src/stm32f0xx_hal_i2c.c ****     hi2c->XferCount = Size;
 517              		.loc 1 650 21
 518 0084 FB68     		ldr	r3, [r7, #12]
 519 0086 0822     		movs	r2, #8
 520 0088 BA18     		adds	r2, r7, r2
 521 008a 1288     		ldrh	r2, [r2]
 522 008c 5A85     		strh	r2, [r3, #42]
 651:Drivers/STM32F0xx_HAL_Driver/Src/stm32f0xx_hal_i2c.c ****     hi2c->XferISR   = NULL;
 523              		.loc 1 651 21
 524 008e FB68     		ldr	r3, [r7, #12]
 525 0090 0022     		movs	r2, #0
 526 0092 5A63     		str	r2, [r3, #52]
 652:Drivers/STM32F0xx_HAL_Driver/Src/stm32f0xx_hal_i2c.c **** 
 653:Drivers/STM32F0xx_HAL_Driver/Src/stm32f0xx_hal_i2c.c ****     /* Send Slave Address */
 654:Drivers/STM32F0xx_HAL_Driver/Src/stm32f0xx_hal_i2c.c ****     /* Set NBYTES to write and reload if hi2c->XferCount > MAX_NBYTE_SIZE and generate RESTART */
 655:Drivers/STM32F0xx_HAL_Driver/Src/stm32f0xx_hal_i2c.c ****     if (hi2c->XferCount > MAX_NBYTE_SIZE)
 527              		.loc 1 655 13
 528 0094 FB68     		ldr	r3, [r7, #12]
 529 0096 5B8D     		ldrh	r3, [r3, #42]
 530 0098 9BB2     		uxth	r3, r3
 531              		.loc 1 655 8
 532 009a FF2B     		cmp	r3, #255
 533 009c 12D9     		bls	.L20
 656:Drivers/STM32F0xx_HAL_Driver/Src/stm32f0xx_hal_i2c.c ****     {
 657:Drivers/STM32F0xx_HAL_Driver/Src/stm32f0xx_hal_i2c.c ****       hi2c->XferSize = MAX_NBYTE_SIZE;
 534              		.loc 1 657 22
 535 009e FB68     		ldr	r3, [r7, #12]
 536 00a0 FF22     		movs	r2, #255
 537 00a2 1A85     		strh	r2, [r3, #40]
 658:Drivers/STM32F0xx_HAL_Driver/Src/stm32f0xx_hal_i2c.c ****       I2C_TransferConfig(hi2c, DevAddress, hi2c->XferSize, I2C_RELOAD_MODE, I2C_GENERATE_START_WRIT
 538              		.loc 1 658 48
 539 00a4 FB68     		ldr	r3, [r7, #12]
 540 00a6 1B8D     		ldrh	r3, [r3, #40]
 541              		.loc 1 658 7
 542 00a8 DAB2     		uxtb	r2, r3
 543 00aa 8023     		movs	r3, #128
 544 00ac 5C04     		lsls	r4, r3, #17
 545 00ae 0A23     		movs	r3, #10
 546 00b0 FB18     		adds	r3, r7, r3
 547 00b2 1988     		ldrh	r1, [r3]
 548 00b4 F868     		ldr	r0, [r7, #12]
ARM GAS  C:\Users\ADMINI~1\AppData\Local\Temp\cc3zYV2m.s 			page 22


 549 00b6 8023     		movs	r3, #128
 550 00b8 9B01     		lsls	r3, r3, #6
 551 00ba 0093     		str	r3, [sp]
 552 00bc 2300     		movs	r3, r4
 553 00be FFF7FEFF 		bl	I2C_TransferConfig
 554 00c2 7AE0     		b	.L22
 555              	.L20:
 659:Drivers/STM32F0xx_HAL_Driver/Src/stm32f0xx_hal_i2c.c ****     }
 660:Drivers/STM32F0xx_HAL_Driver/Src/stm32f0xx_hal_i2c.c ****     else
 661:Drivers/STM32F0xx_HAL_Driver/Src/stm32f0xx_hal_i2c.c ****     {
 662:Drivers/STM32F0xx_HAL_Driver/Src/stm32f0xx_hal_i2c.c ****       hi2c->XferSize = hi2c->XferCount;
 556              		.loc 1 662 28
 557 00c4 FB68     		ldr	r3, [r7, #12]
 558 00c6 5B8D     		ldrh	r3, [r3, #42]
 559 00c8 9AB2     		uxth	r2, r3
 560              		.loc 1 662 22
 561 00ca FB68     		ldr	r3, [r7, #12]
 562 00cc 1A85     		strh	r2, [r3, #40]
 663:Drivers/STM32F0xx_HAL_Driver/Src/stm32f0xx_hal_i2c.c ****       I2C_TransferConfig(hi2c, DevAddress, hi2c->XferSize, I2C_AUTOEND_MODE, I2C_GENERATE_START_WRI
 563              		.loc 1 663 48
 564 00ce FB68     		ldr	r3, [r7, #12]
 565 00d0 1B8D     		ldrh	r3, [r3, #40]
 566              		.loc 1 663 7
 567 00d2 DAB2     		uxtb	r2, r3
 568 00d4 8023     		movs	r3, #128
 569 00d6 9C04     		lsls	r4, r3, #18
 570 00d8 0A23     		movs	r3, #10
 571 00da FB18     		adds	r3, r7, r3
 572 00dc 1988     		ldrh	r1, [r3]
 573 00de F868     		ldr	r0, [r7, #12]
 574 00e0 8023     		movs	r3, #128
 575 00e2 9B01     		lsls	r3, r3, #6
 576 00e4 0093     		str	r3, [sp]
 577 00e6 2300     		movs	r3, r4
 578 00e8 FFF7FEFF 		bl	I2C_TransferConfig
 664:Drivers/STM32F0xx_HAL_Driver/Src/stm32f0xx_hal_i2c.c ****     }
 665:Drivers/STM32F0xx_HAL_Driver/Src/stm32f0xx_hal_i2c.c **** 
 666:Drivers/STM32F0xx_HAL_Driver/Src/stm32f0xx_hal_i2c.c ****     while (hi2c->XferCount > 0U)
 579              		.loc 1 666 11
 580 00ec 65E0     		b	.L22
 581              	.L27:
 667:Drivers/STM32F0xx_HAL_Driver/Src/stm32f0xx_hal_i2c.c ****     {
 668:Drivers/STM32F0xx_HAL_Driver/Src/stm32f0xx_hal_i2c.c ****       /* Wait until TXIS flag is set */
 669:Drivers/STM32F0xx_HAL_Driver/Src/stm32f0xx_hal_i2c.c ****       if (I2C_WaitOnTXISFlagUntilTimeout(hi2c, Timeout, tickstart) != HAL_OK)
 582              		.loc 1 669 11
 583 00ee 7A69     		ldr	r2, [r7, #20]
 584 00f0 B96A     		ldr	r1, [r7, #40]
 585 00f2 FB68     		ldr	r3, [r7, #12]
 586 00f4 1800     		movs	r0, r3
 587 00f6 FFF7FEFF 		bl	I2C_WaitOnTXISFlagUntilTimeout
 588 00fa 031E     		subs	r3, r0, #0
 589              		.loc 1 669 10
 590 00fc 07D0     		beq	.L23
 670:Drivers/STM32F0xx_HAL_Driver/Src/stm32f0xx_hal_i2c.c ****       {
 671:Drivers/STM32F0xx_HAL_Driver/Src/stm32f0xx_hal_i2c.c ****         if (hi2c->ErrorCode == HAL_I2C_ERROR_AF)
 591              		.loc 1 671 17
 592 00fe FB68     		ldr	r3, [r7, #12]
ARM GAS  C:\Users\ADMINI~1\AppData\Local\Temp\cc3zYV2m.s 			page 23


 593 0100 5B6C     		ldr	r3, [r3, #68]
 594              		.loc 1 671 12
 595 0102 042B     		cmp	r3, #4
 596 0104 01D1     		bne	.L24
 672:Drivers/STM32F0xx_HAL_Driver/Src/stm32f0xx_hal_i2c.c ****         {
 673:Drivers/STM32F0xx_HAL_Driver/Src/stm32f0xx_hal_i2c.c ****           return HAL_ERROR;
 597              		.loc 1 673 18
 598 0106 0123     		movs	r3, #1
 599 0108 87E0     		b	.L18
 600              	.L24:
 674:Drivers/STM32F0xx_HAL_Driver/Src/stm32f0xx_hal_i2c.c ****         }
 675:Drivers/STM32F0xx_HAL_Driver/Src/stm32f0xx_hal_i2c.c ****         else
 676:Drivers/STM32F0xx_HAL_Driver/Src/stm32f0xx_hal_i2c.c ****         {
 677:Drivers/STM32F0xx_HAL_Driver/Src/stm32f0xx_hal_i2c.c ****           return HAL_TIMEOUT;
 601              		.loc 1 677 18
 602 010a 0323     		movs	r3, #3
 603 010c 85E0     		b	.L18
 604              	.L23:
 678:Drivers/STM32F0xx_HAL_Driver/Src/stm32f0xx_hal_i2c.c ****         }
 679:Drivers/STM32F0xx_HAL_Driver/Src/stm32f0xx_hal_i2c.c ****       }
 680:Drivers/STM32F0xx_HAL_Driver/Src/stm32f0xx_hal_i2c.c ****       /* Write data to TXDR */
 681:Drivers/STM32F0xx_HAL_Driver/Src/stm32f0xx_hal_i2c.c ****       hi2c->Instance->TXDR = (*hi2c->pBuffPtr++);
 605              		.loc 1 681 36
 606 010e FB68     		ldr	r3, [r7, #12]
 607 0110 5B6A     		ldr	r3, [r3, #36]
 608              		.loc 1 681 46
 609 0112 591C     		adds	r1, r3, #1
 610 0114 FA68     		ldr	r2, [r7, #12]
 611 0116 5162     		str	r1, [r2, #36]
 612              		.loc 1 681 31
 613 0118 1A78     		ldrb	r2, [r3]
 614              		.loc 1 681 11
 615 011a FB68     		ldr	r3, [r7, #12]
 616 011c 1B68     		ldr	r3, [r3]
 617              		.loc 1 681 28
 618 011e 9A62     		str	r2, [r3, #40]
 682:Drivers/STM32F0xx_HAL_Driver/Src/stm32f0xx_hal_i2c.c ****       hi2c->XferCount--;
 619              		.loc 1 682 11
 620 0120 FB68     		ldr	r3, [r7, #12]
 621 0122 5B8D     		ldrh	r3, [r3, #42]
 622 0124 9BB2     		uxth	r3, r3
 623              		.loc 1 682 22
 624 0126 013B     		subs	r3, r3, #1
 625 0128 9AB2     		uxth	r2, r3
 626 012a FB68     		ldr	r3, [r7, #12]
 627 012c 5A85     		strh	r2, [r3, #42]
 683:Drivers/STM32F0xx_HAL_Driver/Src/stm32f0xx_hal_i2c.c ****       hi2c->XferSize--;
 628              		.loc 1 683 11
 629 012e FB68     		ldr	r3, [r7, #12]
 630 0130 1B8D     		ldrh	r3, [r3, #40]
 631              		.loc 1 683 21
 632 0132 013B     		subs	r3, r3, #1
 633 0134 9AB2     		uxth	r2, r3
 634 0136 FB68     		ldr	r3, [r7, #12]
 635 0138 1A85     		strh	r2, [r3, #40]
 684:Drivers/STM32F0xx_HAL_Driver/Src/stm32f0xx_hal_i2c.c **** 
 685:Drivers/STM32F0xx_HAL_Driver/Src/stm32f0xx_hal_i2c.c ****       if ((hi2c->XferSize == 0U) && (hi2c->XferCount != 0U))
ARM GAS  C:\Users\ADMINI~1\AppData\Local\Temp\cc3zYV2m.s 			page 24


 636              		.loc 1 685 16
 637 013a FB68     		ldr	r3, [r7, #12]
 638 013c 1B8D     		ldrh	r3, [r3, #40]
 639              		.loc 1 685 10
 640 013e 002B     		cmp	r3, #0
 641 0140 3BD1     		bne	.L22
 642              		.loc 1 685 42 discriminator 1
 643 0142 FB68     		ldr	r3, [r7, #12]
 644 0144 5B8D     		ldrh	r3, [r3, #42]
 645 0146 9BB2     		uxth	r3, r3
 646              		.loc 1 685 34 discriminator 1
 647 0148 002B     		cmp	r3, #0
 648 014a 36D0     		beq	.L22
 686:Drivers/STM32F0xx_HAL_Driver/Src/stm32f0xx_hal_i2c.c ****       {
 687:Drivers/STM32F0xx_HAL_Driver/Src/stm32f0xx_hal_i2c.c ****         /* Wait until TCR flag is set */
 688:Drivers/STM32F0xx_HAL_Driver/Src/stm32f0xx_hal_i2c.c ****         if (I2C_WaitOnFlagUntilTimeout(hi2c, I2C_FLAG_TCR, RESET, Timeout, tickstart) != HAL_OK)
 649              		.loc 1 688 13
 650 014c BA6A     		ldr	r2, [r7, #40]
 651 014e F868     		ldr	r0, [r7, #12]
 652 0150 7B69     		ldr	r3, [r7, #20]
 653 0152 0093     		str	r3, [sp]
 654 0154 1300     		movs	r3, r2
 655 0156 0022     		movs	r2, #0
 656 0158 8021     		movs	r1, #128
 657 015a FFF7FEFF 		bl	I2C_WaitOnFlagUntilTimeout
 658 015e 031E     		subs	r3, r0, #0
 659              		.loc 1 688 12
 660 0160 01D0     		beq	.L25
 689:Drivers/STM32F0xx_HAL_Driver/Src/stm32f0xx_hal_i2c.c ****         {
 690:Drivers/STM32F0xx_HAL_Driver/Src/stm32f0xx_hal_i2c.c ****           return HAL_TIMEOUT;
 661              		.loc 1 690 18
 662 0162 0323     		movs	r3, #3
 663 0164 59E0     		b	.L18
 664              	.L25:
 691:Drivers/STM32F0xx_HAL_Driver/Src/stm32f0xx_hal_i2c.c ****         }
 692:Drivers/STM32F0xx_HAL_Driver/Src/stm32f0xx_hal_i2c.c **** 
 693:Drivers/STM32F0xx_HAL_Driver/Src/stm32f0xx_hal_i2c.c ****         if (hi2c->XferCount > MAX_NBYTE_SIZE)
 665              		.loc 1 693 17
 666 0166 FB68     		ldr	r3, [r7, #12]
 667 0168 5B8D     		ldrh	r3, [r3, #42]
 668 016a 9BB2     		uxth	r3, r3
 669              		.loc 1 693 12
 670 016c FF2B     		cmp	r3, #255
 671 016e 11D9     		bls	.L26
 694:Drivers/STM32F0xx_HAL_Driver/Src/stm32f0xx_hal_i2c.c ****         {
 695:Drivers/STM32F0xx_HAL_Driver/Src/stm32f0xx_hal_i2c.c ****           hi2c->XferSize = MAX_NBYTE_SIZE;
 672              		.loc 1 695 26
 673 0170 FB68     		ldr	r3, [r7, #12]
 674 0172 FF22     		movs	r2, #255
 675 0174 1A85     		strh	r2, [r3, #40]
 696:Drivers/STM32F0xx_HAL_Driver/Src/stm32f0xx_hal_i2c.c ****           I2C_TransferConfig(hi2c, DevAddress, hi2c->XferSize, I2C_RELOAD_MODE, I2C_NO_STARTSTOP);
 676              		.loc 1 696 52
 677 0176 FB68     		ldr	r3, [r7, #12]
 678 0178 1B8D     		ldrh	r3, [r3, #40]
 679              		.loc 1 696 11
 680 017a DAB2     		uxtb	r2, r3
 681 017c 8023     		movs	r3, #128
ARM GAS  C:\Users\ADMINI~1\AppData\Local\Temp\cc3zYV2m.s 			page 25


 682 017e 5C04     		lsls	r4, r3, #17
 683 0180 0A23     		movs	r3, #10
 684 0182 FB18     		adds	r3, r7, r3
 685 0184 1988     		ldrh	r1, [r3]
 686 0186 F868     		ldr	r0, [r7, #12]
 687 0188 0023     		movs	r3, #0
 688 018a 0093     		str	r3, [sp]
 689 018c 2300     		movs	r3, r4
 690 018e FFF7FEFF 		bl	I2C_TransferConfig
 691 0192 12E0     		b	.L22
 692              	.L26:
 697:Drivers/STM32F0xx_HAL_Driver/Src/stm32f0xx_hal_i2c.c ****         }
 698:Drivers/STM32F0xx_HAL_Driver/Src/stm32f0xx_hal_i2c.c ****         else
 699:Drivers/STM32F0xx_HAL_Driver/Src/stm32f0xx_hal_i2c.c ****         {
 700:Drivers/STM32F0xx_HAL_Driver/Src/stm32f0xx_hal_i2c.c ****           hi2c->XferSize = hi2c->XferCount;
 693              		.loc 1 700 32
 694 0194 FB68     		ldr	r3, [r7, #12]
 695 0196 5B8D     		ldrh	r3, [r3, #42]
 696 0198 9AB2     		uxth	r2, r3
 697              		.loc 1 700 26
 698 019a FB68     		ldr	r3, [r7, #12]
 699 019c 1A85     		strh	r2, [r3, #40]
 701:Drivers/STM32F0xx_HAL_Driver/Src/stm32f0xx_hal_i2c.c ****           I2C_TransferConfig(hi2c, DevAddress, hi2c->XferSize, I2C_AUTOEND_MODE, I2C_NO_STARTSTOP);
 700              		.loc 1 701 52
 701 019e FB68     		ldr	r3, [r7, #12]
 702 01a0 1B8D     		ldrh	r3, [r3, #40]
 703              		.loc 1 701 11
 704 01a2 DAB2     		uxtb	r2, r3
 705 01a4 8023     		movs	r3, #128
 706 01a6 9C04     		lsls	r4, r3, #18
 707 01a8 0A23     		movs	r3, #10
 708 01aa FB18     		adds	r3, r7, r3
 709 01ac 1988     		ldrh	r1, [r3]
 710 01ae F868     		ldr	r0, [r7, #12]
 711 01b0 0023     		movs	r3, #0
 712 01b2 0093     		str	r3, [sp]
 713 01b4 2300     		movs	r3, r4
 714 01b6 FFF7FEFF 		bl	I2C_TransferConfig
 715              	.L22:
 666:Drivers/STM32F0xx_HAL_Driver/Src/stm32f0xx_hal_i2c.c ****     {
 716              		.loc 1 666 16
 717 01ba FB68     		ldr	r3, [r7, #12]
 718 01bc 5B8D     		ldrh	r3, [r3, #42]
 719 01be 9BB2     		uxth	r3, r3
 666:Drivers/STM32F0xx_HAL_Driver/Src/stm32f0xx_hal_i2c.c ****     {
 720              		.loc 1 666 11
 721 01c0 002B     		cmp	r3, #0
 722 01c2 94D1     		bne	.L27
 702:Drivers/STM32F0xx_HAL_Driver/Src/stm32f0xx_hal_i2c.c ****         }
 703:Drivers/STM32F0xx_HAL_Driver/Src/stm32f0xx_hal_i2c.c ****       }
 704:Drivers/STM32F0xx_HAL_Driver/Src/stm32f0xx_hal_i2c.c ****     }
 705:Drivers/STM32F0xx_HAL_Driver/Src/stm32f0xx_hal_i2c.c **** 
 706:Drivers/STM32F0xx_HAL_Driver/Src/stm32f0xx_hal_i2c.c ****     /* No need to Check TC flag, with AUTOEND mode the stop is automatically generated */
 707:Drivers/STM32F0xx_HAL_Driver/Src/stm32f0xx_hal_i2c.c ****     /* Wait until STOPF flag is set */
 708:Drivers/STM32F0xx_HAL_Driver/Src/stm32f0xx_hal_i2c.c ****     if (I2C_WaitOnSTOPFlagUntilTimeout(hi2c, Timeout, tickstart) != HAL_OK)
 723              		.loc 1 708 9
 724 01c4 7A69     		ldr	r2, [r7, #20]
ARM GAS  C:\Users\ADMINI~1\AppData\Local\Temp\cc3zYV2m.s 			page 26


 725 01c6 B96A     		ldr	r1, [r7, #40]
 726 01c8 FB68     		ldr	r3, [r7, #12]
 727 01ca 1800     		movs	r0, r3
 728 01cc FFF7FEFF 		bl	I2C_WaitOnSTOPFlagUntilTimeout
 729 01d0 031E     		subs	r3, r0, #0
 730              		.loc 1 708 8
 731 01d2 07D0     		beq	.L28
 709:Drivers/STM32F0xx_HAL_Driver/Src/stm32f0xx_hal_i2c.c ****     {
 710:Drivers/STM32F0xx_HAL_Driver/Src/stm32f0xx_hal_i2c.c ****       if (hi2c->ErrorCode == HAL_I2C_ERROR_AF)
 732              		.loc 1 710 15
 733 01d4 FB68     		ldr	r3, [r7, #12]
 734 01d6 5B6C     		ldr	r3, [r3, #68]
 735              		.loc 1 710 10
 736 01d8 042B     		cmp	r3, #4
 737 01da 01D1     		bne	.L29
 711:Drivers/STM32F0xx_HAL_Driver/Src/stm32f0xx_hal_i2c.c ****       {
 712:Drivers/STM32F0xx_HAL_Driver/Src/stm32f0xx_hal_i2c.c ****         return HAL_ERROR;
 738              		.loc 1 712 16
 739 01dc 0123     		movs	r3, #1
 740 01de 1CE0     		b	.L18
 741              	.L29:
 713:Drivers/STM32F0xx_HAL_Driver/Src/stm32f0xx_hal_i2c.c ****       }
 714:Drivers/STM32F0xx_HAL_Driver/Src/stm32f0xx_hal_i2c.c ****       else
 715:Drivers/STM32F0xx_HAL_Driver/Src/stm32f0xx_hal_i2c.c ****       {
 716:Drivers/STM32F0xx_HAL_Driver/Src/stm32f0xx_hal_i2c.c ****         return HAL_TIMEOUT;
 742              		.loc 1 716 16
 743 01e0 0323     		movs	r3, #3
 744 01e2 1AE0     		b	.L18
 745              	.L28:
 717:Drivers/STM32F0xx_HAL_Driver/Src/stm32f0xx_hal_i2c.c ****       }
 718:Drivers/STM32F0xx_HAL_Driver/Src/stm32f0xx_hal_i2c.c ****     }
 719:Drivers/STM32F0xx_HAL_Driver/Src/stm32f0xx_hal_i2c.c **** 
 720:Drivers/STM32F0xx_HAL_Driver/Src/stm32f0xx_hal_i2c.c ****     /* Clear STOP Flag */
 721:Drivers/STM32F0xx_HAL_Driver/Src/stm32f0xx_hal_i2c.c ****     __HAL_I2C_CLEAR_FLAG(hi2c, I2C_FLAG_STOPF);
 746              		.loc 1 721 5
 747 01e4 FB68     		ldr	r3, [r7, #12]
 748 01e6 1B68     		ldr	r3, [r3]
 749 01e8 2022     		movs	r2, #32
 750 01ea DA61     		str	r2, [r3, #28]
 722:Drivers/STM32F0xx_HAL_Driver/Src/stm32f0xx_hal_i2c.c **** 
 723:Drivers/STM32F0xx_HAL_Driver/Src/stm32f0xx_hal_i2c.c ****     /* Clear Configuration Register 2 */
 724:Drivers/STM32F0xx_HAL_Driver/Src/stm32f0xx_hal_i2c.c ****     I2C_RESET_CR2(hi2c);
 751              		.loc 1 724 5
 752 01ec FB68     		ldr	r3, [r7, #12]
 753 01ee 1B68     		ldr	r3, [r3]
 754 01f0 5A68     		ldr	r2, [r3, #4]
 755 01f2 FB68     		ldr	r3, [r7, #12]
 756 01f4 1B68     		ldr	r3, [r3]
 757 01f6 0B49     		ldr	r1, .L30
 758 01f8 0A40     		ands	r2, r1
 759 01fa 5A60     		str	r2, [r3, #4]
 725:Drivers/STM32F0xx_HAL_Driver/Src/stm32f0xx_hal_i2c.c **** 
 726:Drivers/STM32F0xx_HAL_Driver/Src/stm32f0xx_hal_i2c.c ****     hi2c->State = HAL_I2C_STATE_READY;
 760              		.loc 1 726 17
 761 01fc FB68     		ldr	r3, [r7, #12]
 762 01fe 4122     		movs	r2, #65
 763 0200 2021     		movs	r1, #32
ARM GAS  C:\Users\ADMINI~1\AppData\Local\Temp\cc3zYV2m.s 			page 27


 764 0202 9954     		strb	r1, [r3, r2]
 727:Drivers/STM32F0xx_HAL_Driver/Src/stm32f0xx_hal_i2c.c ****     hi2c->Mode  = HAL_I2C_MODE_NONE;
 765              		.loc 1 727 17
 766 0204 FB68     		ldr	r3, [r7, #12]
 767 0206 4222     		movs	r2, #66
 768 0208 0021     		movs	r1, #0
 769 020a 9954     		strb	r1, [r3, r2]
 728:Drivers/STM32F0xx_HAL_Driver/Src/stm32f0xx_hal_i2c.c **** 
 729:Drivers/STM32F0xx_HAL_Driver/Src/stm32f0xx_hal_i2c.c ****     /* Process Unlocked */
 730:Drivers/STM32F0xx_HAL_Driver/Src/stm32f0xx_hal_i2c.c ****     __HAL_UNLOCK(hi2c);
 770              		.loc 1 730 5
 771 020c FB68     		ldr	r3, [r7, #12]
 772 020e 4022     		movs	r2, #64
 773 0210 0021     		movs	r1, #0
 774 0212 9954     		strb	r1, [r3, r2]
 731:Drivers/STM32F0xx_HAL_Driver/Src/stm32f0xx_hal_i2c.c **** 
 732:Drivers/STM32F0xx_HAL_Driver/Src/stm32f0xx_hal_i2c.c ****     return HAL_OK;
 775              		.loc 1 732 12
 776 0214 0023     		movs	r3, #0
 777 0216 00E0     		b	.L18
 778              	.L16:
 733:Drivers/STM32F0xx_HAL_Driver/Src/stm32f0xx_hal_i2c.c ****   }
 734:Drivers/STM32F0xx_HAL_Driver/Src/stm32f0xx_hal_i2c.c ****   else
 735:Drivers/STM32F0xx_HAL_Driver/Src/stm32f0xx_hal_i2c.c ****   {
 736:Drivers/STM32F0xx_HAL_Driver/Src/stm32f0xx_hal_i2c.c ****     return HAL_BUSY;
 779              		.loc 1 736 12
 780 0218 0223     		movs	r3, #2
 781              	.L18:
 737:Drivers/STM32F0xx_HAL_Driver/Src/stm32f0xx_hal_i2c.c ****   }
 738:Drivers/STM32F0xx_HAL_Driver/Src/stm32f0xx_hal_i2c.c **** }
 782              		.loc 1 738 1
 783 021a 1800     		movs	r0, r3
 784 021c BD46     		mov	sp, r7
 785 021e 07B0     		add	sp, sp, #28
 786              		@ sp needed
 787 0220 90BD     		pop	{r4, r7, pc}
 788              	.L31:
 789 0222 C046     		.align	2
 790              	.L30:
 791 0224 00E800FE 		.word	-33495040
 792              		.cfi_endproc
 793              	.LFE41:
 795              		.section	.text.HAL_I2C_Master_Receive,"ax",%progbits
 796              		.align	1
 797              		.global	HAL_I2C_Master_Receive
 798              		.syntax unified
 799              		.code	16
 800              		.thumb_func
 801              		.fpu softvfp
 803              	HAL_I2C_Master_Receive:
 804              	.LFB42:
 739:Drivers/STM32F0xx_HAL_Driver/Src/stm32f0xx_hal_i2c.c **** 
 740:Drivers/STM32F0xx_HAL_Driver/Src/stm32f0xx_hal_i2c.c **** /**
 741:Drivers/STM32F0xx_HAL_Driver/Src/stm32f0xx_hal_i2c.c ****   * @brief  Receives in master mode an amount of data in blocking mode.
 742:Drivers/STM32F0xx_HAL_Driver/Src/stm32f0xx_hal_i2c.c ****   * @param  hi2c Pointer to a I2C_HandleTypeDef structure that contains
 743:Drivers/STM32F0xx_HAL_Driver/Src/stm32f0xx_hal_i2c.c ****   *                the configuration information for the specified I2C.
 744:Drivers/STM32F0xx_HAL_Driver/Src/stm32f0xx_hal_i2c.c ****   * @param  DevAddress Target device address: The device 7 bits address value
ARM GAS  C:\Users\ADMINI~1\AppData\Local\Temp\cc3zYV2m.s 			page 28


 745:Drivers/STM32F0xx_HAL_Driver/Src/stm32f0xx_hal_i2c.c ****   *         in datasheet must be shift at right before call interface
 746:Drivers/STM32F0xx_HAL_Driver/Src/stm32f0xx_hal_i2c.c ****   * @param  pData Pointer to data buffer
 747:Drivers/STM32F0xx_HAL_Driver/Src/stm32f0xx_hal_i2c.c ****   * @param  Size Amount of data to be sent
 748:Drivers/STM32F0xx_HAL_Driver/Src/stm32f0xx_hal_i2c.c ****   * @param  Timeout Timeout duration
 749:Drivers/STM32F0xx_HAL_Driver/Src/stm32f0xx_hal_i2c.c ****   * @retval HAL status
 750:Drivers/STM32F0xx_HAL_Driver/Src/stm32f0xx_hal_i2c.c ****   */
 751:Drivers/STM32F0xx_HAL_Driver/Src/stm32f0xx_hal_i2c.c **** HAL_StatusTypeDef HAL_I2C_Master_Receive(I2C_HandleTypeDef *hi2c, uint16_t DevAddress, uint8_t *pDa
 752:Drivers/STM32F0xx_HAL_Driver/Src/stm32f0xx_hal_i2c.c **** {
 805              		.loc 1 752 1
 806              		.cfi_startproc
 807              		@ args = 4, pretend = 0, frame = 24
 808              		@ frame_needed = 1, uses_anonymous_args = 0
 809 0000 90B5     		push	{r4, r7, lr}
 810              	.LCFI15:
 811              		.cfi_def_cfa_offset 12
 812              		.cfi_offset 4, -12
 813              		.cfi_offset 7, -8
 814              		.cfi_offset 14, -4
 815 0002 89B0     		sub	sp, sp, #36
 816              	.LCFI16:
 817              		.cfi_def_cfa_offset 48
 818 0004 02AF     		add	r7, sp, #8
 819              	.LCFI17:
 820              		.cfi_def_cfa 7, 40
 821 0006 F860     		str	r0, [r7, #12]
 822 0008 0800     		movs	r0, r1
 823 000a 7A60     		str	r2, [r7, #4]
 824 000c 1900     		movs	r1, r3
 825 000e 0A23     		movs	r3, #10
 826 0010 FB18     		adds	r3, r7, r3
 827 0012 021C     		adds	r2, r0, #0
 828 0014 1A80     		strh	r2, [r3]
 829 0016 0823     		movs	r3, #8
 830 0018 FB18     		adds	r3, r7, r3
 831 001a 0A1C     		adds	r2, r1, #0
 832 001c 1A80     		strh	r2, [r3]
 753:Drivers/STM32F0xx_HAL_Driver/Src/stm32f0xx_hal_i2c.c ****   uint32_t tickstart = 0U;
 833              		.loc 1 753 12
 834 001e 0023     		movs	r3, #0
 835 0020 7B61     		str	r3, [r7, #20]
 754:Drivers/STM32F0xx_HAL_Driver/Src/stm32f0xx_hal_i2c.c **** 
 755:Drivers/STM32F0xx_HAL_Driver/Src/stm32f0xx_hal_i2c.c ****   if (hi2c->State == HAL_I2C_STATE_READY)
 836              		.loc 1 755 11
 837 0022 FB68     		ldr	r3, [r7, #12]
 838 0024 4122     		movs	r2, #65
 839 0026 9B5C     		ldrb	r3, [r3, r2]
 840 0028 DBB2     		uxtb	r3, r3
 841              		.loc 1 755 6
 842 002a 202B     		cmp	r3, #32
 843 002c 00D0     		beq	.LCB675
 844 002e F4E0     		b	.L33	@long jump
 845              	.LCB675:
 756:Drivers/STM32F0xx_HAL_Driver/Src/stm32f0xx_hal_i2c.c ****   {
 757:Drivers/STM32F0xx_HAL_Driver/Src/stm32f0xx_hal_i2c.c ****     /* Process Locked */
 758:Drivers/STM32F0xx_HAL_Driver/Src/stm32f0xx_hal_i2c.c ****     __HAL_LOCK(hi2c);
 846              		.loc 1 758 5
 847 0030 FB68     		ldr	r3, [r7, #12]
ARM GAS  C:\Users\ADMINI~1\AppData\Local\Temp\cc3zYV2m.s 			page 29


 848 0032 4022     		movs	r2, #64
 849 0034 9B5C     		ldrb	r3, [r3, r2]
 850 0036 012B     		cmp	r3, #1
 851 0038 01D1     		bne	.L34
 852              		.loc 1 758 5 is_stmt 0 discriminator 1
 853 003a 0223     		movs	r3, #2
 854 003c EEE0     		b	.L35
 855              	.L34:
 856              		.loc 1 758 5 discriminator 2
 857 003e FB68     		ldr	r3, [r7, #12]
 858 0040 4022     		movs	r2, #64
 859 0042 0121     		movs	r1, #1
 860 0044 9954     		strb	r1, [r3, r2]
 759:Drivers/STM32F0xx_HAL_Driver/Src/stm32f0xx_hal_i2c.c **** 
 760:Drivers/STM32F0xx_HAL_Driver/Src/stm32f0xx_hal_i2c.c ****     /* Init tickstart for timeout management*/
 761:Drivers/STM32F0xx_HAL_Driver/Src/stm32f0xx_hal_i2c.c ****     tickstart = HAL_GetTick();
 861              		.loc 1 761 17 is_stmt 1 discriminator 2
 862 0046 FFF7FEFF 		bl	HAL_GetTick
 863 004a 0300     		movs	r3, r0
 864 004c 7B61     		str	r3, [r7, #20]
 762:Drivers/STM32F0xx_HAL_Driver/Src/stm32f0xx_hal_i2c.c **** 
 763:Drivers/STM32F0xx_HAL_Driver/Src/stm32f0xx_hal_i2c.c ****     if (I2C_WaitOnFlagUntilTimeout(hi2c, I2C_FLAG_BUSY, SET, I2C_TIMEOUT_BUSY, tickstart) != HAL_OK
 865              		.loc 1 763 9 discriminator 2
 866 004e 8023     		movs	r3, #128
 867 0050 1902     		lsls	r1, r3, #8
 868 0052 F868     		ldr	r0, [r7, #12]
 869 0054 7B69     		ldr	r3, [r7, #20]
 870 0056 0093     		str	r3, [sp]
 871 0058 1923     		movs	r3, #25
 872 005a 0122     		movs	r2, #1
 873 005c FFF7FEFF 		bl	I2C_WaitOnFlagUntilTimeout
 874 0060 031E     		subs	r3, r0, #0
 875              		.loc 1 763 8 discriminator 2
 876 0062 01D0     		beq	.L36
 764:Drivers/STM32F0xx_HAL_Driver/Src/stm32f0xx_hal_i2c.c ****     {
 765:Drivers/STM32F0xx_HAL_Driver/Src/stm32f0xx_hal_i2c.c ****       return HAL_TIMEOUT;
 877              		.loc 1 765 14
 878 0064 0323     		movs	r3, #3
 879 0066 D9E0     		b	.L35
 880              	.L36:
 766:Drivers/STM32F0xx_HAL_Driver/Src/stm32f0xx_hal_i2c.c ****     }
 767:Drivers/STM32F0xx_HAL_Driver/Src/stm32f0xx_hal_i2c.c **** 
 768:Drivers/STM32F0xx_HAL_Driver/Src/stm32f0xx_hal_i2c.c ****     hi2c->State     = HAL_I2C_STATE_BUSY_RX;
 881              		.loc 1 768 21
 882 0068 FB68     		ldr	r3, [r7, #12]
 883 006a 4122     		movs	r2, #65
 884 006c 2221     		movs	r1, #34
 885 006e 9954     		strb	r1, [r3, r2]
 769:Drivers/STM32F0xx_HAL_Driver/Src/stm32f0xx_hal_i2c.c ****     hi2c->Mode      = HAL_I2C_MODE_MASTER;
 886              		.loc 1 769 21
 887 0070 FB68     		ldr	r3, [r7, #12]
 888 0072 4222     		movs	r2, #66
 889 0074 1021     		movs	r1, #16
 890 0076 9954     		strb	r1, [r3, r2]
 770:Drivers/STM32F0xx_HAL_Driver/Src/stm32f0xx_hal_i2c.c ****     hi2c->ErrorCode = HAL_I2C_ERROR_NONE;
 891              		.loc 1 770 21
 892 0078 FB68     		ldr	r3, [r7, #12]
ARM GAS  C:\Users\ADMINI~1\AppData\Local\Temp\cc3zYV2m.s 			page 30


 893 007a 0022     		movs	r2, #0
 894 007c 5A64     		str	r2, [r3, #68]
 771:Drivers/STM32F0xx_HAL_Driver/Src/stm32f0xx_hal_i2c.c **** 
 772:Drivers/STM32F0xx_HAL_Driver/Src/stm32f0xx_hal_i2c.c ****     /* Prepare transfer parameters */
 773:Drivers/STM32F0xx_HAL_Driver/Src/stm32f0xx_hal_i2c.c ****     hi2c->pBuffPtr  = pData;
 895              		.loc 1 773 21
 896 007e FB68     		ldr	r3, [r7, #12]
 897 0080 7A68     		ldr	r2, [r7, #4]
 898 0082 5A62     		str	r2, [r3, #36]
 774:Drivers/STM32F0xx_HAL_Driver/Src/stm32f0xx_hal_i2c.c ****     hi2c->XferCount = Size;
 899              		.loc 1 774 21
 900 0084 FB68     		ldr	r3, [r7, #12]
 901 0086 0822     		movs	r2, #8
 902 0088 BA18     		adds	r2, r7, r2
 903 008a 1288     		ldrh	r2, [r2]
 904 008c 5A85     		strh	r2, [r3, #42]
 775:Drivers/STM32F0xx_HAL_Driver/Src/stm32f0xx_hal_i2c.c ****     hi2c->XferISR   = NULL;
 905              		.loc 1 775 21
 906 008e FB68     		ldr	r3, [r7, #12]
 907 0090 0022     		movs	r2, #0
 908 0092 5A63     		str	r2, [r3, #52]
 776:Drivers/STM32F0xx_HAL_Driver/Src/stm32f0xx_hal_i2c.c **** 
 777:Drivers/STM32F0xx_HAL_Driver/Src/stm32f0xx_hal_i2c.c ****     /* Send Slave Address */
 778:Drivers/STM32F0xx_HAL_Driver/Src/stm32f0xx_hal_i2c.c ****     /* Set NBYTES to write and reload if hi2c->XferCount > MAX_NBYTE_SIZE and generate RESTART */
 779:Drivers/STM32F0xx_HAL_Driver/Src/stm32f0xx_hal_i2c.c ****     if (hi2c->XferCount > MAX_NBYTE_SIZE)
 909              		.loc 1 779 13
 910 0094 FB68     		ldr	r3, [r7, #12]
 911 0096 5B8D     		ldrh	r3, [r3, #42]
 912 0098 9BB2     		uxth	r3, r3
 913              		.loc 1 779 8
 914 009a FF2B     		cmp	r3, #255
 915 009c 12D9     		bls	.L37
 780:Drivers/STM32F0xx_HAL_Driver/Src/stm32f0xx_hal_i2c.c ****     {
 781:Drivers/STM32F0xx_HAL_Driver/Src/stm32f0xx_hal_i2c.c ****       hi2c->XferSize = MAX_NBYTE_SIZE;
 916              		.loc 1 781 22
 917 009e FB68     		ldr	r3, [r7, #12]
 918 00a0 FF22     		movs	r2, #255
 919 00a2 1A85     		strh	r2, [r3, #40]
 782:Drivers/STM32F0xx_HAL_Driver/Src/stm32f0xx_hal_i2c.c ****       I2C_TransferConfig(hi2c, DevAddress, hi2c->XferSize, I2C_RELOAD_MODE, I2C_GENERATE_START_READ
 920              		.loc 1 782 48
 921 00a4 FB68     		ldr	r3, [r7, #12]
 922 00a6 1B8D     		ldrh	r3, [r3, #40]
 923              		.loc 1 782 7
 924 00a8 DAB2     		uxtb	r2, r3
 925 00aa 8023     		movs	r3, #128
 926 00ac 5C04     		lsls	r4, r3, #17
 927 00ae 0A23     		movs	r3, #10
 928 00b0 FB18     		adds	r3, r7, r3
 929 00b2 1988     		ldrh	r1, [r3]
 930 00b4 F868     		ldr	r0, [r7, #12]
 931 00b6 9023     		movs	r3, #144
 932 00b8 9B01     		lsls	r3, r3, #6
 933 00ba 0093     		str	r3, [sp]
 934 00bc 2300     		movs	r3, r4
 935 00be FFF7FEFF 		bl	I2C_TransferConfig
 936 00c2 7BE0     		b	.L39
 937              	.L37:
ARM GAS  C:\Users\ADMINI~1\AppData\Local\Temp\cc3zYV2m.s 			page 31


 783:Drivers/STM32F0xx_HAL_Driver/Src/stm32f0xx_hal_i2c.c ****     }
 784:Drivers/STM32F0xx_HAL_Driver/Src/stm32f0xx_hal_i2c.c ****     else
 785:Drivers/STM32F0xx_HAL_Driver/Src/stm32f0xx_hal_i2c.c ****     {
 786:Drivers/STM32F0xx_HAL_Driver/Src/stm32f0xx_hal_i2c.c ****       hi2c->XferSize = hi2c->XferCount;
 938              		.loc 1 786 28
 939 00c4 FB68     		ldr	r3, [r7, #12]
 940 00c6 5B8D     		ldrh	r3, [r3, #42]
 941 00c8 9AB2     		uxth	r2, r3
 942              		.loc 1 786 22
 943 00ca FB68     		ldr	r3, [r7, #12]
 944 00cc 1A85     		strh	r2, [r3, #40]
 787:Drivers/STM32F0xx_HAL_Driver/Src/stm32f0xx_hal_i2c.c ****       I2C_TransferConfig(hi2c, DevAddress, hi2c->XferSize, I2C_AUTOEND_MODE, I2C_GENERATE_START_REA
 945              		.loc 1 787 48
 946 00ce FB68     		ldr	r3, [r7, #12]
 947 00d0 1B8D     		ldrh	r3, [r3, #40]
 948              		.loc 1 787 7
 949 00d2 DAB2     		uxtb	r2, r3
 950 00d4 8023     		movs	r3, #128
 951 00d6 9C04     		lsls	r4, r3, #18
 952 00d8 0A23     		movs	r3, #10
 953 00da FB18     		adds	r3, r7, r3
 954 00dc 1988     		ldrh	r1, [r3]
 955 00de F868     		ldr	r0, [r7, #12]
 956 00e0 9023     		movs	r3, #144
 957 00e2 9B01     		lsls	r3, r3, #6
 958 00e4 0093     		str	r3, [sp]
 959 00e6 2300     		movs	r3, r4
 960 00e8 FFF7FEFF 		bl	I2C_TransferConfig
 788:Drivers/STM32F0xx_HAL_Driver/Src/stm32f0xx_hal_i2c.c ****     }
 789:Drivers/STM32F0xx_HAL_Driver/Src/stm32f0xx_hal_i2c.c **** 
 790:Drivers/STM32F0xx_HAL_Driver/Src/stm32f0xx_hal_i2c.c ****     while (hi2c->XferCount > 0U)
 961              		.loc 1 790 11
 962 00ec 66E0     		b	.L39
 963              	.L44:
 791:Drivers/STM32F0xx_HAL_Driver/Src/stm32f0xx_hal_i2c.c ****     {
 792:Drivers/STM32F0xx_HAL_Driver/Src/stm32f0xx_hal_i2c.c ****       /* Wait until RXNE flag is set */
 793:Drivers/STM32F0xx_HAL_Driver/Src/stm32f0xx_hal_i2c.c ****       if (I2C_WaitOnRXNEFlagUntilTimeout(hi2c, Timeout, tickstart) != HAL_OK)
 964              		.loc 1 793 11
 965 00ee 7A69     		ldr	r2, [r7, #20]
 966 00f0 B96A     		ldr	r1, [r7, #40]
 967 00f2 FB68     		ldr	r3, [r7, #12]
 968 00f4 1800     		movs	r0, r3
 969 00f6 FFF7FEFF 		bl	I2C_WaitOnRXNEFlagUntilTimeout
 970 00fa 031E     		subs	r3, r0, #0
 971              		.loc 1 793 10
 972 00fc 07D0     		beq	.L40
 794:Drivers/STM32F0xx_HAL_Driver/Src/stm32f0xx_hal_i2c.c ****       {
 795:Drivers/STM32F0xx_HAL_Driver/Src/stm32f0xx_hal_i2c.c ****         if (hi2c->ErrorCode == HAL_I2C_ERROR_AF)
 973              		.loc 1 795 17
 974 00fe FB68     		ldr	r3, [r7, #12]
 975 0100 5B6C     		ldr	r3, [r3, #68]
 976              		.loc 1 795 12
 977 0102 042B     		cmp	r3, #4
 978 0104 01D1     		bne	.L41
 796:Drivers/STM32F0xx_HAL_Driver/Src/stm32f0xx_hal_i2c.c ****         {
 797:Drivers/STM32F0xx_HAL_Driver/Src/stm32f0xx_hal_i2c.c ****           return HAL_ERROR;
 979              		.loc 1 797 18
ARM GAS  C:\Users\ADMINI~1\AppData\Local\Temp\cc3zYV2m.s 			page 32


 980 0106 0123     		movs	r3, #1
 981 0108 88E0     		b	.L35
 982              	.L41:
 798:Drivers/STM32F0xx_HAL_Driver/Src/stm32f0xx_hal_i2c.c ****         }
 799:Drivers/STM32F0xx_HAL_Driver/Src/stm32f0xx_hal_i2c.c ****         else
 800:Drivers/STM32F0xx_HAL_Driver/Src/stm32f0xx_hal_i2c.c ****         {
 801:Drivers/STM32F0xx_HAL_Driver/Src/stm32f0xx_hal_i2c.c ****           return HAL_TIMEOUT;
 983              		.loc 1 801 18
 984 010a 0323     		movs	r3, #3
 985 010c 86E0     		b	.L35
 986              	.L40:
 802:Drivers/STM32F0xx_HAL_Driver/Src/stm32f0xx_hal_i2c.c ****         }
 803:Drivers/STM32F0xx_HAL_Driver/Src/stm32f0xx_hal_i2c.c ****       }
 804:Drivers/STM32F0xx_HAL_Driver/Src/stm32f0xx_hal_i2c.c **** 
 805:Drivers/STM32F0xx_HAL_Driver/Src/stm32f0xx_hal_i2c.c ****       /* Read data from RXDR */
 806:Drivers/STM32F0xx_HAL_Driver/Src/stm32f0xx_hal_i2c.c ****       (*hi2c->pBuffPtr++) = hi2c->Instance->RXDR;
 987              		.loc 1 806 33
 988 010e FB68     		ldr	r3, [r7, #12]
 989 0110 1B68     		ldr	r3, [r3]
 990              		.loc 1 806 43
 991 0112 586A     		ldr	r0, [r3, #36]
 992              		.loc 1 806 13
 993 0114 FB68     		ldr	r3, [r7, #12]
 994 0116 5B6A     		ldr	r3, [r3, #36]
 995              		.loc 1 806 23
 996 0118 591C     		adds	r1, r3, #1
 997 011a FA68     		ldr	r2, [r7, #12]
 998 011c 5162     		str	r1, [r2, #36]
 999              		.loc 1 806 27
 1000 011e C2B2     		uxtb	r2, r0
 1001 0120 1A70     		strb	r2, [r3]
 807:Drivers/STM32F0xx_HAL_Driver/Src/stm32f0xx_hal_i2c.c ****       hi2c->XferSize--;
 1002              		.loc 1 807 11
 1003 0122 FB68     		ldr	r3, [r7, #12]
 1004 0124 1B8D     		ldrh	r3, [r3, #40]
 1005              		.loc 1 807 21
 1006 0126 013B     		subs	r3, r3, #1
 1007 0128 9AB2     		uxth	r2, r3
 1008 012a FB68     		ldr	r3, [r7, #12]
 1009 012c 1A85     		strh	r2, [r3, #40]
 808:Drivers/STM32F0xx_HAL_Driver/Src/stm32f0xx_hal_i2c.c ****       hi2c->XferCount--;
 1010              		.loc 1 808 11
 1011 012e FB68     		ldr	r3, [r7, #12]
 1012 0130 5B8D     		ldrh	r3, [r3, #42]
 1013 0132 9BB2     		uxth	r3, r3
 1014              		.loc 1 808 22
 1015 0134 013B     		subs	r3, r3, #1
 1016 0136 9AB2     		uxth	r2, r3
 1017 0138 FB68     		ldr	r3, [r7, #12]
 1018 013a 5A85     		strh	r2, [r3, #42]
 809:Drivers/STM32F0xx_HAL_Driver/Src/stm32f0xx_hal_i2c.c **** 
 810:Drivers/STM32F0xx_HAL_Driver/Src/stm32f0xx_hal_i2c.c ****       if ((hi2c->XferSize == 0U) && (hi2c->XferCount != 0U))
 1019              		.loc 1 810 16
 1020 013c FB68     		ldr	r3, [r7, #12]
 1021 013e 1B8D     		ldrh	r3, [r3, #40]
 1022              		.loc 1 810 10
 1023 0140 002B     		cmp	r3, #0
ARM GAS  C:\Users\ADMINI~1\AppData\Local\Temp\cc3zYV2m.s 			page 33


 1024 0142 3BD1     		bne	.L39
 1025              		.loc 1 810 42 discriminator 1
 1026 0144 FB68     		ldr	r3, [r7, #12]
 1027 0146 5B8D     		ldrh	r3, [r3, #42]
 1028 0148 9BB2     		uxth	r3, r3
 1029              		.loc 1 810 34 discriminator 1
 1030 014a 002B     		cmp	r3, #0
 1031 014c 36D0     		beq	.L39
 811:Drivers/STM32F0xx_HAL_Driver/Src/stm32f0xx_hal_i2c.c ****       {
 812:Drivers/STM32F0xx_HAL_Driver/Src/stm32f0xx_hal_i2c.c ****         /* Wait until TCR flag is set */
 813:Drivers/STM32F0xx_HAL_Driver/Src/stm32f0xx_hal_i2c.c ****         if (I2C_WaitOnFlagUntilTimeout(hi2c, I2C_FLAG_TCR, RESET, Timeout, tickstart) != HAL_OK)
 1032              		.loc 1 813 13
 1033 014e BA6A     		ldr	r2, [r7, #40]
 1034 0150 F868     		ldr	r0, [r7, #12]
 1035 0152 7B69     		ldr	r3, [r7, #20]
 1036 0154 0093     		str	r3, [sp]
 1037 0156 1300     		movs	r3, r2
 1038 0158 0022     		movs	r2, #0
 1039 015a 8021     		movs	r1, #128
 1040 015c FFF7FEFF 		bl	I2C_WaitOnFlagUntilTimeout
 1041 0160 031E     		subs	r3, r0, #0
 1042              		.loc 1 813 12
 1043 0162 01D0     		beq	.L42
 814:Drivers/STM32F0xx_HAL_Driver/Src/stm32f0xx_hal_i2c.c ****         {
 815:Drivers/STM32F0xx_HAL_Driver/Src/stm32f0xx_hal_i2c.c ****           return HAL_TIMEOUT;
 1044              		.loc 1 815 18
 1045 0164 0323     		movs	r3, #3
 1046 0166 59E0     		b	.L35
 1047              	.L42:
 816:Drivers/STM32F0xx_HAL_Driver/Src/stm32f0xx_hal_i2c.c ****         }
 817:Drivers/STM32F0xx_HAL_Driver/Src/stm32f0xx_hal_i2c.c **** 
 818:Drivers/STM32F0xx_HAL_Driver/Src/stm32f0xx_hal_i2c.c ****         if (hi2c->XferCount > MAX_NBYTE_SIZE)
 1048              		.loc 1 818 17
 1049 0168 FB68     		ldr	r3, [r7, #12]
 1050 016a 5B8D     		ldrh	r3, [r3, #42]
 1051 016c 9BB2     		uxth	r3, r3
 1052              		.loc 1 818 12
 1053 016e FF2B     		cmp	r3, #255
 1054 0170 11D9     		bls	.L43
 819:Drivers/STM32F0xx_HAL_Driver/Src/stm32f0xx_hal_i2c.c ****         {
 820:Drivers/STM32F0xx_HAL_Driver/Src/stm32f0xx_hal_i2c.c ****           hi2c->XferSize = MAX_NBYTE_SIZE;
 1055              		.loc 1 820 26
 1056 0172 FB68     		ldr	r3, [r7, #12]
 1057 0174 FF22     		movs	r2, #255
 1058 0176 1A85     		strh	r2, [r3, #40]
 821:Drivers/STM32F0xx_HAL_Driver/Src/stm32f0xx_hal_i2c.c ****           I2C_TransferConfig(hi2c, DevAddress, hi2c->XferSize, I2C_RELOAD_MODE, I2C_NO_STARTSTOP);
 1059              		.loc 1 821 52
 1060 0178 FB68     		ldr	r3, [r7, #12]
 1061 017a 1B8D     		ldrh	r3, [r3, #40]
 1062              		.loc 1 821 11
 1063 017c DAB2     		uxtb	r2, r3
 1064 017e 8023     		movs	r3, #128
 1065 0180 5C04     		lsls	r4, r3, #17
 1066 0182 0A23     		movs	r3, #10
 1067 0184 FB18     		adds	r3, r7, r3
 1068 0186 1988     		ldrh	r1, [r3]
 1069 0188 F868     		ldr	r0, [r7, #12]
ARM GAS  C:\Users\ADMINI~1\AppData\Local\Temp\cc3zYV2m.s 			page 34


 1070 018a 0023     		movs	r3, #0
 1071 018c 0093     		str	r3, [sp]
 1072 018e 2300     		movs	r3, r4
 1073 0190 FFF7FEFF 		bl	I2C_TransferConfig
 1074 0194 12E0     		b	.L39
 1075              	.L43:
 822:Drivers/STM32F0xx_HAL_Driver/Src/stm32f0xx_hal_i2c.c ****         }
 823:Drivers/STM32F0xx_HAL_Driver/Src/stm32f0xx_hal_i2c.c ****         else
 824:Drivers/STM32F0xx_HAL_Driver/Src/stm32f0xx_hal_i2c.c ****         {
 825:Drivers/STM32F0xx_HAL_Driver/Src/stm32f0xx_hal_i2c.c ****           hi2c->XferSize = hi2c->XferCount;
 1076              		.loc 1 825 32
 1077 0196 FB68     		ldr	r3, [r7, #12]
 1078 0198 5B8D     		ldrh	r3, [r3, #42]
 1079 019a 9AB2     		uxth	r2, r3
 1080              		.loc 1 825 26
 1081 019c FB68     		ldr	r3, [r7, #12]
 1082 019e 1A85     		strh	r2, [r3, #40]
 826:Drivers/STM32F0xx_HAL_Driver/Src/stm32f0xx_hal_i2c.c ****           I2C_TransferConfig(hi2c, DevAddress, hi2c->XferSize, I2C_AUTOEND_MODE, I2C_NO_STARTSTOP);
 1083              		.loc 1 826 52
 1084 01a0 FB68     		ldr	r3, [r7, #12]
 1085 01a2 1B8D     		ldrh	r3, [r3, #40]
 1086              		.loc 1 826 11
 1087 01a4 DAB2     		uxtb	r2, r3
 1088 01a6 8023     		movs	r3, #128
 1089 01a8 9C04     		lsls	r4, r3, #18
 1090 01aa 0A23     		movs	r3, #10
 1091 01ac FB18     		adds	r3, r7, r3
 1092 01ae 1988     		ldrh	r1, [r3]
 1093 01b0 F868     		ldr	r0, [r7, #12]
 1094 01b2 0023     		movs	r3, #0
 1095 01b4 0093     		str	r3, [sp]
 1096 01b6 2300     		movs	r3, r4
 1097 01b8 FFF7FEFF 		bl	I2C_TransferConfig
 1098              	.L39:
 790:Drivers/STM32F0xx_HAL_Driver/Src/stm32f0xx_hal_i2c.c ****     {
 1099              		.loc 1 790 16
 1100 01bc FB68     		ldr	r3, [r7, #12]
 1101 01be 5B8D     		ldrh	r3, [r3, #42]
 1102 01c0 9BB2     		uxth	r3, r3
 790:Drivers/STM32F0xx_HAL_Driver/Src/stm32f0xx_hal_i2c.c ****     {
 1103              		.loc 1 790 11
 1104 01c2 002B     		cmp	r3, #0
 1105 01c4 93D1     		bne	.L44
 827:Drivers/STM32F0xx_HAL_Driver/Src/stm32f0xx_hal_i2c.c ****         }
 828:Drivers/STM32F0xx_HAL_Driver/Src/stm32f0xx_hal_i2c.c ****       }
 829:Drivers/STM32F0xx_HAL_Driver/Src/stm32f0xx_hal_i2c.c ****     }
 830:Drivers/STM32F0xx_HAL_Driver/Src/stm32f0xx_hal_i2c.c **** 
 831:Drivers/STM32F0xx_HAL_Driver/Src/stm32f0xx_hal_i2c.c ****     /* No need to Check TC flag, with AUTOEND mode the stop is automatically generated */
 832:Drivers/STM32F0xx_HAL_Driver/Src/stm32f0xx_hal_i2c.c ****     /* Wait until STOPF flag is set */
 833:Drivers/STM32F0xx_HAL_Driver/Src/stm32f0xx_hal_i2c.c ****     if (I2C_WaitOnSTOPFlagUntilTimeout(hi2c, Timeout, tickstart) != HAL_OK)
 1106              		.loc 1 833 9
 1107 01c6 7A69     		ldr	r2, [r7, #20]
 1108 01c8 B96A     		ldr	r1, [r7, #40]
 1109 01ca FB68     		ldr	r3, [r7, #12]
 1110 01cc 1800     		movs	r0, r3
 1111 01ce FFF7FEFF 		bl	I2C_WaitOnSTOPFlagUntilTimeout
 1112 01d2 031E     		subs	r3, r0, #0
ARM GAS  C:\Users\ADMINI~1\AppData\Local\Temp\cc3zYV2m.s 			page 35


 1113              		.loc 1 833 8
 1114 01d4 07D0     		beq	.L45
 834:Drivers/STM32F0xx_HAL_Driver/Src/stm32f0xx_hal_i2c.c ****     {
 835:Drivers/STM32F0xx_HAL_Driver/Src/stm32f0xx_hal_i2c.c ****       if (hi2c->ErrorCode == HAL_I2C_ERROR_AF)
 1115              		.loc 1 835 15
 1116 01d6 FB68     		ldr	r3, [r7, #12]
 1117 01d8 5B6C     		ldr	r3, [r3, #68]
 1118              		.loc 1 835 10
 1119 01da 042B     		cmp	r3, #4
 1120 01dc 01D1     		bne	.L46
 836:Drivers/STM32F0xx_HAL_Driver/Src/stm32f0xx_hal_i2c.c ****       {
 837:Drivers/STM32F0xx_HAL_Driver/Src/stm32f0xx_hal_i2c.c ****         return HAL_ERROR;
 1121              		.loc 1 837 16
 1122 01de 0123     		movs	r3, #1
 1123 01e0 1CE0     		b	.L35
 1124              	.L46:
 838:Drivers/STM32F0xx_HAL_Driver/Src/stm32f0xx_hal_i2c.c ****       }
 839:Drivers/STM32F0xx_HAL_Driver/Src/stm32f0xx_hal_i2c.c ****       else
 840:Drivers/STM32F0xx_HAL_Driver/Src/stm32f0xx_hal_i2c.c ****       {
 841:Drivers/STM32F0xx_HAL_Driver/Src/stm32f0xx_hal_i2c.c ****         return HAL_TIMEOUT;
 1125              		.loc 1 841 16
 1126 01e2 0323     		movs	r3, #3
 1127 01e4 1AE0     		b	.L35
 1128              	.L45:
 842:Drivers/STM32F0xx_HAL_Driver/Src/stm32f0xx_hal_i2c.c ****       }
 843:Drivers/STM32F0xx_HAL_Driver/Src/stm32f0xx_hal_i2c.c ****     }
 844:Drivers/STM32F0xx_HAL_Driver/Src/stm32f0xx_hal_i2c.c **** 
 845:Drivers/STM32F0xx_HAL_Driver/Src/stm32f0xx_hal_i2c.c ****     /* Clear STOP Flag */
 846:Drivers/STM32F0xx_HAL_Driver/Src/stm32f0xx_hal_i2c.c ****     __HAL_I2C_CLEAR_FLAG(hi2c, I2C_FLAG_STOPF);
 1129              		.loc 1 846 5
 1130 01e6 FB68     		ldr	r3, [r7, #12]
 1131 01e8 1B68     		ldr	r3, [r3]
 1132 01ea 2022     		movs	r2, #32
 1133 01ec DA61     		str	r2, [r3, #28]
 847:Drivers/STM32F0xx_HAL_Driver/Src/stm32f0xx_hal_i2c.c **** 
 848:Drivers/STM32F0xx_HAL_Driver/Src/stm32f0xx_hal_i2c.c ****     /* Clear Configuration Register 2 */
 849:Drivers/STM32F0xx_HAL_Driver/Src/stm32f0xx_hal_i2c.c ****     I2C_RESET_CR2(hi2c);
 1134              		.loc 1 849 5
 1135 01ee FB68     		ldr	r3, [r7, #12]
 1136 01f0 1B68     		ldr	r3, [r3]
 1137 01f2 5A68     		ldr	r2, [r3, #4]
 1138 01f4 FB68     		ldr	r3, [r7, #12]
 1139 01f6 1B68     		ldr	r3, [r3]
 1140 01f8 0A49     		ldr	r1, .L47
 1141 01fa 0A40     		ands	r2, r1
 1142 01fc 5A60     		str	r2, [r3, #4]
 850:Drivers/STM32F0xx_HAL_Driver/Src/stm32f0xx_hal_i2c.c **** 
 851:Drivers/STM32F0xx_HAL_Driver/Src/stm32f0xx_hal_i2c.c ****     hi2c->State = HAL_I2C_STATE_READY;
 1143              		.loc 1 851 17
 1144 01fe FB68     		ldr	r3, [r7, #12]
 1145 0200 4122     		movs	r2, #65
 1146 0202 2021     		movs	r1, #32
 1147 0204 9954     		strb	r1, [r3, r2]
 852:Drivers/STM32F0xx_HAL_Driver/Src/stm32f0xx_hal_i2c.c ****     hi2c->Mode  = HAL_I2C_MODE_NONE;
 1148              		.loc 1 852 17
 1149 0206 FB68     		ldr	r3, [r7, #12]
 1150 0208 4222     		movs	r2, #66
ARM GAS  C:\Users\ADMINI~1\AppData\Local\Temp\cc3zYV2m.s 			page 36


 1151 020a 0021     		movs	r1, #0
 1152 020c 9954     		strb	r1, [r3, r2]
 853:Drivers/STM32F0xx_HAL_Driver/Src/stm32f0xx_hal_i2c.c **** 
 854:Drivers/STM32F0xx_HAL_Driver/Src/stm32f0xx_hal_i2c.c ****     /* Process Unlocked */
 855:Drivers/STM32F0xx_HAL_Driver/Src/stm32f0xx_hal_i2c.c ****     __HAL_UNLOCK(hi2c);
 1153              		.loc 1 855 5
 1154 020e FB68     		ldr	r3, [r7, #12]
 1155 0210 4022     		movs	r2, #64
 1156 0212 0021     		movs	r1, #0
 1157 0214 9954     		strb	r1, [r3, r2]
 856:Drivers/STM32F0xx_HAL_Driver/Src/stm32f0xx_hal_i2c.c **** 
 857:Drivers/STM32F0xx_HAL_Driver/Src/stm32f0xx_hal_i2c.c ****     return HAL_OK;
 1158              		.loc 1 857 12
 1159 0216 0023     		movs	r3, #0
 1160 0218 00E0     		b	.L35
 1161              	.L33:
 858:Drivers/STM32F0xx_HAL_Driver/Src/stm32f0xx_hal_i2c.c ****   }
 859:Drivers/STM32F0xx_HAL_Driver/Src/stm32f0xx_hal_i2c.c ****   else
 860:Drivers/STM32F0xx_HAL_Driver/Src/stm32f0xx_hal_i2c.c ****   {
 861:Drivers/STM32F0xx_HAL_Driver/Src/stm32f0xx_hal_i2c.c ****     return HAL_BUSY;
 1162              		.loc 1 861 12
 1163 021a 0223     		movs	r3, #2
 1164              	.L35:
 862:Drivers/STM32F0xx_HAL_Driver/Src/stm32f0xx_hal_i2c.c ****   }
 863:Drivers/STM32F0xx_HAL_Driver/Src/stm32f0xx_hal_i2c.c **** }
 1165              		.loc 1 863 1
 1166 021c 1800     		movs	r0, r3
 1167 021e BD46     		mov	sp, r7
 1168 0220 07B0     		add	sp, sp, #28
 1169              		@ sp needed
 1170 0222 90BD     		pop	{r4, r7, pc}
 1171              	.L48:
 1172              		.align	2
 1173              	.L47:
 1174 0224 00E800FE 		.word	-33495040
 1175              		.cfi_endproc
 1176              	.LFE42:
 1178              		.section	.text.HAL_I2C_Slave_Transmit,"ax",%progbits
 1179              		.align	1
 1180              		.global	HAL_I2C_Slave_Transmit
 1181              		.syntax unified
 1182              		.code	16
 1183              		.thumb_func
 1184              		.fpu softvfp
 1186              	HAL_I2C_Slave_Transmit:
 1187              	.LFB43:
 864:Drivers/STM32F0xx_HAL_Driver/Src/stm32f0xx_hal_i2c.c **** 
 865:Drivers/STM32F0xx_HAL_Driver/Src/stm32f0xx_hal_i2c.c **** /**
 866:Drivers/STM32F0xx_HAL_Driver/Src/stm32f0xx_hal_i2c.c ****   * @brief  Transmits in slave mode an amount of data in blocking mode.
 867:Drivers/STM32F0xx_HAL_Driver/Src/stm32f0xx_hal_i2c.c ****   * @param  hi2c Pointer to a I2C_HandleTypeDef structure that contains
 868:Drivers/STM32F0xx_HAL_Driver/Src/stm32f0xx_hal_i2c.c ****   *                the configuration information for the specified I2C.
 869:Drivers/STM32F0xx_HAL_Driver/Src/stm32f0xx_hal_i2c.c ****   * @param  pData Pointer to data buffer
 870:Drivers/STM32F0xx_HAL_Driver/Src/stm32f0xx_hal_i2c.c ****   * @param  Size Amount of data to be sent
 871:Drivers/STM32F0xx_HAL_Driver/Src/stm32f0xx_hal_i2c.c ****   * @param  Timeout Timeout duration
 872:Drivers/STM32F0xx_HAL_Driver/Src/stm32f0xx_hal_i2c.c ****   * @retval HAL status
 873:Drivers/STM32F0xx_HAL_Driver/Src/stm32f0xx_hal_i2c.c ****   */
 874:Drivers/STM32F0xx_HAL_Driver/Src/stm32f0xx_hal_i2c.c **** HAL_StatusTypeDef HAL_I2C_Slave_Transmit(I2C_HandleTypeDef *hi2c, uint8_t *pData, uint16_t Size, ui
ARM GAS  C:\Users\ADMINI~1\AppData\Local\Temp\cc3zYV2m.s 			page 37


 875:Drivers/STM32F0xx_HAL_Driver/Src/stm32f0xx_hal_i2c.c **** {
 1188              		.loc 1 875 1
 1189              		.cfi_startproc
 1190              		@ args = 0, pretend = 0, frame = 24
 1191              		@ frame_needed = 1, uses_anonymous_args = 0
 1192 0000 80B5     		push	{r7, lr}
 1193              	.LCFI18:
 1194              		.cfi_def_cfa_offset 8
 1195              		.cfi_offset 7, -8
 1196              		.cfi_offset 14, -4
 1197 0002 88B0     		sub	sp, sp, #32
 1198              	.LCFI19:
 1199              		.cfi_def_cfa_offset 40
 1200 0004 02AF     		add	r7, sp, #8
 1201              	.LCFI20:
 1202              		.cfi_def_cfa 7, 32
 1203 0006 F860     		str	r0, [r7, #12]
 1204 0008 B960     		str	r1, [r7, #8]
 1205 000a 3B60     		str	r3, [r7]
 1206 000c BB1D     		adds	r3, r7, #6
 1207 000e 1A80     		strh	r2, [r3]
 876:Drivers/STM32F0xx_HAL_Driver/Src/stm32f0xx_hal_i2c.c ****   uint32_t tickstart = 0U;
 1208              		.loc 1 876 12
 1209 0010 0023     		movs	r3, #0
 1210 0012 7B61     		str	r3, [r7, #20]
 877:Drivers/STM32F0xx_HAL_Driver/Src/stm32f0xx_hal_i2c.c **** 
 878:Drivers/STM32F0xx_HAL_Driver/Src/stm32f0xx_hal_i2c.c ****   if (hi2c->State == HAL_I2C_STATE_READY)
 1211              		.loc 1 878 11
 1212 0014 FB68     		ldr	r3, [r7, #12]
 1213 0016 4122     		movs	r2, #65
 1214 0018 9B5C     		ldrb	r3, [r3, r2]
 1215 001a DBB2     		uxtb	r3, r3
 1216              		.loc 1 878 6
 1217 001c 202B     		cmp	r3, #32
 1218 001e 00D0     		beq	.LCB999
 1219 0020 FEE0     		b	.L50	@long jump
 1220              	.LCB999:
 879:Drivers/STM32F0xx_HAL_Driver/Src/stm32f0xx_hal_i2c.c ****   {
 880:Drivers/STM32F0xx_HAL_Driver/Src/stm32f0xx_hal_i2c.c ****     if ((pData == NULL) || (Size == 0U))
 1221              		.loc 1 880 8
 1222 0022 BB68     		ldr	r3, [r7, #8]
 1223 0024 002B     		cmp	r3, #0
 1224 0026 03D0     		beq	.L51
 1225              		.loc 1 880 25 discriminator 1
 1226 0028 BB1D     		adds	r3, r7, #6
 1227 002a 1B88     		ldrh	r3, [r3]
 1228 002c 002B     		cmp	r3, #0
 1229 002e 01D1     		bne	.L52
 1230              	.L51:
 881:Drivers/STM32F0xx_HAL_Driver/Src/stm32f0xx_hal_i2c.c ****     {
 882:Drivers/STM32F0xx_HAL_Driver/Src/stm32f0xx_hal_i2c.c ****       return  HAL_ERROR;
 1231              		.loc 1 882 15
 1232 0030 0123     		movs	r3, #1
 1233 0032 F6E0     		b	.L53
 1234              	.L52:
 883:Drivers/STM32F0xx_HAL_Driver/Src/stm32f0xx_hal_i2c.c ****     }
 884:Drivers/STM32F0xx_HAL_Driver/Src/stm32f0xx_hal_i2c.c ****     /* Process Locked */
ARM GAS  C:\Users\ADMINI~1\AppData\Local\Temp\cc3zYV2m.s 			page 38


 885:Drivers/STM32F0xx_HAL_Driver/Src/stm32f0xx_hal_i2c.c ****     __HAL_LOCK(hi2c);
 1235              		.loc 1 885 5
 1236 0034 FB68     		ldr	r3, [r7, #12]
 1237 0036 4022     		movs	r2, #64
 1238 0038 9B5C     		ldrb	r3, [r3, r2]
 1239 003a 012B     		cmp	r3, #1
 1240 003c 01D1     		bne	.L54
 1241              		.loc 1 885 5 is_stmt 0 discriminator 1
 1242 003e 0223     		movs	r3, #2
 1243 0040 EFE0     		b	.L53
 1244              	.L54:
 1245              		.loc 1 885 5 discriminator 2
 1246 0042 FB68     		ldr	r3, [r7, #12]
 1247 0044 4022     		movs	r2, #64
 1248 0046 0121     		movs	r1, #1
 1249 0048 9954     		strb	r1, [r3, r2]
 886:Drivers/STM32F0xx_HAL_Driver/Src/stm32f0xx_hal_i2c.c **** 
 887:Drivers/STM32F0xx_HAL_Driver/Src/stm32f0xx_hal_i2c.c ****     /* Init tickstart for timeout management*/
 888:Drivers/STM32F0xx_HAL_Driver/Src/stm32f0xx_hal_i2c.c ****     tickstart = HAL_GetTick();
 1250              		.loc 1 888 17 is_stmt 1 discriminator 2
 1251 004a FFF7FEFF 		bl	HAL_GetTick
 1252 004e 0300     		movs	r3, r0
 1253 0050 7B61     		str	r3, [r7, #20]
 889:Drivers/STM32F0xx_HAL_Driver/Src/stm32f0xx_hal_i2c.c **** 
 890:Drivers/STM32F0xx_HAL_Driver/Src/stm32f0xx_hal_i2c.c ****     hi2c->State     = HAL_I2C_STATE_BUSY_TX;
 1254              		.loc 1 890 21 discriminator 2
 1255 0052 FB68     		ldr	r3, [r7, #12]
 1256 0054 4122     		movs	r2, #65
 1257 0056 2121     		movs	r1, #33
 1258 0058 9954     		strb	r1, [r3, r2]
 891:Drivers/STM32F0xx_HAL_Driver/Src/stm32f0xx_hal_i2c.c ****     hi2c->Mode      = HAL_I2C_MODE_SLAVE;
 1259              		.loc 1 891 21 discriminator 2
 1260 005a FB68     		ldr	r3, [r7, #12]
 1261 005c 4222     		movs	r2, #66
 1262 005e 2021     		movs	r1, #32
 1263 0060 9954     		strb	r1, [r3, r2]
 892:Drivers/STM32F0xx_HAL_Driver/Src/stm32f0xx_hal_i2c.c ****     hi2c->ErrorCode = HAL_I2C_ERROR_NONE;
 1264              		.loc 1 892 21 discriminator 2
 1265 0062 FB68     		ldr	r3, [r7, #12]
 1266 0064 0022     		movs	r2, #0
 1267 0066 5A64     		str	r2, [r3, #68]
 893:Drivers/STM32F0xx_HAL_Driver/Src/stm32f0xx_hal_i2c.c **** 
 894:Drivers/STM32F0xx_HAL_Driver/Src/stm32f0xx_hal_i2c.c ****     /* Prepare transfer parameters */
 895:Drivers/STM32F0xx_HAL_Driver/Src/stm32f0xx_hal_i2c.c ****     hi2c->pBuffPtr  = pData;
 1268              		.loc 1 895 21 discriminator 2
 1269 0068 FB68     		ldr	r3, [r7, #12]
 1270 006a BA68     		ldr	r2, [r7, #8]
 1271 006c 5A62     		str	r2, [r3, #36]
 896:Drivers/STM32F0xx_HAL_Driver/Src/stm32f0xx_hal_i2c.c ****     hi2c->XferCount = Size;
 1272              		.loc 1 896 21 discriminator 2
 1273 006e FB68     		ldr	r3, [r7, #12]
 1274 0070 BA1D     		adds	r2, r7, #6
 1275 0072 1288     		ldrh	r2, [r2]
 1276 0074 5A85     		strh	r2, [r3, #42]
 897:Drivers/STM32F0xx_HAL_Driver/Src/stm32f0xx_hal_i2c.c ****     hi2c->XferISR   = NULL;
 1277              		.loc 1 897 21 discriminator 2
 1278 0076 FB68     		ldr	r3, [r7, #12]
ARM GAS  C:\Users\ADMINI~1\AppData\Local\Temp\cc3zYV2m.s 			page 39


 1279 0078 0022     		movs	r2, #0
 1280 007a 5A63     		str	r2, [r3, #52]
 898:Drivers/STM32F0xx_HAL_Driver/Src/stm32f0xx_hal_i2c.c **** 
 899:Drivers/STM32F0xx_HAL_Driver/Src/stm32f0xx_hal_i2c.c ****     /* Enable Address Acknowledge */
 900:Drivers/STM32F0xx_HAL_Driver/Src/stm32f0xx_hal_i2c.c ****     hi2c->Instance->CR2 &= ~I2C_CR2_NACK;
 1281              		.loc 1 900 9 discriminator 2
 1282 007c FB68     		ldr	r3, [r7, #12]
 1283 007e 1B68     		ldr	r3, [r3]
 1284              		.loc 1 900 25 discriminator 2
 1285 0080 5A68     		ldr	r2, [r3, #4]
 1286              		.loc 1 900 9 discriminator 2
 1287 0082 FB68     		ldr	r3, [r7, #12]
 1288 0084 1B68     		ldr	r3, [r3]
 1289              		.loc 1 900 25 discriminator 2
 1290 0086 6949     		ldr	r1, .L66
 1291 0088 0A40     		ands	r2, r1
 1292 008a 5A60     		str	r2, [r3, #4]
 901:Drivers/STM32F0xx_HAL_Driver/Src/stm32f0xx_hal_i2c.c **** 
 902:Drivers/STM32F0xx_HAL_Driver/Src/stm32f0xx_hal_i2c.c ****     /* Wait until ADDR flag is set */
 903:Drivers/STM32F0xx_HAL_Driver/Src/stm32f0xx_hal_i2c.c ****     if (I2C_WaitOnFlagUntilTimeout(hi2c, I2C_FLAG_ADDR, RESET, Timeout, tickstart) != HAL_OK)
 1293              		.loc 1 903 9 discriminator 2
 1294 008c 3A68     		ldr	r2, [r7]
 1295 008e F868     		ldr	r0, [r7, #12]
 1296 0090 7B69     		ldr	r3, [r7, #20]
 1297 0092 0093     		str	r3, [sp]
 1298 0094 1300     		movs	r3, r2
 1299 0096 0022     		movs	r2, #0
 1300 0098 0821     		movs	r1, #8
 1301 009a FFF7FEFF 		bl	I2C_WaitOnFlagUntilTimeout
 1302 009e 031E     		subs	r3, r0, #0
 1303              		.loc 1 903 8 discriminator 2
 1304 00a0 0AD0     		beq	.L55
 904:Drivers/STM32F0xx_HAL_Driver/Src/stm32f0xx_hal_i2c.c ****     {
 905:Drivers/STM32F0xx_HAL_Driver/Src/stm32f0xx_hal_i2c.c ****       /* Disable Address Acknowledge */
 906:Drivers/STM32F0xx_HAL_Driver/Src/stm32f0xx_hal_i2c.c ****       hi2c->Instance->CR2 |= I2C_CR2_NACK;
 1305              		.loc 1 906 11
 1306 00a2 FB68     		ldr	r3, [r7, #12]
 1307 00a4 1B68     		ldr	r3, [r3]
 1308              		.loc 1 906 27
 1309 00a6 5A68     		ldr	r2, [r3, #4]
 1310              		.loc 1 906 11
 1311 00a8 FB68     		ldr	r3, [r7, #12]
 1312 00aa 1B68     		ldr	r3, [r3]
 1313              		.loc 1 906 27
 1314 00ac 8021     		movs	r1, #128
 1315 00ae 0902     		lsls	r1, r1, #8
 1316 00b0 0A43     		orrs	r2, r1
 1317 00b2 5A60     		str	r2, [r3, #4]
 907:Drivers/STM32F0xx_HAL_Driver/Src/stm32f0xx_hal_i2c.c ****       return HAL_TIMEOUT;
 1318              		.loc 1 907 14
 1319 00b4 0323     		movs	r3, #3
 1320 00b6 B4E0     		b	.L53
 1321              	.L55:
 908:Drivers/STM32F0xx_HAL_Driver/Src/stm32f0xx_hal_i2c.c ****     }
 909:Drivers/STM32F0xx_HAL_Driver/Src/stm32f0xx_hal_i2c.c **** 
 910:Drivers/STM32F0xx_HAL_Driver/Src/stm32f0xx_hal_i2c.c ****     /* Clear ADDR flag */
 911:Drivers/STM32F0xx_HAL_Driver/Src/stm32f0xx_hal_i2c.c ****     __HAL_I2C_CLEAR_FLAG(hi2c, I2C_FLAG_ADDR);
ARM GAS  C:\Users\ADMINI~1\AppData\Local\Temp\cc3zYV2m.s 			page 40


 1322              		.loc 1 911 5
 1323 00b8 FB68     		ldr	r3, [r7, #12]
 1324 00ba 1B68     		ldr	r3, [r3]
 1325 00bc 0822     		movs	r2, #8
 1326 00be DA61     		str	r2, [r3, #28]
 912:Drivers/STM32F0xx_HAL_Driver/Src/stm32f0xx_hal_i2c.c **** 
 913:Drivers/STM32F0xx_HAL_Driver/Src/stm32f0xx_hal_i2c.c ****     /* If 10bit addressing mode is selected */
 914:Drivers/STM32F0xx_HAL_Driver/Src/stm32f0xx_hal_i2c.c ****     if (hi2c->Init.AddressingMode == I2C_ADDRESSINGMODE_10BIT)
 1327              		.loc 1 914 19
 1328 00c0 FB68     		ldr	r3, [r7, #12]
 1329 00c2 DB68     		ldr	r3, [r3, #12]
 1330              		.loc 1 914 8
 1331 00c4 022B     		cmp	r3, #2
 1332 00c6 19D1     		bne	.L56
 915:Drivers/STM32F0xx_HAL_Driver/Src/stm32f0xx_hal_i2c.c ****     {
 916:Drivers/STM32F0xx_HAL_Driver/Src/stm32f0xx_hal_i2c.c ****       /* Wait until ADDR flag is set */
 917:Drivers/STM32F0xx_HAL_Driver/Src/stm32f0xx_hal_i2c.c ****       if (I2C_WaitOnFlagUntilTimeout(hi2c, I2C_FLAG_ADDR, RESET, Timeout, tickstart) != HAL_OK)
 1333              		.loc 1 917 11
 1334 00c8 3A68     		ldr	r2, [r7]
 1335 00ca F868     		ldr	r0, [r7, #12]
 1336 00cc 7B69     		ldr	r3, [r7, #20]
 1337 00ce 0093     		str	r3, [sp]
 1338 00d0 1300     		movs	r3, r2
 1339 00d2 0022     		movs	r2, #0
 1340 00d4 0821     		movs	r1, #8
 1341 00d6 FFF7FEFF 		bl	I2C_WaitOnFlagUntilTimeout
 1342 00da 031E     		subs	r3, r0, #0
 1343              		.loc 1 917 10
 1344 00dc 0AD0     		beq	.L57
 918:Drivers/STM32F0xx_HAL_Driver/Src/stm32f0xx_hal_i2c.c ****       {
 919:Drivers/STM32F0xx_HAL_Driver/Src/stm32f0xx_hal_i2c.c ****         /* Disable Address Acknowledge */
 920:Drivers/STM32F0xx_HAL_Driver/Src/stm32f0xx_hal_i2c.c ****         hi2c->Instance->CR2 |= I2C_CR2_NACK;
 1345              		.loc 1 920 13
 1346 00de FB68     		ldr	r3, [r7, #12]
 1347 00e0 1B68     		ldr	r3, [r3]
 1348              		.loc 1 920 29
 1349 00e2 5A68     		ldr	r2, [r3, #4]
 1350              		.loc 1 920 13
 1351 00e4 FB68     		ldr	r3, [r7, #12]
 1352 00e6 1B68     		ldr	r3, [r3]
 1353              		.loc 1 920 29
 1354 00e8 8021     		movs	r1, #128
 1355 00ea 0902     		lsls	r1, r1, #8
 1356 00ec 0A43     		orrs	r2, r1
 1357 00ee 5A60     		str	r2, [r3, #4]
 921:Drivers/STM32F0xx_HAL_Driver/Src/stm32f0xx_hal_i2c.c ****         return HAL_TIMEOUT;
 1358              		.loc 1 921 16
 1359 00f0 0323     		movs	r3, #3
 1360 00f2 96E0     		b	.L53
 1361              	.L57:
 922:Drivers/STM32F0xx_HAL_Driver/Src/stm32f0xx_hal_i2c.c ****       }
 923:Drivers/STM32F0xx_HAL_Driver/Src/stm32f0xx_hal_i2c.c **** 
 924:Drivers/STM32F0xx_HAL_Driver/Src/stm32f0xx_hal_i2c.c ****       /* Clear ADDR flag */
 925:Drivers/STM32F0xx_HAL_Driver/Src/stm32f0xx_hal_i2c.c ****       __HAL_I2C_CLEAR_FLAG(hi2c, I2C_FLAG_ADDR);
 1362              		.loc 1 925 7
 1363 00f4 FB68     		ldr	r3, [r7, #12]
 1364 00f6 1B68     		ldr	r3, [r3]
ARM GAS  C:\Users\ADMINI~1\AppData\Local\Temp\cc3zYV2m.s 			page 41


 1365 00f8 0822     		movs	r2, #8
 1366 00fa DA61     		str	r2, [r3, #28]
 1367              	.L56:
 926:Drivers/STM32F0xx_HAL_Driver/Src/stm32f0xx_hal_i2c.c ****     }
 927:Drivers/STM32F0xx_HAL_Driver/Src/stm32f0xx_hal_i2c.c **** 
 928:Drivers/STM32F0xx_HAL_Driver/Src/stm32f0xx_hal_i2c.c ****     /* Wait until DIR flag is set Transmitter mode */
 929:Drivers/STM32F0xx_HAL_Driver/Src/stm32f0xx_hal_i2c.c ****     if (I2C_WaitOnFlagUntilTimeout(hi2c, I2C_FLAG_DIR, RESET, Timeout, tickstart) != HAL_OK)
 1368              		.loc 1 929 9
 1369 00fc 3A68     		ldr	r2, [r7]
 1370 00fe 8023     		movs	r3, #128
 1371 0100 5902     		lsls	r1, r3, #9
 1372 0102 F868     		ldr	r0, [r7, #12]
 1373 0104 7B69     		ldr	r3, [r7, #20]
 1374 0106 0093     		str	r3, [sp]
 1375 0108 1300     		movs	r3, r2
 1376 010a 0022     		movs	r2, #0
 1377 010c FFF7FEFF 		bl	I2C_WaitOnFlagUntilTimeout
 1378 0110 031E     		subs	r3, r0, #0
 1379              		.loc 1 929 8
 1380 0112 33D0     		beq	.L59
 930:Drivers/STM32F0xx_HAL_Driver/Src/stm32f0xx_hal_i2c.c ****     {
 931:Drivers/STM32F0xx_HAL_Driver/Src/stm32f0xx_hal_i2c.c ****       /* Disable Address Acknowledge */
 932:Drivers/STM32F0xx_HAL_Driver/Src/stm32f0xx_hal_i2c.c ****       hi2c->Instance->CR2 |= I2C_CR2_NACK;
 1381              		.loc 1 932 11
 1382 0114 FB68     		ldr	r3, [r7, #12]
 1383 0116 1B68     		ldr	r3, [r3]
 1384              		.loc 1 932 27
 1385 0118 5A68     		ldr	r2, [r3, #4]
 1386              		.loc 1 932 11
 1387 011a FB68     		ldr	r3, [r7, #12]
 1388 011c 1B68     		ldr	r3, [r3]
 1389              		.loc 1 932 27
 1390 011e 8021     		movs	r1, #128
 1391 0120 0902     		lsls	r1, r1, #8
 1392 0122 0A43     		orrs	r2, r1
 1393 0124 5A60     		str	r2, [r3, #4]
 933:Drivers/STM32F0xx_HAL_Driver/Src/stm32f0xx_hal_i2c.c ****       return HAL_TIMEOUT;
 1394              		.loc 1 933 14
 1395 0126 0323     		movs	r3, #3
 1396 0128 7BE0     		b	.L53
 1397              	.L62:
 934:Drivers/STM32F0xx_HAL_Driver/Src/stm32f0xx_hal_i2c.c ****     }
 935:Drivers/STM32F0xx_HAL_Driver/Src/stm32f0xx_hal_i2c.c **** 
 936:Drivers/STM32F0xx_HAL_Driver/Src/stm32f0xx_hal_i2c.c ****     while (hi2c->XferCount > 0U)
 937:Drivers/STM32F0xx_HAL_Driver/Src/stm32f0xx_hal_i2c.c ****     {
 938:Drivers/STM32F0xx_HAL_Driver/Src/stm32f0xx_hal_i2c.c ****       /* Wait until TXIS flag is set */
 939:Drivers/STM32F0xx_HAL_Driver/Src/stm32f0xx_hal_i2c.c ****       if (I2C_WaitOnTXISFlagUntilTimeout(hi2c, Timeout, tickstart) != HAL_OK)
 1398              		.loc 1 939 11
 1399 012a 7A69     		ldr	r2, [r7, #20]
 1400 012c 3968     		ldr	r1, [r7]
 1401 012e FB68     		ldr	r3, [r7, #12]
 1402 0130 1800     		movs	r0, r3
 1403 0132 FFF7FEFF 		bl	I2C_WaitOnTXISFlagUntilTimeout
 1404 0136 031E     		subs	r3, r0, #0
 1405              		.loc 1 939 10
 1406 0138 10D0     		beq	.L60
 940:Drivers/STM32F0xx_HAL_Driver/Src/stm32f0xx_hal_i2c.c ****       {
ARM GAS  C:\Users\ADMINI~1\AppData\Local\Temp\cc3zYV2m.s 			page 42


 941:Drivers/STM32F0xx_HAL_Driver/Src/stm32f0xx_hal_i2c.c ****         /* Disable Address Acknowledge */
 942:Drivers/STM32F0xx_HAL_Driver/Src/stm32f0xx_hal_i2c.c ****         hi2c->Instance->CR2 |= I2C_CR2_NACK;
 1407              		.loc 1 942 13
 1408 013a FB68     		ldr	r3, [r7, #12]
 1409 013c 1B68     		ldr	r3, [r3]
 1410              		.loc 1 942 29
 1411 013e 5A68     		ldr	r2, [r3, #4]
 1412              		.loc 1 942 13
 1413 0140 FB68     		ldr	r3, [r7, #12]
 1414 0142 1B68     		ldr	r3, [r3]
 1415              		.loc 1 942 29
 1416 0144 8021     		movs	r1, #128
 1417 0146 0902     		lsls	r1, r1, #8
 1418 0148 0A43     		orrs	r2, r1
 1419 014a 5A60     		str	r2, [r3, #4]
 943:Drivers/STM32F0xx_HAL_Driver/Src/stm32f0xx_hal_i2c.c **** 
 944:Drivers/STM32F0xx_HAL_Driver/Src/stm32f0xx_hal_i2c.c ****         if (hi2c->ErrorCode == HAL_I2C_ERROR_AF)
 1420              		.loc 1 944 17
 1421 014c FB68     		ldr	r3, [r7, #12]
 1422 014e 5B6C     		ldr	r3, [r3, #68]
 1423              		.loc 1 944 12
 1424 0150 042B     		cmp	r3, #4
 1425 0152 01D1     		bne	.L61
 945:Drivers/STM32F0xx_HAL_Driver/Src/stm32f0xx_hal_i2c.c ****         {
 946:Drivers/STM32F0xx_HAL_Driver/Src/stm32f0xx_hal_i2c.c ****           return HAL_ERROR;
 1426              		.loc 1 946 18
 1427 0154 0123     		movs	r3, #1
 1428 0156 64E0     		b	.L53
 1429              	.L61:
 947:Drivers/STM32F0xx_HAL_Driver/Src/stm32f0xx_hal_i2c.c ****         }
 948:Drivers/STM32F0xx_HAL_Driver/Src/stm32f0xx_hal_i2c.c ****         else
 949:Drivers/STM32F0xx_HAL_Driver/Src/stm32f0xx_hal_i2c.c ****         {
 950:Drivers/STM32F0xx_HAL_Driver/Src/stm32f0xx_hal_i2c.c ****           return HAL_TIMEOUT;
 1430              		.loc 1 950 18
 1431 0158 0323     		movs	r3, #3
 1432 015a 62E0     		b	.L53
 1433              	.L60:
 951:Drivers/STM32F0xx_HAL_Driver/Src/stm32f0xx_hal_i2c.c ****         }
 952:Drivers/STM32F0xx_HAL_Driver/Src/stm32f0xx_hal_i2c.c ****       }
 953:Drivers/STM32F0xx_HAL_Driver/Src/stm32f0xx_hal_i2c.c **** 
 954:Drivers/STM32F0xx_HAL_Driver/Src/stm32f0xx_hal_i2c.c ****       /* Write data to TXDR */
 955:Drivers/STM32F0xx_HAL_Driver/Src/stm32f0xx_hal_i2c.c ****       hi2c->Instance->TXDR = (*hi2c->pBuffPtr++);
 1434              		.loc 1 955 36
 1435 015c FB68     		ldr	r3, [r7, #12]
 1436 015e 5B6A     		ldr	r3, [r3, #36]
 1437              		.loc 1 955 46
 1438 0160 591C     		adds	r1, r3, #1
 1439 0162 FA68     		ldr	r2, [r7, #12]
 1440 0164 5162     		str	r1, [r2, #36]
 1441              		.loc 1 955 31
 1442 0166 1A78     		ldrb	r2, [r3]
 1443              		.loc 1 955 11
 1444 0168 FB68     		ldr	r3, [r7, #12]
 1445 016a 1B68     		ldr	r3, [r3]
 1446              		.loc 1 955 28
 1447 016c 9A62     		str	r2, [r3, #40]
 956:Drivers/STM32F0xx_HAL_Driver/Src/stm32f0xx_hal_i2c.c ****       hi2c->XferCount--;
ARM GAS  C:\Users\ADMINI~1\AppData\Local\Temp\cc3zYV2m.s 			page 43


 1448              		.loc 1 956 11
 1449 016e FB68     		ldr	r3, [r7, #12]
 1450 0170 5B8D     		ldrh	r3, [r3, #42]
 1451 0172 9BB2     		uxth	r3, r3
 1452              		.loc 1 956 22
 1453 0174 013B     		subs	r3, r3, #1
 1454 0176 9AB2     		uxth	r2, r3
 1455 0178 FB68     		ldr	r3, [r7, #12]
 1456 017a 5A85     		strh	r2, [r3, #42]
 1457              	.L59:
 936:Drivers/STM32F0xx_HAL_Driver/Src/stm32f0xx_hal_i2c.c ****     {
 1458              		.loc 1 936 16
 1459 017c FB68     		ldr	r3, [r7, #12]
 1460 017e 5B8D     		ldrh	r3, [r3, #42]
 1461 0180 9BB2     		uxth	r3, r3
 936:Drivers/STM32F0xx_HAL_Driver/Src/stm32f0xx_hal_i2c.c ****     {
 1462              		.loc 1 936 11
 1463 0182 002B     		cmp	r3, #0
 1464 0184 D1D1     		bne	.L62
 957:Drivers/STM32F0xx_HAL_Driver/Src/stm32f0xx_hal_i2c.c ****     }
 958:Drivers/STM32F0xx_HAL_Driver/Src/stm32f0xx_hal_i2c.c **** 
 959:Drivers/STM32F0xx_HAL_Driver/Src/stm32f0xx_hal_i2c.c ****     /* Wait until STOP flag is set */
 960:Drivers/STM32F0xx_HAL_Driver/Src/stm32f0xx_hal_i2c.c ****     if (I2C_WaitOnSTOPFlagUntilTimeout(hi2c, Timeout, tickstart) != HAL_OK)
 1465              		.loc 1 960 9
 1466 0186 7A69     		ldr	r2, [r7, #20]
 1467 0188 3968     		ldr	r1, [r7]
 1468 018a FB68     		ldr	r3, [r7, #12]
 1469 018c 1800     		movs	r0, r3
 1470 018e FFF7FEFF 		bl	I2C_WaitOnSTOPFlagUntilTimeout
 1471 0192 031E     		subs	r3, r0, #0
 1472              		.loc 1 960 8
 1473 0194 12D0     		beq	.L63
 961:Drivers/STM32F0xx_HAL_Driver/Src/stm32f0xx_hal_i2c.c ****     {
 962:Drivers/STM32F0xx_HAL_Driver/Src/stm32f0xx_hal_i2c.c ****       /* Disable Address Acknowledge */
 963:Drivers/STM32F0xx_HAL_Driver/Src/stm32f0xx_hal_i2c.c ****       hi2c->Instance->CR2 |= I2C_CR2_NACK;
 1474              		.loc 1 963 11
 1475 0196 FB68     		ldr	r3, [r7, #12]
 1476 0198 1B68     		ldr	r3, [r3]
 1477              		.loc 1 963 27
 1478 019a 5A68     		ldr	r2, [r3, #4]
 1479              		.loc 1 963 11
 1480 019c FB68     		ldr	r3, [r7, #12]
 1481 019e 1B68     		ldr	r3, [r3]
 1482              		.loc 1 963 27
 1483 01a0 8021     		movs	r1, #128
 1484 01a2 0902     		lsls	r1, r1, #8
 1485 01a4 0A43     		orrs	r2, r1
 1486 01a6 5A60     		str	r2, [r3, #4]
 964:Drivers/STM32F0xx_HAL_Driver/Src/stm32f0xx_hal_i2c.c **** 
 965:Drivers/STM32F0xx_HAL_Driver/Src/stm32f0xx_hal_i2c.c ****       if (hi2c->ErrorCode == HAL_I2C_ERROR_AF)
 1487              		.loc 1 965 15
 1488 01a8 FB68     		ldr	r3, [r7, #12]
 1489 01aa 5B6C     		ldr	r3, [r3, #68]
 1490              		.loc 1 965 10
 1491 01ac 042B     		cmp	r3, #4
 1492 01ae 03D1     		bne	.L64
 966:Drivers/STM32F0xx_HAL_Driver/Src/stm32f0xx_hal_i2c.c ****       {
ARM GAS  C:\Users\ADMINI~1\AppData\Local\Temp\cc3zYV2m.s 			page 44


 967:Drivers/STM32F0xx_HAL_Driver/Src/stm32f0xx_hal_i2c.c ****         /* Normal use case for Transmitter mode */
 968:Drivers/STM32F0xx_HAL_Driver/Src/stm32f0xx_hal_i2c.c ****         /* A NACK is generated to confirm the end of transfer */
 969:Drivers/STM32F0xx_HAL_Driver/Src/stm32f0xx_hal_i2c.c ****         hi2c->ErrorCode = HAL_I2C_ERROR_NONE;
 1493              		.loc 1 969 25
 1494 01b0 FB68     		ldr	r3, [r7, #12]
 1495 01b2 0022     		movs	r2, #0
 1496 01b4 5A64     		str	r2, [r3, #68]
 1497 01b6 01E0     		b	.L63
 1498              	.L64:
 970:Drivers/STM32F0xx_HAL_Driver/Src/stm32f0xx_hal_i2c.c ****       }
 971:Drivers/STM32F0xx_HAL_Driver/Src/stm32f0xx_hal_i2c.c ****       else
 972:Drivers/STM32F0xx_HAL_Driver/Src/stm32f0xx_hal_i2c.c ****       {
 973:Drivers/STM32F0xx_HAL_Driver/Src/stm32f0xx_hal_i2c.c ****         return HAL_TIMEOUT;
 1499              		.loc 1 973 16
 1500 01b8 0323     		movs	r3, #3
 1501 01ba 32E0     		b	.L53
 1502              	.L63:
 974:Drivers/STM32F0xx_HAL_Driver/Src/stm32f0xx_hal_i2c.c ****       }
 975:Drivers/STM32F0xx_HAL_Driver/Src/stm32f0xx_hal_i2c.c ****     }
 976:Drivers/STM32F0xx_HAL_Driver/Src/stm32f0xx_hal_i2c.c **** 
 977:Drivers/STM32F0xx_HAL_Driver/Src/stm32f0xx_hal_i2c.c ****     /* Clear STOP flag */
 978:Drivers/STM32F0xx_HAL_Driver/Src/stm32f0xx_hal_i2c.c ****     __HAL_I2C_CLEAR_FLAG(hi2c, I2C_FLAG_STOPF);
 1503              		.loc 1 978 5
 1504 01bc FB68     		ldr	r3, [r7, #12]
 1505 01be 1B68     		ldr	r3, [r3]
 1506 01c0 2022     		movs	r2, #32
 1507 01c2 DA61     		str	r2, [r3, #28]
 979:Drivers/STM32F0xx_HAL_Driver/Src/stm32f0xx_hal_i2c.c **** 
 980:Drivers/STM32F0xx_HAL_Driver/Src/stm32f0xx_hal_i2c.c ****     /* Wait until BUSY flag is reset */
 981:Drivers/STM32F0xx_HAL_Driver/Src/stm32f0xx_hal_i2c.c ****     if (I2C_WaitOnFlagUntilTimeout(hi2c, I2C_FLAG_BUSY, SET, Timeout, tickstart) != HAL_OK)
 1508              		.loc 1 981 9
 1509 01c4 3A68     		ldr	r2, [r7]
 1510 01c6 8023     		movs	r3, #128
 1511 01c8 1902     		lsls	r1, r3, #8
 1512 01ca F868     		ldr	r0, [r7, #12]
 1513 01cc 7B69     		ldr	r3, [r7, #20]
 1514 01ce 0093     		str	r3, [sp]
 1515 01d0 1300     		movs	r3, r2
 1516 01d2 0122     		movs	r2, #1
 1517 01d4 FFF7FEFF 		bl	I2C_WaitOnFlagUntilTimeout
 1518 01d8 031E     		subs	r3, r0, #0
 1519              		.loc 1 981 8
 1520 01da 0AD0     		beq	.L65
 982:Drivers/STM32F0xx_HAL_Driver/Src/stm32f0xx_hal_i2c.c ****     {
 983:Drivers/STM32F0xx_HAL_Driver/Src/stm32f0xx_hal_i2c.c ****       /* Disable Address Acknowledge */
 984:Drivers/STM32F0xx_HAL_Driver/Src/stm32f0xx_hal_i2c.c ****       hi2c->Instance->CR2 |= I2C_CR2_NACK;
 1521              		.loc 1 984 11
 1522 01dc FB68     		ldr	r3, [r7, #12]
 1523 01de 1B68     		ldr	r3, [r3]
 1524              		.loc 1 984 27
 1525 01e0 5A68     		ldr	r2, [r3, #4]
 1526              		.loc 1 984 11
 1527 01e2 FB68     		ldr	r3, [r7, #12]
 1528 01e4 1B68     		ldr	r3, [r3]
 1529              		.loc 1 984 27
 1530 01e6 8021     		movs	r1, #128
 1531 01e8 0902     		lsls	r1, r1, #8
ARM GAS  C:\Users\ADMINI~1\AppData\Local\Temp\cc3zYV2m.s 			page 45


 1532 01ea 0A43     		orrs	r2, r1
 1533 01ec 5A60     		str	r2, [r3, #4]
 985:Drivers/STM32F0xx_HAL_Driver/Src/stm32f0xx_hal_i2c.c ****       return HAL_TIMEOUT;
 1534              		.loc 1 985 14
 1535 01ee 0323     		movs	r3, #3
 1536 01f0 17E0     		b	.L53
 1537              	.L65:
 986:Drivers/STM32F0xx_HAL_Driver/Src/stm32f0xx_hal_i2c.c ****     }
 987:Drivers/STM32F0xx_HAL_Driver/Src/stm32f0xx_hal_i2c.c **** 
 988:Drivers/STM32F0xx_HAL_Driver/Src/stm32f0xx_hal_i2c.c ****     /* Disable Address Acknowledge */
 989:Drivers/STM32F0xx_HAL_Driver/Src/stm32f0xx_hal_i2c.c ****     hi2c->Instance->CR2 |= I2C_CR2_NACK;
 1538              		.loc 1 989 9
 1539 01f2 FB68     		ldr	r3, [r7, #12]
 1540 01f4 1B68     		ldr	r3, [r3]
 1541              		.loc 1 989 25
 1542 01f6 5A68     		ldr	r2, [r3, #4]
 1543              		.loc 1 989 9
 1544 01f8 FB68     		ldr	r3, [r7, #12]
 1545 01fa 1B68     		ldr	r3, [r3]
 1546              		.loc 1 989 25
 1547 01fc 8021     		movs	r1, #128
 1548 01fe 0902     		lsls	r1, r1, #8
 1549 0200 0A43     		orrs	r2, r1
 1550 0202 5A60     		str	r2, [r3, #4]
 990:Drivers/STM32F0xx_HAL_Driver/Src/stm32f0xx_hal_i2c.c **** 
 991:Drivers/STM32F0xx_HAL_Driver/Src/stm32f0xx_hal_i2c.c ****     hi2c->State = HAL_I2C_STATE_READY;
 1551              		.loc 1 991 17
 1552 0204 FB68     		ldr	r3, [r7, #12]
 1553 0206 4122     		movs	r2, #65
 1554 0208 2021     		movs	r1, #32
 1555 020a 9954     		strb	r1, [r3, r2]
 992:Drivers/STM32F0xx_HAL_Driver/Src/stm32f0xx_hal_i2c.c ****     hi2c->Mode  = HAL_I2C_MODE_NONE;
 1556              		.loc 1 992 17
 1557 020c FB68     		ldr	r3, [r7, #12]
 1558 020e 4222     		movs	r2, #66
 1559 0210 0021     		movs	r1, #0
 1560 0212 9954     		strb	r1, [r3, r2]
 993:Drivers/STM32F0xx_HAL_Driver/Src/stm32f0xx_hal_i2c.c **** 
 994:Drivers/STM32F0xx_HAL_Driver/Src/stm32f0xx_hal_i2c.c ****     /* Process Unlocked */
 995:Drivers/STM32F0xx_HAL_Driver/Src/stm32f0xx_hal_i2c.c ****     __HAL_UNLOCK(hi2c);
 1561              		.loc 1 995 5
 1562 0214 FB68     		ldr	r3, [r7, #12]
 1563 0216 4022     		movs	r2, #64
 1564 0218 0021     		movs	r1, #0
 1565 021a 9954     		strb	r1, [r3, r2]
 996:Drivers/STM32F0xx_HAL_Driver/Src/stm32f0xx_hal_i2c.c **** 
 997:Drivers/STM32F0xx_HAL_Driver/Src/stm32f0xx_hal_i2c.c ****     return HAL_OK;
 1566              		.loc 1 997 12
 1567 021c 0023     		movs	r3, #0
 1568 021e 00E0     		b	.L53
 1569              	.L50:
 998:Drivers/STM32F0xx_HAL_Driver/Src/stm32f0xx_hal_i2c.c ****   }
 999:Drivers/STM32F0xx_HAL_Driver/Src/stm32f0xx_hal_i2c.c ****   else
1000:Drivers/STM32F0xx_HAL_Driver/Src/stm32f0xx_hal_i2c.c ****   {
1001:Drivers/STM32F0xx_HAL_Driver/Src/stm32f0xx_hal_i2c.c ****     return HAL_BUSY;
 1570              		.loc 1 1001 12
 1571 0220 0223     		movs	r3, #2
ARM GAS  C:\Users\ADMINI~1\AppData\Local\Temp\cc3zYV2m.s 			page 46


 1572              	.L53:
1002:Drivers/STM32F0xx_HAL_Driver/Src/stm32f0xx_hal_i2c.c ****   }
1003:Drivers/STM32F0xx_HAL_Driver/Src/stm32f0xx_hal_i2c.c **** }
 1573              		.loc 1 1003 1
 1574 0222 1800     		movs	r0, r3
 1575 0224 BD46     		mov	sp, r7
 1576 0226 06B0     		add	sp, sp, #24
 1577              		@ sp needed
 1578 0228 80BD     		pop	{r7, pc}
 1579              	.L67:
 1580 022a C046     		.align	2
 1581              	.L66:
 1582 022c FF7FFFFF 		.word	-32769
 1583              		.cfi_endproc
 1584              	.LFE43:
 1586              		.section	.text.HAL_I2C_Slave_Receive,"ax",%progbits
 1587              		.align	1
 1588              		.global	HAL_I2C_Slave_Receive
 1589              		.syntax unified
 1590              		.code	16
 1591              		.thumb_func
 1592              		.fpu softvfp
 1594              	HAL_I2C_Slave_Receive:
 1595              	.LFB44:
1004:Drivers/STM32F0xx_HAL_Driver/Src/stm32f0xx_hal_i2c.c **** 
1005:Drivers/STM32F0xx_HAL_Driver/Src/stm32f0xx_hal_i2c.c **** /**
1006:Drivers/STM32F0xx_HAL_Driver/Src/stm32f0xx_hal_i2c.c ****   * @brief  Receive in slave mode an amount of data in blocking mode
1007:Drivers/STM32F0xx_HAL_Driver/Src/stm32f0xx_hal_i2c.c ****   * @param  hi2c Pointer to a I2C_HandleTypeDef structure that contains
1008:Drivers/STM32F0xx_HAL_Driver/Src/stm32f0xx_hal_i2c.c ****   *                the configuration information for the specified I2C.
1009:Drivers/STM32F0xx_HAL_Driver/Src/stm32f0xx_hal_i2c.c ****   * @param  pData Pointer to data buffer
1010:Drivers/STM32F0xx_HAL_Driver/Src/stm32f0xx_hal_i2c.c ****   * @param  Size Amount of data to be sent
1011:Drivers/STM32F0xx_HAL_Driver/Src/stm32f0xx_hal_i2c.c ****   * @param  Timeout Timeout duration
1012:Drivers/STM32F0xx_HAL_Driver/Src/stm32f0xx_hal_i2c.c ****   * @retval HAL status
1013:Drivers/STM32F0xx_HAL_Driver/Src/stm32f0xx_hal_i2c.c ****   */
1014:Drivers/STM32F0xx_HAL_Driver/Src/stm32f0xx_hal_i2c.c **** HAL_StatusTypeDef HAL_I2C_Slave_Receive(I2C_HandleTypeDef *hi2c, uint8_t *pData, uint16_t Size, uin
1015:Drivers/STM32F0xx_HAL_Driver/Src/stm32f0xx_hal_i2c.c **** {
 1596              		.loc 1 1015 1
 1597              		.cfi_startproc
 1598              		@ args = 0, pretend = 0, frame = 24
 1599              		@ frame_needed = 1, uses_anonymous_args = 0
 1600 0000 80B5     		push	{r7, lr}
 1601              	.LCFI21:
 1602              		.cfi_def_cfa_offset 8
 1603              		.cfi_offset 7, -8
 1604              		.cfi_offset 14, -4
 1605 0002 88B0     		sub	sp, sp, #32
 1606              	.LCFI22:
 1607              		.cfi_def_cfa_offset 40
 1608 0004 02AF     		add	r7, sp, #8
 1609              	.LCFI23:
 1610              		.cfi_def_cfa 7, 32
 1611 0006 F860     		str	r0, [r7, #12]
 1612 0008 B960     		str	r1, [r7, #8]
 1613 000a 3B60     		str	r3, [r7]
 1614 000c BB1D     		adds	r3, r7, #6
 1615 000e 1A80     		strh	r2, [r3]
1016:Drivers/STM32F0xx_HAL_Driver/Src/stm32f0xx_hal_i2c.c ****   uint32_t tickstart = 0U;
ARM GAS  C:\Users\ADMINI~1\AppData\Local\Temp\cc3zYV2m.s 			page 47


 1616              		.loc 1 1016 12
 1617 0010 0023     		movs	r3, #0
 1618 0012 7B61     		str	r3, [r7, #20]
1017:Drivers/STM32F0xx_HAL_Driver/Src/stm32f0xx_hal_i2c.c **** 
1018:Drivers/STM32F0xx_HAL_Driver/Src/stm32f0xx_hal_i2c.c ****   if (hi2c->State == HAL_I2C_STATE_READY)
 1619              		.loc 1 1018 11
 1620 0014 FB68     		ldr	r3, [r7, #12]
 1621 0016 4122     		movs	r2, #65
 1622 0018 9B5C     		ldrb	r3, [r3, r2]
 1623 001a DBB2     		uxtb	r3, r3
 1624              		.loc 1 1018 6
 1625 001c 202B     		cmp	r3, #32
 1626 001e 00D0     		beq	.LCB1339
 1627 0020 F7E0     		b	.L69	@long jump
 1628              	.LCB1339:
1019:Drivers/STM32F0xx_HAL_Driver/Src/stm32f0xx_hal_i2c.c ****   {
1020:Drivers/STM32F0xx_HAL_Driver/Src/stm32f0xx_hal_i2c.c ****     if ((pData == NULL) || (Size == 0U))
 1629              		.loc 1 1020 8
 1630 0022 BB68     		ldr	r3, [r7, #8]
 1631 0024 002B     		cmp	r3, #0
 1632 0026 03D0     		beq	.L70
 1633              		.loc 1 1020 25 discriminator 1
 1634 0028 BB1D     		adds	r3, r7, #6
 1635 002a 1B88     		ldrh	r3, [r3]
 1636 002c 002B     		cmp	r3, #0
 1637 002e 01D1     		bne	.L71
 1638              	.L70:
1021:Drivers/STM32F0xx_HAL_Driver/Src/stm32f0xx_hal_i2c.c ****     {
1022:Drivers/STM32F0xx_HAL_Driver/Src/stm32f0xx_hal_i2c.c ****       return  HAL_ERROR;
 1639              		.loc 1 1022 15
 1640 0030 0123     		movs	r3, #1
 1641 0032 EFE0     		b	.L72
 1642              	.L71:
1023:Drivers/STM32F0xx_HAL_Driver/Src/stm32f0xx_hal_i2c.c ****     }
1024:Drivers/STM32F0xx_HAL_Driver/Src/stm32f0xx_hal_i2c.c ****     /* Process Locked */
1025:Drivers/STM32F0xx_HAL_Driver/Src/stm32f0xx_hal_i2c.c ****     __HAL_LOCK(hi2c);
 1643              		.loc 1 1025 5
 1644 0034 FB68     		ldr	r3, [r7, #12]
 1645 0036 4022     		movs	r2, #64
 1646 0038 9B5C     		ldrb	r3, [r3, r2]
 1647 003a 012B     		cmp	r3, #1
 1648 003c 01D1     		bne	.L73
 1649              		.loc 1 1025 5 is_stmt 0 discriminator 1
 1650 003e 0223     		movs	r3, #2
 1651 0040 E8E0     		b	.L72
 1652              	.L73:
 1653              		.loc 1 1025 5 discriminator 2
 1654 0042 FB68     		ldr	r3, [r7, #12]
 1655 0044 4022     		movs	r2, #64
 1656 0046 0121     		movs	r1, #1
 1657 0048 9954     		strb	r1, [r3, r2]
1026:Drivers/STM32F0xx_HAL_Driver/Src/stm32f0xx_hal_i2c.c **** 
1027:Drivers/STM32F0xx_HAL_Driver/Src/stm32f0xx_hal_i2c.c ****     /* Init tickstart for timeout management*/
1028:Drivers/STM32F0xx_HAL_Driver/Src/stm32f0xx_hal_i2c.c ****     tickstart = HAL_GetTick();
 1658              		.loc 1 1028 17 is_stmt 1 discriminator 2
 1659 004a FFF7FEFF 		bl	HAL_GetTick
 1660 004e 0300     		movs	r3, r0
ARM GAS  C:\Users\ADMINI~1\AppData\Local\Temp\cc3zYV2m.s 			page 48


 1661 0050 7B61     		str	r3, [r7, #20]
1029:Drivers/STM32F0xx_HAL_Driver/Src/stm32f0xx_hal_i2c.c **** 
1030:Drivers/STM32F0xx_HAL_Driver/Src/stm32f0xx_hal_i2c.c ****     hi2c->State     = HAL_I2C_STATE_BUSY_RX;
 1662              		.loc 1 1030 21 discriminator 2
 1663 0052 FB68     		ldr	r3, [r7, #12]
 1664 0054 4122     		movs	r2, #65
 1665 0056 2221     		movs	r1, #34
 1666 0058 9954     		strb	r1, [r3, r2]
1031:Drivers/STM32F0xx_HAL_Driver/Src/stm32f0xx_hal_i2c.c ****     hi2c->Mode      = HAL_I2C_MODE_SLAVE;
 1667              		.loc 1 1031 21 discriminator 2
 1668 005a FB68     		ldr	r3, [r7, #12]
 1669 005c 4222     		movs	r2, #66
 1670 005e 2021     		movs	r1, #32
 1671 0060 9954     		strb	r1, [r3, r2]
1032:Drivers/STM32F0xx_HAL_Driver/Src/stm32f0xx_hal_i2c.c ****     hi2c->ErrorCode = HAL_I2C_ERROR_NONE;
 1672              		.loc 1 1032 21 discriminator 2
 1673 0062 FB68     		ldr	r3, [r7, #12]
 1674 0064 0022     		movs	r2, #0
 1675 0066 5A64     		str	r2, [r3, #68]
1033:Drivers/STM32F0xx_HAL_Driver/Src/stm32f0xx_hal_i2c.c **** 
1034:Drivers/STM32F0xx_HAL_Driver/Src/stm32f0xx_hal_i2c.c ****     /* Prepare transfer parameters */
1035:Drivers/STM32F0xx_HAL_Driver/Src/stm32f0xx_hal_i2c.c ****     hi2c->pBuffPtr  = pData;
 1676              		.loc 1 1035 21 discriminator 2
 1677 0068 FB68     		ldr	r3, [r7, #12]
 1678 006a BA68     		ldr	r2, [r7, #8]
 1679 006c 5A62     		str	r2, [r3, #36]
1036:Drivers/STM32F0xx_HAL_Driver/Src/stm32f0xx_hal_i2c.c ****     hi2c->XferCount = Size;
 1680              		.loc 1 1036 21 discriminator 2
 1681 006e FB68     		ldr	r3, [r7, #12]
 1682 0070 BA1D     		adds	r2, r7, #6
 1683 0072 1288     		ldrh	r2, [r2]
 1684 0074 5A85     		strh	r2, [r3, #42]
1037:Drivers/STM32F0xx_HAL_Driver/Src/stm32f0xx_hal_i2c.c ****     hi2c->XferISR   = NULL;
 1685              		.loc 1 1037 21 discriminator 2
 1686 0076 FB68     		ldr	r3, [r7, #12]
 1687 0078 0022     		movs	r2, #0
 1688 007a 5A63     		str	r2, [r3, #52]
1038:Drivers/STM32F0xx_HAL_Driver/Src/stm32f0xx_hal_i2c.c **** 
1039:Drivers/STM32F0xx_HAL_Driver/Src/stm32f0xx_hal_i2c.c ****     /* Enable Address Acknowledge */
1040:Drivers/STM32F0xx_HAL_Driver/Src/stm32f0xx_hal_i2c.c ****     hi2c->Instance->CR2 &= ~I2C_CR2_NACK;
 1689              		.loc 1 1040 9 discriminator 2
 1690 007c FB68     		ldr	r3, [r7, #12]
 1691 007e 1B68     		ldr	r3, [r3]
 1692              		.loc 1 1040 25 discriminator 2
 1693 0080 5A68     		ldr	r2, [r3, #4]
 1694              		.loc 1 1040 9 discriminator 2
 1695 0082 FB68     		ldr	r3, [r7, #12]
 1696 0084 1B68     		ldr	r3, [r3]
 1697              		.loc 1 1040 25 discriminator 2
 1698 0086 6549     		ldr	r1, .L84
 1699 0088 0A40     		ands	r2, r1
 1700 008a 5A60     		str	r2, [r3, #4]
1041:Drivers/STM32F0xx_HAL_Driver/Src/stm32f0xx_hal_i2c.c **** 
1042:Drivers/STM32F0xx_HAL_Driver/Src/stm32f0xx_hal_i2c.c ****     /* Wait until ADDR flag is set */
1043:Drivers/STM32F0xx_HAL_Driver/Src/stm32f0xx_hal_i2c.c ****     if (I2C_WaitOnFlagUntilTimeout(hi2c, I2C_FLAG_ADDR, RESET, Timeout, tickstart) != HAL_OK)
 1701              		.loc 1 1043 9 discriminator 2
 1702 008c 3A68     		ldr	r2, [r7]
ARM GAS  C:\Users\ADMINI~1\AppData\Local\Temp\cc3zYV2m.s 			page 49


 1703 008e F868     		ldr	r0, [r7, #12]
 1704 0090 7B69     		ldr	r3, [r7, #20]
 1705 0092 0093     		str	r3, [sp]
 1706 0094 1300     		movs	r3, r2
 1707 0096 0022     		movs	r2, #0
 1708 0098 0821     		movs	r1, #8
 1709 009a FFF7FEFF 		bl	I2C_WaitOnFlagUntilTimeout
 1710 009e 031E     		subs	r3, r0, #0
 1711              		.loc 1 1043 8 discriminator 2
 1712 00a0 0AD0     		beq	.L74
1044:Drivers/STM32F0xx_HAL_Driver/Src/stm32f0xx_hal_i2c.c ****     {
1045:Drivers/STM32F0xx_HAL_Driver/Src/stm32f0xx_hal_i2c.c ****       /* Disable Address Acknowledge */
1046:Drivers/STM32F0xx_HAL_Driver/Src/stm32f0xx_hal_i2c.c ****       hi2c->Instance->CR2 |= I2C_CR2_NACK;
 1713              		.loc 1 1046 11
 1714 00a2 FB68     		ldr	r3, [r7, #12]
 1715 00a4 1B68     		ldr	r3, [r3]
 1716              		.loc 1 1046 27
 1717 00a6 5A68     		ldr	r2, [r3, #4]
 1718              		.loc 1 1046 11
 1719 00a8 FB68     		ldr	r3, [r7, #12]
 1720 00aa 1B68     		ldr	r3, [r3]
 1721              		.loc 1 1046 27
 1722 00ac 8021     		movs	r1, #128
 1723 00ae 0902     		lsls	r1, r1, #8
 1724 00b0 0A43     		orrs	r2, r1
 1725 00b2 5A60     		str	r2, [r3, #4]
1047:Drivers/STM32F0xx_HAL_Driver/Src/stm32f0xx_hal_i2c.c ****       return HAL_TIMEOUT;
 1726              		.loc 1 1047 14
 1727 00b4 0323     		movs	r3, #3
 1728 00b6 ADE0     		b	.L72
 1729              	.L74:
1048:Drivers/STM32F0xx_HAL_Driver/Src/stm32f0xx_hal_i2c.c ****     }
1049:Drivers/STM32F0xx_HAL_Driver/Src/stm32f0xx_hal_i2c.c **** 
1050:Drivers/STM32F0xx_HAL_Driver/Src/stm32f0xx_hal_i2c.c ****     /* Clear ADDR flag */
1051:Drivers/STM32F0xx_HAL_Driver/Src/stm32f0xx_hal_i2c.c ****     __HAL_I2C_CLEAR_FLAG(hi2c, I2C_FLAG_ADDR);
 1730              		.loc 1 1051 5
 1731 00b8 FB68     		ldr	r3, [r7, #12]
 1732 00ba 1B68     		ldr	r3, [r3]
 1733 00bc 0822     		movs	r2, #8
 1734 00be DA61     		str	r2, [r3, #28]
1052:Drivers/STM32F0xx_HAL_Driver/Src/stm32f0xx_hal_i2c.c **** 
1053:Drivers/STM32F0xx_HAL_Driver/Src/stm32f0xx_hal_i2c.c ****     /* Wait until DIR flag is reset Receiver mode */
1054:Drivers/STM32F0xx_HAL_Driver/Src/stm32f0xx_hal_i2c.c ****     if (I2C_WaitOnFlagUntilTimeout(hi2c, I2C_FLAG_DIR, SET, Timeout, tickstart) != HAL_OK)
 1735              		.loc 1 1054 9
 1736 00c0 3A68     		ldr	r2, [r7]
 1737 00c2 8023     		movs	r3, #128
 1738 00c4 5902     		lsls	r1, r3, #9
 1739 00c6 F868     		ldr	r0, [r7, #12]
 1740 00c8 7B69     		ldr	r3, [r7, #20]
 1741 00ca 0093     		str	r3, [sp]
 1742 00cc 1300     		movs	r3, r2
 1743 00ce 0122     		movs	r2, #1
 1744 00d0 FFF7FEFF 		bl	I2C_WaitOnFlagUntilTimeout
 1745 00d4 031E     		subs	r3, r0, #0
 1746              		.loc 1 1054 8
 1747 00d6 4CD0     		beq	.L76
1055:Drivers/STM32F0xx_HAL_Driver/Src/stm32f0xx_hal_i2c.c ****     {
ARM GAS  C:\Users\ADMINI~1\AppData\Local\Temp\cc3zYV2m.s 			page 50


1056:Drivers/STM32F0xx_HAL_Driver/Src/stm32f0xx_hal_i2c.c ****       /* Disable Address Acknowledge */
1057:Drivers/STM32F0xx_HAL_Driver/Src/stm32f0xx_hal_i2c.c ****       hi2c->Instance->CR2 |= I2C_CR2_NACK;
 1748              		.loc 1 1057 11
 1749 00d8 FB68     		ldr	r3, [r7, #12]
 1750 00da 1B68     		ldr	r3, [r3]
 1751              		.loc 1 1057 27
 1752 00dc 5A68     		ldr	r2, [r3, #4]
 1753              		.loc 1 1057 11
 1754 00de FB68     		ldr	r3, [r7, #12]
 1755 00e0 1B68     		ldr	r3, [r3]
 1756              		.loc 1 1057 27
 1757 00e2 8021     		movs	r1, #128
 1758 00e4 0902     		lsls	r1, r1, #8
 1759 00e6 0A43     		orrs	r2, r1
 1760 00e8 5A60     		str	r2, [r3, #4]
1058:Drivers/STM32F0xx_HAL_Driver/Src/stm32f0xx_hal_i2c.c ****       return HAL_TIMEOUT;
 1761              		.loc 1 1058 14
 1762 00ea 0323     		movs	r3, #3
 1763 00ec 92E0     		b	.L72
 1764              	.L80:
1059:Drivers/STM32F0xx_HAL_Driver/Src/stm32f0xx_hal_i2c.c ****     }
1060:Drivers/STM32F0xx_HAL_Driver/Src/stm32f0xx_hal_i2c.c **** 
1061:Drivers/STM32F0xx_HAL_Driver/Src/stm32f0xx_hal_i2c.c ****     while (hi2c->XferCount > 0U)
1062:Drivers/STM32F0xx_HAL_Driver/Src/stm32f0xx_hal_i2c.c ****     {
1063:Drivers/STM32F0xx_HAL_Driver/Src/stm32f0xx_hal_i2c.c ****       /* Wait until RXNE flag is set */
1064:Drivers/STM32F0xx_HAL_Driver/Src/stm32f0xx_hal_i2c.c ****       if (I2C_WaitOnRXNEFlagUntilTimeout(hi2c, Timeout, tickstart) != HAL_OK)
 1765              		.loc 1 1064 11
 1766 00ee 7A69     		ldr	r2, [r7, #20]
 1767 00f0 3968     		ldr	r1, [r7]
 1768 00f2 FB68     		ldr	r3, [r7, #12]
 1769 00f4 1800     		movs	r0, r3
 1770 00f6 FFF7FEFF 		bl	I2C_WaitOnRXNEFlagUntilTimeout
 1771 00fa 031E     		subs	r3, r0, #0
 1772              		.loc 1 1064 10
 1773 00fc 28D0     		beq	.L77
1065:Drivers/STM32F0xx_HAL_Driver/Src/stm32f0xx_hal_i2c.c ****       {
1066:Drivers/STM32F0xx_HAL_Driver/Src/stm32f0xx_hal_i2c.c ****         /* Disable Address Acknowledge */
1067:Drivers/STM32F0xx_HAL_Driver/Src/stm32f0xx_hal_i2c.c ****         hi2c->Instance->CR2 |= I2C_CR2_NACK;
 1774              		.loc 1 1067 13
 1775 00fe FB68     		ldr	r3, [r7, #12]
 1776 0100 1B68     		ldr	r3, [r3]
 1777              		.loc 1 1067 29
 1778 0102 5A68     		ldr	r2, [r3, #4]
 1779              		.loc 1 1067 13
 1780 0104 FB68     		ldr	r3, [r7, #12]
 1781 0106 1B68     		ldr	r3, [r3]
 1782              		.loc 1 1067 29
 1783 0108 8021     		movs	r1, #128
 1784 010a 0902     		lsls	r1, r1, #8
 1785 010c 0A43     		orrs	r2, r1
 1786 010e 5A60     		str	r2, [r3, #4]
1068:Drivers/STM32F0xx_HAL_Driver/Src/stm32f0xx_hal_i2c.c **** 
1069:Drivers/STM32F0xx_HAL_Driver/Src/stm32f0xx_hal_i2c.c ****         /* Store Last receive data if any */
1070:Drivers/STM32F0xx_HAL_Driver/Src/stm32f0xx_hal_i2c.c ****         if (__HAL_I2C_GET_FLAG(hi2c, I2C_FLAG_RXNE) == SET)
 1787              		.loc 1 1070 13
 1788 0110 FB68     		ldr	r3, [r7, #12]
 1789 0112 1B68     		ldr	r3, [r3]
ARM GAS  C:\Users\ADMINI~1\AppData\Local\Temp\cc3zYV2m.s 			page 51


 1790 0114 9B69     		ldr	r3, [r3, #24]
 1791 0116 0422     		movs	r2, #4
 1792 0118 1340     		ands	r3, r2
 1793              		.loc 1 1070 12
 1794 011a 042B     		cmp	r3, #4
 1795 011c 10D1     		bne	.L78
1071:Drivers/STM32F0xx_HAL_Driver/Src/stm32f0xx_hal_i2c.c ****         {
1072:Drivers/STM32F0xx_HAL_Driver/Src/stm32f0xx_hal_i2c.c ****           /* Read data from RXDR */
1073:Drivers/STM32F0xx_HAL_Driver/Src/stm32f0xx_hal_i2c.c ****           (*hi2c->pBuffPtr++) = hi2c->Instance->RXDR;
 1796              		.loc 1 1073 37
 1797 011e FB68     		ldr	r3, [r7, #12]
 1798 0120 1B68     		ldr	r3, [r3]
 1799              		.loc 1 1073 47
 1800 0122 586A     		ldr	r0, [r3, #36]
 1801              		.loc 1 1073 17
 1802 0124 FB68     		ldr	r3, [r7, #12]
 1803 0126 5B6A     		ldr	r3, [r3, #36]
 1804              		.loc 1 1073 27
 1805 0128 591C     		adds	r1, r3, #1
 1806 012a FA68     		ldr	r2, [r7, #12]
 1807 012c 5162     		str	r1, [r2, #36]
 1808              		.loc 1 1073 31
 1809 012e C2B2     		uxtb	r2, r0
 1810 0130 1A70     		strb	r2, [r3]
1074:Drivers/STM32F0xx_HAL_Driver/Src/stm32f0xx_hal_i2c.c ****           hi2c->XferCount--;
 1811              		.loc 1 1074 15
 1812 0132 FB68     		ldr	r3, [r7, #12]
 1813 0134 5B8D     		ldrh	r3, [r3, #42]
 1814 0136 9BB2     		uxth	r3, r3
 1815              		.loc 1 1074 26
 1816 0138 013B     		subs	r3, r3, #1
 1817 013a 9AB2     		uxth	r2, r3
 1818 013c FB68     		ldr	r3, [r7, #12]
 1819 013e 5A85     		strh	r2, [r3, #42]
 1820              	.L78:
1075:Drivers/STM32F0xx_HAL_Driver/Src/stm32f0xx_hal_i2c.c ****         }
1076:Drivers/STM32F0xx_HAL_Driver/Src/stm32f0xx_hal_i2c.c **** 
1077:Drivers/STM32F0xx_HAL_Driver/Src/stm32f0xx_hal_i2c.c ****         if (hi2c->ErrorCode == HAL_I2C_ERROR_TIMEOUT)
 1821              		.loc 1 1077 17
 1822 0140 FB68     		ldr	r3, [r7, #12]
 1823 0142 5B6C     		ldr	r3, [r3, #68]
 1824              		.loc 1 1077 12
 1825 0144 202B     		cmp	r3, #32
 1826 0146 01D1     		bne	.L79
1078:Drivers/STM32F0xx_HAL_Driver/Src/stm32f0xx_hal_i2c.c ****         {
1079:Drivers/STM32F0xx_HAL_Driver/Src/stm32f0xx_hal_i2c.c ****           return HAL_TIMEOUT;
 1827              		.loc 1 1079 18
 1828 0148 0323     		movs	r3, #3
 1829 014a 63E0     		b	.L72
 1830              	.L79:
1080:Drivers/STM32F0xx_HAL_Driver/Src/stm32f0xx_hal_i2c.c ****         }
1081:Drivers/STM32F0xx_HAL_Driver/Src/stm32f0xx_hal_i2c.c ****         else
1082:Drivers/STM32F0xx_HAL_Driver/Src/stm32f0xx_hal_i2c.c ****         {
1083:Drivers/STM32F0xx_HAL_Driver/Src/stm32f0xx_hal_i2c.c ****           return HAL_ERROR;
 1831              		.loc 1 1083 18
 1832 014c 0123     		movs	r3, #1
 1833 014e 61E0     		b	.L72
ARM GAS  C:\Users\ADMINI~1\AppData\Local\Temp\cc3zYV2m.s 			page 52


 1834              	.L77:
1084:Drivers/STM32F0xx_HAL_Driver/Src/stm32f0xx_hal_i2c.c ****         }
1085:Drivers/STM32F0xx_HAL_Driver/Src/stm32f0xx_hal_i2c.c ****       }
1086:Drivers/STM32F0xx_HAL_Driver/Src/stm32f0xx_hal_i2c.c **** 
1087:Drivers/STM32F0xx_HAL_Driver/Src/stm32f0xx_hal_i2c.c ****       /* Read data from RXDR */
1088:Drivers/STM32F0xx_HAL_Driver/Src/stm32f0xx_hal_i2c.c ****       (*hi2c->pBuffPtr++) = hi2c->Instance->RXDR;
 1835              		.loc 1 1088 33
 1836 0150 FB68     		ldr	r3, [r7, #12]
 1837 0152 1B68     		ldr	r3, [r3]
 1838              		.loc 1 1088 43
 1839 0154 586A     		ldr	r0, [r3, #36]
 1840              		.loc 1 1088 13
 1841 0156 FB68     		ldr	r3, [r7, #12]
 1842 0158 5B6A     		ldr	r3, [r3, #36]
 1843              		.loc 1 1088 23
 1844 015a 591C     		adds	r1, r3, #1
 1845 015c FA68     		ldr	r2, [r7, #12]
 1846 015e 5162     		str	r1, [r2, #36]
 1847              		.loc 1 1088 27
 1848 0160 C2B2     		uxtb	r2, r0
 1849 0162 1A70     		strb	r2, [r3]
1089:Drivers/STM32F0xx_HAL_Driver/Src/stm32f0xx_hal_i2c.c ****       hi2c->XferCount--;
 1850              		.loc 1 1089 11
 1851 0164 FB68     		ldr	r3, [r7, #12]
 1852 0166 5B8D     		ldrh	r3, [r3, #42]
 1853 0168 9BB2     		uxth	r3, r3
 1854              		.loc 1 1089 22
 1855 016a 013B     		subs	r3, r3, #1
 1856 016c 9AB2     		uxth	r2, r3
 1857 016e FB68     		ldr	r3, [r7, #12]
 1858 0170 5A85     		strh	r2, [r3, #42]
 1859              	.L76:
1061:Drivers/STM32F0xx_HAL_Driver/Src/stm32f0xx_hal_i2c.c ****     {
 1860              		.loc 1 1061 16
 1861 0172 FB68     		ldr	r3, [r7, #12]
 1862 0174 5B8D     		ldrh	r3, [r3, #42]
 1863 0176 9BB2     		uxth	r3, r3
1061:Drivers/STM32F0xx_HAL_Driver/Src/stm32f0xx_hal_i2c.c ****     {
 1864              		.loc 1 1061 11
 1865 0178 002B     		cmp	r3, #0
 1866 017a B8D1     		bne	.L80
1090:Drivers/STM32F0xx_HAL_Driver/Src/stm32f0xx_hal_i2c.c ****     }
1091:Drivers/STM32F0xx_HAL_Driver/Src/stm32f0xx_hal_i2c.c **** 
1092:Drivers/STM32F0xx_HAL_Driver/Src/stm32f0xx_hal_i2c.c ****     /* Wait until STOP flag is set */
1093:Drivers/STM32F0xx_HAL_Driver/Src/stm32f0xx_hal_i2c.c ****     if (I2C_WaitOnSTOPFlagUntilTimeout(hi2c, Timeout, tickstart) != HAL_OK)
 1867              		.loc 1 1093 9
 1868 017c 7A69     		ldr	r2, [r7, #20]
 1869 017e 3968     		ldr	r1, [r7]
 1870 0180 FB68     		ldr	r3, [r7, #12]
 1871 0182 1800     		movs	r0, r3
 1872 0184 FFF7FEFF 		bl	I2C_WaitOnSTOPFlagUntilTimeout
 1873 0188 031E     		subs	r3, r0, #0
 1874              		.loc 1 1093 8
 1875 018a 10D0     		beq	.L81
1094:Drivers/STM32F0xx_HAL_Driver/Src/stm32f0xx_hal_i2c.c ****     {
1095:Drivers/STM32F0xx_HAL_Driver/Src/stm32f0xx_hal_i2c.c ****       /* Disable Address Acknowledge */
1096:Drivers/STM32F0xx_HAL_Driver/Src/stm32f0xx_hal_i2c.c ****       hi2c->Instance->CR2 |= I2C_CR2_NACK;
ARM GAS  C:\Users\ADMINI~1\AppData\Local\Temp\cc3zYV2m.s 			page 53


 1876              		.loc 1 1096 11
 1877 018c FB68     		ldr	r3, [r7, #12]
 1878 018e 1B68     		ldr	r3, [r3]
 1879              		.loc 1 1096 27
 1880 0190 5A68     		ldr	r2, [r3, #4]
 1881              		.loc 1 1096 11
 1882 0192 FB68     		ldr	r3, [r7, #12]
 1883 0194 1B68     		ldr	r3, [r3]
 1884              		.loc 1 1096 27
 1885 0196 8021     		movs	r1, #128
 1886 0198 0902     		lsls	r1, r1, #8
 1887 019a 0A43     		orrs	r2, r1
 1888 019c 5A60     		str	r2, [r3, #4]
1097:Drivers/STM32F0xx_HAL_Driver/Src/stm32f0xx_hal_i2c.c **** 
1098:Drivers/STM32F0xx_HAL_Driver/Src/stm32f0xx_hal_i2c.c ****       if (hi2c->ErrorCode == HAL_I2C_ERROR_AF)
 1889              		.loc 1 1098 15
 1890 019e FB68     		ldr	r3, [r7, #12]
 1891 01a0 5B6C     		ldr	r3, [r3, #68]
 1892              		.loc 1 1098 10
 1893 01a2 042B     		cmp	r3, #4
 1894 01a4 01D1     		bne	.L82
1099:Drivers/STM32F0xx_HAL_Driver/Src/stm32f0xx_hal_i2c.c ****       {
1100:Drivers/STM32F0xx_HAL_Driver/Src/stm32f0xx_hal_i2c.c ****         return HAL_ERROR;
 1895              		.loc 1 1100 16
 1896 01a6 0123     		movs	r3, #1
 1897 01a8 34E0     		b	.L72
 1898              	.L82:
1101:Drivers/STM32F0xx_HAL_Driver/Src/stm32f0xx_hal_i2c.c ****       }
1102:Drivers/STM32F0xx_HAL_Driver/Src/stm32f0xx_hal_i2c.c ****       else
1103:Drivers/STM32F0xx_HAL_Driver/Src/stm32f0xx_hal_i2c.c ****       {
1104:Drivers/STM32F0xx_HAL_Driver/Src/stm32f0xx_hal_i2c.c ****         return HAL_TIMEOUT;
 1899              		.loc 1 1104 16
 1900 01aa 0323     		movs	r3, #3
 1901 01ac 32E0     		b	.L72
 1902              	.L81:
1105:Drivers/STM32F0xx_HAL_Driver/Src/stm32f0xx_hal_i2c.c ****       }
1106:Drivers/STM32F0xx_HAL_Driver/Src/stm32f0xx_hal_i2c.c ****     }
1107:Drivers/STM32F0xx_HAL_Driver/Src/stm32f0xx_hal_i2c.c **** 
1108:Drivers/STM32F0xx_HAL_Driver/Src/stm32f0xx_hal_i2c.c ****     /* Clear STOP flag */
1109:Drivers/STM32F0xx_HAL_Driver/Src/stm32f0xx_hal_i2c.c ****     __HAL_I2C_CLEAR_FLAG(hi2c, I2C_FLAG_STOPF);
 1903              		.loc 1 1109 5
 1904 01ae FB68     		ldr	r3, [r7, #12]
 1905 01b0 1B68     		ldr	r3, [r3]
 1906 01b2 2022     		movs	r2, #32
 1907 01b4 DA61     		str	r2, [r3, #28]
1110:Drivers/STM32F0xx_HAL_Driver/Src/stm32f0xx_hal_i2c.c **** 
1111:Drivers/STM32F0xx_HAL_Driver/Src/stm32f0xx_hal_i2c.c ****     /* Wait until BUSY flag is reset */
1112:Drivers/STM32F0xx_HAL_Driver/Src/stm32f0xx_hal_i2c.c ****     if (I2C_WaitOnFlagUntilTimeout(hi2c, I2C_FLAG_BUSY, SET, Timeout, tickstart) != HAL_OK)
 1908              		.loc 1 1112 9
 1909 01b6 3A68     		ldr	r2, [r7]
 1910 01b8 8023     		movs	r3, #128
 1911 01ba 1902     		lsls	r1, r3, #8
 1912 01bc F868     		ldr	r0, [r7, #12]
 1913 01be 7B69     		ldr	r3, [r7, #20]
 1914 01c0 0093     		str	r3, [sp]
 1915 01c2 1300     		movs	r3, r2
 1916 01c4 0122     		movs	r2, #1
ARM GAS  C:\Users\ADMINI~1\AppData\Local\Temp\cc3zYV2m.s 			page 54


 1917 01c6 FFF7FEFF 		bl	I2C_WaitOnFlagUntilTimeout
 1918 01ca 031E     		subs	r3, r0, #0
 1919              		.loc 1 1112 8
 1920 01cc 0AD0     		beq	.L83
1113:Drivers/STM32F0xx_HAL_Driver/Src/stm32f0xx_hal_i2c.c ****     {
1114:Drivers/STM32F0xx_HAL_Driver/Src/stm32f0xx_hal_i2c.c ****       /* Disable Address Acknowledge */
1115:Drivers/STM32F0xx_HAL_Driver/Src/stm32f0xx_hal_i2c.c ****       hi2c->Instance->CR2 |= I2C_CR2_NACK;
 1921              		.loc 1 1115 11
 1922 01ce FB68     		ldr	r3, [r7, #12]
 1923 01d0 1B68     		ldr	r3, [r3]
 1924              		.loc 1 1115 27
 1925 01d2 5A68     		ldr	r2, [r3, #4]
 1926              		.loc 1 1115 11
 1927 01d4 FB68     		ldr	r3, [r7, #12]
 1928 01d6 1B68     		ldr	r3, [r3]
 1929              		.loc 1 1115 27
 1930 01d8 8021     		movs	r1, #128
 1931 01da 0902     		lsls	r1, r1, #8
 1932 01dc 0A43     		orrs	r2, r1
 1933 01de 5A60     		str	r2, [r3, #4]
1116:Drivers/STM32F0xx_HAL_Driver/Src/stm32f0xx_hal_i2c.c ****       return HAL_TIMEOUT;
 1934              		.loc 1 1116 14
 1935 01e0 0323     		movs	r3, #3
 1936 01e2 17E0     		b	.L72
 1937              	.L83:
1117:Drivers/STM32F0xx_HAL_Driver/Src/stm32f0xx_hal_i2c.c ****     }
1118:Drivers/STM32F0xx_HAL_Driver/Src/stm32f0xx_hal_i2c.c **** 
1119:Drivers/STM32F0xx_HAL_Driver/Src/stm32f0xx_hal_i2c.c ****     /* Disable Address Acknowledge */
1120:Drivers/STM32F0xx_HAL_Driver/Src/stm32f0xx_hal_i2c.c ****     hi2c->Instance->CR2 |= I2C_CR2_NACK;
 1938              		.loc 1 1120 9
 1939 01e4 FB68     		ldr	r3, [r7, #12]
 1940 01e6 1B68     		ldr	r3, [r3]
 1941              		.loc 1 1120 25
 1942 01e8 5A68     		ldr	r2, [r3, #4]
 1943              		.loc 1 1120 9
 1944 01ea FB68     		ldr	r3, [r7, #12]
 1945 01ec 1B68     		ldr	r3, [r3]
 1946              		.loc 1 1120 25
 1947 01ee 8021     		movs	r1, #128
 1948 01f0 0902     		lsls	r1, r1, #8
 1949 01f2 0A43     		orrs	r2, r1
 1950 01f4 5A60     		str	r2, [r3, #4]
1121:Drivers/STM32F0xx_HAL_Driver/Src/stm32f0xx_hal_i2c.c **** 
1122:Drivers/STM32F0xx_HAL_Driver/Src/stm32f0xx_hal_i2c.c ****     hi2c->State = HAL_I2C_STATE_READY;
 1951              		.loc 1 1122 17
 1952 01f6 FB68     		ldr	r3, [r7, #12]
 1953 01f8 4122     		movs	r2, #65
 1954 01fa 2021     		movs	r1, #32
 1955 01fc 9954     		strb	r1, [r3, r2]
1123:Drivers/STM32F0xx_HAL_Driver/Src/stm32f0xx_hal_i2c.c ****     hi2c->Mode  = HAL_I2C_MODE_NONE;
 1956              		.loc 1 1123 17
 1957 01fe FB68     		ldr	r3, [r7, #12]
 1958 0200 4222     		movs	r2, #66
 1959 0202 0021     		movs	r1, #0
 1960 0204 9954     		strb	r1, [r3, r2]
1124:Drivers/STM32F0xx_HAL_Driver/Src/stm32f0xx_hal_i2c.c **** 
1125:Drivers/STM32F0xx_HAL_Driver/Src/stm32f0xx_hal_i2c.c ****     /* Process Unlocked */
ARM GAS  C:\Users\ADMINI~1\AppData\Local\Temp\cc3zYV2m.s 			page 55


1126:Drivers/STM32F0xx_HAL_Driver/Src/stm32f0xx_hal_i2c.c ****     __HAL_UNLOCK(hi2c);
 1961              		.loc 1 1126 5
 1962 0206 FB68     		ldr	r3, [r7, #12]
 1963 0208 4022     		movs	r2, #64
 1964 020a 0021     		movs	r1, #0
 1965 020c 9954     		strb	r1, [r3, r2]
1127:Drivers/STM32F0xx_HAL_Driver/Src/stm32f0xx_hal_i2c.c **** 
1128:Drivers/STM32F0xx_HAL_Driver/Src/stm32f0xx_hal_i2c.c ****     return HAL_OK;
 1966              		.loc 1 1128 12
 1967 020e 0023     		movs	r3, #0
 1968 0210 00E0     		b	.L72
 1969              	.L69:
1129:Drivers/STM32F0xx_HAL_Driver/Src/stm32f0xx_hal_i2c.c ****   }
1130:Drivers/STM32F0xx_HAL_Driver/Src/stm32f0xx_hal_i2c.c ****   else
1131:Drivers/STM32F0xx_HAL_Driver/Src/stm32f0xx_hal_i2c.c ****   {
1132:Drivers/STM32F0xx_HAL_Driver/Src/stm32f0xx_hal_i2c.c ****     return HAL_BUSY;
 1970              		.loc 1 1132 12
 1971 0212 0223     		movs	r3, #2
 1972              	.L72:
1133:Drivers/STM32F0xx_HAL_Driver/Src/stm32f0xx_hal_i2c.c ****   }
1134:Drivers/STM32F0xx_HAL_Driver/Src/stm32f0xx_hal_i2c.c **** }
 1973              		.loc 1 1134 1
 1974 0214 1800     		movs	r0, r3
 1975 0216 BD46     		mov	sp, r7
 1976 0218 06B0     		add	sp, sp, #24
 1977              		@ sp needed
 1978 021a 80BD     		pop	{r7, pc}
 1979              	.L85:
 1980              		.align	2
 1981              	.L84:
 1982 021c FF7FFFFF 		.word	-32769
 1983              		.cfi_endproc
 1984              	.LFE44:
 1986              		.section	.text.HAL_I2C_Master_Transmit_IT,"ax",%progbits
 1987              		.align	1
 1988              		.global	HAL_I2C_Master_Transmit_IT
 1989              		.syntax unified
 1990              		.code	16
 1991              		.thumb_func
 1992              		.fpu softvfp
 1994              	HAL_I2C_Master_Transmit_IT:
 1995              	.LFB45:
1135:Drivers/STM32F0xx_HAL_Driver/Src/stm32f0xx_hal_i2c.c **** 
1136:Drivers/STM32F0xx_HAL_Driver/Src/stm32f0xx_hal_i2c.c **** /**
1137:Drivers/STM32F0xx_HAL_Driver/Src/stm32f0xx_hal_i2c.c ****   * @brief  Transmit in master mode an amount of data in non-blocking mode with Interrupt
1138:Drivers/STM32F0xx_HAL_Driver/Src/stm32f0xx_hal_i2c.c ****   * @param  hi2c Pointer to a I2C_HandleTypeDef structure that contains
1139:Drivers/STM32F0xx_HAL_Driver/Src/stm32f0xx_hal_i2c.c ****   *                the configuration information for the specified I2C.
1140:Drivers/STM32F0xx_HAL_Driver/Src/stm32f0xx_hal_i2c.c ****   * @param  DevAddress Target device address: The device 7 bits address value
1141:Drivers/STM32F0xx_HAL_Driver/Src/stm32f0xx_hal_i2c.c ****   *         in datasheet must be shift at right before call interface
1142:Drivers/STM32F0xx_HAL_Driver/Src/stm32f0xx_hal_i2c.c ****   * @param  pData Pointer to data buffer
1143:Drivers/STM32F0xx_HAL_Driver/Src/stm32f0xx_hal_i2c.c ****   * @param  Size Amount of data to be sent
1144:Drivers/STM32F0xx_HAL_Driver/Src/stm32f0xx_hal_i2c.c ****   * @retval HAL status
1145:Drivers/STM32F0xx_HAL_Driver/Src/stm32f0xx_hal_i2c.c ****   */
1146:Drivers/STM32F0xx_HAL_Driver/Src/stm32f0xx_hal_i2c.c **** HAL_StatusTypeDef HAL_I2C_Master_Transmit_IT(I2C_HandleTypeDef *hi2c, uint16_t DevAddress, uint8_t 
1147:Drivers/STM32F0xx_HAL_Driver/Src/stm32f0xx_hal_i2c.c **** {
 1996              		.loc 1 1147 1
 1997              		.cfi_startproc
ARM GAS  C:\Users\ADMINI~1\AppData\Local\Temp\cc3zYV2m.s 			page 56


 1998              		@ args = 0, pretend = 0, frame = 24
 1999              		@ frame_needed = 1, uses_anonymous_args = 0
 2000 0000 90B5     		push	{r4, r7, lr}
 2001              	.LCFI24:
 2002              		.cfi_def_cfa_offset 12
 2003              		.cfi_offset 4, -12
 2004              		.cfi_offset 7, -8
 2005              		.cfi_offset 14, -4
 2006 0002 89B0     		sub	sp, sp, #36
 2007              	.LCFI25:
 2008              		.cfi_def_cfa_offset 48
 2009 0004 02AF     		add	r7, sp, #8
 2010              	.LCFI26:
 2011              		.cfi_def_cfa 7, 40
 2012 0006 F860     		str	r0, [r7, #12]
 2013 0008 0800     		movs	r0, r1
 2014 000a 7A60     		str	r2, [r7, #4]
 2015 000c 1900     		movs	r1, r3
 2016 000e 0A23     		movs	r3, #10
 2017 0010 FB18     		adds	r3, r7, r3
 2018 0012 021C     		adds	r2, r0, #0
 2019 0014 1A80     		strh	r2, [r3]
 2020 0016 0823     		movs	r3, #8
 2021 0018 FB18     		adds	r3, r7, r3
 2022 001a 0A1C     		adds	r2, r1, #0
 2023 001c 1A80     		strh	r2, [r3]
1148:Drivers/STM32F0xx_HAL_Driver/Src/stm32f0xx_hal_i2c.c ****   uint32_t xfermode = 0U;
 2024              		.loc 1 1148 12
 2025 001e 0023     		movs	r3, #0
 2026 0020 7B61     		str	r3, [r7, #20]
1149:Drivers/STM32F0xx_HAL_Driver/Src/stm32f0xx_hal_i2c.c **** 
1150:Drivers/STM32F0xx_HAL_Driver/Src/stm32f0xx_hal_i2c.c ****   if (hi2c->State == HAL_I2C_STATE_READY)
 2027              		.loc 1 1150 11
 2028 0022 FB68     		ldr	r3, [r7, #12]
 2029 0024 4122     		movs	r2, #65
 2030 0026 9B5C     		ldrb	r3, [r3, r2]
 2031 0028 DBB2     		uxtb	r3, r3
 2032              		.loc 1 1150 6
 2033 002a 202B     		cmp	r3, #32
 2034 002c 5CD1     		bne	.L87
1151:Drivers/STM32F0xx_HAL_Driver/Src/stm32f0xx_hal_i2c.c ****   {
1152:Drivers/STM32F0xx_HAL_Driver/Src/stm32f0xx_hal_i2c.c ****     if (__HAL_I2C_GET_FLAG(hi2c, I2C_FLAG_BUSY) == SET)
 2035              		.loc 1 1152 9
 2036 002e FB68     		ldr	r3, [r7, #12]
 2037 0030 1B68     		ldr	r3, [r3]
 2038 0032 9A69     		ldr	r2, [r3, #24]
 2039 0034 8023     		movs	r3, #128
 2040 0036 1B02     		lsls	r3, r3, #8
 2041 0038 1A40     		ands	r2, r3
 2042              		.loc 1 1152 8
 2043 003a 8023     		movs	r3, #128
 2044 003c 1B02     		lsls	r3, r3, #8
 2045 003e 9A42     		cmp	r2, r3
 2046 0040 01D1     		bne	.L88
1153:Drivers/STM32F0xx_HAL_Driver/Src/stm32f0xx_hal_i2c.c ****     {
1154:Drivers/STM32F0xx_HAL_Driver/Src/stm32f0xx_hal_i2c.c ****       return HAL_BUSY;
 2047              		.loc 1 1154 14
ARM GAS  C:\Users\ADMINI~1\AppData\Local\Temp\cc3zYV2m.s 			page 57


 2048 0042 0223     		movs	r3, #2
 2049 0044 51E0     		b	.L89
 2050              	.L88:
1155:Drivers/STM32F0xx_HAL_Driver/Src/stm32f0xx_hal_i2c.c ****     }
1156:Drivers/STM32F0xx_HAL_Driver/Src/stm32f0xx_hal_i2c.c **** 
1157:Drivers/STM32F0xx_HAL_Driver/Src/stm32f0xx_hal_i2c.c ****     /* Process Locked */
1158:Drivers/STM32F0xx_HAL_Driver/Src/stm32f0xx_hal_i2c.c ****     __HAL_LOCK(hi2c);
 2051              		.loc 1 1158 5
 2052 0046 FB68     		ldr	r3, [r7, #12]
 2053 0048 4022     		movs	r2, #64
 2054 004a 9B5C     		ldrb	r3, [r3, r2]
 2055 004c 012B     		cmp	r3, #1
 2056 004e 01D1     		bne	.L90
 2057              		.loc 1 1158 5 is_stmt 0 discriminator 1
 2058 0050 0223     		movs	r3, #2
 2059 0052 4AE0     		b	.L89
 2060              	.L90:
 2061              		.loc 1 1158 5 discriminator 2
 2062 0054 FB68     		ldr	r3, [r7, #12]
 2063 0056 4022     		movs	r2, #64
 2064 0058 0121     		movs	r1, #1
 2065 005a 9954     		strb	r1, [r3, r2]
1159:Drivers/STM32F0xx_HAL_Driver/Src/stm32f0xx_hal_i2c.c **** 
1160:Drivers/STM32F0xx_HAL_Driver/Src/stm32f0xx_hal_i2c.c ****     hi2c->State       = HAL_I2C_STATE_BUSY_TX;
 2066              		.loc 1 1160 23 is_stmt 1 discriminator 2
 2067 005c FB68     		ldr	r3, [r7, #12]
 2068 005e 4122     		movs	r2, #65
 2069 0060 2121     		movs	r1, #33
 2070 0062 9954     		strb	r1, [r3, r2]
1161:Drivers/STM32F0xx_HAL_Driver/Src/stm32f0xx_hal_i2c.c ****     hi2c->Mode        = HAL_I2C_MODE_MASTER;
 2071              		.loc 1 1161 23 discriminator 2
 2072 0064 FB68     		ldr	r3, [r7, #12]
 2073 0066 4222     		movs	r2, #66
 2074 0068 1021     		movs	r1, #16
 2075 006a 9954     		strb	r1, [r3, r2]
1162:Drivers/STM32F0xx_HAL_Driver/Src/stm32f0xx_hal_i2c.c ****     hi2c->ErrorCode   = HAL_I2C_ERROR_NONE;
 2076              		.loc 1 1162 23 discriminator 2
 2077 006c FB68     		ldr	r3, [r7, #12]
 2078 006e 0022     		movs	r2, #0
 2079 0070 5A64     		str	r2, [r3, #68]
1163:Drivers/STM32F0xx_HAL_Driver/Src/stm32f0xx_hal_i2c.c **** 
1164:Drivers/STM32F0xx_HAL_Driver/Src/stm32f0xx_hal_i2c.c ****     /* Prepare transfer parameters */
1165:Drivers/STM32F0xx_HAL_Driver/Src/stm32f0xx_hal_i2c.c ****     hi2c->pBuffPtr    = pData;
 2080              		.loc 1 1165 23 discriminator 2
 2081 0072 FB68     		ldr	r3, [r7, #12]
 2082 0074 7A68     		ldr	r2, [r7, #4]
 2083 0076 5A62     		str	r2, [r3, #36]
1166:Drivers/STM32F0xx_HAL_Driver/Src/stm32f0xx_hal_i2c.c ****     hi2c->XferCount   = Size;
 2084              		.loc 1 1166 23 discriminator 2
 2085 0078 FB68     		ldr	r3, [r7, #12]
 2086 007a 0822     		movs	r2, #8
 2087 007c BA18     		adds	r2, r7, r2
 2088 007e 1288     		ldrh	r2, [r2]
 2089 0080 5A85     		strh	r2, [r3, #42]
1167:Drivers/STM32F0xx_HAL_Driver/Src/stm32f0xx_hal_i2c.c ****     hi2c->XferOptions = I2C_NO_OPTION_FRAME;
 2090              		.loc 1 1167 23 discriminator 2
 2091 0082 FB68     		ldr	r3, [r7, #12]
ARM GAS  C:\Users\ADMINI~1\AppData\Local\Temp\cc3zYV2m.s 			page 58


 2092 0084 1B4A     		ldr	r2, .L93
 2093 0086 DA62     		str	r2, [r3, #44]
1168:Drivers/STM32F0xx_HAL_Driver/Src/stm32f0xx_hal_i2c.c ****     hi2c->XferISR     = I2C_Master_ISR_IT;
 2094              		.loc 1 1168 23 discriminator 2
 2095 0088 FB68     		ldr	r3, [r7, #12]
 2096 008a 1B4A     		ldr	r2, .L93+4
 2097 008c 5A63     		str	r2, [r3, #52]
1169:Drivers/STM32F0xx_HAL_Driver/Src/stm32f0xx_hal_i2c.c **** 
1170:Drivers/STM32F0xx_HAL_Driver/Src/stm32f0xx_hal_i2c.c ****     if (hi2c->XferCount > MAX_NBYTE_SIZE)
 2098              		.loc 1 1170 13 discriminator 2
 2099 008e FB68     		ldr	r3, [r7, #12]
 2100 0090 5B8D     		ldrh	r3, [r3, #42]
 2101 0092 9BB2     		uxth	r3, r3
 2102              		.loc 1 1170 8 discriminator 2
 2103 0094 FF2B     		cmp	r3, #255
 2104 0096 06D9     		bls	.L91
1171:Drivers/STM32F0xx_HAL_Driver/Src/stm32f0xx_hal_i2c.c ****     {
1172:Drivers/STM32F0xx_HAL_Driver/Src/stm32f0xx_hal_i2c.c ****       hi2c->XferSize = MAX_NBYTE_SIZE;
 2105              		.loc 1 1172 22
 2106 0098 FB68     		ldr	r3, [r7, #12]
 2107 009a FF22     		movs	r2, #255
 2108 009c 1A85     		strh	r2, [r3, #40]
1173:Drivers/STM32F0xx_HAL_Driver/Src/stm32f0xx_hal_i2c.c ****       xfermode = I2C_RELOAD_MODE;
 2109              		.loc 1 1173 16
 2110 009e 8023     		movs	r3, #128
 2111 00a0 5B04     		lsls	r3, r3, #17
 2112 00a2 7B61     		str	r3, [r7, #20]
 2113 00a4 07E0     		b	.L92
 2114              	.L91:
1174:Drivers/STM32F0xx_HAL_Driver/Src/stm32f0xx_hal_i2c.c ****     }
1175:Drivers/STM32F0xx_HAL_Driver/Src/stm32f0xx_hal_i2c.c ****     else
1176:Drivers/STM32F0xx_HAL_Driver/Src/stm32f0xx_hal_i2c.c ****     {
1177:Drivers/STM32F0xx_HAL_Driver/Src/stm32f0xx_hal_i2c.c ****       hi2c->XferSize = hi2c->XferCount;
 2115              		.loc 1 1177 28
 2116 00a6 FB68     		ldr	r3, [r7, #12]
 2117 00a8 5B8D     		ldrh	r3, [r3, #42]
 2118 00aa 9AB2     		uxth	r2, r3
 2119              		.loc 1 1177 22
 2120 00ac FB68     		ldr	r3, [r7, #12]
 2121 00ae 1A85     		strh	r2, [r3, #40]
1178:Drivers/STM32F0xx_HAL_Driver/Src/stm32f0xx_hal_i2c.c ****       xfermode = I2C_AUTOEND_MODE;
 2122              		.loc 1 1178 16
 2123 00b0 8023     		movs	r3, #128
 2124 00b2 9B04     		lsls	r3, r3, #18
 2125 00b4 7B61     		str	r3, [r7, #20]
 2126              	.L92:
1179:Drivers/STM32F0xx_HAL_Driver/Src/stm32f0xx_hal_i2c.c ****     }
1180:Drivers/STM32F0xx_HAL_Driver/Src/stm32f0xx_hal_i2c.c **** 
1181:Drivers/STM32F0xx_HAL_Driver/Src/stm32f0xx_hal_i2c.c ****     /* Send Slave Address */
1182:Drivers/STM32F0xx_HAL_Driver/Src/stm32f0xx_hal_i2c.c ****     /* Set NBYTES to write and reload if hi2c->XferCount > MAX_NBYTE_SIZE */
1183:Drivers/STM32F0xx_HAL_Driver/Src/stm32f0xx_hal_i2c.c ****     I2C_TransferConfig(hi2c, DevAddress, hi2c->XferSize, xfermode, I2C_GENERATE_START_WRITE);
 2127              		.loc 1 1183 46
 2128 00b6 FB68     		ldr	r3, [r7, #12]
 2129 00b8 1B8D     		ldrh	r3, [r3, #40]
 2130              		.loc 1 1183 5
 2131 00ba DAB2     		uxtb	r2, r3
 2132 00bc 7C69     		ldr	r4, [r7, #20]
ARM GAS  C:\Users\ADMINI~1\AppData\Local\Temp\cc3zYV2m.s 			page 59


 2133 00be 0A23     		movs	r3, #10
 2134 00c0 FB18     		adds	r3, r7, r3
 2135 00c2 1988     		ldrh	r1, [r3]
 2136 00c4 F868     		ldr	r0, [r7, #12]
 2137 00c6 8023     		movs	r3, #128
 2138 00c8 9B01     		lsls	r3, r3, #6
 2139 00ca 0093     		str	r3, [sp]
 2140 00cc 2300     		movs	r3, r4
 2141 00ce FFF7FEFF 		bl	I2C_TransferConfig
1184:Drivers/STM32F0xx_HAL_Driver/Src/stm32f0xx_hal_i2c.c **** 
1185:Drivers/STM32F0xx_HAL_Driver/Src/stm32f0xx_hal_i2c.c ****     /* Process Unlocked */
1186:Drivers/STM32F0xx_HAL_Driver/Src/stm32f0xx_hal_i2c.c ****     __HAL_UNLOCK(hi2c);
 2142              		.loc 1 1186 5
 2143 00d2 FB68     		ldr	r3, [r7, #12]
 2144 00d4 4022     		movs	r2, #64
 2145 00d6 0021     		movs	r1, #0
 2146 00d8 9954     		strb	r1, [r3, r2]
1187:Drivers/STM32F0xx_HAL_Driver/Src/stm32f0xx_hal_i2c.c **** 
1188:Drivers/STM32F0xx_HAL_Driver/Src/stm32f0xx_hal_i2c.c ****     /* Note : The I2C interrupts must be enabled after unlocking current process
1189:Drivers/STM32F0xx_HAL_Driver/Src/stm32f0xx_hal_i2c.c ****               to avoid the risk of I2C interrupt handle execution before current
1190:Drivers/STM32F0xx_HAL_Driver/Src/stm32f0xx_hal_i2c.c ****               process unlock */
1191:Drivers/STM32F0xx_HAL_Driver/Src/stm32f0xx_hal_i2c.c **** 
1192:Drivers/STM32F0xx_HAL_Driver/Src/stm32f0xx_hal_i2c.c ****     /* Enable ERR, TC, STOP, NACK, TXI interrupt */
1193:Drivers/STM32F0xx_HAL_Driver/Src/stm32f0xx_hal_i2c.c ****     /* possible to enable all of these */
1194:Drivers/STM32F0xx_HAL_Driver/Src/stm32f0xx_hal_i2c.c ****     /* I2C_IT_ERRI | I2C_IT_TCI| I2C_IT_STOPI| I2C_IT_NACKI | I2C_IT_ADDRI | I2C_IT_RXI | I2C_IT_TX
1195:Drivers/STM32F0xx_HAL_Driver/Src/stm32f0xx_hal_i2c.c ****     I2C_Enable_IRQ(hi2c, I2C_XFER_TX_IT);
 2147              		.loc 1 1195 5
 2148 00da FB68     		ldr	r3, [r7, #12]
 2149 00dc 0121     		movs	r1, #1
 2150 00de 1800     		movs	r0, r3
 2151 00e0 FFF7FEFF 		bl	I2C_Enable_IRQ
1196:Drivers/STM32F0xx_HAL_Driver/Src/stm32f0xx_hal_i2c.c **** 
1197:Drivers/STM32F0xx_HAL_Driver/Src/stm32f0xx_hal_i2c.c ****     return HAL_OK;
 2152              		.loc 1 1197 12
 2153 00e4 0023     		movs	r3, #0
 2154 00e6 00E0     		b	.L89
 2155              	.L87:
1198:Drivers/STM32F0xx_HAL_Driver/Src/stm32f0xx_hal_i2c.c ****   }
1199:Drivers/STM32F0xx_HAL_Driver/Src/stm32f0xx_hal_i2c.c ****   else
1200:Drivers/STM32F0xx_HAL_Driver/Src/stm32f0xx_hal_i2c.c ****   {
1201:Drivers/STM32F0xx_HAL_Driver/Src/stm32f0xx_hal_i2c.c ****     return HAL_BUSY;
 2156              		.loc 1 1201 12
 2157 00e8 0223     		movs	r3, #2
 2158              	.L89:
1202:Drivers/STM32F0xx_HAL_Driver/Src/stm32f0xx_hal_i2c.c ****   }
1203:Drivers/STM32F0xx_HAL_Driver/Src/stm32f0xx_hal_i2c.c **** }
 2159              		.loc 1 1203 1
 2160 00ea 1800     		movs	r0, r3
 2161 00ec BD46     		mov	sp, r7
 2162 00ee 07B0     		add	sp, sp, #28
 2163              		@ sp needed
 2164 00f0 90BD     		pop	{r4, r7, pc}
 2165              	.L94:
 2166 00f2 C046     		.align	2
 2167              	.L93:
 2168 00f4 0000FFFF 		.word	-65536
 2169 00f8 00000000 		.word	I2C_Master_ISR_IT
ARM GAS  C:\Users\ADMINI~1\AppData\Local\Temp\cc3zYV2m.s 			page 60


 2170              		.cfi_endproc
 2171              	.LFE45:
 2173              		.section	.text.HAL_I2C_Master_Receive_IT,"ax",%progbits
 2174              		.align	1
 2175              		.global	HAL_I2C_Master_Receive_IT
 2176              		.syntax unified
 2177              		.code	16
 2178              		.thumb_func
 2179              		.fpu softvfp
 2181              	HAL_I2C_Master_Receive_IT:
 2182              	.LFB46:
1204:Drivers/STM32F0xx_HAL_Driver/Src/stm32f0xx_hal_i2c.c **** 
1205:Drivers/STM32F0xx_HAL_Driver/Src/stm32f0xx_hal_i2c.c **** /**
1206:Drivers/STM32F0xx_HAL_Driver/Src/stm32f0xx_hal_i2c.c ****   * @brief  Receive in master mode an amount of data in non-blocking mode with Interrupt
1207:Drivers/STM32F0xx_HAL_Driver/Src/stm32f0xx_hal_i2c.c ****   * @param  hi2c Pointer to a I2C_HandleTypeDef structure that contains
1208:Drivers/STM32F0xx_HAL_Driver/Src/stm32f0xx_hal_i2c.c ****   *                the configuration information for the specified I2C.
1209:Drivers/STM32F0xx_HAL_Driver/Src/stm32f0xx_hal_i2c.c ****   * @param  DevAddress Target device address: The device 7 bits address value
1210:Drivers/STM32F0xx_HAL_Driver/Src/stm32f0xx_hal_i2c.c ****   *         in datasheet must be shift at right before call interface
1211:Drivers/STM32F0xx_HAL_Driver/Src/stm32f0xx_hal_i2c.c ****   * @param  pData Pointer to data buffer
1212:Drivers/STM32F0xx_HAL_Driver/Src/stm32f0xx_hal_i2c.c ****   * @param  Size Amount of data to be sent
1213:Drivers/STM32F0xx_HAL_Driver/Src/stm32f0xx_hal_i2c.c ****   * @retval HAL status
1214:Drivers/STM32F0xx_HAL_Driver/Src/stm32f0xx_hal_i2c.c ****   */
1215:Drivers/STM32F0xx_HAL_Driver/Src/stm32f0xx_hal_i2c.c **** HAL_StatusTypeDef HAL_I2C_Master_Receive_IT(I2C_HandleTypeDef *hi2c, uint16_t DevAddress, uint8_t *
1216:Drivers/STM32F0xx_HAL_Driver/Src/stm32f0xx_hal_i2c.c **** {
 2183              		.loc 1 1216 1
 2184              		.cfi_startproc
 2185              		@ args = 0, pretend = 0, frame = 24
 2186              		@ frame_needed = 1, uses_anonymous_args = 0
 2187 0000 90B5     		push	{r4, r7, lr}
 2188              	.LCFI27:
 2189              		.cfi_def_cfa_offset 12
 2190              		.cfi_offset 4, -12
 2191              		.cfi_offset 7, -8
 2192              		.cfi_offset 14, -4
 2193 0002 89B0     		sub	sp, sp, #36
 2194              	.LCFI28:
 2195              		.cfi_def_cfa_offset 48
 2196 0004 02AF     		add	r7, sp, #8
 2197              	.LCFI29:
 2198              		.cfi_def_cfa 7, 40
 2199 0006 F860     		str	r0, [r7, #12]
 2200 0008 0800     		movs	r0, r1
 2201 000a 7A60     		str	r2, [r7, #4]
 2202 000c 1900     		movs	r1, r3
 2203 000e 0A23     		movs	r3, #10
 2204 0010 FB18     		adds	r3, r7, r3
 2205 0012 021C     		adds	r2, r0, #0
 2206 0014 1A80     		strh	r2, [r3]
 2207 0016 0823     		movs	r3, #8
 2208 0018 FB18     		adds	r3, r7, r3
 2209 001a 0A1C     		adds	r2, r1, #0
 2210 001c 1A80     		strh	r2, [r3]
1217:Drivers/STM32F0xx_HAL_Driver/Src/stm32f0xx_hal_i2c.c ****   uint32_t xfermode = 0U;
 2211              		.loc 1 1217 12
 2212 001e 0023     		movs	r3, #0
 2213 0020 7B61     		str	r3, [r7, #20]
1218:Drivers/STM32F0xx_HAL_Driver/Src/stm32f0xx_hal_i2c.c **** 
ARM GAS  C:\Users\ADMINI~1\AppData\Local\Temp\cc3zYV2m.s 			page 61


1219:Drivers/STM32F0xx_HAL_Driver/Src/stm32f0xx_hal_i2c.c ****   if (hi2c->State == HAL_I2C_STATE_READY)
 2214              		.loc 1 1219 11
 2215 0022 FB68     		ldr	r3, [r7, #12]
 2216 0024 4122     		movs	r2, #65
 2217 0026 9B5C     		ldrb	r3, [r3, r2]
 2218 0028 DBB2     		uxtb	r3, r3
 2219              		.loc 1 1219 6
 2220 002a 202B     		cmp	r3, #32
 2221 002c 5CD1     		bne	.L96
1220:Drivers/STM32F0xx_HAL_Driver/Src/stm32f0xx_hal_i2c.c ****   {
1221:Drivers/STM32F0xx_HAL_Driver/Src/stm32f0xx_hal_i2c.c ****     if (__HAL_I2C_GET_FLAG(hi2c, I2C_FLAG_BUSY) == SET)
 2222              		.loc 1 1221 9
 2223 002e FB68     		ldr	r3, [r7, #12]
 2224 0030 1B68     		ldr	r3, [r3]
 2225 0032 9A69     		ldr	r2, [r3, #24]
 2226 0034 8023     		movs	r3, #128
 2227 0036 1B02     		lsls	r3, r3, #8
 2228 0038 1A40     		ands	r2, r3
 2229              		.loc 1 1221 8
 2230 003a 8023     		movs	r3, #128
 2231 003c 1B02     		lsls	r3, r3, #8
 2232 003e 9A42     		cmp	r2, r3
 2233 0040 01D1     		bne	.L97
1222:Drivers/STM32F0xx_HAL_Driver/Src/stm32f0xx_hal_i2c.c ****     {
1223:Drivers/STM32F0xx_HAL_Driver/Src/stm32f0xx_hal_i2c.c ****       return HAL_BUSY;
 2234              		.loc 1 1223 14
 2235 0042 0223     		movs	r3, #2
 2236 0044 51E0     		b	.L98
 2237              	.L97:
1224:Drivers/STM32F0xx_HAL_Driver/Src/stm32f0xx_hal_i2c.c ****     }
1225:Drivers/STM32F0xx_HAL_Driver/Src/stm32f0xx_hal_i2c.c **** 
1226:Drivers/STM32F0xx_HAL_Driver/Src/stm32f0xx_hal_i2c.c ****     /* Process Locked */
1227:Drivers/STM32F0xx_HAL_Driver/Src/stm32f0xx_hal_i2c.c ****     __HAL_LOCK(hi2c);
 2238              		.loc 1 1227 5
 2239 0046 FB68     		ldr	r3, [r7, #12]
 2240 0048 4022     		movs	r2, #64
 2241 004a 9B5C     		ldrb	r3, [r3, r2]
 2242 004c 012B     		cmp	r3, #1
 2243 004e 01D1     		bne	.L99
 2244              		.loc 1 1227 5 is_stmt 0 discriminator 1
 2245 0050 0223     		movs	r3, #2
 2246 0052 4AE0     		b	.L98
 2247              	.L99:
 2248              		.loc 1 1227 5 discriminator 2
 2249 0054 FB68     		ldr	r3, [r7, #12]
 2250 0056 4022     		movs	r2, #64
 2251 0058 0121     		movs	r1, #1
 2252 005a 9954     		strb	r1, [r3, r2]
1228:Drivers/STM32F0xx_HAL_Driver/Src/stm32f0xx_hal_i2c.c **** 
1229:Drivers/STM32F0xx_HAL_Driver/Src/stm32f0xx_hal_i2c.c ****     hi2c->State       = HAL_I2C_STATE_BUSY_RX;
 2253              		.loc 1 1229 23 is_stmt 1 discriminator 2
 2254 005c FB68     		ldr	r3, [r7, #12]
 2255 005e 4122     		movs	r2, #65
 2256 0060 2221     		movs	r1, #34
 2257 0062 9954     		strb	r1, [r3, r2]
1230:Drivers/STM32F0xx_HAL_Driver/Src/stm32f0xx_hal_i2c.c ****     hi2c->Mode        = HAL_I2C_MODE_MASTER;
 2258              		.loc 1 1230 23 discriminator 2
ARM GAS  C:\Users\ADMINI~1\AppData\Local\Temp\cc3zYV2m.s 			page 62


 2259 0064 FB68     		ldr	r3, [r7, #12]
 2260 0066 4222     		movs	r2, #66
 2261 0068 1021     		movs	r1, #16
 2262 006a 9954     		strb	r1, [r3, r2]
1231:Drivers/STM32F0xx_HAL_Driver/Src/stm32f0xx_hal_i2c.c ****     hi2c->ErrorCode   = HAL_I2C_ERROR_NONE;
 2263              		.loc 1 1231 23 discriminator 2
 2264 006c FB68     		ldr	r3, [r7, #12]
 2265 006e 0022     		movs	r2, #0
 2266 0070 5A64     		str	r2, [r3, #68]
1232:Drivers/STM32F0xx_HAL_Driver/Src/stm32f0xx_hal_i2c.c **** 
1233:Drivers/STM32F0xx_HAL_Driver/Src/stm32f0xx_hal_i2c.c ****     /* Prepare transfer parameters */
1234:Drivers/STM32F0xx_HAL_Driver/Src/stm32f0xx_hal_i2c.c ****     hi2c->pBuffPtr    = pData;
 2267              		.loc 1 1234 23 discriminator 2
 2268 0072 FB68     		ldr	r3, [r7, #12]
 2269 0074 7A68     		ldr	r2, [r7, #4]
 2270 0076 5A62     		str	r2, [r3, #36]
1235:Drivers/STM32F0xx_HAL_Driver/Src/stm32f0xx_hal_i2c.c ****     hi2c->XferCount   = Size;
 2271              		.loc 1 1235 23 discriminator 2
 2272 0078 FB68     		ldr	r3, [r7, #12]
 2273 007a 0822     		movs	r2, #8
 2274 007c BA18     		adds	r2, r7, r2
 2275 007e 1288     		ldrh	r2, [r2]
 2276 0080 5A85     		strh	r2, [r3, #42]
1236:Drivers/STM32F0xx_HAL_Driver/Src/stm32f0xx_hal_i2c.c ****     hi2c->XferOptions = I2C_NO_OPTION_FRAME;
 2277              		.loc 1 1236 23 discriminator 2
 2278 0082 FB68     		ldr	r3, [r7, #12]
 2279 0084 1B4A     		ldr	r2, .L102
 2280 0086 DA62     		str	r2, [r3, #44]
1237:Drivers/STM32F0xx_HAL_Driver/Src/stm32f0xx_hal_i2c.c ****     hi2c->XferISR     = I2C_Master_ISR_IT;
 2281              		.loc 1 1237 23 discriminator 2
 2282 0088 FB68     		ldr	r3, [r7, #12]
 2283 008a 1B4A     		ldr	r2, .L102+4
 2284 008c 5A63     		str	r2, [r3, #52]
1238:Drivers/STM32F0xx_HAL_Driver/Src/stm32f0xx_hal_i2c.c **** 
1239:Drivers/STM32F0xx_HAL_Driver/Src/stm32f0xx_hal_i2c.c ****     if (hi2c->XferCount > MAX_NBYTE_SIZE)
 2285              		.loc 1 1239 13 discriminator 2
 2286 008e FB68     		ldr	r3, [r7, #12]
 2287 0090 5B8D     		ldrh	r3, [r3, #42]
 2288 0092 9BB2     		uxth	r3, r3
 2289              		.loc 1 1239 8 discriminator 2
 2290 0094 FF2B     		cmp	r3, #255
 2291 0096 06D9     		bls	.L100
1240:Drivers/STM32F0xx_HAL_Driver/Src/stm32f0xx_hal_i2c.c ****     {
1241:Drivers/STM32F0xx_HAL_Driver/Src/stm32f0xx_hal_i2c.c ****       hi2c->XferSize = MAX_NBYTE_SIZE;
 2292              		.loc 1 1241 22
 2293 0098 FB68     		ldr	r3, [r7, #12]
 2294 009a FF22     		movs	r2, #255
 2295 009c 1A85     		strh	r2, [r3, #40]
1242:Drivers/STM32F0xx_HAL_Driver/Src/stm32f0xx_hal_i2c.c ****       xfermode = I2C_RELOAD_MODE;
 2296              		.loc 1 1242 16
 2297 009e 8023     		movs	r3, #128
 2298 00a0 5B04     		lsls	r3, r3, #17
 2299 00a2 7B61     		str	r3, [r7, #20]
 2300 00a4 07E0     		b	.L101
 2301              	.L100:
1243:Drivers/STM32F0xx_HAL_Driver/Src/stm32f0xx_hal_i2c.c ****     }
1244:Drivers/STM32F0xx_HAL_Driver/Src/stm32f0xx_hal_i2c.c ****     else
ARM GAS  C:\Users\ADMINI~1\AppData\Local\Temp\cc3zYV2m.s 			page 63


1245:Drivers/STM32F0xx_HAL_Driver/Src/stm32f0xx_hal_i2c.c ****     {
1246:Drivers/STM32F0xx_HAL_Driver/Src/stm32f0xx_hal_i2c.c ****       hi2c->XferSize = hi2c->XferCount;
 2302              		.loc 1 1246 28
 2303 00a6 FB68     		ldr	r3, [r7, #12]
 2304 00a8 5B8D     		ldrh	r3, [r3, #42]
 2305 00aa 9AB2     		uxth	r2, r3
 2306              		.loc 1 1246 22
 2307 00ac FB68     		ldr	r3, [r7, #12]
 2308 00ae 1A85     		strh	r2, [r3, #40]
1247:Drivers/STM32F0xx_HAL_Driver/Src/stm32f0xx_hal_i2c.c ****       xfermode = I2C_AUTOEND_MODE;
 2309              		.loc 1 1247 16
 2310 00b0 8023     		movs	r3, #128
 2311 00b2 9B04     		lsls	r3, r3, #18
 2312 00b4 7B61     		str	r3, [r7, #20]
 2313              	.L101:
1248:Drivers/STM32F0xx_HAL_Driver/Src/stm32f0xx_hal_i2c.c ****     }
1249:Drivers/STM32F0xx_HAL_Driver/Src/stm32f0xx_hal_i2c.c **** 
1250:Drivers/STM32F0xx_HAL_Driver/Src/stm32f0xx_hal_i2c.c ****     /* Send Slave Address */
1251:Drivers/STM32F0xx_HAL_Driver/Src/stm32f0xx_hal_i2c.c ****     /* Set NBYTES to write and reload if hi2c->XferCount > MAX_NBYTE_SIZE */
1252:Drivers/STM32F0xx_HAL_Driver/Src/stm32f0xx_hal_i2c.c ****     I2C_TransferConfig(hi2c, DevAddress, hi2c->XferSize, xfermode, I2C_GENERATE_START_READ);
 2314              		.loc 1 1252 46
 2315 00b6 FB68     		ldr	r3, [r7, #12]
 2316 00b8 1B8D     		ldrh	r3, [r3, #40]
 2317              		.loc 1 1252 5
 2318 00ba DAB2     		uxtb	r2, r3
 2319 00bc 7C69     		ldr	r4, [r7, #20]
 2320 00be 0A23     		movs	r3, #10
 2321 00c0 FB18     		adds	r3, r7, r3
 2322 00c2 1988     		ldrh	r1, [r3]
 2323 00c4 F868     		ldr	r0, [r7, #12]
 2324 00c6 9023     		movs	r3, #144
 2325 00c8 9B01     		lsls	r3, r3, #6
 2326 00ca 0093     		str	r3, [sp]
 2327 00cc 2300     		movs	r3, r4
 2328 00ce FFF7FEFF 		bl	I2C_TransferConfig
1253:Drivers/STM32F0xx_HAL_Driver/Src/stm32f0xx_hal_i2c.c **** 
1254:Drivers/STM32F0xx_HAL_Driver/Src/stm32f0xx_hal_i2c.c ****     /* Process Unlocked */
1255:Drivers/STM32F0xx_HAL_Driver/Src/stm32f0xx_hal_i2c.c ****     __HAL_UNLOCK(hi2c);
 2329              		.loc 1 1255 5
 2330 00d2 FB68     		ldr	r3, [r7, #12]
 2331 00d4 4022     		movs	r2, #64
 2332 00d6 0021     		movs	r1, #0
 2333 00d8 9954     		strb	r1, [r3, r2]
1256:Drivers/STM32F0xx_HAL_Driver/Src/stm32f0xx_hal_i2c.c **** 
1257:Drivers/STM32F0xx_HAL_Driver/Src/stm32f0xx_hal_i2c.c ****     /* Note : The I2C interrupts must be enabled after unlocking current process
1258:Drivers/STM32F0xx_HAL_Driver/Src/stm32f0xx_hal_i2c.c ****               to avoid the risk of I2C interrupt handle execution before current
1259:Drivers/STM32F0xx_HAL_Driver/Src/stm32f0xx_hal_i2c.c ****               process unlock */
1260:Drivers/STM32F0xx_HAL_Driver/Src/stm32f0xx_hal_i2c.c **** 
1261:Drivers/STM32F0xx_HAL_Driver/Src/stm32f0xx_hal_i2c.c ****     /* Enable ERR, TC, STOP, NACK, RXI interrupt */
1262:Drivers/STM32F0xx_HAL_Driver/Src/stm32f0xx_hal_i2c.c ****     /* possible to enable all of these */
1263:Drivers/STM32F0xx_HAL_Driver/Src/stm32f0xx_hal_i2c.c ****     /* I2C_IT_ERRI | I2C_IT_TCI| I2C_IT_STOPI| I2C_IT_NACKI | I2C_IT_ADDRI | I2C_IT_RXI | I2C_IT_TX
1264:Drivers/STM32F0xx_HAL_Driver/Src/stm32f0xx_hal_i2c.c ****     I2C_Enable_IRQ(hi2c, I2C_XFER_RX_IT);
 2334              		.loc 1 1264 5
 2335 00da FB68     		ldr	r3, [r7, #12]
 2336 00dc 0221     		movs	r1, #2
 2337 00de 1800     		movs	r0, r3
 2338 00e0 FFF7FEFF 		bl	I2C_Enable_IRQ
ARM GAS  C:\Users\ADMINI~1\AppData\Local\Temp\cc3zYV2m.s 			page 64


1265:Drivers/STM32F0xx_HAL_Driver/Src/stm32f0xx_hal_i2c.c **** 
1266:Drivers/STM32F0xx_HAL_Driver/Src/stm32f0xx_hal_i2c.c ****     return HAL_OK;
 2339              		.loc 1 1266 12
 2340 00e4 0023     		movs	r3, #0
 2341 00e6 00E0     		b	.L98
 2342              	.L96:
1267:Drivers/STM32F0xx_HAL_Driver/Src/stm32f0xx_hal_i2c.c ****   }
1268:Drivers/STM32F0xx_HAL_Driver/Src/stm32f0xx_hal_i2c.c ****   else
1269:Drivers/STM32F0xx_HAL_Driver/Src/stm32f0xx_hal_i2c.c ****   {
1270:Drivers/STM32F0xx_HAL_Driver/Src/stm32f0xx_hal_i2c.c ****     return HAL_BUSY;
 2343              		.loc 1 1270 12
 2344 00e8 0223     		movs	r3, #2
 2345              	.L98:
1271:Drivers/STM32F0xx_HAL_Driver/Src/stm32f0xx_hal_i2c.c ****   }
1272:Drivers/STM32F0xx_HAL_Driver/Src/stm32f0xx_hal_i2c.c **** }
 2346              		.loc 1 1272 1
 2347 00ea 1800     		movs	r0, r3
 2348 00ec BD46     		mov	sp, r7
 2349 00ee 07B0     		add	sp, sp, #28
 2350              		@ sp needed
 2351 00f0 90BD     		pop	{r4, r7, pc}
 2352              	.L103:
 2353 00f2 C046     		.align	2
 2354              	.L102:
 2355 00f4 0000FFFF 		.word	-65536
 2356 00f8 00000000 		.word	I2C_Master_ISR_IT
 2357              		.cfi_endproc
 2358              	.LFE46:
 2360              		.section	.text.HAL_I2C_Slave_Transmit_IT,"ax",%progbits
 2361              		.align	1
 2362              		.global	HAL_I2C_Slave_Transmit_IT
 2363              		.syntax unified
 2364              		.code	16
 2365              		.thumb_func
 2366              		.fpu softvfp
 2368              	HAL_I2C_Slave_Transmit_IT:
 2369              	.LFB47:
1273:Drivers/STM32F0xx_HAL_Driver/Src/stm32f0xx_hal_i2c.c **** 
1274:Drivers/STM32F0xx_HAL_Driver/Src/stm32f0xx_hal_i2c.c **** /**
1275:Drivers/STM32F0xx_HAL_Driver/Src/stm32f0xx_hal_i2c.c ****   * @brief  Transmit in slave mode an amount of data in non-blocking mode with Interrupt
1276:Drivers/STM32F0xx_HAL_Driver/Src/stm32f0xx_hal_i2c.c ****   * @param  hi2c Pointer to a I2C_HandleTypeDef structure that contains
1277:Drivers/STM32F0xx_HAL_Driver/Src/stm32f0xx_hal_i2c.c ****   *                the configuration information for the specified I2C.
1278:Drivers/STM32F0xx_HAL_Driver/Src/stm32f0xx_hal_i2c.c ****   * @param  pData Pointer to data buffer
1279:Drivers/STM32F0xx_HAL_Driver/Src/stm32f0xx_hal_i2c.c ****   * @param  Size Amount of data to be sent
1280:Drivers/STM32F0xx_HAL_Driver/Src/stm32f0xx_hal_i2c.c ****   * @retval HAL status
1281:Drivers/STM32F0xx_HAL_Driver/Src/stm32f0xx_hal_i2c.c ****   */
1282:Drivers/STM32F0xx_HAL_Driver/Src/stm32f0xx_hal_i2c.c **** HAL_StatusTypeDef HAL_I2C_Slave_Transmit_IT(I2C_HandleTypeDef *hi2c, uint8_t *pData, uint16_t Size)
1283:Drivers/STM32F0xx_HAL_Driver/Src/stm32f0xx_hal_i2c.c **** {
 2370              		.loc 1 1283 1
 2371              		.cfi_startproc
 2372              		@ args = 0, pretend = 0, frame = 16
 2373              		@ frame_needed = 1, uses_anonymous_args = 0
 2374 0000 80B5     		push	{r7, lr}
 2375              	.LCFI30:
 2376              		.cfi_def_cfa_offset 8
 2377              		.cfi_offset 7, -8
 2378              		.cfi_offset 14, -4
ARM GAS  C:\Users\ADMINI~1\AppData\Local\Temp\cc3zYV2m.s 			page 65


 2379 0002 84B0     		sub	sp, sp, #16
 2380              	.LCFI31:
 2381              		.cfi_def_cfa_offset 24
 2382 0004 00AF     		add	r7, sp, #0
 2383              	.LCFI32:
 2384              		.cfi_def_cfa_register 7
 2385 0006 F860     		str	r0, [r7, #12]
 2386 0008 B960     		str	r1, [r7, #8]
 2387 000a BB1D     		adds	r3, r7, #6
 2388 000c 1A80     		strh	r2, [r3]
1284:Drivers/STM32F0xx_HAL_Driver/Src/stm32f0xx_hal_i2c.c ****   if (hi2c->State == HAL_I2C_STATE_READY)
 2389              		.loc 1 1284 11
 2390 000e FB68     		ldr	r3, [r7, #12]
 2391 0010 4122     		movs	r2, #65
 2392 0012 9B5C     		ldrb	r3, [r3, r2]
 2393 0014 DBB2     		uxtb	r3, r3
 2394              		.loc 1 1284 6
 2395 0016 202B     		cmp	r3, #32
 2396 0018 3AD1     		bne	.L105
1285:Drivers/STM32F0xx_HAL_Driver/Src/stm32f0xx_hal_i2c.c ****   {
1286:Drivers/STM32F0xx_HAL_Driver/Src/stm32f0xx_hal_i2c.c ****     /* Process Locked */
1287:Drivers/STM32F0xx_HAL_Driver/Src/stm32f0xx_hal_i2c.c ****     __HAL_LOCK(hi2c);
 2397              		.loc 1 1287 5
 2398 001a FB68     		ldr	r3, [r7, #12]
 2399 001c 4022     		movs	r2, #64
 2400 001e 9B5C     		ldrb	r3, [r3, r2]
 2401 0020 012B     		cmp	r3, #1
 2402 0022 01D1     		bne	.L106
 2403              		.loc 1 1287 5 is_stmt 0 discriminator 1
 2404 0024 0223     		movs	r3, #2
 2405 0026 34E0     		b	.L107
 2406              	.L106:
 2407              		.loc 1 1287 5 discriminator 2
 2408 0028 FB68     		ldr	r3, [r7, #12]
 2409 002a 4022     		movs	r2, #64
 2410 002c 0121     		movs	r1, #1
 2411 002e 9954     		strb	r1, [r3, r2]
1288:Drivers/STM32F0xx_HAL_Driver/Src/stm32f0xx_hal_i2c.c **** 
1289:Drivers/STM32F0xx_HAL_Driver/Src/stm32f0xx_hal_i2c.c ****     hi2c->State       = HAL_I2C_STATE_BUSY_TX;
 2412              		.loc 1 1289 23 is_stmt 1 discriminator 2
 2413 0030 FB68     		ldr	r3, [r7, #12]
 2414 0032 4122     		movs	r2, #65
 2415 0034 2121     		movs	r1, #33
 2416 0036 9954     		strb	r1, [r3, r2]
1290:Drivers/STM32F0xx_HAL_Driver/Src/stm32f0xx_hal_i2c.c ****     hi2c->Mode        = HAL_I2C_MODE_SLAVE;
 2417              		.loc 1 1290 23 discriminator 2
 2418 0038 FB68     		ldr	r3, [r7, #12]
 2419 003a 4222     		movs	r2, #66
 2420 003c 2021     		movs	r1, #32
 2421 003e 9954     		strb	r1, [r3, r2]
1291:Drivers/STM32F0xx_HAL_Driver/Src/stm32f0xx_hal_i2c.c ****     hi2c->ErrorCode   = HAL_I2C_ERROR_NONE;
 2422              		.loc 1 1291 23 discriminator 2
 2423 0040 FB68     		ldr	r3, [r7, #12]
 2424 0042 0022     		movs	r2, #0
 2425 0044 5A64     		str	r2, [r3, #68]
1292:Drivers/STM32F0xx_HAL_Driver/Src/stm32f0xx_hal_i2c.c **** 
1293:Drivers/STM32F0xx_HAL_Driver/Src/stm32f0xx_hal_i2c.c ****     /* Enable Address Acknowledge */
ARM GAS  C:\Users\ADMINI~1\AppData\Local\Temp\cc3zYV2m.s 			page 66


1294:Drivers/STM32F0xx_HAL_Driver/Src/stm32f0xx_hal_i2c.c ****     hi2c->Instance->CR2 &= ~I2C_CR2_NACK;
 2426              		.loc 1 1294 9 discriminator 2
 2427 0046 FB68     		ldr	r3, [r7, #12]
 2428 0048 1B68     		ldr	r3, [r3]
 2429              		.loc 1 1294 25 discriminator 2
 2430 004a 5A68     		ldr	r2, [r3, #4]
 2431              		.loc 1 1294 9 discriminator 2
 2432 004c FB68     		ldr	r3, [r7, #12]
 2433 004e 1B68     		ldr	r3, [r3]
 2434              		.loc 1 1294 25 discriminator 2
 2435 0050 1249     		ldr	r1, .L108
 2436 0052 0A40     		ands	r2, r1
 2437 0054 5A60     		str	r2, [r3, #4]
1295:Drivers/STM32F0xx_HAL_Driver/Src/stm32f0xx_hal_i2c.c **** 
1296:Drivers/STM32F0xx_HAL_Driver/Src/stm32f0xx_hal_i2c.c ****     /* Prepare transfer parameters */
1297:Drivers/STM32F0xx_HAL_Driver/Src/stm32f0xx_hal_i2c.c ****     hi2c->pBuffPtr    = pData;
 2438              		.loc 1 1297 23 discriminator 2
 2439 0056 FB68     		ldr	r3, [r7, #12]
 2440 0058 BA68     		ldr	r2, [r7, #8]
 2441 005a 5A62     		str	r2, [r3, #36]
1298:Drivers/STM32F0xx_HAL_Driver/Src/stm32f0xx_hal_i2c.c ****     hi2c->XferCount   = Size;
 2442              		.loc 1 1298 23 discriminator 2
 2443 005c FB68     		ldr	r3, [r7, #12]
 2444 005e BA1D     		adds	r2, r7, #6
 2445 0060 1288     		ldrh	r2, [r2]
 2446 0062 5A85     		strh	r2, [r3, #42]
1299:Drivers/STM32F0xx_HAL_Driver/Src/stm32f0xx_hal_i2c.c ****     hi2c->XferSize    = hi2c->XferCount;
 2447              		.loc 1 1299 29 discriminator 2
 2448 0064 FB68     		ldr	r3, [r7, #12]
 2449 0066 5B8D     		ldrh	r3, [r3, #42]
 2450 0068 9AB2     		uxth	r2, r3
 2451              		.loc 1 1299 23 discriminator 2
 2452 006a FB68     		ldr	r3, [r7, #12]
 2453 006c 1A85     		strh	r2, [r3, #40]
1300:Drivers/STM32F0xx_HAL_Driver/Src/stm32f0xx_hal_i2c.c ****     hi2c->XferOptions = I2C_NO_OPTION_FRAME;
 2454              		.loc 1 1300 23 discriminator 2
 2455 006e FB68     		ldr	r3, [r7, #12]
 2456 0070 0B4A     		ldr	r2, .L108+4
 2457 0072 DA62     		str	r2, [r3, #44]
1301:Drivers/STM32F0xx_HAL_Driver/Src/stm32f0xx_hal_i2c.c ****     hi2c->XferISR     = I2C_Slave_ISR_IT;
 2458              		.loc 1 1301 23 discriminator 2
 2459 0074 FB68     		ldr	r3, [r7, #12]
 2460 0076 0B4A     		ldr	r2, .L108+8
 2461 0078 5A63     		str	r2, [r3, #52]
1302:Drivers/STM32F0xx_HAL_Driver/Src/stm32f0xx_hal_i2c.c **** 
1303:Drivers/STM32F0xx_HAL_Driver/Src/stm32f0xx_hal_i2c.c ****     /* Process Unlocked */
1304:Drivers/STM32F0xx_HAL_Driver/Src/stm32f0xx_hal_i2c.c ****     __HAL_UNLOCK(hi2c);
 2462              		.loc 1 1304 5 discriminator 2
 2463 007a FB68     		ldr	r3, [r7, #12]
 2464 007c 4022     		movs	r2, #64
 2465 007e 0021     		movs	r1, #0
 2466 0080 9954     		strb	r1, [r3, r2]
1305:Drivers/STM32F0xx_HAL_Driver/Src/stm32f0xx_hal_i2c.c **** 
1306:Drivers/STM32F0xx_HAL_Driver/Src/stm32f0xx_hal_i2c.c ****     /* Note : The I2C interrupts must be enabled after unlocking current process
1307:Drivers/STM32F0xx_HAL_Driver/Src/stm32f0xx_hal_i2c.c ****               to avoid the risk of I2C interrupt handle execution before current
1308:Drivers/STM32F0xx_HAL_Driver/Src/stm32f0xx_hal_i2c.c ****               process unlock */
1309:Drivers/STM32F0xx_HAL_Driver/Src/stm32f0xx_hal_i2c.c **** 
ARM GAS  C:\Users\ADMINI~1\AppData\Local\Temp\cc3zYV2m.s 			page 67


1310:Drivers/STM32F0xx_HAL_Driver/Src/stm32f0xx_hal_i2c.c ****     /* Enable ERR, TC, STOP, NACK, TXI interrupt */
1311:Drivers/STM32F0xx_HAL_Driver/Src/stm32f0xx_hal_i2c.c ****     /* possible to enable all of these */
1312:Drivers/STM32F0xx_HAL_Driver/Src/stm32f0xx_hal_i2c.c ****     /* I2C_IT_ERRI | I2C_IT_TCI| I2C_IT_STOPI| I2C_IT_NACKI | I2C_IT_ADDRI | I2C_IT_RXI | I2C_IT_TX
1313:Drivers/STM32F0xx_HAL_Driver/Src/stm32f0xx_hal_i2c.c ****     I2C_Enable_IRQ(hi2c, I2C_XFER_TX_IT | I2C_XFER_LISTEN_IT);
 2467              		.loc 1 1313 5 discriminator 2
 2468 0082 FB68     		ldr	r3, [r7, #12]
 2469 0084 0521     		movs	r1, #5
 2470 0086 1800     		movs	r0, r3
 2471 0088 FFF7FEFF 		bl	I2C_Enable_IRQ
1314:Drivers/STM32F0xx_HAL_Driver/Src/stm32f0xx_hal_i2c.c **** 
1315:Drivers/STM32F0xx_HAL_Driver/Src/stm32f0xx_hal_i2c.c ****     return HAL_OK;
 2472              		.loc 1 1315 12 discriminator 2
 2473 008c 0023     		movs	r3, #0
 2474 008e 00E0     		b	.L107
 2475              	.L105:
1316:Drivers/STM32F0xx_HAL_Driver/Src/stm32f0xx_hal_i2c.c ****   }
1317:Drivers/STM32F0xx_HAL_Driver/Src/stm32f0xx_hal_i2c.c ****   else
1318:Drivers/STM32F0xx_HAL_Driver/Src/stm32f0xx_hal_i2c.c ****   {
1319:Drivers/STM32F0xx_HAL_Driver/Src/stm32f0xx_hal_i2c.c ****     return HAL_BUSY;
 2476              		.loc 1 1319 12
 2477 0090 0223     		movs	r3, #2
 2478              	.L107:
1320:Drivers/STM32F0xx_HAL_Driver/Src/stm32f0xx_hal_i2c.c ****   }
1321:Drivers/STM32F0xx_HAL_Driver/Src/stm32f0xx_hal_i2c.c **** }
 2479              		.loc 1 1321 1
 2480 0092 1800     		movs	r0, r3
 2481 0094 BD46     		mov	sp, r7
 2482 0096 04B0     		add	sp, sp, #16
 2483              		@ sp needed
 2484 0098 80BD     		pop	{r7, pc}
 2485              	.L109:
 2486 009a C046     		.align	2
 2487              	.L108:
 2488 009c FF7FFFFF 		.word	-32769
 2489 00a0 0000FFFF 		.word	-65536
 2490 00a4 00000000 		.word	I2C_Slave_ISR_IT
 2491              		.cfi_endproc
 2492              	.LFE47:
 2494              		.section	.text.HAL_I2C_Slave_Receive_IT,"ax",%progbits
 2495              		.align	1
 2496              		.global	HAL_I2C_Slave_Receive_IT
 2497              		.syntax unified
 2498              		.code	16
 2499              		.thumb_func
 2500              		.fpu softvfp
 2502              	HAL_I2C_Slave_Receive_IT:
 2503              	.LFB48:
1322:Drivers/STM32F0xx_HAL_Driver/Src/stm32f0xx_hal_i2c.c **** 
1323:Drivers/STM32F0xx_HAL_Driver/Src/stm32f0xx_hal_i2c.c **** /**
1324:Drivers/STM32F0xx_HAL_Driver/Src/stm32f0xx_hal_i2c.c ****   * @brief  Receive in slave mode an amount of data in non-blocking mode with Interrupt
1325:Drivers/STM32F0xx_HAL_Driver/Src/stm32f0xx_hal_i2c.c ****   * @param  hi2c Pointer to a I2C_HandleTypeDef structure that contains
1326:Drivers/STM32F0xx_HAL_Driver/Src/stm32f0xx_hal_i2c.c ****   *                the configuration information for the specified I2C.
1327:Drivers/STM32F0xx_HAL_Driver/Src/stm32f0xx_hal_i2c.c ****   * @param  pData Pointer to data buffer
1328:Drivers/STM32F0xx_HAL_Driver/Src/stm32f0xx_hal_i2c.c ****   * @param  Size Amount of data to be sent
1329:Drivers/STM32F0xx_HAL_Driver/Src/stm32f0xx_hal_i2c.c ****   * @retval HAL status
1330:Drivers/STM32F0xx_HAL_Driver/Src/stm32f0xx_hal_i2c.c ****   */
1331:Drivers/STM32F0xx_HAL_Driver/Src/stm32f0xx_hal_i2c.c **** HAL_StatusTypeDef HAL_I2C_Slave_Receive_IT(I2C_HandleTypeDef *hi2c, uint8_t *pData, uint16_t Size)
ARM GAS  C:\Users\ADMINI~1\AppData\Local\Temp\cc3zYV2m.s 			page 68


1332:Drivers/STM32F0xx_HAL_Driver/Src/stm32f0xx_hal_i2c.c **** {
 2504              		.loc 1 1332 1
 2505              		.cfi_startproc
 2506              		@ args = 0, pretend = 0, frame = 16
 2507              		@ frame_needed = 1, uses_anonymous_args = 0
 2508 0000 80B5     		push	{r7, lr}
 2509              	.LCFI33:
 2510              		.cfi_def_cfa_offset 8
 2511              		.cfi_offset 7, -8
 2512              		.cfi_offset 14, -4
 2513 0002 84B0     		sub	sp, sp, #16
 2514              	.LCFI34:
 2515              		.cfi_def_cfa_offset 24
 2516 0004 00AF     		add	r7, sp, #0
 2517              	.LCFI35:
 2518              		.cfi_def_cfa_register 7
 2519 0006 F860     		str	r0, [r7, #12]
 2520 0008 B960     		str	r1, [r7, #8]
 2521 000a BB1D     		adds	r3, r7, #6
 2522 000c 1A80     		strh	r2, [r3]
1333:Drivers/STM32F0xx_HAL_Driver/Src/stm32f0xx_hal_i2c.c ****   if (hi2c->State == HAL_I2C_STATE_READY)
 2523              		.loc 1 1333 11
 2524 000e FB68     		ldr	r3, [r7, #12]
 2525 0010 4122     		movs	r2, #65
 2526 0012 9B5C     		ldrb	r3, [r3, r2]
 2527 0014 DBB2     		uxtb	r3, r3
 2528              		.loc 1 1333 6
 2529 0016 202B     		cmp	r3, #32
 2530 0018 3AD1     		bne	.L111
1334:Drivers/STM32F0xx_HAL_Driver/Src/stm32f0xx_hal_i2c.c ****   {
1335:Drivers/STM32F0xx_HAL_Driver/Src/stm32f0xx_hal_i2c.c ****     /* Process Locked */
1336:Drivers/STM32F0xx_HAL_Driver/Src/stm32f0xx_hal_i2c.c ****     __HAL_LOCK(hi2c);
 2531              		.loc 1 1336 5
 2532 001a FB68     		ldr	r3, [r7, #12]
 2533 001c 4022     		movs	r2, #64
 2534 001e 9B5C     		ldrb	r3, [r3, r2]
 2535 0020 012B     		cmp	r3, #1
 2536 0022 01D1     		bne	.L112
 2537              		.loc 1 1336 5 is_stmt 0 discriminator 1
 2538 0024 0223     		movs	r3, #2
 2539 0026 34E0     		b	.L113
 2540              	.L112:
 2541              		.loc 1 1336 5 discriminator 2
 2542 0028 FB68     		ldr	r3, [r7, #12]
 2543 002a 4022     		movs	r2, #64
 2544 002c 0121     		movs	r1, #1
 2545 002e 9954     		strb	r1, [r3, r2]
1337:Drivers/STM32F0xx_HAL_Driver/Src/stm32f0xx_hal_i2c.c **** 
1338:Drivers/STM32F0xx_HAL_Driver/Src/stm32f0xx_hal_i2c.c ****     hi2c->State       = HAL_I2C_STATE_BUSY_RX;
 2546              		.loc 1 1338 23 is_stmt 1 discriminator 2
 2547 0030 FB68     		ldr	r3, [r7, #12]
 2548 0032 4122     		movs	r2, #65
 2549 0034 2221     		movs	r1, #34
 2550 0036 9954     		strb	r1, [r3, r2]
1339:Drivers/STM32F0xx_HAL_Driver/Src/stm32f0xx_hal_i2c.c ****     hi2c->Mode        = HAL_I2C_MODE_SLAVE;
 2551              		.loc 1 1339 23 discriminator 2
 2552 0038 FB68     		ldr	r3, [r7, #12]
ARM GAS  C:\Users\ADMINI~1\AppData\Local\Temp\cc3zYV2m.s 			page 69


 2553 003a 4222     		movs	r2, #66
 2554 003c 2021     		movs	r1, #32
 2555 003e 9954     		strb	r1, [r3, r2]
1340:Drivers/STM32F0xx_HAL_Driver/Src/stm32f0xx_hal_i2c.c ****     hi2c->ErrorCode   = HAL_I2C_ERROR_NONE;
 2556              		.loc 1 1340 23 discriminator 2
 2557 0040 FB68     		ldr	r3, [r7, #12]
 2558 0042 0022     		movs	r2, #0
 2559 0044 5A64     		str	r2, [r3, #68]
1341:Drivers/STM32F0xx_HAL_Driver/Src/stm32f0xx_hal_i2c.c **** 
1342:Drivers/STM32F0xx_HAL_Driver/Src/stm32f0xx_hal_i2c.c ****     /* Enable Address Acknowledge */
1343:Drivers/STM32F0xx_HAL_Driver/Src/stm32f0xx_hal_i2c.c ****     hi2c->Instance->CR2 &= ~I2C_CR2_NACK;
 2560              		.loc 1 1343 9 discriminator 2
 2561 0046 FB68     		ldr	r3, [r7, #12]
 2562 0048 1B68     		ldr	r3, [r3]
 2563              		.loc 1 1343 25 discriminator 2
 2564 004a 5A68     		ldr	r2, [r3, #4]
 2565              		.loc 1 1343 9 discriminator 2
 2566 004c FB68     		ldr	r3, [r7, #12]
 2567 004e 1B68     		ldr	r3, [r3]
 2568              		.loc 1 1343 25 discriminator 2
 2569 0050 1249     		ldr	r1, .L114
 2570 0052 0A40     		ands	r2, r1
 2571 0054 5A60     		str	r2, [r3, #4]
1344:Drivers/STM32F0xx_HAL_Driver/Src/stm32f0xx_hal_i2c.c **** 
1345:Drivers/STM32F0xx_HAL_Driver/Src/stm32f0xx_hal_i2c.c ****     /* Prepare transfer parameters */
1346:Drivers/STM32F0xx_HAL_Driver/Src/stm32f0xx_hal_i2c.c ****     hi2c->pBuffPtr    = pData;
 2572              		.loc 1 1346 23 discriminator 2
 2573 0056 FB68     		ldr	r3, [r7, #12]
 2574 0058 BA68     		ldr	r2, [r7, #8]
 2575 005a 5A62     		str	r2, [r3, #36]
1347:Drivers/STM32F0xx_HAL_Driver/Src/stm32f0xx_hal_i2c.c ****     hi2c->XferCount   = Size;
 2576              		.loc 1 1347 23 discriminator 2
 2577 005c FB68     		ldr	r3, [r7, #12]
 2578 005e BA1D     		adds	r2, r7, #6
 2579 0060 1288     		ldrh	r2, [r2]
 2580 0062 5A85     		strh	r2, [r3, #42]
1348:Drivers/STM32F0xx_HAL_Driver/Src/stm32f0xx_hal_i2c.c ****     hi2c->XferSize    = hi2c->XferCount;
 2581              		.loc 1 1348 29 discriminator 2
 2582 0064 FB68     		ldr	r3, [r7, #12]
 2583 0066 5B8D     		ldrh	r3, [r3, #42]
 2584 0068 9AB2     		uxth	r2, r3
 2585              		.loc 1 1348 23 discriminator 2
 2586 006a FB68     		ldr	r3, [r7, #12]
 2587 006c 1A85     		strh	r2, [r3, #40]
1349:Drivers/STM32F0xx_HAL_Driver/Src/stm32f0xx_hal_i2c.c ****     hi2c->XferOptions = I2C_NO_OPTION_FRAME;
 2588              		.loc 1 1349 23 discriminator 2
 2589 006e FB68     		ldr	r3, [r7, #12]
 2590 0070 0B4A     		ldr	r2, .L114+4
 2591 0072 DA62     		str	r2, [r3, #44]
1350:Drivers/STM32F0xx_HAL_Driver/Src/stm32f0xx_hal_i2c.c ****     hi2c->XferISR     = I2C_Slave_ISR_IT;
 2592              		.loc 1 1350 23 discriminator 2
 2593 0074 FB68     		ldr	r3, [r7, #12]
 2594 0076 0B4A     		ldr	r2, .L114+8
 2595 0078 5A63     		str	r2, [r3, #52]
1351:Drivers/STM32F0xx_HAL_Driver/Src/stm32f0xx_hal_i2c.c **** 
1352:Drivers/STM32F0xx_HAL_Driver/Src/stm32f0xx_hal_i2c.c ****     /* Process Unlocked */
1353:Drivers/STM32F0xx_HAL_Driver/Src/stm32f0xx_hal_i2c.c ****     __HAL_UNLOCK(hi2c);
ARM GAS  C:\Users\ADMINI~1\AppData\Local\Temp\cc3zYV2m.s 			page 70


 2596              		.loc 1 1353 5 discriminator 2
 2597 007a FB68     		ldr	r3, [r7, #12]
 2598 007c 4022     		movs	r2, #64
 2599 007e 0021     		movs	r1, #0
 2600 0080 9954     		strb	r1, [r3, r2]
1354:Drivers/STM32F0xx_HAL_Driver/Src/stm32f0xx_hal_i2c.c **** 
1355:Drivers/STM32F0xx_HAL_Driver/Src/stm32f0xx_hal_i2c.c ****     /* Note : The I2C interrupts must be enabled after unlocking current process
1356:Drivers/STM32F0xx_HAL_Driver/Src/stm32f0xx_hal_i2c.c ****               to avoid the risk of I2C interrupt handle execution before current
1357:Drivers/STM32F0xx_HAL_Driver/Src/stm32f0xx_hal_i2c.c ****               process unlock */
1358:Drivers/STM32F0xx_HAL_Driver/Src/stm32f0xx_hal_i2c.c **** 
1359:Drivers/STM32F0xx_HAL_Driver/Src/stm32f0xx_hal_i2c.c ****     /* Enable ERR, TC, STOP, NACK, RXI interrupt */
1360:Drivers/STM32F0xx_HAL_Driver/Src/stm32f0xx_hal_i2c.c ****     /* possible to enable all of these */
1361:Drivers/STM32F0xx_HAL_Driver/Src/stm32f0xx_hal_i2c.c ****     /* I2C_IT_ERRI | I2C_IT_TCI| I2C_IT_STOPI| I2C_IT_NACKI | I2C_IT_ADDRI | I2C_IT_RXI | I2C_IT_TX
1362:Drivers/STM32F0xx_HAL_Driver/Src/stm32f0xx_hal_i2c.c ****     I2C_Enable_IRQ(hi2c, I2C_XFER_RX_IT | I2C_XFER_LISTEN_IT);
 2601              		.loc 1 1362 5 discriminator 2
 2602 0082 FB68     		ldr	r3, [r7, #12]
 2603 0084 0621     		movs	r1, #6
 2604 0086 1800     		movs	r0, r3
 2605 0088 FFF7FEFF 		bl	I2C_Enable_IRQ
1363:Drivers/STM32F0xx_HAL_Driver/Src/stm32f0xx_hal_i2c.c **** 
1364:Drivers/STM32F0xx_HAL_Driver/Src/stm32f0xx_hal_i2c.c ****     return HAL_OK;
 2606              		.loc 1 1364 12 discriminator 2
 2607 008c 0023     		movs	r3, #0
 2608 008e 00E0     		b	.L113
 2609              	.L111:
1365:Drivers/STM32F0xx_HAL_Driver/Src/stm32f0xx_hal_i2c.c ****   }
1366:Drivers/STM32F0xx_HAL_Driver/Src/stm32f0xx_hal_i2c.c ****   else
1367:Drivers/STM32F0xx_HAL_Driver/Src/stm32f0xx_hal_i2c.c ****   {
1368:Drivers/STM32F0xx_HAL_Driver/Src/stm32f0xx_hal_i2c.c ****     return HAL_BUSY;
 2610              		.loc 1 1368 12
 2611 0090 0223     		movs	r3, #2
 2612              	.L113:
1369:Drivers/STM32F0xx_HAL_Driver/Src/stm32f0xx_hal_i2c.c ****   }
1370:Drivers/STM32F0xx_HAL_Driver/Src/stm32f0xx_hal_i2c.c **** }
 2613              		.loc 1 1370 1
 2614 0092 1800     		movs	r0, r3
 2615 0094 BD46     		mov	sp, r7
 2616 0096 04B0     		add	sp, sp, #16
 2617              		@ sp needed
 2618 0098 80BD     		pop	{r7, pc}
 2619              	.L115:
 2620 009a C046     		.align	2
 2621              	.L114:
 2622 009c FF7FFFFF 		.word	-32769
 2623 00a0 0000FFFF 		.word	-65536
 2624 00a4 00000000 		.word	I2C_Slave_ISR_IT
 2625              		.cfi_endproc
 2626              	.LFE48:
 2628              		.section	.text.HAL_I2C_Master_Transmit_DMA,"ax",%progbits
 2629              		.align	1
 2630              		.global	HAL_I2C_Master_Transmit_DMA
 2631              		.syntax unified
 2632              		.code	16
 2633              		.thumb_func
 2634              		.fpu softvfp
 2636              	HAL_I2C_Master_Transmit_DMA:
 2637              	.LFB49:
ARM GAS  C:\Users\ADMINI~1\AppData\Local\Temp\cc3zYV2m.s 			page 71


1371:Drivers/STM32F0xx_HAL_Driver/Src/stm32f0xx_hal_i2c.c **** 
1372:Drivers/STM32F0xx_HAL_Driver/Src/stm32f0xx_hal_i2c.c **** /**
1373:Drivers/STM32F0xx_HAL_Driver/Src/stm32f0xx_hal_i2c.c ****   * @brief  Transmit in master mode an amount of data in non-blocking mode with DMA
1374:Drivers/STM32F0xx_HAL_Driver/Src/stm32f0xx_hal_i2c.c ****   * @param  hi2c Pointer to a I2C_HandleTypeDef structure that contains
1375:Drivers/STM32F0xx_HAL_Driver/Src/stm32f0xx_hal_i2c.c ****   *                the configuration information for the specified I2C.
1376:Drivers/STM32F0xx_HAL_Driver/Src/stm32f0xx_hal_i2c.c ****   * @param  DevAddress Target device address: The device 7 bits address value
1377:Drivers/STM32F0xx_HAL_Driver/Src/stm32f0xx_hal_i2c.c ****   *         in datasheet must be shift at right before call interface
1378:Drivers/STM32F0xx_HAL_Driver/Src/stm32f0xx_hal_i2c.c ****   * @param  pData Pointer to data buffer
1379:Drivers/STM32F0xx_HAL_Driver/Src/stm32f0xx_hal_i2c.c ****   * @param  Size Amount of data to be sent
1380:Drivers/STM32F0xx_HAL_Driver/Src/stm32f0xx_hal_i2c.c ****   * @retval HAL status
1381:Drivers/STM32F0xx_HAL_Driver/Src/stm32f0xx_hal_i2c.c ****   */
1382:Drivers/STM32F0xx_HAL_Driver/Src/stm32f0xx_hal_i2c.c **** HAL_StatusTypeDef HAL_I2C_Master_Transmit_DMA(I2C_HandleTypeDef *hi2c, uint16_t DevAddress, uint8_t
1383:Drivers/STM32F0xx_HAL_Driver/Src/stm32f0xx_hal_i2c.c **** {
 2638              		.loc 1 1383 1
 2639              		.cfi_startproc
 2640              		@ args = 0, pretend = 0, frame = 24
 2641              		@ frame_needed = 1, uses_anonymous_args = 0
 2642 0000 90B5     		push	{r4, r7, lr}
 2643              	.LCFI36:
 2644              		.cfi_def_cfa_offset 12
 2645              		.cfi_offset 4, -12
 2646              		.cfi_offset 7, -8
 2647              		.cfi_offset 14, -4
 2648 0002 89B0     		sub	sp, sp, #36
 2649              	.LCFI37:
 2650              		.cfi_def_cfa_offset 48
 2651 0004 02AF     		add	r7, sp, #8
 2652              	.LCFI38:
 2653              		.cfi_def_cfa 7, 40
 2654 0006 F860     		str	r0, [r7, #12]
 2655 0008 0800     		movs	r0, r1
 2656 000a 7A60     		str	r2, [r7, #4]
 2657 000c 1900     		movs	r1, r3
 2658 000e 0A23     		movs	r3, #10
 2659 0010 FB18     		adds	r3, r7, r3
 2660 0012 021C     		adds	r2, r0, #0
 2661 0014 1A80     		strh	r2, [r3]
 2662 0016 0823     		movs	r3, #8
 2663 0018 FB18     		adds	r3, r7, r3
 2664 001a 0A1C     		adds	r2, r1, #0
 2665 001c 1A80     		strh	r2, [r3]
1384:Drivers/STM32F0xx_HAL_Driver/Src/stm32f0xx_hal_i2c.c ****   uint32_t xfermode = 0U;
 2666              		.loc 1 1384 12
 2667 001e 0023     		movs	r3, #0
 2668 0020 7B61     		str	r3, [r7, #20]
1385:Drivers/STM32F0xx_HAL_Driver/Src/stm32f0xx_hal_i2c.c **** 
1386:Drivers/STM32F0xx_HAL_Driver/Src/stm32f0xx_hal_i2c.c ****   if (hi2c->State == HAL_I2C_STATE_READY)
 2669              		.loc 1 1386 11
 2670 0022 FB68     		ldr	r3, [r7, #12]
 2671 0024 4122     		movs	r2, #65
 2672 0026 9B5C     		ldrb	r3, [r3, r2]
 2673 0028 DBB2     		uxtb	r3, r3
 2674              		.loc 1 1386 6
 2675 002a 202B     		cmp	r3, #32
 2676 002c 00D0     		beq	.LCB2225
 2677 002e A9E0     		b	.L117	@long jump
 2678              	.LCB2225:
ARM GAS  C:\Users\ADMINI~1\AppData\Local\Temp\cc3zYV2m.s 			page 72


1387:Drivers/STM32F0xx_HAL_Driver/Src/stm32f0xx_hal_i2c.c ****   {
1388:Drivers/STM32F0xx_HAL_Driver/Src/stm32f0xx_hal_i2c.c ****     if (__HAL_I2C_GET_FLAG(hi2c, I2C_FLAG_BUSY) == SET)
 2679              		.loc 1 1388 9
 2680 0030 FB68     		ldr	r3, [r7, #12]
 2681 0032 1B68     		ldr	r3, [r3]
 2682 0034 9A69     		ldr	r2, [r3, #24]
 2683 0036 8023     		movs	r3, #128
 2684 0038 1B02     		lsls	r3, r3, #8
 2685 003a 1A40     		ands	r2, r3
 2686              		.loc 1 1388 8
 2687 003c 8023     		movs	r3, #128
 2688 003e 1B02     		lsls	r3, r3, #8
 2689 0040 9A42     		cmp	r2, r3
 2690 0042 01D1     		bne	.L118
1389:Drivers/STM32F0xx_HAL_Driver/Src/stm32f0xx_hal_i2c.c ****     {
1390:Drivers/STM32F0xx_HAL_Driver/Src/stm32f0xx_hal_i2c.c ****       return HAL_BUSY;
 2691              		.loc 1 1390 14
 2692 0044 0223     		movs	r3, #2
 2693 0046 9EE0     		b	.L119
 2694              	.L118:
1391:Drivers/STM32F0xx_HAL_Driver/Src/stm32f0xx_hal_i2c.c ****     }
1392:Drivers/STM32F0xx_HAL_Driver/Src/stm32f0xx_hal_i2c.c **** 
1393:Drivers/STM32F0xx_HAL_Driver/Src/stm32f0xx_hal_i2c.c ****     /* Process Locked */
1394:Drivers/STM32F0xx_HAL_Driver/Src/stm32f0xx_hal_i2c.c ****     __HAL_LOCK(hi2c);
 2695              		.loc 1 1394 5
 2696 0048 FB68     		ldr	r3, [r7, #12]
 2697 004a 4022     		movs	r2, #64
 2698 004c 9B5C     		ldrb	r3, [r3, r2]
 2699 004e 012B     		cmp	r3, #1
 2700 0050 01D1     		bne	.L120
 2701              		.loc 1 1394 5 is_stmt 0 discriminator 1
 2702 0052 0223     		movs	r3, #2
 2703 0054 97E0     		b	.L119
 2704              	.L120:
 2705              		.loc 1 1394 5 discriminator 2
 2706 0056 FB68     		ldr	r3, [r7, #12]
 2707 0058 4022     		movs	r2, #64
 2708 005a 0121     		movs	r1, #1
 2709 005c 9954     		strb	r1, [r3, r2]
1395:Drivers/STM32F0xx_HAL_Driver/Src/stm32f0xx_hal_i2c.c **** 
1396:Drivers/STM32F0xx_HAL_Driver/Src/stm32f0xx_hal_i2c.c ****     hi2c->State       = HAL_I2C_STATE_BUSY_TX;
 2710              		.loc 1 1396 23 is_stmt 1 discriminator 2
 2711 005e FB68     		ldr	r3, [r7, #12]
 2712 0060 4122     		movs	r2, #65
 2713 0062 2121     		movs	r1, #33
 2714 0064 9954     		strb	r1, [r3, r2]
1397:Drivers/STM32F0xx_HAL_Driver/Src/stm32f0xx_hal_i2c.c ****     hi2c->Mode        = HAL_I2C_MODE_MASTER;
 2715              		.loc 1 1397 23 discriminator 2
 2716 0066 FB68     		ldr	r3, [r7, #12]
 2717 0068 4222     		movs	r2, #66
 2718 006a 1021     		movs	r1, #16
 2719 006c 9954     		strb	r1, [r3, r2]
1398:Drivers/STM32F0xx_HAL_Driver/Src/stm32f0xx_hal_i2c.c ****     hi2c->ErrorCode   = HAL_I2C_ERROR_NONE;
 2720              		.loc 1 1398 23 discriminator 2
 2721 006e FB68     		ldr	r3, [r7, #12]
 2722 0070 0022     		movs	r2, #0
 2723 0072 5A64     		str	r2, [r3, #68]
ARM GAS  C:\Users\ADMINI~1\AppData\Local\Temp\cc3zYV2m.s 			page 73


1399:Drivers/STM32F0xx_HAL_Driver/Src/stm32f0xx_hal_i2c.c **** 
1400:Drivers/STM32F0xx_HAL_Driver/Src/stm32f0xx_hal_i2c.c ****     /* Prepare transfer parameters */
1401:Drivers/STM32F0xx_HAL_Driver/Src/stm32f0xx_hal_i2c.c ****     hi2c->pBuffPtr    = pData;
 2724              		.loc 1 1401 23 discriminator 2
 2725 0074 FB68     		ldr	r3, [r7, #12]
 2726 0076 7A68     		ldr	r2, [r7, #4]
 2727 0078 5A62     		str	r2, [r3, #36]
1402:Drivers/STM32F0xx_HAL_Driver/Src/stm32f0xx_hal_i2c.c ****     hi2c->XferCount   = Size;
 2728              		.loc 1 1402 23 discriminator 2
 2729 007a FB68     		ldr	r3, [r7, #12]
 2730 007c 0822     		movs	r2, #8
 2731 007e BA18     		adds	r2, r7, r2
 2732 0080 1288     		ldrh	r2, [r2]
 2733 0082 5A85     		strh	r2, [r3, #42]
1403:Drivers/STM32F0xx_HAL_Driver/Src/stm32f0xx_hal_i2c.c ****     hi2c->XferOptions = I2C_NO_OPTION_FRAME;
 2734              		.loc 1 1403 23 discriminator 2
 2735 0084 FB68     		ldr	r3, [r7, #12]
 2736 0086 424A     		ldr	r2, .L125
 2737 0088 DA62     		str	r2, [r3, #44]
1404:Drivers/STM32F0xx_HAL_Driver/Src/stm32f0xx_hal_i2c.c ****     hi2c->XferISR     = I2C_Master_ISR_DMA;
 2738              		.loc 1 1404 23 discriminator 2
 2739 008a FB68     		ldr	r3, [r7, #12]
 2740 008c 414A     		ldr	r2, .L125+4
 2741 008e 5A63     		str	r2, [r3, #52]
1405:Drivers/STM32F0xx_HAL_Driver/Src/stm32f0xx_hal_i2c.c **** 
1406:Drivers/STM32F0xx_HAL_Driver/Src/stm32f0xx_hal_i2c.c ****     if (hi2c->XferCount > MAX_NBYTE_SIZE)
 2742              		.loc 1 1406 13 discriminator 2
 2743 0090 FB68     		ldr	r3, [r7, #12]
 2744 0092 5B8D     		ldrh	r3, [r3, #42]
 2745 0094 9BB2     		uxth	r3, r3
 2746              		.loc 1 1406 8 discriminator 2
 2747 0096 FF2B     		cmp	r3, #255
 2748 0098 06D9     		bls	.L121
1407:Drivers/STM32F0xx_HAL_Driver/Src/stm32f0xx_hal_i2c.c ****     {
1408:Drivers/STM32F0xx_HAL_Driver/Src/stm32f0xx_hal_i2c.c ****       hi2c->XferSize = MAX_NBYTE_SIZE;
 2749              		.loc 1 1408 22
 2750 009a FB68     		ldr	r3, [r7, #12]
 2751 009c FF22     		movs	r2, #255
 2752 009e 1A85     		strh	r2, [r3, #40]
1409:Drivers/STM32F0xx_HAL_Driver/Src/stm32f0xx_hal_i2c.c ****       xfermode = I2C_RELOAD_MODE;
 2753              		.loc 1 1409 16
 2754 00a0 8023     		movs	r3, #128
 2755 00a2 5B04     		lsls	r3, r3, #17
 2756 00a4 7B61     		str	r3, [r7, #20]
 2757 00a6 07E0     		b	.L122
 2758              	.L121:
1410:Drivers/STM32F0xx_HAL_Driver/Src/stm32f0xx_hal_i2c.c ****     }
1411:Drivers/STM32F0xx_HAL_Driver/Src/stm32f0xx_hal_i2c.c ****     else
1412:Drivers/STM32F0xx_HAL_Driver/Src/stm32f0xx_hal_i2c.c ****     {
1413:Drivers/STM32F0xx_HAL_Driver/Src/stm32f0xx_hal_i2c.c ****       hi2c->XferSize = hi2c->XferCount;
 2759              		.loc 1 1413 28
 2760 00a8 FB68     		ldr	r3, [r7, #12]
 2761 00aa 5B8D     		ldrh	r3, [r3, #42]
 2762 00ac 9AB2     		uxth	r2, r3
 2763              		.loc 1 1413 22
 2764 00ae FB68     		ldr	r3, [r7, #12]
 2765 00b0 1A85     		strh	r2, [r3, #40]
ARM GAS  C:\Users\ADMINI~1\AppData\Local\Temp\cc3zYV2m.s 			page 74


1414:Drivers/STM32F0xx_HAL_Driver/Src/stm32f0xx_hal_i2c.c ****       xfermode = I2C_AUTOEND_MODE;
 2766              		.loc 1 1414 16
 2767 00b2 8023     		movs	r3, #128
 2768 00b4 9B04     		lsls	r3, r3, #18
 2769 00b6 7B61     		str	r3, [r7, #20]
 2770              	.L122:
1415:Drivers/STM32F0xx_HAL_Driver/Src/stm32f0xx_hal_i2c.c ****     }
1416:Drivers/STM32F0xx_HAL_Driver/Src/stm32f0xx_hal_i2c.c **** 
1417:Drivers/STM32F0xx_HAL_Driver/Src/stm32f0xx_hal_i2c.c ****     if (hi2c->XferSize > 0U)
 2771              		.loc 1 1417 13
 2772 00b8 FB68     		ldr	r3, [r7, #12]
 2773 00ba 1B8D     		ldrh	r3, [r3, #40]
 2774              		.loc 1 1417 8
 2775 00bc 002B     		cmp	r3, #0
 2776 00be 44D0     		beq	.L123
1418:Drivers/STM32F0xx_HAL_Driver/Src/stm32f0xx_hal_i2c.c ****     {
