ARM GAS  C:\Users\ADMINI~1\AppData\Local\Temp\cc3zYV2m.s 			page 1


   1              		.cpu cortex-m0
   2              		.eabi_attribute 20, 1
   3              		.eabi_attribute 21, 1
   4              		.eabi_attribute 23, 3
   5              		.eabi_attribute 24, 1
   6              		.eabi_attribute 25, 1
   7              		.eabi_attribute 26, 1
   8              		.eabi_attribute 30, 6
   9              		.eabi_attribute 34, 0
  10              		.eabi_attribute 18, 4
  11              		.file	"stm32f0xx_hal_i2c.c"
  12              		.text
  13              	.Ltext0:
  14              		.cfi_sections	.debug_frame
  15              		.section	.text.HAL_I2C_Init,"ax",%progbits
  16              		.align	1
  17              		.global	HAL_I2C_Init
  18              		.arch armv6s-m
  19              		.syntax unified
  20              		.code	16
  21              		.thumb_func
  22              		.fpu softvfp
  24              	HAL_I2C_Init:
  25              	.LFB37:
  26              		.file 1 "Drivers/STM32F0xx_HAL_Driver/Src/stm32f0xx_hal_i2c.c"
   1:Drivers/STM32F0xx_HAL_Driver/Src/stm32f0xx_hal_i2c.c **** /**
   2:Drivers/STM32F0xx_HAL_Driver/Src/stm32f0xx_hal_i2c.c ****   ******************************************************************************
   3:Drivers/STM32F0xx_HAL_Driver/Src/stm32f0xx_hal_i2c.c ****   * @file    stm32f0xx_hal_i2c.c
   4:Drivers/STM32F0xx_HAL_Driver/Src/stm32f0xx_hal_i2c.c ****   * @author  MCD Application Team
   5:Drivers/STM32F0xx_HAL_Driver/Src/stm32f0xx_hal_i2c.c ****   * @brief   I2C HAL module driver.
   6:Drivers/STM32F0xx_HAL_Driver/Src/stm32f0xx_hal_i2c.c ****   *          This file provides firmware functions to manage the following
   7:Drivers/STM32F0xx_HAL_Driver/Src/stm32f0xx_hal_i2c.c ****   *          functionalities of the Inter Integrated Circuit (I2C) peripheral:
   8:Drivers/STM32F0xx_HAL_Driver/Src/stm32f0xx_hal_i2c.c ****   *           + Initialization and de-initialization functions
   9:Drivers/STM32F0xx_HAL_Driver/Src/stm32f0xx_hal_i2c.c ****   *           + IO operation functions
  10:Drivers/STM32F0xx_HAL_Driver/Src/stm32f0xx_hal_i2c.c ****   *           + Peripheral State and Errors functions
  11:Drivers/STM32F0xx_HAL_Driver/Src/stm32f0xx_hal_i2c.c ****   *
  12:Drivers/STM32F0xx_HAL_Driver/Src/stm32f0xx_hal_i2c.c ****   @verbatim
  13:Drivers/STM32F0xx_HAL_Driver/Src/stm32f0xx_hal_i2c.c ****   ==============================================================================
  14:Drivers/STM32F0xx_HAL_Driver/Src/stm32f0xx_hal_i2c.c ****                         ##### How to use this driver #####
  15:Drivers/STM32F0xx_HAL_Driver/Src/stm32f0xx_hal_i2c.c ****   ==============================================================================
  16:Drivers/STM32F0xx_HAL_Driver/Src/stm32f0xx_hal_i2c.c ****     [..]
  17:Drivers/STM32F0xx_HAL_Driver/Src/stm32f0xx_hal_i2c.c ****     The I2C HAL driver can be used as follows:
  18:Drivers/STM32F0xx_HAL_Driver/Src/stm32f0xx_hal_i2c.c **** 
  19:Drivers/STM32F0xx_HAL_Driver/Src/stm32f0xx_hal_i2c.c ****     (#) Declare a I2C_HandleTypeDef handle structure, for example:
  20:Drivers/STM32F0xx_HAL_Driver/Src/stm32f0xx_hal_i2c.c ****         I2C_HandleTypeDef  hi2c;
  21:Drivers/STM32F0xx_HAL_Driver/Src/stm32f0xx_hal_i2c.c **** 
  22:Drivers/STM32F0xx_HAL_Driver/Src/stm32f0xx_hal_i2c.c ****     (#)Initialize the I2C low level resources by implementing the HAL_I2C_MspInit() API:
  23:Drivers/STM32F0xx_HAL_Driver/Src/stm32f0xx_hal_i2c.c ****         (##) Enable the I2Cx interface clock
  24:Drivers/STM32F0xx_HAL_Driver/Src/stm32f0xx_hal_i2c.c ****         (##) I2C pins configuration
  25:Drivers/STM32F0xx_HAL_Driver/Src/stm32f0xx_hal_i2c.c ****             (+++) Enable the clock for the I2C GPIOs
  26:Drivers/STM32F0xx_HAL_Driver/Src/stm32f0xx_hal_i2c.c ****             (+++) Configure I2C pins as alternate function open-drain
  27:Drivers/STM32F0xx_HAL_Driver/Src/stm32f0xx_hal_i2c.c ****         (##) NVIC configuration if you need to use interrupt process
  28:Drivers/STM32F0xx_HAL_Driver/Src/stm32f0xx_hal_i2c.c ****             (+++) Configure the I2Cx interrupt priority
  29:Drivers/STM32F0xx_HAL_Driver/Src/stm32f0xx_hal_i2c.c ****             (+++) Enable the NVIC I2C IRQ Channel
  30:Drivers/STM32F0xx_HAL_Driver/Src/stm32f0xx_hal_i2c.c ****         (##) DMA Configuration if you need to use DMA process
  31:Drivers/STM32F0xx_HAL_Driver/Src/stm32f0xx_hal_i2c.c ****             (+++) Declare a DMA_HandleTypeDef handle structure for the transmit or receive channel
  32:Drivers/STM32F0xx_HAL_Driver/Src/stm32f0xx_hal_i2c.c ****             (+++) Enable the DMAx interface clock using
ARM GAS  C:\Users\ADMINI~1\AppData\Local\Temp\cc3zYV2m.s 			page 2


  33:Drivers/STM32F0xx_HAL_Driver/Src/stm32f0xx_hal_i2c.c ****             (+++) Configure the DMA handle parameters
  34:Drivers/STM32F0xx_HAL_Driver/Src/stm32f0xx_hal_i2c.c ****             (+++) Configure the DMA Tx or Rx channel
  35:Drivers/STM32F0xx_HAL_Driver/Src/stm32f0xx_hal_i2c.c ****             (+++) Associate the initialized DMA handle to the hi2c DMA Tx or Rx handle
  36:Drivers/STM32F0xx_HAL_Driver/Src/stm32f0xx_hal_i2c.c ****             (+++) Configure the priority and enable the NVIC for the transfer complete interrupt on
  37:Drivers/STM32F0xx_HAL_Driver/Src/stm32f0xx_hal_i2c.c ****                   the DMA Tx or Rx channel
  38:Drivers/STM32F0xx_HAL_Driver/Src/stm32f0xx_hal_i2c.c **** 
  39:Drivers/STM32F0xx_HAL_Driver/Src/stm32f0xx_hal_i2c.c ****     (#) Configure the Communication Clock Timing, Own Address1, Master Addressing mode, Dual Addres
  40:Drivers/STM32F0xx_HAL_Driver/Src/stm32f0xx_hal_i2c.c ****         Own Address2, Own Address2 Mask, General call and Nostretch mode in the hi2c Init structure
  41:Drivers/STM32F0xx_HAL_Driver/Src/stm32f0xx_hal_i2c.c **** 
  42:Drivers/STM32F0xx_HAL_Driver/Src/stm32f0xx_hal_i2c.c ****     (#) Initialize the I2C registers by calling the HAL_I2C_Init(), configures also the low level H
  43:Drivers/STM32F0xx_HAL_Driver/Src/stm32f0xx_hal_i2c.c ****         (GPIO, CLOCK, NVIC...etc) by calling the customized HAL_I2C_MspInit(&hi2c) API.
  44:Drivers/STM32F0xx_HAL_Driver/Src/stm32f0xx_hal_i2c.c **** 
  45:Drivers/STM32F0xx_HAL_Driver/Src/stm32f0xx_hal_i2c.c ****     (#) To check if target device is ready for communication, use the function HAL_I2C_IsDeviceRead
  46:Drivers/STM32F0xx_HAL_Driver/Src/stm32f0xx_hal_i2c.c **** 
  47:Drivers/STM32F0xx_HAL_Driver/Src/stm32f0xx_hal_i2c.c ****     (#) For I2C IO and IO MEM operations, three operation modes are available within this driver :
  48:Drivers/STM32F0xx_HAL_Driver/Src/stm32f0xx_hal_i2c.c **** 
  49:Drivers/STM32F0xx_HAL_Driver/Src/stm32f0xx_hal_i2c.c ****     *** Polling mode IO operation ***
  50:Drivers/STM32F0xx_HAL_Driver/Src/stm32f0xx_hal_i2c.c ****     =================================
  51:Drivers/STM32F0xx_HAL_Driver/Src/stm32f0xx_hal_i2c.c ****     [..]
  52:Drivers/STM32F0xx_HAL_Driver/Src/stm32f0xx_hal_i2c.c ****       (+) Transmit in master mode an amount of data in blocking mode using HAL_I2C_Master_Transmit(
  53:Drivers/STM32F0xx_HAL_Driver/Src/stm32f0xx_hal_i2c.c ****       (+) Receive in master mode an amount of data in blocking mode using HAL_I2C_Master_Receive()
  54:Drivers/STM32F0xx_HAL_Driver/Src/stm32f0xx_hal_i2c.c ****       (+) Transmit in slave mode an amount of data in blocking mode using HAL_I2C_Slave_Transmit()
  55:Drivers/STM32F0xx_HAL_Driver/Src/stm32f0xx_hal_i2c.c ****       (+) Receive in slave mode an amount of data in blocking mode using HAL_I2C_Slave_Receive()
  56:Drivers/STM32F0xx_HAL_Driver/Src/stm32f0xx_hal_i2c.c **** 
  57:Drivers/STM32F0xx_HAL_Driver/Src/stm32f0xx_hal_i2c.c ****     *** Polling mode IO MEM operation ***
  58:Drivers/STM32F0xx_HAL_Driver/Src/stm32f0xx_hal_i2c.c ****     =====================================
  59:Drivers/STM32F0xx_HAL_Driver/Src/stm32f0xx_hal_i2c.c ****     [..]
  60:Drivers/STM32F0xx_HAL_Driver/Src/stm32f0xx_hal_i2c.c ****       (+) Write an amount of data in blocking mode to a specific memory address using HAL_I2C_Mem_W
  61:Drivers/STM32F0xx_HAL_Driver/Src/stm32f0xx_hal_i2c.c ****       (+) Read an amount of data in blocking mode from a specific memory address using HAL_I2C_Mem_
  62:Drivers/STM32F0xx_HAL_Driver/Src/stm32f0xx_hal_i2c.c **** 
  63:Drivers/STM32F0xx_HAL_Driver/Src/stm32f0xx_hal_i2c.c **** 
  64:Drivers/STM32F0xx_HAL_Driver/Src/stm32f0xx_hal_i2c.c ****     *** Interrupt mode IO operation ***
  65:Drivers/STM32F0xx_HAL_Driver/Src/stm32f0xx_hal_i2c.c ****     ===================================
  66:Drivers/STM32F0xx_HAL_Driver/Src/stm32f0xx_hal_i2c.c ****     [..]
  67:Drivers/STM32F0xx_HAL_Driver/Src/stm32f0xx_hal_i2c.c ****       (+) Transmit in master mode an amount of data in non-blocking mode using HAL_I2C_Master_Trans
  68:Drivers/STM32F0xx_HAL_Driver/Src/stm32f0xx_hal_i2c.c ****       (+) At transmission end of transfer, HAL_I2C_MasterTxCpltCallback() is executed and user can
  69:Drivers/STM32F0xx_HAL_Driver/Src/stm32f0xx_hal_i2c.c ****            add his own code by customization of function pointer HAL_I2C_MasterTxCpltCallback()
  70:Drivers/STM32F0xx_HAL_Driver/Src/stm32f0xx_hal_i2c.c ****       (+) Receive in master mode an amount of data in non-blocking mode using HAL_I2C_Master_Receiv
  71:Drivers/STM32F0xx_HAL_Driver/Src/stm32f0xx_hal_i2c.c ****       (+) At reception end of transfer, HAL_I2C_MasterRxCpltCallback() is executed and user can
  72:Drivers/STM32F0xx_HAL_Driver/Src/stm32f0xx_hal_i2c.c ****            add his own code by customization of function pointer HAL_I2C_MasterRxCpltCallback()
  73:Drivers/STM32F0xx_HAL_Driver/Src/stm32f0xx_hal_i2c.c ****       (+) Transmit in slave mode an amount of data in non-blocking mode using HAL_I2C_Slave_Transmi
  74:Drivers/STM32F0xx_HAL_Driver/Src/stm32f0xx_hal_i2c.c ****       (+) At transmission end of transfer, HAL_I2C_SlaveTxCpltCallback() is executed and user can
  75:Drivers/STM32F0xx_HAL_Driver/Src/stm32f0xx_hal_i2c.c ****            add his own code by customization of function pointer HAL_I2C_SlaveTxCpltCallback()
  76:Drivers/STM32F0xx_HAL_Driver/Src/stm32f0xx_hal_i2c.c ****       (+) Receive in slave mode an amount of data in non-blocking mode using HAL_I2C_Slave_Receive_
  77:Drivers/STM32F0xx_HAL_Driver/Src/stm32f0xx_hal_i2c.c ****       (+) At reception end of transfer, HAL_I2C_SlaveRxCpltCallback() is executed and user can
  78:Drivers/STM32F0xx_HAL_Driver/Src/stm32f0xx_hal_i2c.c ****            add his own code by customization of function pointer HAL_I2C_SlaveRxCpltCallback()
  79:Drivers/STM32F0xx_HAL_Driver/Src/stm32f0xx_hal_i2c.c ****       (+) In case of transfer Error, HAL_I2C_ErrorCallback() function is executed and user can
  80:Drivers/STM32F0xx_HAL_Driver/Src/stm32f0xx_hal_i2c.c ****            add his own code by customization of function pointer HAL_I2C_ErrorCallback()
  81:Drivers/STM32F0xx_HAL_Driver/Src/stm32f0xx_hal_i2c.c ****       (+) Abort a master I2C process communication with Interrupt using HAL_I2C_Master_Abort_IT()
  82:Drivers/STM32F0xx_HAL_Driver/Src/stm32f0xx_hal_i2c.c ****       (+) End of abort process, HAL_I2C_AbortCpltCallback() is executed and user can
  83:Drivers/STM32F0xx_HAL_Driver/Src/stm32f0xx_hal_i2c.c ****            add his own code by customization of function pointer HAL_I2C_AbortCpltCallback()
  84:Drivers/STM32F0xx_HAL_Driver/Src/stm32f0xx_hal_i2c.c ****       (+) Discard a slave I2C process communication using __HAL_I2C_GENERATE_NACK() macro.
  85:Drivers/STM32F0xx_HAL_Driver/Src/stm32f0xx_hal_i2c.c ****            This action will inform Master to generate a Stop condition to discard the communication
  86:Drivers/STM32F0xx_HAL_Driver/Src/stm32f0xx_hal_i2c.c **** 
  87:Drivers/STM32F0xx_HAL_Driver/Src/stm32f0xx_hal_i2c.c **** 
  88:Drivers/STM32F0xx_HAL_Driver/Src/stm32f0xx_hal_i2c.c ****     *** Interrupt mode IO sequential operation ***
  89:Drivers/STM32F0xx_HAL_Driver/Src/stm32f0xx_hal_i2c.c ****     ==============================================
ARM GAS  C:\Users\ADMINI~1\AppData\Local\Temp\cc3zYV2m.s 			page 3


  90:Drivers/STM32F0xx_HAL_Driver/Src/stm32f0xx_hal_i2c.c ****     [..]
  91:Drivers/STM32F0xx_HAL_Driver/Src/stm32f0xx_hal_i2c.c ****       (@) These interfaces allow to manage a sequential transfer with a repeated start condition
  92:Drivers/STM32F0xx_HAL_Driver/Src/stm32f0xx_hal_i2c.c ****           when a direction change during transfer
  93:Drivers/STM32F0xx_HAL_Driver/Src/stm32f0xx_hal_i2c.c ****     [..]
  94:Drivers/STM32F0xx_HAL_Driver/Src/stm32f0xx_hal_i2c.c ****       (+) A specific option field manage the different steps of a sequential transfer
  95:Drivers/STM32F0xx_HAL_Driver/Src/stm32f0xx_hal_i2c.c ****       (+) Option field values are defined through @ref I2C_XFEROPTIONS and are listed below:
  96:Drivers/STM32F0xx_HAL_Driver/Src/stm32f0xx_hal_i2c.c ****       (++) I2C_FIRST_AND_LAST_FRAME: No sequential usage, functionnal is same as associated interfa
  97:Drivers/STM32F0xx_HAL_Driver/Src/stm32f0xx_hal_i2c.c ****       (++) I2C_FIRST_FRAME: Sequential usage, this option allow to manage a sequence with start con
  98:Drivers/STM32F0xx_HAL_Driver/Src/stm32f0xx_hal_i2c.c ****                             and data to transfer without a final stop condition
  99:Drivers/STM32F0xx_HAL_Driver/Src/stm32f0xx_hal_i2c.c ****       (++) I2C_FIRST_AND_NEXT_FRAME: Sequential usage (Master only), this option allow to manage a 
 100:Drivers/STM32F0xx_HAL_Driver/Src/stm32f0xx_hal_i2c.c ****                             and data to transfer without a final stop condition, an then permit a c
 101:Drivers/STM32F0xx_HAL_Driver/Src/stm32f0xx_hal_i2c.c ****                             several times (like HAL_I2C_Master_Sequential_Transmit_IT() then HAL_I2
 102:Drivers/STM32F0xx_HAL_Driver/Src/stm32f0xx_hal_i2c.c ****       (++) I2C_NEXT_FRAME: Sequential usage, this option allow to manage a sequence with a restart 
 103:Drivers/STM32F0xx_HAL_Driver/Src/stm32f0xx_hal_i2c.c ****                             and with new data to transfer if the direction change or manage only th
 104:Drivers/STM32F0xx_HAL_Driver/Src/stm32f0xx_hal_i2c.c ****                             if no direction change and without a final stop condition in both cases
 105:Drivers/STM32F0xx_HAL_Driver/Src/stm32f0xx_hal_i2c.c ****       (++) I2C_LAST_FRAME: Sequential usage, this option allow to manage a sequance with a restart 
 106:Drivers/STM32F0xx_HAL_Driver/Src/stm32f0xx_hal_i2c.c ****                             and with new data to transfer if the direction change or manage only th
 107:Drivers/STM32F0xx_HAL_Driver/Src/stm32f0xx_hal_i2c.c ****                             if no direction change and with a final stop condition in both cases
 108:Drivers/STM32F0xx_HAL_Driver/Src/stm32f0xx_hal_i2c.c **** 
 109:Drivers/STM32F0xx_HAL_Driver/Src/stm32f0xx_hal_i2c.c ****       (+) Differents sequential I2C interfaces are listed below:
 110:Drivers/STM32F0xx_HAL_Driver/Src/stm32f0xx_hal_i2c.c ****       (++) Sequential transmit in master I2C mode an amount of data in non-blocking mode using HAL_
 111:Drivers/STM32F0xx_HAL_Driver/Src/stm32f0xx_hal_i2c.c ****       (+++) At transmission end of current frame transfer, HAL_I2C_MasterTxCpltCallback() is execut
 112:Drivers/STM32F0xx_HAL_Driver/Src/stm32f0xx_hal_i2c.c ****            add his own code by customization of function pointer HAL_I2C_MasterTxCpltCallback()
 113:Drivers/STM32F0xx_HAL_Driver/Src/stm32f0xx_hal_i2c.c ****       (++) Sequential receive in master I2C mode an amount of data in non-blocking mode using HAL_I
 114:Drivers/STM32F0xx_HAL_Driver/Src/stm32f0xx_hal_i2c.c ****       (+++) At reception end of current frame transfer, HAL_I2C_MasterRxCpltCallback() is executed 
 115:Drivers/STM32F0xx_HAL_Driver/Src/stm32f0xx_hal_i2c.c ****            add his own code by customization of function pointer HAL_I2C_MasterRxCpltCallback()
 116:Drivers/STM32F0xx_HAL_Driver/Src/stm32f0xx_hal_i2c.c ****       (++) Abort a master I2C process communication with Interrupt using HAL_I2C_Master_Abort_IT()
 117:Drivers/STM32F0xx_HAL_Driver/Src/stm32f0xx_hal_i2c.c ****       (+++) End of abort process, HAL_I2C_AbortCpltCallback() is executed and user can
 118:Drivers/STM32F0xx_HAL_Driver/Src/stm32f0xx_hal_i2c.c ****            add his own code by customization of function pointer HAL_I2C_AbortCpltCallback()
 119:Drivers/STM32F0xx_HAL_Driver/Src/stm32f0xx_hal_i2c.c ****       (++) Enable/disable the Address listen mode in slave I2C mode using HAL_I2C_EnableListen_IT()
 120:Drivers/STM32F0xx_HAL_Driver/Src/stm32f0xx_hal_i2c.c ****       (+++) When address slave I2C match, HAL_I2C_AddrCallback() is executed and user can
 121:Drivers/STM32F0xx_HAL_Driver/Src/stm32f0xx_hal_i2c.c ****            add his own code to check the Address Match Code and the transmission direction request 
 122:Drivers/STM32F0xx_HAL_Driver/Src/stm32f0xx_hal_i2c.c ****       (+++) At Listen mode end HAL_I2C_ListenCpltCallback() is executed and user can
 123:Drivers/STM32F0xx_HAL_Driver/Src/stm32f0xx_hal_i2c.c ****            add his own code by customization of function pointer HAL_I2C_ListenCpltCallback()
 124:Drivers/STM32F0xx_HAL_Driver/Src/stm32f0xx_hal_i2c.c ****       (++) Sequential transmit in slave I2C mode an amount of data in non-blocking mode using HAL_I
 125:Drivers/STM32F0xx_HAL_Driver/Src/stm32f0xx_hal_i2c.c ****       (+++) At transmission end of current frame transfer, HAL_I2C_SlaveTxCpltCallback() is execute
 126:Drivers/STM32F0xx_HAL_Driver/Src/stm32f0xx_hal_i2c.c ****            add his own code by customization of function pointer HAL_I2C_SlaveTxCpltCallback()
 127:Drivers/STM32F0xx_HAL_Driver/Src/stm32f0xx_hal_i2c.c ****       (++) Sequential receive in slave I2C mode an amount of data in non-blocking mode using HAL_I2
 128:Drivers/STM32F0xx_HAL_Driver/Src/stm32f0xx_hal_i2c.c ****       (+++) At reception end of current frame transfer, HAL_I2C_SlaveRxCpltCallback() is executed a
 129:Drivers/STM32F0xx_HAL_Driver/Src/stm32f0xx_hal_i2c.c ****            add his own code by customization of function pointer HAL_I2C_SlaveRxCpltCallback()
 130:Drivers/STM32F0xx_HAL_Driver/Src/stm32f0xx_hal_i2c.c ****       (++) In case of transfer Error, HAL_I2C_ErrorCallback() function is executed and user can
 131:Drivers/STM32F0xx_HAL_Driver/Src/stm32f0xx_hal_i2c.c ****            add his own code by customization of function pointer HAL_I2C_ErrorCallback()
 132:Drivers/STM32F0xx_HAL_Driver/Src/stm32f0xx_hal_i2c.c ****       (++) Abort a master I2C process communication with Interrupt using HAL_I2C_Master_Abort_IT()
 133:Drivers/STM32F0xx_HAL_Driver/Src/stm32f0xx_hal_i2c.c ****       (++) End of abort process, HAL_I2C_AbortCpltCallback() is executed and user can
 134:Drivers/STM32F0xx_HAL_Driver/Src/stm32f0xx_hal_i2c.c ****            add his own code by customization of function pointer HAL_I2C_AbortCpltCallback()
 135:Drivers/STM32F0xx_HAL_Driver/Src/stm32f0xx_hal_i2c.c ****       (++) Discard a slave I2C process communication using __HAL_I2C_GENERATE_NACK() macro.
 136:Drivers/STM32F0xx_HAL_Driver/Src/stm32f0xx_hal_i2c.c ****            This action will inform Master to generate a Stop condition to discard the communication
 137:Drivers/STM32F0xx_HAL_Driver/Src/stm32f0xx_hal_i2c.c **** 
 138:Drivers/STM32F0xx_HAL_Driver/Src/stm32f0xx_hal_i2c.c ****     *** Interrupt mode IO MEM operation ***
 139:Drivers/STM32F0xx_HAL_Driver/Src/stm32f0xx_hal_i2c.c ****     =======================================
 140:Drivers/STM32F0xx_HAL_Driver/Src/stm32f0xx_hal_i2c.c ****     [..]
 141:Drivers/STM32F0xx_HAL_Driver/Src/stm32f0xx_hal_i2c.c ****       (+) Write an amount of data in non-blocking mode with Interrupt to a specific memory address 
 142:Drivers/STM32F0xx_HAL_Driver/Src/stm32f0xx_hal_i2c.c ****           HAL_I2C_Mem_Write_IT()
 143:Drivers/STM32F0xx_HAL_Driver/Src/stm32f0xx_hal_i2c.c ****       (+) At Memory end of write transfer, HAL_I2C_MemTxCpltCallback() is executed and user can
 144:Drivers/STM32F0xx_HAL_Driver/Src/stm32f0xx_hal_i2c.c ****            add his own code by customization of function pointer HAL_I2C_MemTxCpltCallback()
 145:Drivers/STM32F0xx_HAL_Driver/Src/stm32f0xx_hal_i2c.c ****       (+) Read an amount of data in non-blocking mode with Interrupt from a specific memory address
 146:Drivers/STM32F0xx_HAL_Driver/Src/stm32f0xx_hal_i2c.c ****           HAL_I2C_Mem_Read_IT()
ARM GAS  C:\Users\ADMINI~1\AppData\Local\Temp\cc3zYV2m.s 			page 4


 147:Drivers/STM32F0xx_HAL_Driver/Src/stm32f0xx_hal_i2c.c ****       (+) At Memory end of read transfer, HAL_I2C_MemRxCpltCallback() is executed and user can
 148:Drivers/STM32F0xx_HAL_Driver/Src/stm32f0xx_hal_i2c.c ****            add his own code by customization of function pointer HAL_I2C_MemRxCpltCallback()
 149:Drivers/STM32F0xx_HAL_Driver/Src/stm32f0xx_hal_i2c.c ****       (+) In case of transfer Error, HAL_I2C_ErrorCallback() function is executed and user can
 150:Drivers/STM32F0xx_HAL_Driver/Src/stm32f0xx_hal_i2c.c ****            add his own code by customization of function pointer HAL_I2C_ErrorCallback()
 151:Drivers/STM32F0xx_HAL_Driver/Src/stm32f0xx_hal_i2c.c **** 
 152:Drivers/STM32F0xx_HAL_Driver/Src/stm32f0xx_hal_i2c.c ****     *** DMA mode IO operation ***
 153:Drivers/STM32F0xx_HAL_Driver/Src/stm32f0xx_hal_i2c.c ****     ==============================
 154:Drivers/STM32F0xx_HAL_Driver/Src/stm32f0xx_hal_i2c.c ****     [..]
 155:Drivers/STM32F0xx_HAL_Driver/Src/stm32f0xx_hal_i2c.c ****       (+) Transmit in master mode an amount of data in non-blocking mode (DMA) using
 156:Drivers/STM32F0xx_HAL_Driver/Src/stm32f0xx_hal_i2c.c ****           HAL_I2C_Master_Transmit_DMA()
 157:Drivers/STM32F0xx_HAL_Driver/Src/stm32f0xx_hal_i2c.c ****       (+) At transmission end of transfer, HAL_I2C_MasterTxCpltCallback() is executed and user can
 158:Drivers/STM32F0xx_HAL_Driver/Src/stm32f0xx_hal_i2c.c ****            add his own code by customization of function pointer HAL_I2C_MasterTxCpltCallback()
 159:Drivers/STM32F0xx_HAL_Driver/Src/stm32f0xx_hal_i2c.c ****       (+) Receive in master mode an amount of data in non-blocking mode (DMA) using
 160:Drivers/STM32F0xx_HAL_Driver/Src/stm32f0xx_hal_i2c.c ****           HAL_I2C_Master_Receive_DMA()
 161:Drivers/STM32F0xx_HAL_Driver/Src/stm32f0xx_hal_i2c.c ****       (+) At reception end of transfer, HAL_I2C_MasterRxCpltCallback() is executed and user can
 162:Drivers/STM32F0xx_HAL_Driver/Src/stm32f0xx_hal_i2c.c ****            add his own code by customization of function pointer HAL_I2C_MasterRxCpltCallback()
 163:Drivers/STM32F0xx_HAL_Driver/Src/stm32f0xx_hal_i2c.c ****       (+) Transmit in slave mode an amount of data in non-blocking mode (DMA) using
 164:Drivers/STM32F0xx_HAL_Driver/Src/stm32f0xx_hal_i2c.c ****           HAL_I2C_Slave_Transmit_DMA()
 165:Drivers/STM32F0xx_HAL_Driver/Src/stm32f0xx_hal_i2c.c ****       (+) At transmission end of transfer, HAL_I2C_SlaveTxCpltCallback() is executed and user can
 166:Drivers/STM32F0xx_HAL_Driver/Src/stm32f0xx_hal_i2c.c ****            add his own code by customization of function pointer HAL_I2C_SlaveTxCpltCallback()
 167:Drivers/STM32F0xx_HAL_Driver/Src/stm32f0xx_hal_i2c.c ****       (+) Receive in slave mode an amount of data in non-blocking mode (DMA) using
 168:Drivers/STM32F0xx_HAL_Driver/Src/stm32f0xx_hal_i2c.c ****           HAL_I2C_Slave_Receive_DMA()
 169:Drivers/STM32F0xx_HAL_Driver/Src/stm32f0xx_hal_i2c.c ****       (+) At reception end of transfer, HAL_I2C_SlaveRxCpltCallback() is executed and user can
 170:Drivers/STM32F0xx_HAL_Driver/Src/stm32f0xx_hal_i2c.c ****            add his own code by customization of function pointer HAL_I2C_SlaveRxCpltCallback()
 171:Drivers/STM32F0xx_HAL_Driver/Src/stm32f0xx_hal_i2c.c ****       (+) In case of transfer Error, HAL_I2C_ErrorCallback() function is executed and user can
 172:Drivers/STM32F0xx_HAL_Driver/Src/stm32f0xx_hal_i2c.c ****            add his own code by customization of function pointer HAL_I2C_ErrorCallback()
 173:Drivers/STM32F0xx_HAL_Driver/Src/stm32f0xx_hal_i2c.c ****       (+) Abort a master I2C process communication with Interrupt using HAL_I2C_Master_Abort_IT()
 174:Drivers/STM32F0xx_HAL_Driver/Src/stm32f0xx_hal_i2c.c ****       (+) End of abort process, HAL_I2C_AbortCpltCallback() is executed and user can
 175:Drivers/STM32F0xx_HAL_Driver/Src/stm32f0xx_hal_i2c.c ****            add his own code by customization of function pointer HAL_I2C_AbortCpltCallback()
 176:Drivers/STM32F0xx_HAL_Driver/Src/stm32f0xx_hal_i2c.c ****       (+) Discard a slave I2C process communication using __HAL_I2C_GENERATE_NACK() macro.
 177:Drivers/STM32F0xx_HAL_Driver/Src/stm32f0xx_hal_i2c.c ****            This action will inform Master to generate a Stop condition to discard the communication
 178:Drivers/STM32F0xx_HAL_Driver/Src/stm32f0xx_hal_i2c.c **** 
 179:Drivers/STM32F0xx_HAL_Driver/Src/stm32f0xx_hal_i2c.c ****     *** DMA mode IO MEM operation ***
 180:Drivers/STM32F0xx_HAL_Driver/Src/stm32f0xx_hal_i2c.c ****     =================================
 181:Drivers/STM32F0xx_HAL_Driver/Src/stm32f0xx_hal_i2c.c ****     [..]
 182:Drivers/STM32F0xx_HAL_Driver/Src/stm32f0xx_hal_i2c.c ****       (+) Write an amount of data in non-blocking mode with DMA to a specific memory address using
 183:Drivers/STM32F0xx_HAL_Driver/Src/stm32f0xx_hal_i2c.c ****           HAL_I2C_Mem_Write_DMA()
 184:Drivers/STM32F0xx_HAL_Driver/Src/stm32f0xx_hal_i2c.c ****       (+) At Memory end of write transfer, HAL_I2C_MemTxCpltCallback() is executed and user can
 185:Drivers/STM32F0xx_HAL_Driver/Src/stm32f0xx_hal_i2c.c ****            add his own code by customization of function pointer HAL_I2C_MemTxCpltCallback()
 186:Drivers/STM32F0xx_HAL_Driver/Src/stm32f0xx_hal_i2c.c ****       (+) Read an amount of data in non-blocking mode with DMA from a specific memory address using
 187:Drivers/STM32F0xx_HAL_Driver/Src/stm32f0xx_hal_i2c.c ****           HAL_I2C_Mem_Read_DMA()
 188:Drivers/STM32F0xx_HAL_Driver/Src/stm32f0xx_hal_i2c.c ****       (+) At Memory end of read transfer, HAL_I2C_MemRxCpltCallback() is executed and user can
 189:Drivers/STM32F0xx_HAL_Driver/Src/stm32f0xx_hal_i2c.c ****            add his own code by customization of function pointer HAL_I2C_MemRxCpltCallback()
 190:Drivers/STM32F0xx_HAL_Driver/Src/stm32f0xx_hal_i2c.c ****       (+) In case of transfer Error, HAL_I2C_ErrorCallback() function is executed and user can
 191:Drivers/STM32F0xx_HAL_Driver/Src/stm32f0xx_hal_i2c.c ****            add his own code by customization of function pointer HAL_I2C_ErrorCallback()
 192:Drivers/STM32F0xx_HAL_Driver/Src/stm32f0xx_hal_i2c.c **** 
 193:Drivers/STM32F0xx_HAL_Driver/Src/stm32f0xx_hal_i2c.c **** 
 194:Drivers/STM32F0xx_HAL_Driver/Src/stm32f0xx_hal_i2c.c ****      *** I2C HAL driver macros list ***
 195:Drivers/STM32F0xx_HAL_Driver/Src/stm32f0xx_hal_i2c.c ****      ==================================
 196:Drivers/STM32F0xx_HAL_Driver/Src/stm32f0xx_hal_i2c.c ****      [..]
 197:Drivers/STM32F0xx_HAL_Driver/Src/stm32f0xx_hal_i2c.c ****        Below the list of most used macros in I2C HAL driver.
 198:Drivers/STM32F0xx_HAL_Driver/Src/stm32f0xx_hal_i2c.c **** 
 199:Drivers/STM32F0xx_HAL_Driver/Src/stm32f0xx_hal_i2c.c ****       (+) __HAL_I2C_ENABLE: Enable the I2C peripheral
 200:Drivers/STM32F0xx_HAL_Driver/Src/stm32f0xx_hal_i2c.c ****       (+) __HAL_I2C_DISABLE: Disable the I2C peripheral
 201:Drivers/STM32F0xx_HAL_Driver/Src/stm32f0xx_hal_i2c.c ****       (+) __HAL_I2C_GENERATE_NACK: Generate a Non-Acknowledge I2C peripheral in Slave mode
 202:Drivers/STM32F0xx_HAL_Driver/Src/stm32f0xx_hal_i2c.c ****       (+) __HAL_I2C_GET_FLAG: Check whether the specified I2C flag is set or not
 203:Drivers/STM32F0xx_HAL_Driver/Src/stm32f0xx_hal_i2c.c ****       (+) __HAL_I2C_CLEAR_FLAG: Clear the specified I2C pending flag
ARM GAS  C:\Users\ADMINI~1\AppData\Local\Temp\cc3zYV2m.s 			page 5


 204:Drivers/STM32F0xx_HAL_Driver/Src/stm32f0xx_hal_i2c.c ****       (+) __HAL_I2C_ENABLE_IT: Enable the specified I2C interrupt
 205:Drivers/STM32F0xx_HAL_Driver/Src/stm32f0xx_hal_i2c.c ****       (+) __HAL_I2C_DISABLE_IT: Disable the specified I2C interrupt
 206:Drivers/STM32F0xx_HAL_Driver/Src/stm32f0xx_hal_i2c.c **** 
 207:Drivers/STM32F0xx_HAL_Driver/Src/stm32f0xx_hal_i2c.c ****      [..]
 208:Drivers/STM32F0xx_HAL_Driver/Src/stm32f0xx_hal_i2c.c ****        (@) You can refer to the I2C HAL driver header file for more useful macros
 209:Drivers/STM32F0xx_HAL_Driver/Src/stm32f0xx_hal_i2c.c **** 
 210:Drivers/STM32F0xx_HAL_Driver/Src/stm32f0xx_hal_i2c.c ****   @endverbatim
 211:Drivers/STM32F0xx_HAL_Driver/Src/stm32f0xx_hal_i2c.c ****   ******************************************************************************
 212:Drivers/STM32F0xx_HAL_Driver/Src/stm32f0xx_hal_i2c.c ****   * @attention
 213:Drivers/STM32F0xx_HAL_Driver/Src/stm32f0xx_hal_i2c.c ****   *
 214:Drivers/STM32F0xx_HAL_Driver/Src/stm32f0xx_hal_i2c.c ****   * <h2><center>&copy; COPYRIGHT(c) 2016 STMicroelectronics</center></h2>
 215:Drivers/STM32F0xx_HAL_Driver/Src/stm32f0xx_hal_i2c.c ****   *
 216:Drivers/STM32F0xx_HAL_Driver/Src/stm32f0xx_hal_i2c.c ****   * Redistribution and use in source and binary forms, with or without modification,
 217:Drivers/STM32F0xx_HAL_Driver/Src/stm32f0xx_hal_i2c.c ****   * are permitted provided that the following conditions are met:
 218:Drivers/STM32F0xx_HAL_Driver/Src/stm32f0xx_hal_i2c.c ****   *   1. Redistributions of source code must retain the above copyright notice,
 219:Drivers/STM32F0xx_HAL_Driver/Src/stm32f0xx_hal_i2c.c ****   *      this list of conditions and the following disclaimer.
 220:Drivers/STM32F0xx_HAL_Driver/Src/stm32f0xx_hal_i2c.c ****   *   2. Redistributions in binary form must reproduce the above copyright notice,
 221:Drivers/STM32F0xx_HAL_Driver/Src/stm32f0xx_hal_i2c.c ****   *      this list of conditions and the following disclaimer in the documentation
 222:Drivers/STM32F0xx_HAL_Driver/Src/stm32f0xx_hal_i2c.c ****   *      and/or other materials provided with the distribution.
 223:Drivers/STM32F0xx_HAL_Driver/Src/stm32f0xx_hal_i2c.c ****   *   3. Neither the name of STMicroelectronics nor the names of its contributors
 224:Drivers/STM32F0xx_HAL_Driver/Src/stm32f0xx_hal_i2c.c ****   *      may be used to endorse or promote products derived from this software
 225:Drivers/STM32F0xx_HAL_Driver/Src/stm32f0xx_hal_i2c.c ****   *      without specific prior written permission.
 226:Drivers/STM32F0xx_HAL_Driver/Src/stm32f0xx_hal_i2c.c ****   *
 227:Drivers/STM32F0xx_HAL_Driver/Src/stm32f0xx_hal_i2c.c ****   * THIS SOFTWARE IS PROVIDED BY THE COPYRIGHT HOLDERS AND CONTRIBUTORS "AS IS"
 228:Drivers/STM32F0xx_HAL_Driver/Src/stm32f0xx_hal_i2c.c ****   * AND ANY EXPRESS OR IMPLIED WARRANTIES, INCLUDING, BUT NOT LIMITED TO, THE
 229:Drivers/STM32F0xx_HAL_Driver/Src/stm32f0xx_hal_i2c.c ****   * IMPLIED WARRANTIES OF MERCHANTABILITY AND FITNESS FOR A PARTICULAR PURPOSE ARE
 230:Drivers/STM32F0xx_HAL_Driver/Src/stm32f0xx_hal_i2c.c ****   * DISCLAIMED. IN NO EVENT SHALL THE COPYRIGHT HOLDER OR CONTRIBUTORS BE LIABLE
 231:Drivers/STM32F0xx_HAL_Driver/Src/stm32f0xx_hal_i2c.c ****   * FOR ANY DIRECT, INDIRECT, INCIDENTAL, SPECIAL, EXEMPLARY, OR CONSEQUENTIAL
 232:Drivers/STM32F0xx_HAL_Driver/Src/stm32f0xx_hal_i2c.c ****   * DAMAGES (INCLUDING, BUT NOT LIMITED TO, PROCUREMENT OF SUBSTITUTE GOODS OR
 233:Drivers/STM32F0xx_HAL_Driver/Src/stm32f0xx_hal_i2c.c ****   * SERVICES; LOSS OF USE, DATA, OR PROFITS; OR BUSINESS INTERRUPTION) HOWEVER
 234:Drivers/STM32F0xx_HAL_Driver/Src/stm32f0xx_hal_i2c.c ****   * CAUSED AND ON ANY THEORY OF LIABILITY, WHETHER IN CONTRACT, STRICT LIABILITY,
 235:Drivers/STM32F0xx_HAL_Driver/Src/stm32f0xx_hal_i2c.c ****   * OR TORT (INCLUDING NEGLIGENCE OR OTHERWISE) ARISING IN ANY WAY OUT OF THE USE
 236:Drivers/STM32F0xx_HAL_Driver/Src/stm32f0xx_hal_i2c.c ****   * OF THIS SOFTWARE, EVEN IF ADVISED OF THE POSSIBILITY OF SUCH DAMAGE.
 237:Drivers/STM32F0xx_HAL_Driver/Src/stm32f0xx_hal_i2c.c ****   *
 238:Drivers/STM32F0xx_HAL_Driver/Src/stm32f0xx_hal_i2c.c ****   ******************************************************************************
 239:Drivers/STM32F0xx_HAL_Driver/Src/stm32f0xx_hal_i2c.c ****   */
 240:Drivers/STM32F0xx_HAL_Driver/Src/stm32f0xx_hal_i2c.c **** 
 241:Drivers/STM32F0xx_HAL_Driver/Src/stm32f0xx_hal_i2c.c **** /* Includes ------------------------------------------------------------------*/
 242:Drivers/STM32F0xx_HAL_Driver/Src/stm32f0xx_hal_i2c.c **** #include "stm32f0xx_hal.h"
 243:Drivers/STM32F0xx_HAL_Driver/Src/stm32f0xx_hal_i2c.c **** 
 244:Drivers/STM32F0xx_HAL_Driver/Src/stm32f0xx_hal_i2c.c **** /** @addtogroup STM32F0xx_HAL_Driver
 245:Drivers/STM32F0xx_HAL_Driver/Src/stm32f0xx_hal_i2c.c ****   * @{
 246:Drivers/STM32F0xx_HAL_Driver/Src/stm32f0xx_hal_i2c.c ****   */
 247:Drivers/STM32F0xx_HAL_Driver/Src/stm32f0xx_hal_i2c.c **** 
 248:Drivers/STM32F0xx_HAL_Driver/Src/stm32f0xx_hal_i2c.c **** /** @defgroup I2C I2C
 249:Drivers/STM32F0xx_HAL_Driver/Src/stm32f0xx_hal_i2c.c ****   * @brief I2C HAL module driver
 250:Drivers/STM32F0xx_HAL_Driver/Src/stm32f0xx_hal_i2c.c ****   * @{
 251:Drivers/STM32F0xx_HAL_Driver/Src/stm32f0xx_hal_i2c.c ****   */
 252:Drivers/STM32F0xx_HAL_Driver/Src/stm32f0xx_hal_i2c.c **** 
 253:Drivers/STM32F0xx_HAL_Driver/Src/stm32f0xx_hal_i2c.c **** #ifdef HAL_I2C_MODULE_ENABLED
 254:Drivers/STM32F0xx_HAL_Driver/Src/stm32f0xx_hal_i2c.c **** 
 255:Drivers/STM32F0xx_HAL_Driver/Src/stm32f0xx_hal_i2c.c **** /* Private typedef -----------------------------------------------------------*/
 256:Drivers/STM32F0xx_HAL_Driver/Src/stm32f0xx_hal_i2c.c **** /* Private define ------------------------------------------------------------*/
 257:Drivers/STM32F0xx_HAL_Driver/Src/stm32f0xx_hal_i2c.c **** 
 258:Drivers/STM32F0xx_HAL_Driver/Src/stm32f0xx_hal_i2c.c **** /** @defgroup I2C_Private_Define I2C Private Define
 259:Drivers/STM32F0xx_HAL_Driver/Src/stm32f0xx_hal_i2c.c ****   * @{
 260:Drivers/STM32F0xx_HAL_Driver/Src/stm32f0xx_hal_i2c.c ****   */
ARM GAS  C:\Users\ADMINI~1\AppData\Local\Temp\cc3zYV2m.s 			page 6


 261:Drivers/STM32F0xx_HAL_Driver/Src/stm32f0xx_hal_i2c.c **** #define TIMING_CLEAR_MASK   (0xF0FFFFFFU)  /*!< I2C TIMING clear register Mask */
 262:Drivers/STM32F0xx_HAL_Driver/Src/stm32f0xx_hal_i2c.c **** #define I2C_TIMEOUT_ADDR    (10000U)       /*!< 10 s  */
 263:Drivers/STM32F0xx_HAL_Driver/Src/stm32f0xx_hal_i2c.c **** #define I2C_TIMEOUT_BUSY    (25U)          /*!< 25 ms */
 264:Drivers/STM32F0xx_HAL_Driver/Src/stm32f0xx_hal_i2c.c **** #define I2C_TIMEOUT_DIR     (25U)          /*!< 25 ms */
 265:Drivers/STM32F0xx_HAL_Driver/Src/stm32f0xx_hal_i2c.c **** #define I2C_TIMEOUT_RXNE    (25U)          /*!< 25 ms */
 266:Drivers/STM32F0xx_HAL_Driver/Src/stm32f0xx_hal_i2c.c **** #define I2C_TIMEOUT_STOPF   (25U)          /*!< 25 ms */
 267:Drivers/STM32F0xx_HAL_Driver/Src/stm32f0xx_hal_i2c.c **** #define I2C_TIMEOUT_TC      (25U)          /*!< 25 ms */
 268:Drivers/STM32F0xx_HAL_Driver/Src/stm32f0xx_hal_i2c.c **** #define I2C_TIMEOUT_TCR     (25U)          /*!< 25 ms */
 269:Drivers/STM32F0xx_HAL_Driver/Src/stm32f0xx_hal_i2c.c **** #define I2C_TIMEOUT_TXIS    (25U)          /*!< 25 ms */
 270:Drivers/STM32F0xx_HAL_Driver/Src/stm32f0xx_hal_i2c.c **** #define I2C_TIMEOUT_FLAG    (25U)          /*!< 25 ms */
 271:Drivers/STM32F0xx_HAL_Driver/Src/stm32f0xx_hal_i2c.c **** 
 272:Drivers/STM32F0xx_HAL_Driver/Src/stm32f0xx_hal_i2c.c **** #define MAX_NBYTE_SIZE      255U
 273:Drivers/STM32F0xx_HAL_Driver/Src/stm32f0xx_hal_i2c.c **** #define SlaveAddr_SHIFT     7U
 274:Drivers/STM32F0xx_HAL_Driver/Src/stm32f0xx_hal_i2c.c **** #define SlaveAddr_MSK       0x06U
 275:Drivers/STM32F0xx_HAL_Driver/Src/stm32f0xx_hal_i2c.c **** 
 276:Drivers/STM32F0xx_HAL_Driver/Src/stm32f0xx_hal_i2c.c **** /* Private define for @ref PreviousState usage */
 277:Drivers/STM32F0xx_HAL_Driver/Src/stm32f0xx_hal_i2c.c **** #define I2C_STATE_MSK             ((uint32_t)((HAL_I2C_STATE_BUSY_TX | HAL_I2C_STATE_BUSY_RX) & (~(
 278:Drivers/STM32F0xx_HAL_Driver/Src/stm32f0xx_hal_i2c.c **** #define I2C_STATE_NONE            ((uint32_t)(HAL_I2C_MODE_NONE))                                  
 279:Drivers/STM32F0xx_HAL_Driver/Src/stm32f0xx_hal_i2c.c **** #define I2C_STATE_MASTER_BUSY_TX  ((uint32_t)((HAL_I2C_STATE_BUSY_TX & I2C_STATE_MSK) | HAL_I2C_MOD
 280:Drivers/STM32F0xx_HAL_Driver/Src/stm32f0xx_hal_i2c.c **** #define I2C_STATE_MASTER_BUSY_RX  ((uint32_t)((HAL_I2C_STATE_BUSY_RX & I2C_STATE_MSK) | HAL_I2C_MOD
 281:Drivers/STM32F0xx_HAL_Driver/Src/stm32f0xx_hal_i2c.c **** #define I2C_STATE_SLAVE_BUSY_TX   ((uint32_t)((HAL_I2C_STATE_BUSY_TX & I2C_STATE_MSK) | HAL_I2C_MOD
 282:Drivers/STM32F0xx_HAL_Driver/Src/stm32f0xx_hal_i2c.c **** #define I2C_STATE_SLAVE_BUSY_RX   ((uint32_t)((HAL_I2C_STATE_BUSY_RX & I2C_STATE_MSK) | HAL_I2C_MOD
 283:Drivers/STM32F0xx_HAL_Driver/Src/stm32f0xx_hal_i2c.c **** #define I2C_STATE_MEM_BUSY_TX     ((uint32_t)((HAL_I2C_STATE_BUSY_TX & I2C_STATE_MSK) | HAL_I2C_MOD
 284:Drivers/STM32F0xx_HAL_Driver/Src/stm32f0xx_hal_i2c.c **** #define I2C_STATE_MEM_BUSY_RX     ((uint32_t)((HAL_I2C_STATE_BUSY_RX & I2C_STATE_MSK) | HAL_I2C_MOD
 285:Drivers/STM32F0xx_HAL_Driver/Src/stm32f0xx_hal_i2c.c **** 
 286:Drivers/STM32F0xx_HAL_Driver/Src/stm32f0xx_hal_i2c.c **** 
 287:Drivers/STM32F0xx_HAL_Driver/Src/stm32f0xx_hal_i2c.c **** /* Private define to centralize the enable/disable of Interrupts */
 288:Drivers/STM32F0xx_HAL_Driver/Src/stm32f0xx_hal_i2c.c **** #define I2C_XFER_TX_IT          (0x00000001U)
 289:Drivers/STM32F0xx_HAL_Driver/Src/stm32f0xx_hal_i2c.c **** #define I2C_XFER_RX_IT          (0x00000002U)
 290:Drivers/STM32F0xx_HAL_Driver/Src/stm32f0xx_hal_i2c.c **** #define I2C_XFER_LISTEN_IT      (0x00000004U)
 291:Drivers/STM32F0xx_HAL_Driver/Src/stm32f0xx_hal_i2c.c **** 
 292:Drivers/STM32F0xx_HAL_Driver/Src/stm32f0xx_hal_i2c.c **** #define I2C_XFER_ERROR_IT       (0x00000011U)
 293:Drivers/STM32F0xx_HAL_Driver/Src/stm32f0xx_hal_i2c.c **** #define I2C_XFER_CPLT_IT        (0x00000012U)
 294:Drivers/STM32F0xx_HAL_Driver/Src/stm32f0xx_hal_i2c.c **** #define I2C_XFER_RELOAD_IT      (0x00000012U)
 295:Drivers/STM32F0xx_HAL_Driver/Src/stm32f0xx_hal_i2c.c **** 
 296:Drivers/STM32F0xx_HAL_Driver/Src/stm32f0xx_hal_i2c.c **** /* Private define Sequential Transfer Options default/reset value */
 297:Drivers/STM32F0xx_HAL_Driver/Src/stm32f0xx_hal_i2c.c **** #define I2C_NO_OPTION_FRAME     (0xFFFF0000U)
 298:Drivers/STM32F0xx_HAL_Driver/Src/stm32f0xx_hal_i2c.c **** /**
 299:Drivers/STM32F0xx_HAL_Driver/Src/stm32f0xx_hal_i2c.c ****   * @}
 300:Drivers/STM32F0xx_HAL_Driver/Src/stm32f0xx_hal_i2c.c ****   */
 301:Drivers/STM32F0xx_HAL_Driver/Src/stm32f0xx_hal_i2c.c **** 
 302:Drivers/STM32F0xx_HAL_Driver/Src/stm32f0xx_hal_i2c.c **** /* Private macro -------------------------------------------------------------*/
 303:Drivers/STM32F0xx_HAL_Driver/Src/stm32f0xx_hal_i2c.c **** #define I2C_GET_DMA_REMAIN_DATA(__HANDLE__) ((((__HANDLE__)->State) == HAL_I2C_STATE_BUSY_TX)   ? \
 304:Drivers/STM32F0xx_HAL_Driver/Src/stm32f0xx_hal_i2c.c ****                                             ((uint32_t)((__HANDLE__)->hdmatx->Instance->CNDTR)) : \
 305:Drivers/STM32F0xx_HAL_Driver/Src/stm32f0xx_hal_i2c.c ****                                             ((uint32_t)((__HANDLE__)->hdmarx->Instance->CNDTR)))
 306:Drivers/STM32F0xx_HAL_Driver/Src/stm32f0xx_hal_i2c.c **** 
 307:Drivers/STM32F0xx_HAL_Driver/Src/stm32f0xx_hal_i2c.c **** /* Private variables ---------------------------------------------------------*/
 308:Drivers/STM32F0xx_HAL_Driver/Src/stm32f0xx_hal_i2c.c **** /* Private function prototypes -----------------------------------------------*/
 309:Drivers/STM32F0xx_HAL_Driver/Src/stm32f0xx_hal_i2c.c **** 
 310:Drivers/STM32F0xx_HAL_Driver/Src/stm32f0xx_hal_i2c.c **** /** @defgroup I2C_Private_Functions I2C Private Functions
 311:Drivers/STM32F0xx_HAL_Driver/Src/stm32f0xx_hal_i2c.c ****   * @{
 312:Drivers/STM32F0xx_HAL_Driver/Src/stm32f0xx_hal_i2c.c ****   */
 313:Drivers/STM32F0xx_HAL_Driver/Src/stm32f0xx_hal_i2c.c **** /* Private functions to handle DMA transfer */
 314:Drivers/STM32F0xx_HAL_Driver/Src/stm32f0xx_hal_i2c.c **** static void I2C_DMAMasterTransmitCplt(DMA_HandleTypeDef *hdma);
 315:Drivers/STM32F0xx_HAL_Driver/Src/stm32f0xx_hal_i2c.c **** static void I2C_DMAMasterReceiveCplt(DMA_HandleTypeDef *hdma);
 316:Drivers/STM32F0xx_HAL_Driver/Src/stm32f0xx_hal_i2c.c **** static void I2C_DMASlaveTransmitCplt(DMA_HandleTypeDef *hdma);
 317:Drivers/STM32F0xx_HAL_Driver/Src/stm32f0xx_hal_i2c.c **** static void I2C_DMASlaveReceiveCplt(DMA_HandleTypeDef *hdma);
ARM GAS  C:\Users\ADMINI~1\AppData\Local\Temp\cc3zYV2m.s 			page 7


 318:Drivers/STM32F0xx_HAL_Driver/Src/stm32f0xx_hal_i2c.c **** static void I2C_DMAError(DMA_HandleTypeDef *hdma);
 319:Drivers/STM32F0xx_HAL_Driver/Src/stm32f0xx_hal_i2c.c **** static void I2C_DMAAbort(DMA_HandleTypeDef *hdma);
 320:Drivers/STM32F0xx_HAL_Driver/Src/stm32f0xx_hal_i2c.c **** 
 321:Drivers/STM32F0xx_HAL_Driver/Src/stm32f0xx_hal_i2c.c **** /* Private functions to handle IT transfer */
 322:Drivers/STM32F0xx_HAL_Driver/Src/stm32f0xx_hal_i2c.c **** static void I2C_ITAddrCplt(I2C_HandleTypeDef *hi2c, uint32_t ITFlags);
 323:Drivers/STM32F0xx_HAL_Driver/Src/stm32f0xx_hal_i2c.c **** static void I2C_ITMasterSequentialCplt(I2C_HandleTypeDef *hi2c);
 324:Drivers/STM32F0xx_HAL_Driver/Src/stm32f0xx_hal_i2c.c **** static void I2C_ITSlaveSequentialCplt(I2C_HandleTypeDef *hi2c);
 325:Drivers/STM32F0xx_HAL_Driver/Src/stm32f0xx_hal_i2c.c **** static void I2C_ITMasterCplt(I2C_HandleTypeDef *hi2c, uint32_t ITFlags);
 326:Drivers/STM32F0xx_HAL_Driver/Src/stm32f0xx_hal_i2c.c **** static void I2C_ITSlaveCplt(I2C_HandleTypeDef *hi2c, uint32_t ITFlags);
 327:Drivers/STM32F0xx_HAL_Driver/Src/stm32f0xx_hal_i2c.c **** static void I2C_ITListenCplt(I2C_HandleTypeDef *hi2c, uint32_t ITFlags);
 328:Drivers/STM32F0xx_HAL_Driver/Src/stm32f0xx_hal_i2c.c **** static void I2C_ITError(I2C_HandleTypeDef *hi2c, uint32_t ErrorCode);
 329:Drivers/STM32F0xx_HAL_Driver/Src/stm32f0xx_hal_i2c.c **** 
 330:Drivers/STM32F0xx_HAL_Driver/Src/stm32f0xx_hal_i2c.c **** /* Private functions to handle IT transfer */
 331:Drivers/STM32F0xx_HAL_Driver/Src/stm32f0xx_hal_i2c.c **** static HAL_StatusTypeDef I2C_RequestMemoryWrite(I2C_HandleTypeDef *hi2c, uint16_t DevAddress, uint1
 332:Drivers/STM32F0xx_HAL_Driver/Src/stm32f0xx_hal_i2c.c **** static HAL_StatusTypeDef I2C_RequestMemoryRead(I2C_HandleTypeDef *hi2c, uint16_t DevAddress, uint16
 333:Drivers/STM32F0xx_HAL_Driver/Src/stm32f0xx_hal_i2c.c **** 
 334:Drivers/STM32F0xx_HAL_Driver/Src/stm32f0xx_hal_i2c.c **** /* Private functions for I2C transfer IRQ handler */
 335:Drivers/STM32F0xx_HAL_Driver/Src/stm32f0xx_hal_i2c.c **** static HAL_StatusTypeDef I2C_Master_ISR_IT(struct __I2C_HandleTypeDef *hi2c, uint32_t ITFlags, uint
 336:Drivers/STM32F0xx_HAL_Driver/Src/stm32f0xx_hal_i2c.c **** static HAL_StatusTypeDef I2C_Slave_ISR_IT(struct __I2C_HandleTypeDef *hi2c, uint32_t ITFlags, uint3
 337:Drivers/STM32F0xx_HAL_Driver/Src/stm32f0xx_hal_i2c.c **** static HAL_StatusTypeDef I2C_Master_ISR_DMA(struct __I2C_HandleTypeDef *hi2c, uint32_t ITFlags, uin
 338:Drivers/STM32F0xx_HAL_Driver/Src/stm32f0xx_hal_i2c.c **** static HAL_StatusTypeDef I2C_Slave_ISR_DMA(struct __I2C_HandleTypeDef *hi2c, uint32_t ITFlags, uint
 339:Drivers/STM32F0xx_HAL_Driver/Src/stm32f0xx_hal_i2c.c **** 
 340:Drivers/STM32F0xx_HAL_Driver/Src/stm32f0xx_hal_i2c.c **** /* Private functions to handle flags during polling transfer */
 341:Drivers/STM32F0xx_HAL_Driver/Src/stm32f0xx_hal_i2c.c **** static HAL_StatusTypeDef I2C_WaitOnFlagUntilTimeout(I2C_HandleTypeDef *hi2c, uint32_t Flag, FlagSta
 342:Drivers/STM32F0xx_HAL_Driver/Src/stm32f0xx_hal_i2c.c **** static HAL_StatusTypeDef I2C_WaitOnTXISFlagUntilTimeout(I2C_HandleTypeDef *hi2c, uint32_t Timeout, 
 343:Drivers/STM32F0xx_HAL_Driver/Src/stm32f0xx_hal_i2c.c **** static HAL_StatusTypeDef I2C_WaitOnRXNEFlagUntilTimeout(I2C_HandleTypeDef *hi2c, uint32_t Timeout, 
 344:Drivers/STM32F0xx_HAL_Driver/Src/stm32f0xx_hal_i2c.c **** static HAL_StatusTypeDef I2C_WaitOnSTOPFlagUntilTimeout(I2C_HandleTypeDef *hi2c, uint32_t Timeout, 
 345:Drivers/STM32F0xx_HAL_Driver/Src/stm32f0xx_hal_i2c.c **** static HAL_StatusTypeDef I2C_IsAcknowledgeFailed(I2C_HandleTypeDef *hi2c, uint32_t Timeout, uint32_
 346:Drivers/STM32F0xx_HAL_Driver/Src/stm32f0xx_hal_i2c.c **** 
 347:Drivers/STM32F0xx_HAL_Driver/Src/stm32f0xx_hal_i2c.c **** /* Private functions to centralize the enable/disable of Interrupts */
 348:Drivers/STM32F0xx_HAL_Driver/Src/stm32f0xx_hal_i2c.c **** static HAL_StatusTypeDef I2C_Enable_IRQ(I2C_HandleTypeDef *hi2c, uint16_t InterruptRequest);
 349:Drivers/STM32F0xx_HAL_Driver/Src/stm32f0xx_hal_i2c.c **** static HAL_StatusTypeDef I2C_Disable_IRQ(I2C_HandleTypeDef *hi2c, uint16_t InterruptRequest);
 350:Drivers/STM32F0xx_HAL_Driver/Src/stm32f0xx_hal_i2c.c **** 
 351:Drivers/STM32F0xx_HAL_Driver/Src/stm32f0xx_hal_i2c.c **** /* Private functions to flush TXDR register */
 352:Drivers/STM32F0xx_HAL_Driver/Src/stm32f0xx_hal_i2c.c **** static void I2C_Flush_TXDR(I2C_HandleTypeDef *hi2c);
 353:Drivers/STM32F0xx_HAL_Driver/Src/stm32f0xx_hal_i2c.c **** 
 354:Drivers/STM32F0xx_HAL_Driver/Src/stm32f0xx_hal_i2c.c **** /* Private functions to handle  start, restart or stop a transfer */
 355:Drivers/STM32F0xx_HAL_Driver/Src/stm32f0xx_hal_i2c.c **** static void I2C_TransferConfig(I2C_HandleTypeDef *hi2c,  uint16_t DevAddress, uint8_t Size, uint32_
 356:Drivers/STM32F0xx_HAL_Driver/Src/stm32f0xx_hal_i2c.c **** /**
 357:Drivers/STM32F0xx_HAL_Driver/Src/stm32f0xx_hal_i2c.c ****   * @}
 358:Drivers/STM32F0xx_HAL_Driver/Src/stm32f0xx_hal_i2c.c ****   */
 359:Drivers/STM32F0xx_HAL_Driver/Src/stm32f0xx_hal_i2c.c **** 
 360:Drivers/STM32F0xx_HAL_Driver/Src/stm32f0xx_hal_i2c.c **** /* Exported functions --------------------------------------------------------*/
 361:Drivers/STM32F0xx_HAL_Driver/Src/stm32f0xx_hal_i2c.c **** 
 362:Drivers/STM32F0xx_HAL_Driver/Src/stm32f0xx_hal_i2c.c **** /** @defgroup I2C_Exported_Functions I2C Exported Functions
 363:Drivers/STM32F0xx_HAL_Driver/Src/stm32f0xx_hal_i2c.c ****   * @{
 364:Drivers/STM32F0xx_HAL_Driver/Src/stm32f0xx_hal_i2c.c ****   */
 365:Drivers/STM32F0xx_HAL_Driver/Src/stm32f0xx_hal_i2c.c **** 
 366:Drivers/STM32F0xx_HAL_Driver/Src/stm32f0xx_hal_i2c.c **** /** @defgroup I2C_Exported_Functions_Group1 Initialization and de-initialization functions
 367:Drivers/STM32F0xx_HAL_Driver/Src/stm32f0xx_hal_i2c.c ****  *  @brief    Initialization and Configuration functions
 368:Drivers/STM32F0xx_HAL_Driver/Src/stm32f0xx_hal_i2c.c ****  *
 369:Drivers/STM32F0xx_HAL_Driver/Src/stm32f0xx_hal_i2c.c **** @verbatim
 370:Drivers/STM32F0xx_HAL_Driver/Src/stm32f0xx_hal_i2c.c ****  ===============================================================================
 371:Drivers/STM32F0xx_HAL_Driver/Src/stm32f0xx_hal_i2c.c ****               ##### Initialization and de-initialization functions #####
 372:Drivers/STM32F0xx_HAL_Driver/Src/stm32f0xx_hal_i2c.c ****  ===============================================================================
 373:Drivers/STM32F0xx_HAL_Driver/Src/stm32f0xx_hal_i2c.c ****     [..]  This subsection provides a set of functions allowing to initialize and
 374:Drivers/STM32F0xx_HAL_Driver/Src/stm32f0xx_hal_i2c.c ****           deinitialize the I2Cx peripheral:
ARM GAS  C:\Users\ADMINI~1\AppData\Local\Temp\cc3zYV2m.s 			page 8


 375:Drivers/STM32F0xx_HAL_Driver/Src/stm32f0xx_hal_i2c.c **** 
 376:Drivers/STM32F0xx_HAL_Driver/Src/stm32f0xx_hal_i2c.c ****       (+) User must Implement HAL_I2C_MspInit() function in which he configures
 377:Drivers/STM32F0xx_HAL_Driver/Src/stm32f0xx_hal_i2c.c ****           all related peripherals resources (CLOCK, GPIO, DMA, IT and NVIC ).
 378:Drivers/STM32F0xx_HAL_Driver/Src/stm32f0xx_hal_i2c.c **** 
 379:Drivers/STM32F0xx_HAL_Driver/Src/stm32f0xx_hal_i2c.c ****       (+) Call the function HAL_I2C_Init() to configure the selected device with
 380:Drivers/STM32F0xx_HAL_Driver/Src/stm32f0xx_hal_i2c.c ****           the selected configuration:
 381:Drivers/STM32F0xx_HAL_Driver/Src/stm32f0xx_hal_i2c.c ****         (++) Clock Timing
 382:Drivers/STM32F0xx_HAL_Driver/Src/stm32f0xx_hal_i2c.c ****         (++) Own Address 1
 383:Drivers/STM32F0xx_HAL_Driver/Src/stm32f0xx_hal_i2c.c ****         (++) Addressing mode (Master, Slave)
 384:Drivers/STM32F0xx_HAL_Driver/Src/stm32f0xx_hal_i2c.c ****         (++) Dual Addressing mode
 385:Drivers/STM32F0xx_HAL_Driver/Src/stm32f0xx_hal_i2c.c ****         (++) Own Address 2
 386:Drivers/STM32F0xx_HAL_Driver/Src/stm32f0xx_hal_i2c.c ****         (++) Own Address 2 Mask
 387:Drivers/STM32F0xx_HAL_Driver/Src/stm32f0xx_hal_i2c.c ****         (++) General call mode
 388:Drivers/STM32F0xx_HAL_Driver/Src/stm32f0xx_hal_i2c.c ****         (++) Nostretch mode
 389:Drivers/STM32F0xx_HAL_Driver/Src/stm32f0xx_hal_i2c.c **** 
 390:Drivers/STM32F0xx_HAL_Driver/Src/stm32f0xx_hal_i2c.c ****       (+) Call the function HAL_I2C_DeInit() to restore the default configuration
 391:Drivers/STM32F0xx_HAL_Driver/Src/stm32f0xx_hal_i2c.c ****           of the selected I2Cx peripheral.
 392:Drivers/STM32F0xx_HAL_Driver/Src/stm32f0xx_hal_i2c.c **** 
 393:Drivers/STM32F0xx_HAL_Driver/Src/stm32f0xx_hal_i2c.c **** @endverbatim
 394:Drivers/STM32F0xx_HAL_Driver/Src/stm32f0xx_hal_i2c.c ****   * @{
 395:Drivers/STM32F0xx_HAL_Driver/Src/stm32f0xx_hal_i2c.c ****   */
 396:Drivers/STM32F0xx_HAL_Driver/Src/stm32f0xx_hal_i2c.c **** 
 397:Drivers/STM32F0xx_HAL_Driver/Src/stm32f0xx_hal_i2c.c **** /**
 398:Drivers/STM32F0xx_HAL_Driver/Src/stm32f0xx_hal_i2c.c ****   * @brief  Initializes the I2C according to the specified parameters
 399:Drivers/STM32F0xx_HAL_Driver/Src/stm32f0xx_hal_i2c.c ****   *         in the I2C_InitTypeDef and initialize the associated handle.
 400:Drivers/STM32F0xx_HAL_Driver/Src/stm32f0xx_hal_i2c.c ****   * @param  hi2c Pointer to a I2C_HandleTypeDef structure that contains
 401:Drivers/STM32F0xx_HAL_Driver/Src/stm32f0xx_hal_i2c.c ****   *                the configuration information for the specified I2C.
 402:Drivers/STM32F0xx_HAL_Driver/Src/stm32f0xx_hal_i2c.c ****   * @retval HAL status
 403:Drivers/STM32F0xx_HAL_Driver/Src/stm32f0xx_hal_i2c.c ****   */
 404:Drivers/STM32F0xx_HAL_Driver/Src/stm32f0xx_hal_i2c.c **** HAL_StatusTypeDef HAL_I2C_Init(I2C_HandleTypeDef *hi2c)
 405:Drivers/STM32F0xx_HAL_Driver/Src/stm32f0xx_hal_i2c.c **** {
  27              		.loc 1 405 1
  28              		.cfi_startproc
  29              		@ args = 0, pretend = 0, frame = 8
  30              		@ frame_needed = 1, uses_anonymous_args = 0
  31 0000 80B5     		push	{r7, lr}
  32              	.LCFI0:
  33              		.cfi_def_cfa_offset 8
  34              		.cfi_offset 7, -8
  35              		.cfi_offset 14, -4
  36 0002 82B0     		sub	sp, sp, #8
  37              	.LCFI1:
  38              		.cfi_def_cfa_offset 16
  39 0004 00AF     		add	r7, sp, #0
  40              	.LCFI2:
  41              		.cfi_def_cfa_register 7
  42 0006 7860     		str	r0, [r7, #4]
 406:Drivers/STM32F0xx_HAL_Driver/Src/stm32f0xx_hal_i2c.c ****   /* Check the I2C handle allocation */
 407:Drivers/STM32F0xx_HAL_Driver/Src/stm32f0xx_hal_i2c.c ****   if (hi2c == NULL)
  43              		.loc 1 407 6
  44 0008 7B68     		ldr	r3, [r7, #4]
  45 000a 002B     		cmp	r3, #0
  46 000c 01D1     		bne	.L2
 408:Drivers/STM32F0xx_HAL_Driver/Src/stm32f0xx_hal_i2c.c ****   {
 409:Drivers/STM32F0xx_HAL_Driver/Src/stm32f0xx_hal_i2c.c ****     return HAL_ERROR;
  47              		.loc 1 409 12
  48 000e 0123     		movs	r3, #1
ARM GAS  C:\Users\ADMINI~1\AppData\Local\Temp\cc3zYV2m.s 			page 9


  49 0010 82E0     		b	.L3
  50              	.L2:
 410:Drivers/STM32F0xx_HAL_Driver/Src/stm32f0xx_hal_i2c.c ****   }
 411:Drivers/STM32F0xx_HAL_Driver/Src/stm32f0xx_hal_i2c.c **** 
 412:Drivers/STM32F0xx_HAL_Driver/Src/stm32f0xx_hal_i2c.c ****   /* Check the parameters */
 413:Drivers/STM32F0xx_HAL_Driver/Src/stm32f0xx_hal_i2c.c ****   assert_param(IS_I2C_ALL_INSTANCE(hi2c->Instance));
 414:Drivers/STM32F0xx_HAL_Driver/Src/stm32f0xx_hal_i2c.c ****   assert_param(IS_I2C_OWN_ADDRESS1(hi2c->Init.OwnAddress1));
 415:Drivers/STM32F0xx_HAL_Driver/Src/stm32f0xx_hal_i2c.c ****   assert_param(IS_I2C_ADDRESSING_MODE(hi2c->Init.AddressingMode));
 416:Drivers/STM32F0xx_HAL_Driver/Src/stm32f0xx_hal_i2c.c ****   assert_param(IS_I2C_DUAL_ADDRESS(hi2c->Init.DualAddressMode));
 417:Drivers/STM32F0xx_HAL_Driver/Src/stm32f0xx_hal_i2c.c ****   assert_param(IS_I2C_OWN_ADDRESS2(hi2c->Init.OwnAddress2));
 418:Drivers/STM32F0xx_HAL_Driver/Src/stm32f0xx_hal_i2c.c ****   assert_param(IS_I2C_OWN_ADDRESS2_MASK(hi2c->Init.OwnAddress2Masks));
 419:Drivers/STM32F0xx_HAL_Driver/Src/stm32f0xx_hal_i2c.c ****   assert_param(IS_I2C_GENERAL_CALL(hi2c->Init.GeneralCallMode));
 420:Drivers/STM32F0xx_HAL_Driver/Src/stm32f0xx_hal_i2c.c ****   assert_param(IS_I2C_NO_STRETCH(hi2c->Init.NoStretchMode));
 421:Drivers/STM32F0xx_HAL_Driver/Src/stm32f0xx_hal_i2c.c **** 
 422:Drivers/STM32F0xx_HAL_Driver/Src/stm32f0xx_hal_i2c.c ****   if (hi2c->State == HAL_I2C_STATE_RESET)
  51              		.loc 1 422 11
  52 0012 7B68     		ldr	r3, [r7, #4]
  53 0014 4122     		movs	r2, #65
  54 0016 9B5C     		ldrb	r3, [r3, r2]
  55 0018 DBB2     		uxtb	r3, r3
  56              		.loc 1 422 6
  57 001a 002B     		cmp	r3, #0
  58 001c 07D1     		bne	.L4
 423:Drivers/STM32F0xx_HAL_Driver/Src/stm32f0xx_hal_i2c.c ****   {
 424:Drivers/STM32F0xx_HAL_Driver/Src/stm32f0xx_hal_i2c.c ****     /* Allocate lock resource and initialize it */
 425:Drivers/STM32F0xx_HAL_Driver/Src/stm32f0xx_hal_i2c.c ****     hi2c->Lock = HAL_UNLOCKED;
  59              		.loc 1 425 16
  60 001e 7B68     		ldr	r3, [r7, #4]
  61 0020 4022     		movs	r2, #64
  62 0022 0021     		movs	r1, #0
  63 0024 9954     		strb	r1, [r3, r2]
 426:Drivers/STM32F0xx_HAL_Driver/Src/stm32f0xx_hal_i2c.c **** 
 427:Drivers/STM32F0xx_HAL_Driver/Src/stm32f0xx_hal_i2c.c ****     /* Init the low level hardware : GPIO, CLOCK, CORTEX...etc */
 428:Drivers/STM32F0xx_HAL_Driver/Src/stm32f0xx_hal_i2c.c ****     HAL_I2C_MspInit(hi2c);
  64              		.loc 1 428 5
  65 0026 7B68     		ldr	r3, [r7, #4]
  66 0028 1800     		movs	r0, r3
  67 002a FFF7FEFF 		bl	HAL_I2C_MspInit
  68              	.L4:
 429:Drivers/STM32F0xx_HAL_Driver/Src/stm32f0xx_hal_i2c.c ****   }
 430:Drivers/STM32F0xx_HAL_Driver/Src/stm32f0xx_hal_i2c.c **** 
 431:Drivers/STM32F0xx_HAL_Driver/Src/stm32f0xx_hal_i2c.c ****   hi2c->State = HAL_I2C_STATE_BUSY;
  69              		.loc 1 431 15
  70 002e 7B68     		ldr	r3, [r7, #4]
  71 0030 4122     		movs	r2, #65
  72 0032 2421     		movs	r1, #36
  73 0034 9954     		strb	r1, [r3, r2]
 432:Drivers/STM32F0xx_HAL_Driver/Src/stm32f0xx_hal_i2c.c **** 
 433:Drivers/STM32F0xx_HAL_Driver/Src/stm32f0xx_hal_i2c.c ****   /* Disable the selected I2C peripheral */
 434:Drivers/STM32F0xx_HAL_Driver/Src/stm32f0xx_hal_i2c.c ****   __HAL_I2C_DISABLE(hi2c);
  74              		.loc 1 434 3
  75 0036 7B68     		ldr	r3, [r7, #4]
  76 0038 1B68     		ldr	r3, [r3]
  77 003a 1A68     		ldr	r2, [r3]
  78 003c 7B68     		ldr	r3, [r7, #4]
  79 003e 1B68     		ldr	r3, [r3]
  80 0040 0121     		movs	r1, #1
ARM GAS  C:\Users\ADMINI~1\AppData\Local\Temp\cc3zYV2m.s 			page 10


  81 0042 8A43     		bics	r2, r1
  82 0044 1A60     		str	r2, [r3]
 435:Drivers/STM32F0xx_HAL_Driver/Src/stm32f0xx_hal_i2c.c **** 
 436:Drivers/STM32F0xx_HAL_Driver/Src/stm32f0xx_hal_i2c.c ****   /*---------------------------- I2Cx TIMINGR Configuration ------------------*/
 437:Drivers/STM32F0xx_HAL_Driver/Src/stm32f0xx_hal_i2c.c ****   /* Configure I2Cx: Frequency range */
 438:Drivers/STM32F0xx_HAL_Driver/Src/stm32f0xx_hal_i2c.c ****   hi2c->Instance->TIMINGR = hi2c->Init.Timing & TIMING_CLEAR_MASK;
  83              		.loc 1 438 39
  84 0046 7B68     		ldr	r3, [r7, #4]
  85 0048 5A68     		ldr	r2, [r3, #4]
  86              		.loc 1 438 7
  87 004a 7B68     		ldr	r3, [r7, #4]
  88 004c 1B68     		ldr	r3, [r3]
  89              		.loc 1 438 47
  90 004e 3449     		ldr	r1, .L8
  91 0050 0A40     		ands	r2, r1
  92              		.loc 1 438 27
  93 0052 1A61     		str	r2, [r3, #16]
 439:Drivers/STM32F0xx_HAL_Driver/Src/stm32f0xx_hal_i2c.c **** 
 440:Drivers/STM32F0xx_HAL_Driver/Src/stm32f0xx_hal_i2c.c ****   /*---------------------------- I2Cx OAR1 Configuration ---------------------*/
 441:Drivers/STM32F0xx_HAL_Driver/Src/stm32f0xx_hal_i2c.c ****   /* Disable Own Address1 before set the Own Address1 configuration */
 442:Drivers/STM32F0xx_HAL_Driver/Src/stm32f0xx_hal_i2c.c ****   hi2c->Instance->OAR1 &= ~I2C_OAR1_OA1EN;
  94              		.loc 1 442 7
  95 0054 7B68     		ldr	r3, [r7, #4]
  96 0056 1B68     		ldr	r3, [r3]
  97              		.loc 1 442 24
  98 0058 9A68     		ldr	r2, [r3, #8]
  99              		.loc 1 442 7
 100 005a 7B68     		ldr	r3, [r7, #4]
 101 005c 1B68     		ldr	r3, [r3]
 102              		.loc 1 442 24
 103 005e 3149     		ldr	r1, .L8+4
 104 0060 0A40     		ands	r2, r1
 105 0062 9A60     		str	r2, [r3, #8]
 443:Drivers/STM32F0xx_HAL_Driver/Src/stm32f0xx_hal_i2c.c **** 
 444:Drivers/STM32F0xx_HAL_Driver/Src/stm32f0xx_hal_i2c.c ****   /* Configure I2Cx: Own Address1 and ack own address1 mode */
 445:Drivers/STM32F0xx_HAL_Driver/Src/stm32f0xx_hal_i2c.c ****   if (hi2c->Init.AddressingMode == I2C_ADDRESSINGMODE_7BIT)
 106              		.loc 1 445 17
 107 0064 7B68     		ldr	r3, [r7, #4]
 108 0066 DB68     		ldr	r3, [r3, #12]
 109              		.loc 1 445 6
 110 0068 012B     		cmp	r3, #1
 111 006a 08D1     		bne	.L5
 446:Drivers/STM32F0xx_HAL_Driver/Src/stm32f0xx_hal_i2c.c ****   {
 447:Drivers/STM32F0xx_HAL_Driver/Src/stm32f0xx_hal_i2c.c ****     hi2c->Instance->OAR1 = (I2C_OAR1_OA1EN | hi2c->Init.OwnAddress1);
 112              		.loc 1 447 56
 113 006c 7B68     		ldr	r3, [r7, #4]
 114 006e 9A68     		ldr	r2, [r3, #8]
 115              		.loc 1 447 9
 116 0070 7B68     		ldr	r3, [r7, #4]
 117 0072 1B68     		ldr	r3, [r3]
 118              		.loc 1 447 44
 119 0074 8021     		movs	r1, #128
 120 0076 0902     		lsls	r1, r1, #8
 121 0078 0A43     		orrs	r2, r1
 122              		.loc 1 447 26
 123 007a 9A60     		str	r2, [r3, #8]
 124 007c 07E0     		b	.L6
ARM GAS  C:\Users\ADMINI~1\AppData\Local\Temp\cc3zYV2m.s 			page 11


 125              	.L5:
 448:Drivers/STM32F0xx_HAL_Driver/Src/stm32f0xx_hal_i2c.c ****   }
 449:Drivers/STM32F0xx_HAL_Driver/Src/stm32f0xx_hal_i2c.c ****   else /* I2C_ADDRESSINGMODE_10BIT */
 450:Drivers/STM32F0xx_HAL_Driver/Src/stm32f0xx_hal_i2c.c ****   {
 451:Drivers/STM32F0xx_HAL_Driver/Src/stm32f0xx_hal_i2c.c ****     hi2c->Instance->OAR1 = (I2C_OAR1_OA1EN | I2C_OAR1_OA1MODE | hi2c->Init.OwnAddress1);
 126              		.loc 1 451 75
 127 007e 7B68     		ldr	r3, [r7, #4]
 128 0080 9A68     		ldr	r2, [r3, #8]
 129              		.loc 1 451 9
 130 0082 7B68     		ldr	r3, [r7, #4]
 131 0084 1B68     		ldr	r3, [r3]
 132              		.loc 1 451 63
 133 0086 8421     		movs	r1, #132
 134 0088 0902     		lsls	r1, r1, #8
 135 008a 0A43     		orrs	r2, r1
 136              		.loc 1 451 26
 137 008c 9A60     		str	r2, [r3, #8]
 138              	.L6:
 452:Drivers/STM32F0xx_HAL_Driver/Src/stm32f0xx_hal_i2c.c ****   }
 453:Drivers/STM32F0xx_HAL_Driver/Src/stm32f0xx_hal_i2c.c **** 
 454:Drivers/STM32F0xx_HAL_Driver/Src/stm32f0xx_hal_i2c.c ****   /*---------------------------- I2Cx CR2 Configuration ----------------------*/
 455:Drivers/STM32F0xx_HAL_Driver/Src/stm32f0xx_hal_i2c.c ****   /* Configure I2Cx: Addressing Master mode */
 456:Drivers/STM32F0xx_HAL_Driver/Src/stm32f0xx_hal_i2c.c ****   if (hi2c->Init.AddressingMode == I2C_ADDRESSINGMODE_10BIT)
 139              		.loc 1 456 17
 140 008e 7B68     		ldr	r3, [r7, #4]
 141 0090 DB68     		ldr	r3, [r3, #12]
 142              		.loc 1 456 6
 143 0092 022B     		cmp	r3, #2
 144 0094 04D1     		bne	.L7
 457:Drivers/STM32F0xx_HAL_Driver/Src/stm32f0xx_hal_i2c.c ****   {
 458:Drivers/STM32F0xx_HAL_Driver/Src/stm32f0xx_hal_i2c.c ****     hi2c->Instance->CR2 = (I2C_CR2_ADD10);
 145              		.loc 1 458 9
 146 0096 7B68     		ldr	r3, [r7, #4]
 147 0098 1B68     		ldr	r3, [r3]
 148              		.loc 1 458 25
 149 009a 8022     		movs	r2, #128
 150 009c 1201     		lsls	r2, r2, #4
 151 009e 5A60     		str	r2, [r3, #4]
 152              	.L7:
 459:Drivers/STM32F0xx_HAL_Driver/Src/stm32f0xx_hal_i2c.c ****   }
 460:Drivers/STM32F0xx_HAL_Driver/Src/stm32f0xx_hal_i2c.c ****   /* Enable the AUTOEND by default, and enable NACK (should be disable only during Slave process */
 461:Drivers/STM32F0xx_HAL_Driver/Src/stm32f0xx_hal_i2c.c ****   hi2c->Instance->CR2 |= (I2C_CR2_AUTOEND | I2C_CR2_NACK);
 153              		.loc 1 461 7
 154 00a0 7B68     		ldr	r3, [r7, #4]
 155 00a2 1B68     		ldr	r3, [r3]
 156              		.loc 1 461 23
 157 00a4 5A68     		ldr	r2, [r3, #4]
 158              		.loc 1 461 7
 159 00a6 7B68     		ldr	r3, [r7, #4]
 160 00a8 1B68     		ldr	r3, [r3]
 161              		.loc 1 461 23
 162 00aa 1F49     		ldr	r1, .L8+8
 163 00ac 0A43     		orrs	r2, r1
 164 00ae 5A60     		str	r2, [r3, #4]
 462:Drivers/STM32F0xx_HAL_Driver/Src/stm32f0xx_hal_i2c.c **** 
 463:Drivers/STM32F0xx_HAL_Driver/Src/stm32f0xx_hal_i2c.c ****   /*---------------------------- I2Cx OAR2 Configuration ---------------------*/
 464:Drivers/STM32F0xx_HAL_Driver/Src/stm32f0xx_hal_i2c.c ****   /* Disable Own Address2 before set the Own Address2 configuration */
ARM GAS  C:\Users\ADMINI~1\AppData\Local\Temp\cc3zYV2m.s 			page 12


 465:Drivers/STM32F0xx_HAL_Driver/Src/stm32f0xx_hal_i2c.c ****   hi2c->Instance->OAR2 &= ~I2C_DUALADDRESS_ENABLE;
 165              		.loc 1 465 7
 166 00b0 7B68     		ldr	r3, [r7, #4]
 167 00b2 1B68     		ldr	r3, [r3]
 168              		.loc 1 465 24
 169 00b4 DA68     		ldr	r2, [r3, #12]
 170              		.loc 1 465 7
 171 00b6 7B68     		ldr	r3, [r7, #4]
 172 00b8 1B68     		ldr	r3, [r3]
 173              		.loc 1 465 24
 174 00ba 1A49     		ldr	r1, .L8+4
 175 00bc 0A40     		ands	r2, r1
 176 00be DA60     		str	r2, [r3, #12]
 466:Drivers/STM32F0xx_HAL_Driver/Src/stm32f0xx_hal_i2c.c **** 
 467:Drivers/STM32F0xx_HAL_Driver/Src/stm32f0xx_hal_i2c.c ****   /* Configure I2Cx: Dual mode and Own Address2 */
 468:Drivers/STM32F0xx_HAL_Driver/Src/stm32f0xx_hal_i2c.c ****   hi2c->Instance->OAR2 = (hi2c->Init.DualAddressMode | hi2c->Init.OwnAddress2 | (hi2c->Init.OwnAddr
 177              		.loc 1 468 37
 178 00c0 7B68     		ldr	r3, [r7, #4]
 179 00c2 1A69     		ldr	r2, [r3, #16]
 180              		.loc 1 468 66
 181 00c4 7B68     		ldr	r3, [r7, #4]
 182 00c6 5B69     		ldr	r3, [r3, #20]
 183              		.loc 1 468 54
 184 00c8 1A43     		orrs	r2, r3
 185 00ca 1100     		movs	r1, r2
 186              		.loc 1 468 92
 187 00cc 7B68     		ldr	r3, [r7, #4]
 188 00ce 9B69     		ldr	r3, [r3, #24]
 189              		.loc 1 468 110
 190 00d0 1A02     		lsls	r2, r3, #8
 191              		.loc 1 468 7
 192 00d2 7B68     		ldr	r3, [r7, #4]
 193 00d4 1B68     		ldr	r3, [r3]
 194              		.loc 1 468 79
 195 00d6 0A43     		orrs	r2, r1
 196              		.loc 1 468 24
 197 00d8 DA60     		str	r2, [r3, #12]
 469:Drivers/STM32F0xx_HAL_Driver/Src/stm32f0xx_hal_i2c.c **** 
 470:Drivers/STM32F0xx_HAL_Driver/Src/stm32f0xx_hal_i2c.c ****   /*---------------------------- I2Cx CR1 Configuration ----------------------*/
 471:Drivers/STM32F0xx_HAL_Driver/Src/stm32f0xx_hal_i2c.c ****   /* Configure I2Cx: Generalcall and NoStretch mode */
 472:Drivers/STM32F0xx_HAL_Driver/Src/stm32f0xx_hal_i2c.c ****   hi2c->Instance->CR1 = (hi2c->Init.GeneralCallMode | hi2c->Init.NoStretchMode);
 198              		.loc 1 472 36
 199 00da 7B68     		ldr	r3, [r7, #4]
 200 00dc D969     		ldr	r1, [r3, #28]
 201              		.loc 1 472 65
 202 00de 7B68     		ldr	r3, [r7, #4]
 203 00e0 1A6A     		ldr	r2, [r3, #32]
 204              		.loc 1 472 7
 205 00e2 7B68     		ldr	r3, [r7, #4]
 206 00e4 1B68     		ldr	r3, [r3]
 207              		.loc 1 472 53
 208 00e6 0A43     		orrs	r2, r1
 209              		.loc 1 472 23
 210 00e8 1A60     		str	r2, [r3]
 473:Drivers/STM32F0xx_HAL_Driver/Src/stm32f0xx_hal_i2c.c **** 
 474:Drivers/STM32F0xx_HAL_Driver/Src/stm32f0xx_hal_i2c.c ****   /* Enable the selected I2C peripheral */
 475:Drivers/STM32F0xx_HAL_Driver/Src/stm32f0xx_hal_i2c.c ****   __HAL_I2C_ENABLE(hi2c);
ARM GAS  C:\Users\ADMINI~1\AppData\Local\Temp\cc3zYV2m.s 			page 13


 211              		.loc 1 475 3
 212 00ea 7B68     		ldr	r3, [r7, #4]
 213 00ec 1B68     		ldr	r3, [r3]
 214 00ee 1A68     		ldr	r2, [r3]
 215 00f0 7B68     		ldr	r3, [r7, #4]
 216 00f2 1B68     		ldr	r3, [r3]
 217 00f4 0121     		movs	r1, #1
 218 00f6 0A43     		orrs	r2, r1
 219 00f8 1A60     		str	r2, [r3]
 476:Drivers/STM32F0xx_HAL_Driver/Src/stm32f0xx_hal_i2c.c **** 
 477:Drivers/STM32F0xx_HAL_Driver/Src/stm32f0xx_hal_i2c.c ****   hi2c->ErrorCode = HAL_I2C_ERROR_NONE;
 220              		.loc 1 477 19
 221 00fa 7B68     		ldr	r3, [r7, #4]
 222 00fc 0022     		movs	r2, #0
 223 00fe 5A64     		str	r2, [r3, #68]
 478:Drivers/STM32F0xx_HAL_Driver/Src/stm32f0xx_hal_i2c.c ****   hi2c->State = HAL_I2C_STATE_READY;
 224              		.loc 1 478 15
 225 0100 7B68     		ldr	r3, [r7, #4]
 226 0102 4122     		movs	r2, #65
 227 0104 2021     		movs	r1, #32
 228 0106 9954     		strb	r1, [r3, r2]
 479:Drivers/STM32F0xx_HAL_Driver/Src/stm32f0xx_hal_i2c.c ****   hi2c->PreviousState = I2C_STATE_NONE;
 229              		.loc 1 479 23
 230 0108 7B68     		ldr	r3, [r7, #4]
 231 010a 0022     		movs	r2, #0
 232 010c 1A63     		str	r2, [r3, #48]
 480:Drivers/STM32F0xx_HAL_Driver/Src/stm32f0xx_hal_i2c.c ****   hi2c->Mode = HAL_I2C_MODE_NONE;
 233              		.loc 1 480 14
 234 010e 7B68     		ldr	r3, [r7, #4]
 235 0110 4222     		movs	r2, #66
 236 0112 0021     		movs	r1, #0
 237 0114 9954     		strb	r1, [r3, r2]
 481:Drivers/STM32F0xx_HAL_Driver/Src/stm32f0xx_hal_i2c.c **** 
 482:Drivers/STM32F0xx_HAL_Driver/Src/stm32f0xx_hal_i2c.c ****   return HAL_OK;
 238              		.loc 1 482 10
 239 0116 0023     		movs	r3, #0
 240              	.L3:
 483:Drivers/STM32F0xx_HAL_Driver/Src/stm32f0xx_hal_i2c.c **** }
 241              		.loc 1 483 1
 242 0118 1800     		movs	r0, r3
 243 011a BD46     		mov	sp, r7
 244 011c 02B0     		add	sp, sp, #8
 245              		@ sp needed
 246 011e 80BD     		pop	{r7, pc}
 247              	.L9:
 248              		.align	2
 249              	.L8:
 250 0120 FFFFFFF0 		.word	-251658241
 251 0124 FF7FFFFF 		.word	-32769
 252 0128 00800002 		.word	33587200
 253              		.cfi_endproc
 254              	.LFE37:
 256              		.section	.text.HAL_I2C_DeInit,"ax",%progbits
 257              		.align	1
 258              		.global	HAL_I2C_DeInit
 259              		.syntax unified
 260              		.code	16
ARM GAS  C:\Users\ADMINI~1\AppData\Local\Temp\cc3zYV2m.s 			page 14


 261              		.thumb_func
 262              		.fpu softvfp
 264              	HAL_I2C_DeInit:
 265              	.LFB38:
 484:Drivers/STM32F0xx_HAL_Driver/Src/stm32f0xx_hal_i2c.c **** 
 485:Drivers/STM32F0xx_HAL_Driver/Src/stm32f0xx_hal_i2c.c **** /**
 486:Drivers/STM32F0xx_HAL_Driver/Src/stm32f0xx_hal_i2c.c ****   * @brief  DeInitialize the I2C peripheral.
 487:Drivers/STM32F0xx_HAL_Driver/Src/stm32f0xx_hal_i2c.c ****   * @param  hi2c Pointer to a I2C_HandleTypeDef structure that contains
 488:Drivers/STM32F0xx_HAL_Driver/Src/stm32f0xx_hal_i2c.c ****   *                the configuration information for the specified I2C.
 489:Drivers/STM32F0xx_HAL_Driver/Src/stm32f0xx_hal_i2c.c ****   * @retval HAL status
 490:Drivers/STM32F0xx_HAL_Driver/Src/stm32f0xx_hal_i2c.c ****   */
 491:Drivers/STM32F0xx_HAL_Driver/Src/stm32f0xx_hal_i2c.c **** HAL_StatusTypeDef HAL_I2C_DeInit(I2C_HandleTypeDef *hi2c)
 492:Drivers/STM32F0xx_HAL_Driver/Src/stm32f0xx_hal_i2c.c **** {
 266              		.loc 1 492 1
 267              		.cfi_startproc
 268              		@ args = 0, pretend = 0, frame = 8
 269              		@ frame_needed = 1, uses_anonymous_args = 0
 270 0000 80B5     		push	{r7, lr}
 271              	.LCFI3:
 272              		.cfi_def_cfa_offset 8
 273              		.cfi_offset 7, -8
 274              		.cfi_offset 14, -4
 275 0002 82B0     		sub	sp, sp, #8
 276              	.LCFI4:
 277              		.cfi_def_cfa_offset 16
 278 0004 00AF     		add	r7, sp, #0
 279              	.LCFI5:
 280              		.cfi_def_cfa_register 7
 281 0006 7860     		str	r0, [r7, #4]
 493:Drivers/STM32F0xx_HAL_Driver/Src/stm32f0xx_hal_i2c.c ****   /* Check the I2C handle allocation */
 494:Drivers/STM32F0xx_HAL_Driver/Src/stm32f0xx_hal_i2c.c ****   if (hi2c == NULL)
 282              		.loc 1 494 6
 283 0008 7B68     		ldr	r3, [r7, #4]
 284 000a 002B     		cmp	r3, #0
 285 000c 01D1     		bne	.L11
 495:Drivers/STM32F0xx_HAL_Driver/Src/stm32f0xx_hal_i2c.c ****   {
 496:Drivers/STM32F0xx_HAL_Driver/Src/stm32f0xx_hal_i2c.c ****     return HAL_ERROR;
 286              		.loc 1 496 12
 287 000e 0123     		movs	r3, #1
 288 0010 22E0     		b	.L12
 289              	.L11:
 497:Drivers/STM32F0xx_HAL_Driver/Src/stm32f0xx_hal_i2c.c ****   }
 498:Drivers/STM32F0xx_HAL_Driver/Src/stm32f0xx_hal_i2c.c **** 
 499:Drivers/STM32F0xx_HAL_Driver/Src/stm32f0xx_hal_i2c.c ****   /* Check the parameters */
 500:Drivers/STM32F0xx_HAL_Driver/Src/stm32f0xx_hal_i2c.c ****   assert_param(IS_I2C_ALL_INSTANCE(hi2c->Instance));
 501:Drivers/STM32F0xx_HAL_Driver/Src/stm32f0xx_hal_i2c.c **** 
 502:Drivers/STM32F0xx_HAL_Driver/Src/stm32f0xx_hal_i2c.c ****   hi2c->State = HAL_I2C_STATE_BUSY;
 290              		.loc 1 502 15
 291 0012 7B68     		ldr	r3, [r7, #4]
 292 0014 4122     		movs	r2, #65
 293 0016 2421     		movs	r1, #36
 294 0018 9954     		strb	r1, [r3, r2]
 503:Drivers/STM32F0xx_HAL_Driver/Src/stm32f0xx_hal_i2c.c **** 
 504:Drivers/STM32F0xx_HAL_Driver/Src/stm32f0xx_hal_i2c.c ****   /* Disable the I2C Peripheral Clock */
 505:Drivers/STM32F0xx_HAL_Driver/Src/stm32f0xx_hal_i2c.c ****   __HAL_I2C_DISABLE(hi2c);
 295              		.loc 1 505 3
 296 001a 7B68     		ldr	r3, [r7, #4]
ARM GAS  C:\Users\ADMINI~1\AppData\Local\Temp\cc3zYV2m.s 			page 15


 297 001c 1B68     		ldr	r3, [r3]
 298 001e 1A68     		ldr	r2, [r3]
 299 0020 7B68     		ldr	r3, [r7, #4]
 300 0022 1B68     		ldr	r3, [r3]
 301 0024 0121     		movs	r1, #1
 302 0026 8A43     		bics	r2, r1
 303 0028 1A60     		str	r2, [r3]
 506:Drivers/STM32F0xx_HAL_Driver/Src/stm32f0xx_hal_i2c.c **** 
 507:Drivers/STM32F0xx_HAL_Driver/Src/stm32f0xx_hal_i2c.c ****   /* DeInit the low level hardware: GPIO, CLOCK, NVIC */
 508:Drivers/STM32F0xx_HAL_Driver/Src/stm32f0xx_hal_i2c.c ****   HAL_I2C_MspDeInit(hi2c);
 304              		.loc 1 508 3
 305 002a 7B68     		ldr	r3, [r7, #4]
 306 002c 1800     		movs	r0, r3
 307 002e FFF7FEFF 		bl	HAL_I2C_MspDeInit
 509:Drivers/STM32F0xx_HAL_Driver/Src/stm32f0xx_hal_i2c.c **** 
 510:Drivers/STM32F0xx_HAL_Driver/Src/stm32f0xx_hal_i2c.c ****   hi2c->ErrorCode = HAL_I2C_ERROR_NONE;
 308              		.loc 1 510 19
 309 0032 7B68     		ldr	r3, [r7, #4]
 310 0034 0022     		movs	r2, #0
 311 0036 5A64     		str	r2, [r3, #68]
 511:Drivers/STM32F0xx_HAL_Driver/Src/stm32f0xx_hal_i2c.c ****   hi2c->State = HAL_I2C_STATE_RESET;
 312              		.loc 1 511 15
 313 0038 7B68     		ldr	r3, [r7, #4]
 314 003a 4122     		movs	r2, #65
 315 003c 0021     		movs	r1, #0
 316 003e 9954     		strb	r1, [r3, r2]
 512:Drivers/STM32F0xx_HAL_Driver/Src/stm32f0xx_hal_i2c.c ****   hi2c->PreviousState = I2C_STATE_NONE;
 317              		.loc 1 512 23
 318 0040 7B68     		ldr	r3, [r7, #4]
 319 0042 0022     		movs	r2, #0
 320 0044 1A63     		str	r2, [r3, #48]
 513:Drivers/STM32F0xx_HAL_Driver/Src/stm32f0xx_hal_i2c.c ****   hi2c->Mode = HAL_I2C_MODE_NONE;
 321              		.loc 1 513 14
 322 0046 7B68     		ldr	r3, [r7, #4]
 323 0048 4222     		movs	r2, #66
 324 004a 0021     		movs	r1, #0
 325 004c 9954     		strb	r1, [r3, r2]
 514:Drivers/STM32F0xx_HAL_Driver/Src/stm32f0xx_hal_i2c.c **** 
 515:Drivers/STM32F0xx_HAL_Driver/Src/stm32f0xx_hal_i2c.c ****   /* Release Lock */
 516:Drivers/STM32F0xx_HAL_Driver/Src/stm32f0xx_hal_i2c.c ****   __HAL_UNLOCK(hi2c);
 326              		.loc 1 516 3
 327 004e 7B68     		ldr	r3, [r7, #4]
 328 0050 4022     		movs	r2, #64
 329 0052 0021     		movs	r1, #0
 330 0054 9954     		strb	r1, [r3, r2]
 517:Drivers/STM32F0xx_HAL_Driver/Src/stm32f0xx_hal_i2c.c **** 
 518:Drivers/STM32F0xx_HAL_Driver/Src/stm32f0xx_hal_i2c.c ****   return HAL_OK;
 331              		.loc 1 518 10
 332 0056 0023     		movs	r3, #0
 333              	.L12:
 519:Drivers/STM32F0xx_HAL_Driver/Src/stm32f0xx_hal_i2c.c **** }
 334              		.loc 1 519 1
 335 0058 1800     		movs	r0, r3
 336 005a BD46     		mov	sp, r7
 337 005c 02B0     		add	sp, sp, #8
 338              		@ sp needed
 339 005e 80BD     		pop	{r7, pc}
ARM GAS  C:\Users\ADMINI~1\AppData\Local\Temp\cc3zYV2m.s 			page 16


 340              		.cfi_endproc
 341              	.LFE38:
 343              		.section	.text.HAL_I2C_MspInit,"ax",%progbits
 344              		.align	1
 345              		.weak	HAL_I2C_MspInit
 346              		.syntax unified
 347              		.code	16
 348              		.thumb_func
 349              		.fpu softvfp
 351              	HAL_I2C_MspInit:
 352              	.LFB39:
 520:Drivers/STM32F0xx_HAL_Driver/Src/stm32f0xx_hal_i2c.c **** 
 521:Drivers/STM32F0xx_HAL_Driver/Src/stm32f0xx_hal_i2c.c **** /**
 522:Drivers/STM32F0xx_HAL_Driver/Src/stm32f0xx_hal_i2c.c ****   * @brief Initialize the I2C MSP.
 523:Drivers/STM32F0xx_HAL_Driver/Src/stm32f0xx_hal_i2c.c ****   * @param  hi2c Pointer to a I2C_HandleTypeDef structure that contains
 524:Drivers/STM32F0xx_HAL_Driver/Src/stm32f0xx_hal_i2c.c ****   *                the configuration information for the specified I2C.
 525:Drivers/STM32F0xx_HAL_Driver/Src/stm32f0xx_hal_i2c.c ****   * @retval None
 526:Drivers/STM32F0xx_HAL_Driver/Src/stm32f0xx_hal_i2c.c ****   */
 527:Drivers/STM32F0xx_HAL_Driver/Src/stm32f0xx_hal_i2c.c **** __weak void HAL_I2C_MspInit(I2C_HandleTypeDef *hi2c)
 528:Drivers/STM32F0xx_HAL_Driver/Src/stm32f0xx_hal_i2c.c **** {
 353              		.loc 1 528 1
 354              		.cfi_startproc
 355              		@ args = 0, pretend = 0, frame = 8
 356              		@ frame_needed = 1, uses_anonymous_args = 0
 357 0000 80B5     		push	{r7, lr}
 358              	.LCFI6:
 359              		.cfi_def_cfa_offset 8
 360              		.cfi_offset 7, -8
 361              		.cfi_offset 14, -4
 362 0002 82B0     		sub	sp, sp, #8
 363              	.LCFI7:
 364              		.cfi_def_cfa_offset 16
 365 0004 00AF     		add	r7, sp, #0
 366              	.LCFI8:
 367              		.cfi_def_cfa_register 7
 368 0006 7860     		str	r0, [r7, #4]
 529:Drivers/STM32F0xx_HAL_Driver/Src/stm32f0xx_hal_i2c.c ****   /* Prevent unused argument(s) compilation warning */
 530:Drivers/STM32F0xx_HAL_Driver/Src/stm32f0xx_hal_i2c.c ****   UNUSED(hi2c);
 531:Drivers/STM32F0xx_HAL_Driver/Src/stm32f0xx_hal_i2c.c **** 
 532:Drivers/STM32F0xx_HAL_Driver/Src/stm32f0xx_hal_i2c.c ****   /* NOTE : This function should not be modified, when the callback is needed,
 533:Drivers/STM32F0xx_HAL_Driver/Src/stm32f0xx_hal_i2c.c ****             the HAL_I2C_MspInit could be implemented in the user file
 534:Drivers/STM32F0xx_HAL_Driver/Src/stm32f0xx_hal_i2c.c ****    */
 535:Drivers/STM32F0xx_HAL_Driver/Src/stm32f0xx_hal_i2c.c **** }
 369              		.loc 1 535 1
 370 0008 C046     		nop
 371 000a BD46     		mov	sp, r7
 372 000c 02B0     		add	sp, sp, #8
 373              		@ sp needed
 374 000e 80BD     		pop	{r7, pc}
 375              		.cfi_endproc
 376              	.LFE39:
 378              		.section	.text.HAL_I2C_MspDeInit,"ax",%progbits
 379              		.align	1
 380              		.weak	HAL_I2C_MspDeInit
 381              		.syntax unified
 382              		.code	16
 383              		.thumb_func
ARM GAS  C:\Users\ADMINI~1\AppData\Local\Temp\cc3zYV2m.s 			page 17


 384              		.fpu softvfp
 386              	HAL_I2C_MspDeInit:
 387              	.LFB40:
 536:Drivers/STM32F0xx_HAL_Driver/Src/stm32f0xx_hal_i2c.c **** 
 537:Drivers/STM32F0xx_HAL_Driver/Src/stm32f0xx_hal_i2c.c **** /**
 538:Drivers/STM32F0xx_HAL_Driver/Src/stm32f0xx_hal_i2c.c ****   * @brief DeInitialize the I2C MSP.
 539:Drivers/STM32F0xx_HAL_Driver/Src/stm32f0xx_hal_i2c.c ****   * @param  hi2c Pointer to a I2C_HandleTypeDef structure that contains
 540:Drivers/STM32F0xx_HAL_Driver/Src/stm32f0xx_hal_i2c.c ****   *                the configuration information for the specified I2C.
 541:Drivers/STM32F0xx_HAL_Driver/Src/stm32f0xx_hal_i2c.c ****   * @retval None
 542:Drivers/STM32F0xx_HAL_Driver/Src/stm32f0xx_hal_i2c.c ****   */
 543:Drivers/STM32F0xx_HAL_Driver/Src/stm32f0xx_hal_i2c.c **** __weak void HAL_I2C_MspDeInit(I2C_HandleTypeDef *hi2c)
 544:Drivers/STM32F0xx_HAL_Driver/Src/stm32f0xx_hal_i2c.c **** {
 388              		.loc 1 544 1
 389              		.cfi_startproc
 390              		@ args = 0, pretend = 0, frame = 8
 391              		@ frame_needed = 1, uses_anonymous_args = 0
 392 0000 80B5     		push	{r7, lr}
 393              	.LCFI9:
 394              		.cfi_def_cfa_offset 8
 395              		.cfi_offset 7, -8
 396              		.cfi_offset 14, -4
 397 0002 82B0     		sub	sp, sp, #8
 398              	.LCFI10:
 399              		.cfi_def_cfa_offset 16
 400 0004 00AF     		add	r7, sp, #0
 401              	.LCFI11:
 402              		.cfi_def_cfa_register 7
 403 0006 7860     		str	r0, [r7, #4]
 545:Drivers/STM32F0xx_HAL_Driver/Src/stm32f0xx_hal_i2c.c ****   /* Prevent unused argument(s) compilation warning */
 546:Drivers/STM32F0xx_HAL_Driver/Src/stm32f0xx_hal_i2c.c ****   UNUSED(hi2c);
 547:Drivers/STM32F0xx_HAL_Driver/Src/stm32f0xx_hal_i2c.c **** 
 548:Drivers/STM32F0xx_HAL_Driver/Src/stm32f0xx_hal_i2c.c ****   /* NOTE : This function should not be modified, when the callback is needed,
 549:Drivers/STM32F0xx_HAL_Driver/Src/stm32f0xx_hal_i2c.c ****             the HAL_I2C_MspDeInit could be implemented in the user file
 550:Drivers/STM32F0xx_HAL_Driver/Src/stm32f0xx_hal_i2c.c ****    */
 551:Drivers/STM32F0xx_HAL_Driver/Src/stm32f0xx_hal_i2c.c **** }
 404              		.loc 1 551 1
 405 0008 C046     		nop
 406 000a BD46     		mov	sp, r7
 407 000c 02B0     		add	sp, sp, #8
 408              		@ sp needed
 409 000e 80BD     		pop	{r7, pc}
 410              		.cfi_endproc
 411              	.LFE40:
 413              		.section	.text.HAL_I2C_Master_Transmit,"ax",%progbits
 414              		.align	1
 415              		.global	HAL_I2C_Master_Transmit
 416              		.syntax unified
 417              		.code	16
 418              		.thumb_func
 419              		.fpu softvfp
 421              	HAL_I2C_Master_Transmit:
 422              	.LFB41:
 552:Drivers/STM32F0xx_HAL_Driver/Src/stm32f0xx_hal_i2c.c **** 
 553:Drivers/STM32F0xx_HAL_Driver/Src/stm32f0xx_hal_i2c.c **** /**
 554:Drivers/STM32F0xx_HAL_Driver/Src/stm32f0xx_hal_i2c.c ****   * @}
 555:Drivers/STM32F0xx_HAL_Driver/Src/stm32f0xx_hal_i2c.c ****   */
 556:Drivers/STM32F0xx_HAL_Driver/Src/stm32f0xx_hal_i2c.c **** 
ARM GAS  C:\Users\ADMINI~1\AppData\Local\Temp\cc3zYV2m.s 			page 18


 557:Drivers/STM32F0xx_HAL_Driver/Src/stm32f0xx_hal_i2c.c **** /** @defgroup I2C_Exported_Functions_Group2 Input and Output operation functions
 558:Drivers/STM32F0xx_HAL_Driver/Src/stm32f0xx_hal_i2c.c ****  *  @brief   Data transfers functions
 559:Drivers/STM32F0xx_HAL_Driver/Src/stm32f0xx_hal_i2c.c ****  *
 560:Drivers/STM32F0xx_HAL_Driver/Src/stm32f0xx_hal_i2c.c **** @verbatim
 561:Drivers/STM32F0xx_HAL_Driver/Src/stm32f0xx_hal_i2c.c ****  ===============================================================================
 562:Drivers/STM32F0xx_HAL_Driver/Src/stm32f0xx_hal_i2c.c ****                       ##### IO operation functions #####
 563:Drivers/STM32F0xx_HAL_Driver/Src/stm32f0xx_hal_i2c.c ****  ===============================================================================
 564:Drivers/STM32F0xx_HAL_Driver/Src/stm32f0xx_hal_i2c.c ****     [..]
 565:Drivers/STM32F0xx_HAL_Driver/Src/stm32f0xx_hal_i2c.c ****     This subsection provides a set of functions allowing to manage the I2C data
 566:Drivers/STM32F0xx_HAL_Driver/Src/stm32f0xx_hal_i2c.c ****     transfers.
 567:Drivers/STM32F0xx_HAL_Driver/Src/stm32f0xx_hal_i2c.c **** 
 568:Drivers/STM32F0xx_HAL_Driver/Src/stm32f0xx_hal_i2c.c ****     (#) There are two modes of transfer:
 569:Drivers/STM32F0xx_HAL_Driver/Src/stm32f0xx_hal_i2c.c ****        (++) Blocking mode : The communication is performed in the polling mode.
 570:Drivers/STM32F0xx_HAL_Driver/Src/stm32f0xx_hal_i2c.c ****             The status of all data processing is returned by the same function
 571:Drivers/STM32F0xx_HAL_Driver/Src/stm32f0xx_hal_i2c.c ****             after finishing transfer.
 572:Drivers/STM32F0xx_HAL_Driver/Src/stm32f0xx_hal_i2c.c ****        (++) No-Blocking mode : The communication is performed using Interrupts
 573:Drivers/STM32F0xx_HAL_Driver/Src/stm32f0xx_hal_i2c.c ****             or DMA. These functions return the status of the transfer startup.
 574:Drivers/STM32F0xx_HAL_Driver/Src/stm32f0xx_hal_i2c.c ****             The end of the data processing will be indicated through the
 575:Drivers/STM32F0xx_HAL_Driver/Src/stm32f0xx_hal_i2c.c ****             dedicated I2C IRQ when using Interrupt mode or the DMA IRQ when
 576:Drivers/STM32F0xx_HAL_Driver/Src/stm32f0xx_hal_i2c.c ****             using DMA mode.
 577:Drivers/STM32F0xx_HAL_Driver/Src/stm32f0xx_hal_i2c.c **** 
 578:Drivers/STM32F0xx_HAL_Driver/Src/stm32f0xx_hal_i2c.c ****     (#) Blocking mode functions are :
 579:Drivers/STM32F0xx_HAL_Driver/Src/stm32f0xx_hal_i2c.c ****         (++) HAL_I2C_Master_Transmit()
 580:Drivers/STM32F0xx_HAL_Driver/Src/stm32f0xx_hal_i2c.c ****         (++) HAL_I2C_Master_Receive()
 581:Drivers/STM32F0xx_HAL_Driver/Src/stm32f0xx_hal_i2c.c ****         (++) HAL_I2C_Slave_Transmit()
 582:Drivers/STM32F0xx_HAL_Driver/Src/stm32f0xx_hal_i2c.c ****         (++) HAL_I2C_Slave_Receive()
 583:Drivers/STM32F0xx_HAL_Driver/Src/stm32f0xx_hal_i2c.c ****         (++) HAL_I2C_Mem_Write()
 584:Drivers/STM32F0xx_HAL_Driver/Src/stm32f0xx_hal_i2c.c ****         (++) HAL_I2C_Mem_Read()
 585:Drivers/STM32F0xx_HAL_Driver/Src/stm32f0xx_hal_i2c.c ****         (++) HAL_I2C_IsDeviceReady()
 586:Drivers/STM32F0xx_HAL_Driver/Src/stm32f0xx_hal_i2c.c **** 
 587:Drivers/STM32F0xx_HAL_Driver/Src/stm32f0xx_hal_i2c.c ****     (#) No-Blocking mode functions with Interrupt are :
 588:Drivers/STM32F0xx_HAL_Driver/Src/stm32f0xx_hal_i2c.c ****         (++) HAL_I2C_Master_Transmit_IT()
 589:Drivers/STM32F0xx_HAL_Driver/Src/stm32f0xx_hal_i2c.c ****         (++) HAL_I2C_Master_Receive_IT()
 590:Drivers/STM32F0xx_HAL_Driver/Src/stm32f0xx_hal_i2c.c ****         (++) HAL_I2C_Slave_Transmit_IT()
 591:Drivers/STM32F0xx_HAL_Driver/Src/stm32f0xx_hal_i2c.c ****         (++) HAL_I2C_Slave_Receive_IT()
 592:Drivers/STM32F0xx_HAL_Driver/Src/stm32f0xx_hal_i2c.c ****         (++) HAL_I2C_Mem_Write_IT()
 593:Drivers/STM32F0xx_HAL_Driver/Src/stm32f0xx_hal_i2c.c ****         (++) HAL_I2C_Mem_Read_IT()
 594:Drivers/STM32F0xx_HAL_Driver/Src/stm32f0xx_hal_i2c.c **** 
 595:Drivers/STM32F0xx_HAL_Driver/Src/stm32f0xx_hal_i2c.c ****     (#) No-Blocking mode functions with DMA are :
 596:Drivers/STM32F0xx_HAL_Driver/Src/stm32f0xx_hal_i2c.c ****         (++) HAL_I2C_Master_Transmit_DMA()
 597:Drivers/STM32F0xx_HAL_Driver/Src/stm32f0xx_hal_i2c.c ****         (++) HAL_I2C_Master_Receive_DMA()
 598:Drivers/STM32F0xx_HAL_Driver/Src/stm32f0xx_hal_i2c.c ****         (++) HAL_I2C_Slave_Transmit_DMA()
 599:Drivers/STM32F0xx_HAL_Driver/Src/stm32f0xx_hal_i2c.c ****         (++) HAL_I2C_Slave_Receive_DMA()
 600:Drivers/STM32F0xx_HAL_Driver/Src/stm32f0xx_hal_i2c.c ****         (++) HAL_I2C_Mem_Write_DMA()
 601:Drivers/STM32F0xx_HAL_Driver/Src/stm32f0xx_hal_i2c.c ****         (++) HAL_I2C_Mem_Read_DMA()
 602:Drivers/STM32F0xx_HAL_Driver/Src/stm32f0xx_hal_i2c.c **** 
 603:Drivers/STM32F0xx_HAL_Driver/Src/stm32f0xx_hal_i2c.c ****     (#) A set of Transfer Complete Callbacks are provided in non Blocking mode:
 604:Drivers/STM32F0xx_HAL_Driver/Src/stm32f0xx_hal_i2c.c ****         (++) HAL_I2C_MemTxCpltCallback()
 605:Drivers/STM32F0xx_HAL_Driver/Src/stm32f0xx_hal_i2c.c ****         (++) HAL_I2C_MemRxCpltCallback()
 606:Drivers/STM32F0xx_HAL_Driver/Src/stm32f0xx_hal_i2c.c ****         (++) HAL_I2C_MasterTxCpltCallback()
 607:Drivers/STM32F0xx_HAL_Driver/Src/stm32f0xx_hal_i2c.c ****         (++) HAL_I2C_MasterRxCpltCallback()
 608:Drivers/STM32F0xx_HAL_Driver/Src/stm32f0xx_hal_i2c.c ****         (++) HAL_I2C_SlaveTxCpltCallback()
 609:Drivers/STM32F0xx_HAL_Driver/Src/stm32f0xx_hal_i2c.c ****         (++) HAL_I2C_SlaveRxCpltCallback()
 610:Drivers/STM32F0xx_HAL_Driver/Src/stm32f0xx_hal_i2c.c ****         (++) HAL_I2C_ErrorCallback()
 611:Drivers/STM32F0xx_HAL_Driver/Src/stm32f0xx_hal_i2c.c **** 
 612:Drivers/STM32F0xx_HAL_Driver/Src/stm32f0xx_hal_i2c.c **** @endverbatim
 613:Drivers/STM32F0xx_HAL_Driver/Src/stm32f0xx_hal_i2c.c ****   * @{
ARM GAS  C:\Users\ADMINI~1\AppData\Local\Temp\cc3zYV2m.s 			page 19


 614:Drivers/STM32F0xx_HAL_Driver/Src/stm32f0xx_hal_i2c.c ****   */
 615:Drivers/STM32F0xx_HAL_Driver/Src/stm32f0xx_hal_i2c.c **** 
 616:Drivers/STM32F0xx_HAL_Driver/Src/stm32f0xx_hal_i2c.c **** /**
 617:Drivers/STM32F0xx_HAL_Driver/Src/stm32f0xx_hal_i2c.c ****   * @brief  Transmits in master mode an amount of data in blocking mode.
 618:Drivers/STM32F0xx_HAL_Driver/Src/stm32f0xx_hal_i2c.c ****   * @param  hi2c Pointer to a I2C_HandleTypeDef structure that contains
 619:Drivers/STM32F0xx_HAL_Driver/Src/stm32f0xx_hal_i2c.c ****   *                the configuration information for the specified I2C.
 620:Drivers/STM32F0xx_HAL_Driver/Src/stm32f0xx_hal_i2c.c ****   * @param  DevAddress Target device address: The device 7 bits address value
 621:Drivers/STM32F0xx_HAL_Driver/Src/stm32f0xx_hal_i2c.c ****   *         in datasheet must be shift at right before call interface
 622:Drivers/STM32F0xx_HAL_Driver/Src/stm32f0xx_hal_i2c.c ****   * @param  pData Pointer to data buffer
 623:Drivers/STM32F0xx_HAL_Driver/Src/stm32f0xx_hal_i2c.c ****   * @param  Size Amount of data to be sent
 624:Drivers/STM32F0xx_HAL_Driver/Src/stm32f0xx_hal_i2c.c ****   * @param  Timeout Timeout duration
 625:Drivers/STM32F0xx_HAL_Driver/Src/stm32f0xx_hal_i2c.c ****   * @retval HAL status
 626:Drivers/STM32F0xx_HAL_Driver/Src/stm32f0xx_hal_i2c.c ****   */
 627:Drivers/STM32F0xx_HAL_Driver/Src/stm32f0xx_hal_i2c.c **** HAL_StatusTypeDef HAL_I2C_Master_Transmit(I2C_HandleTypeDef *hi2c, uint16_t DevAddress, uint8_t *pD
 628:Drivers/STM32F0xx_HAL_Driver/Src/stm32f0xx_hal_i2c.c **** {
 423              		.loc 1 628 1
 424              		.cfi_startproc
 425              		@ args = 4, pretend = 0, frame = 24
 426              		@ frame_needed = 1, uses_anonymous_args = 0
 427 0000 90B5     		push	{r4, r7, lr}
 428              	.LCFI12:
 429              		.cfi_def_cfa_offset 12
 430              		.cfi_offset 4, -12
 431              		.cfi_offset 7, -8
 432              		.cfi_offset 14, -4
 433 0002 89B0     		sub	sp, sp, #36
 434              	.LCFI13:
 435              		.cfi_def_cfa_offset 48
 436 0004 02AF     		add	r7, sp, #8
 437              	.LCFI14:
 438              		.cfi_def_cfa 7, 40
 439 0006 F860     		str	r0, [r7, #12]
 440 0008 0800     		movs	r0, r1
 441 000a 7A60     		str	r2, [r7, #4]
 442 000c 1900     		movs	r1, r3
 443 000e 0A23     		movs	r3, #10
 444 0010 FB18     		adds	r3, r7, r3
 445 0012 021C     		adds	r2, r0, #0
 446 0014 1A80     		strh	r2, [r3]
 447 0016 0823     		movs	r3, #8
 448 0018 FB18     		adds	r3, r7, r3
 449 001a 0A1C     		adds	r2, r1, #0
 450 001c 1A80     		strh	r2, [r3]
 629:Drivers/STM32F0xx_HAL_Driver/Src/stm32f0xx_hal_i2c.c ****   uint32_t tickstart = 0U;
 451              		.loc 1 629 12
 452 001e 0023     		movs	r3, #0
 453 0020 7B61     		str	r3, [r7, #20]
 630:Drivers/STM32F0xx_HAL_Driver/Src/stm32f0xx_hal_i2c.c **** 
 631:Drivers/STM32F0xx_HAL_Driver/Src/stm32f0xx_hal_i2c.c ****   if (hi2c->State == HAL_I2C_STATE_READY)
 454              		.loc 1 631 11
 455 0022 FB68     		ldr	r3, [r7, #12]
 456 0024 4122     		movs	r2, #65
 457 0026 9B5C     		ldrb	r3, [r3, r2]
 458 0028 DBB2     		uxtb	r3, r3
 459              		.loc 1 631 6
 460 002a 202B     		cmp	r3, #32
 461 002c 00D0     		beq	.LCB344
ARM GAS  C:\Users\ADMINI~1\AppData\Local\Temp\cc3zYV2m.s 			page 20


 462 002e F3E0     		b	.L16	@long jump
 463              	.LCB344:
 632:Drivers/STM32F0xx_HAL_Driver/Src/stm32f0xx_hal_i2c.c ****   {
 633:Drivers/STM32F0xx_HAL_Driver/Src/stm32f0xx_hal_i2c.c ****     /* Process Locked */
 634:Drivers/STM32F0xx_HAL_Driver/Src/stm32f0xx_hal_i2c.c ****     __HAL_LOCK(hi2c);
 464              		.loc 1 634 5
 465 0030 FB68     		ldr	r3, [r7, #12]
 466 0032 4022     		movs	r2, #64
 467 0034 9B5C     		ldrb	r3, [r3, r2]
 468 0036 012B     		cmp	r3, #1
 469 0038 01D1     		bne	.L17
 470              		.loc 1 634 5 is_stmt 0 discriminator 1
 471 003a 0223     		movs	r3, #2
 472 003c EDE0     		b	.L18
 473              	.L17:
 474              		.loc 1 634 5 discriminator 2
 475 003e FB68     		ldr	r3, [r7, #12]
 476 0040 4022     		movs	r2, #64
 477 0042 0121     		movs	r1, #1
 478 0044 9954     		strb	r1, [r3, r2]
 635:Drivers/STM32F0xx_HAL_Driver/Src/stm32f0xx_hal_i2c.c **** 
 636:Drivers/STM32F0xx_HAL_Driver/Src/stm32f0xx_hal_i2c.c ****     /* Init tickstart for timeout management*/
 637:Drivers/STM32F0xx_HAL_Driver/Src/stm32f0xx_hal_i2c.c ****     tickstart = HAL_GetTick();
 479              		.loc 1 637 17 is_stmt 1 discriminator 2
 480 0046 FFF7FEFF 		bl	HAL_GetTick
 481 004a 0300     		movs	r3, r0
 482 004c 7B61     		str	r3, [r7, #20]
 638:Drivers/STM32F0xx_HAL_Driver/Src/stm32f0xx_hal_i2c.c **** 
 639:Drivers/STM32F0xx_HAL_Driver/Src/stm32f0xx_hal_i2c.c ****     if (I2C_WaitOnFlagUntilTimeout(hi2c, I2C_FLAG_BUSY, SET, I2C_TIMEOUT_BUSY, tickstart) != HAL_OK
 483              		.loc 1 639 9 discriminator 2
 484 004e 8023     		movs	r3, #128
 485 0050 1902     		lsls	r1, r3, #8
 486 0052 F868     		ldr	r0, [r7, #12]
 487 0054 7B69     		ldr	r3, [r7, #20]
 488 0056 0093     		str	r3, [sp]
 489 0058 1923     		movs	r3, #25
 490 005a 0122     		movs	r2, #1
 491 005c FFF7FEFF 		bl	I2C_WaitOnFlagUntilTimeout
 492 0060 031E     		subs	r3, r0, #0
 493              		.loc 1 639 8 discriminator 2
 494 0062 01D0     		beq	.L19
 640:Drivers/STM32F0xx_HAL_Driver/Src/stm32f0xx_hal_i2c.c ****     {
 641:Drivers/STM32F0xx_HAL_Driver/Src/stm32f0xx_hal_i2c.c ****       return HAL_TIMEOUT;
 495              		.loc 1 641 14
 496 0064 0323     		movs	r3, #3
 497 0066 D8E0     		b	.L18
 498              	.L19:
 642:Drivers/STM32F0xx_HAL_Driver/Src/stm32f0xx_hal_i2c.c ****     }
 643:Drivers/STM32F0xx_HAL_Driver/Src/stm32f0xx_hal_i2c.c **** 
 644:Drivers/STM32F0xx_HAL_Driver/Src/stm32f0xx_hal_i2c.c ****     hi2c->State     = HAL_I2C_STATE_BUSY_TX;
 499              		.loc 1 644 21
 500 0068 FB68     		ldr	r3, [r7, #12]
 501 006a 4122     		movs	r2, #65
 502 006c 2121     		movs	r1, #33
 503 006e 9954     		strb	r1, [r3, r2]
 645:Drivers/STM32F0xx_HAL_Driver/Src/stm32f0xx_hal_i2c.c ****     hi2c->Mode      = HAL_I2C_MODE_MASTER;
 504              		.loc 1 645 21
ARM GAS  C:\Users\ADMINI~1\AppData\Local\Temp\cc3zYV2m.s 			page 21


 505 0070 FB68     		ldr	r3, [r7, #12]
 506 0072 4222     		movs	r2, #66
 507 0074 1021     		movs	r1, #16
 508 0076 9954     		strb	r1, [r3, r2]
 646:Drivers/STM32F0xx_HAL_Driver/Src/stm32f0xx_hal_i2c.c ****     hi2c->ErrorCode = HAL_I2C_ERROR_NONE;
 509              		.loc 1 646 21
 510 0078 FB68     		ldr	r3, [r7, #12]
 511 007a 0022     		movs	r2, #0
 512 007c 5A64     		str	r2, [r3, #68]
 647:Drivers/STM32F0xx_HAL_Driver/Src/stm32f0xx_hal_i2c.c **** 
 648:Drivers/STM32F0xx_HAL_Driver/Src/stm32f0xx_hal_i2c.c ****     /* Prepare transfer parameters */
 649:Drivers/STM32F0xx_HAL_Driver/Src/stm32f0xx_hal_i2c.c ****     hi2c->pBuffPtr  = pData;
 513              		.loc 1 649 21
 514 007e FB68     		ldr	r3, [r7, #12]
 515 0080 7A68     		ldr	r2, [r7, #4]
 516 0082 5A62     		str	r2, [r3, #36]
 650:Drivers/STM32F0xx_HAL_Driver/Src/stm32f0xx_hal_i2c.c ****     hi2c->XferCount = Size;
 517              		.loc 1 650 21
 518 0084 FB68     		ldr	r3, [r7, #12]
 519 0086 0822     		movs	r2, #8
 520 0088 BA18     		adds	r2, r7, r2
 521 008a 1288     		ldrh	r2, [r2]
 522 008c 5A85     		strh	r2, [r3, #42]
 651:Drivers/STM32F0xx_HAL_Driver/Src/stm32f0xx_hal_i2c.c ****     hi2c->XferISR   = NULL;
 523              		.loc 1 651 21
 524 008e FB68     		ldr	r3, [r7, #12]
 525 0090 0022     		movs	r2, #0
 526 0092 5A63     		str	r2, [r3, #52]
 652:Drivers/STM32F0xx_HAL_Driver/Src/stm32f0xx_hal_i2c.c **** 
 653:Drivers/STM32F0xx_HAL_Driver/Src/stm32f0xx_hal_i2c.c ****     /* Send Slave Address */
 654:Drivers/STM32F0xx_HAL_Driver/Src/stm32f0xx_hal_i2c.c ****     /* Set NBYTES to write and reload if hi2c->XferCount > MAX_NBYTE_SIZE and generate RESTART */
 655:Drivers/STM32F0xx_HAL_Driver/Src/stm32f0xx_hal_i2c.c ****     if (hi2c->XferCount > MAX_NBYTE_SIZE)
 527              		.loc 1 655 13
 528 0094 FB68     		ldr	r3, [r7, #12]
 529 0096 5B8D     		ldrh	r3, [r3, #42]
 530 0098 9BB2     		uxth	r3, r3
 531              		.loc 1 655 8
 532 009a FF2B     		cmp	r3, #255
 533 009c 12D9     		bls	.L20
 656:Drivers/STM32F0xx_HAL_Driver/Src/stm32f0xx_hal_i2c.c ****     {
 657:Drivers/STM32F0xx_HAL_Driver/Src/stm32f0xx_hal_i2c.c ****       hi2c->XferSize = MAX_NBYTE_SIZE;
 534              		.loc 1 657 22
 535 009e FB68     		ldr	r3, [r7, #12]
 536 00a0 FF22     		movs	r2, #255
 537 00a2 1A85     		strh	r2, [r3, #40]
 658:Drivers/STM32F0xx_HAL_Driver/Src/stm32f0xx_hal_i2c.c ****       I2C_TransferConfig(hi2c, DevAddress, hi2c->XferSize, I2C_RELOAD_MODE, I2C_GENERATE_START_WRIT
 538              		.loc 1 658 48
 539 00a4 FB68     		ldr	r3, [r7, #12]
 540 00a6 1B8D     		ldrh	r3, [r3, #40]
 541              		.loc 1 658 7
 542 00a8 DAB2     		uxtb	r2, r3
 543 00aa 8023     		movs	r3, #128
 544 00ac 5C04     		lsls	r4, r3, #17
 545 00ae 0A23     		movs	r3, #10
 546 00b0 FB18     		adds	r3, r7, r3
 547 00b2 1988     		ldrh	r1, [r3]
 548 00b4 F868     		ldr	r0, [r7, #12]
ARM GAS  C:\Users\ADMINI~1\AppData\Local\Temp\cc3zYV2m.s 			page 22


 549 00b6 8023     		movs	r3, #128
 550 00b8 9B01     		lsls	r3, r3, #6
 551 00ba 0093     		str	r3, [sp]
 552 00bc 2300     		movs	r3, r4
 553 00be FFF7FEFF 		bl	I2C_TransferConfig
 554 00c2 7AE0     		b	.L22
 555              	.L20:
 659:Drivers/STM32F0xx_HAL_Driver/Src/stm32f0xx_hal_i2c.c ****     }
 660:Drivers/STM32F0xx_HAL_Driver/Src/stm32f0xx_hal_i2c.c ****     else
 661:Drivers/STM32F0xx_HAL_Driver/Src/stm32f0xx_hal_i2c.c ****     {
 662:Drivers/STM32F0xx_HAL_Driver/Src/stm32f0xx_hal_i2c.c ****       hi2c->XferSize = hi2c->XferCount;
 556              		.loc 1 662 28
 557 00c4 FB68     		ldr	r3, [r7, #12]
 558 00c6 5B8D     		ldrh	r3, [r3, #42]
 559 00c8 9AB2     		uxth	r2, r3
 560              		.loc 1 662 22
 561 00ca FB68     		ldr	r3, [r7, #12]
 562 00cc 1A85     		strh	r2, [r3, #40]
 663:Drivers/STM32F0xx_HAL_Driver/Src/stm32f0xx_hal_i2c.c ****       I2C_TransferConfig(hi2c, DevAddress, hi2c->XferSize, I2C_AUTOEND_MODE, I2C_GENERATE_START_WRI
 563              		.loc 1 663 48
 564 00ce FB68     		ldr	r3, [r7, #12]
 565 00d0 1B8D     		ldrh	r3, [r3, #40]
 566              		.loc 1 663 7
 567 00d2 DAB2     		uxtb	r2, r3
 568 00d4 8023     		movs	r3, #128
 569 00d6 9C04     		lsls	r4, r3, #18
 570 00d8 0A23     		movs	r3, #10
 571 00da FB18     		adds	r3, r7, r3
 572 00dc 1988     		ldrh	r1, [r3]
 573 00de F868     		ldr	r0, [r7, #12]
 574 00e0 8023     		movs	r3, #128
 575 00e2 9B01     		lsls	r3, r3, #6
 576 00e4 0093     		str	r3, [sp]
 577 00e6 2300     		movs	r3, r4
 578 00e8 FFF7FEFF 		bl	I2C_TransferConfig
 664:Drivers/STM32F0xx_HAL_Driver/Src/stm32f0xx_hal_i2c.c ****     }
 665:Drivers/STM32F0xx_HAL_Driver/Src/stm32f0xx_hal_i2c.c **** 
 666:Drivers/STM32F0xx_HAL_Driver/Src/stm32f0xx_hal_i2c.c ****     while (hi2c->XferCount > 0U)
 579              		.loc 1 666 11
 580 00ec 65E0     		b	.L22
 581              	.L27:
 667:Drivers/STM32F0xx_HAL_Driver/Src/stm32f0xx_hal_i2c.c ****     {
 668:Drivers/STM32F0xx_HAL_Driver/Src/stm32f0xx_hal_i2c.c ****       /* Wait until TXIS flag is set */
 669:Drivers/STM32F0xx_HAL_Driver/Src/stm32f0xx_hal_i2c.c ****       if (I2C_WaitOnTXISFlagUntilTimeout(hi2c, Timeout, tickstart) != HAL_OK)
 582              		.loc 1 669 11
 583 00ee 7A69     		ldr	r2, [r7, #20]
 584 00f0 B96A     		ldr	r1, [r7, #40]
 585 00f2 FB68     		ldr	r3, [r7, #12]
 586 00f4 1800     		movs	r0, r3
 587 00f6 FFF7FEFF 		bl	I2C_WaitOnTXISFlagUntilTimeout
 588 00fa 031E     		subs	r3, r0, #0
 589              		.loc 1 669 10
 590 00fc 07D0     		beq	.L23
 670:Drivers/STM32F0xx_HAL_Driver/Src/stm32f0xx_hal_i2c.c ****       {
 671:Drivers/STM32F0xx_HAL_Driver/Src/stm32f0xx_hal_i2c.c ****         if (hi2c->ErrorCode == HAL_I2C_ERROR_AF)
 591              		.loc 1 671 17
 592 00fe FB68     		ldr	r3, [r7, #12]
ARM GAS  C:\Users\ADMINI~1\AppData\Local\Temp\cc3zYV2m.s 			page 23


 593 0100 5B6C     		ldr	r3, [r3, #68]
 594              		.loc 1 671 12
 595 0102 042B     		cmp	r3, #4
 596 0104 01D1     		bne	.L24
 672:Drivers/STM32F0xx_HAL_Driver/Src/stm32f0xx_hal_i2c.c ****         {
 673:Drivers/STM32F0xx_HAL_Driver/Src/stm32f0xx_hal_i2c.c ****           return HAL_ERROR;
 597              		.loc 1 673 18
 598 0106 0123     		movs	r3, #1
 599 0108 87E0     		b	.L18
 600              	.L24:
 674:Drivers/STM32F0xx_HAL_Driver/Src/stm32f0xx_hal_i2c.c ****         }
 675:Drivers/STM32F0xx_HAL_Driver/Src/stm32f0xx_hal_i2c.c ****         else
 676:Drivers/STM32F0xx_HAL_Driver/Src/stm32f0xx_hal_i2c.c ****         {
 677:Drivers/STM32F0xx_HAL_Driver/Src/stm32f0xx_hal_i2c.c ****           return HAL_TIMEOUT;
 601              		.loc 1 677 18
 602 010a 0323     		movs	r3, #3
 603 010c 85E0     		b	.L18
 604              	.L23:
 678:Drivers/STM32F0xx_HAL_Driver/Src/stm32f0xx_hal_i2c.c ****         }
 679:Drivers/STM32F0xx_HAL_Driver/Src/stm32f0xx_hal_i2c.c ****       }
 680:Drivers/STM32F0xx_HAL_Driver/Src/stm32f0xx_hal_i2c.c ****       /* Write data to TXDR */
 681:Drivers/STM32F0xx_HAL_Driver/Src/stm32f0xx_hal_i2c.c ****       hi2c->Instance->TXDR = (*hi2c->pBuffPtr++);
 605              		.loc 1 681 36
 606 010e FB68     		ldr	r3, [r7, #12]
 607 0110 5B6A     		ldr	r3, [r3, #36]
 608              		.loc 1 681 46
 609 0112 591C     		adds	r1, r3, #1
 610 0114 FA68     		ldr	r2, [r7, #12]
 611 0116 5162     		str	r1, [r2, #36]
 612              		.loc 1 681 31
 613 0118 1A78     		ldrb	r2, [r3]
 614              		.loc 1 681 11
 615 011a FB68     		ldr	r3, [r7, #12]
 616 011c 1B68     		ldr	r3, [r3]
 617              		.loc 1 681 28
 618 011e 9A62     		str	r2, [r3, #40]
 682:Drivers/STM32F0xx_HAL_Driver/Src/stm32f0xx_hal_i2c.c ****       hi2c->XferCount--;
 619              		.loc 1 682 11
 620 0120 FB68     		ldr	r3, [r7, #12]
 621 0122 5B8D     		ldrh	r3, [r3, #42]
 622 0124 9BB2     		uxth	r3, r3
 623              		.loc 1 682 22
 624 0126 013B     		subs	r3, r3, #1
 625 0128 9AB2     		uxth	r2, r3
 626 012a FB68     		ldr	r3, [r7, #12]
 627 012c 5A85     		strh	r2, [r3, #42]
 683:Drivers/STM32F0xx_HAL_Driver/Src/stm32f0xx_hal_i2c.c ****       hi2c->XferSize--;
 628              		.loc 1 683 11
 629 012e FB68     		ldr	r3, [r7, #12]
 630 0130 1B8D     		ldrh	r3, [r3, #40]
 631              		.loc 1 683 21
 632 0132 013B     		subs	r3, r3, #1
 633 0134 9AB2     		uxth	r2, r3
 634 0136 FB68     		ldr	r3, [r7, #12]
 635 0138 1A85     		strh	r2, [r3, #40]
 684:Drivers/STM32F0xx_HAL_Driver/Src/stm32f0xx_hal_i2c.c **** 
 685:Drivers/STM32F0xx_HAL_Driver/Src/stm32f0xx_hal_i2c.c ****       if ((hi2c->XferSize == 0U) && (hi2c->XferCount != 0U))
ARM GAS  C:\Users\ADMINI~1\AppData\Local\Temp\cc3zYV2m.s 			page 24


 636              		.loc 1 685 16
 637 013a FB68     		ldr	r3, [r7, #12]
 638 013c 1B8D     		ldrh	r3, [r3, #40]
 639              		.loc 1 685 10
 640 013e 002B     		cmp	r3, #0
 641 0140 3BD1     		bne	.L22
 642              		.loc 1 685 42 discriminator 1
 643 0142 FB68     		ldr	r3, [r7, #12]
 644 0144 5B8D     		ldrh	r3, [r3, #42]
 645 0146 9BB2     		uxth	r3, r3
 646              		.loc 1 685 34 discriminator 1
 647 0148 002B     		cmp	r3, #0
 648 014a 36D0     		beq	.L22
 686:Drivers/STM32F0xx_HAL_Driver/Src/stm32f0xx_hal_i2c.c ****       {
 687:Drivers/STM32F0xx_HAL_Driver/Src/stm32f0xx_hal_i2c.c ****         /* Wait until TCR flag is set */
 688:Drivers/STM32F0xx_HAL_Driver/Src/stm32f0xx_hal_i2c.c ****         if (I2C_WaitOnFlagUntilTimeout(hi2c, I2C_FLAG_TCR, RESET, Timeout, tickstart) != HAL_OK)
 649              		.loc 1 688 13
 650 014c BA6A     		ldr	r2, [r7, #40]
 651 014e F868     		ldr	r0, [r7, #12]
 652 0150 7B69     		ldr	r3, [r7, #20]
 653 0152 0093     		str	r3, [sp]
 654 0154 1300     		movs	r3, r2
 655 0156 0022     		movs	r2, #0
 656 0158 8021     		movs	r1, #128
 657 015a FFF7FEFF 		bl	I2C_WaitOnFlagUntilTimeout
 658 015e 031E     		subs	r3, r0, #0
 659              		.loc 1 688 12
 660 0160 01D0     		beq	.L25
 689:Drivers/STM32F0xx_HAL_Driver/Src/stm32f0xx_hal_i2c.c ****         {
 690:Drivers/STM32F0xx_HAL_Driver/Src/stm32f0xx_hal_i2c.c ****           return HAL_TIMEOUT;
 661              		.loc 1 690 18
 662 0162 0323     		movs	r3, #3
 663 0164 59E0     		b	.L18
 664              	.L25:
 691:Drivers/STM32F0xx_HAL_Driver/Src/stm32f0xx_hal_i2c.c ****         }
 692:Drivers/STM32F0xx_HAL_Driver/Src/stm32f0xx_hal_i2c.c **** 
 693:Drivers/STM32F0xx_HAL_Driver/Src/stm32f0xx_hal_i2c.c ****         if (hi2c->XferCount > MAX_NBYTE_SIZE)
 665              		.loc 1 693 17
 666 0166 FB68     		ldr	r3, [r7, #12]
 667 0168 5B8D     		ldrh	r3, [r3, #42]
 668 016a 9BB2     		uxth	r3, r3
 669              		.loc 1 693 12
 670 016c FF2B     		cmp	r3, #255
 671 016e 11D9     		bls	.L26
 694:Drivers/STM32F0xx_HAL_Driver/Src/stm32f0xx_hal_i2c.c ****         {
 695:Drivers/STM32F0xx_HAL_Driver/Src/stm32f0xx_hal_i2c.c ****           hi2c->XferSize = MAX_NBYTE_SIZE;
 672              		.loc 1 695 26
 673 0170 FB68     		ldr	r3, [r7, #12]
 674 0172 FF22     		movs	r2, #255
 675 0174 1A85     		strh	r2, [r3, #40]
 696:Drivers/STM32F0xx_HAL_Driver/Src/stm32f0xx_hal_i2c.c ****           I2C_TransferConfig(hi2c, DevAddress, hi2c->XferSize, I2C_RELOAD_MODE, I2C_NO_STARTSTOP);
 676              		.loc 1 696 52
 677 0176 FB68     		ldr	r3, [r7, #12]
 678 0178 1B8D     		ldrh	r3, [r3, #40]
 679              		.loc 1 696 11
 680 017a DAB2     		uxtb	r2, r3
 681 017c 8023     		movs	r3, #128
ARM GAS  C:\Users\ADMINI~1\AppData\Local\Temp\cc3zYV2m.s 			page 25


 682 017e 5C04     		lsls	r4, r3, #17
 683 0180 0A23     		movs	r3, #10
 684 0182 FB18     		adds	r3, r7, r3
 685 0184 1988     		ldrh	r1, [r3]
 686 0186 F868     		ldr	r0, [r7, #12]
 687 0188 0023     		movs	r3, #0
 688 018a 0093     		str	r3, [sp]
 689 018c 2300     		movs	r3, r4
 690 018e FFF7FEFF 		bl	I2C_TransferConfig
 691 0192 12E0     		b	.L22
 692              	.L26:
 697:Drivers/STM32F0xx_HAL_Driver/Src/stm32f0xx_hal_i2c.c ****         }
 698:Drivers/STM32F0xx_HAL_Driver/Src/stm32f0xx_hal_i2c.c ****         else
 699:Drivers/STM32F0xx_HAL_Driver/Src/stm32f0xx_hal_i2c.c ****         {
 700:Drivers/STM32F0xx_HAL_Driver/Src/stm32f0xx_hal_i2c.c ****           hi2c->XferSize = hi2c->XferCount;
 693              		.loc 1 700 32
 694 0194 FB68     		ldr	r3, [r7, #12]
 695 0196 5B8D     		ldrh	r3, [r3, #42]
 696 0198 9AB2     		uxth	r2, r3
 697              		.loc 1 700 26
 698 019a FB68     		ldr	r3, [r7, #12]
 699 019c 1A85     		strh	r2, [r3, #40]
 701:Drivers/STM32F0xx_HAL_Driver/Src/stm32f0xx_hal_i2c.c ****           I2C_TransferConfig(hi2c, DevAddress, hi2c->XferSize, I2C_AUTOEND_MODE, I2C_NO_STARTSTOP);
 700              		.loc 1 701 52
 701 019e FB68     		ldr	r3, [r7, #12]
 702 01a0 1B8D     		ldrh	r3, [r3, #40]
 703              		.loc 1 701 11
 704 01a2 DAB2     		uxtb	r2, r3
 705 01a4 8023     		movs	r3, #128
 706 01a6 9C04     		lsls	r4, r3, #18
 707 01a8 0A23     		movs	r3, #10
 708 01aa FB18     		adds	r3, r7, r3
 709 01ac 1988     		ldrh	r1, [r3]
 710 01ae F868     		ldr	r0, [r7, #12]
 711 01b0 0023     		movs	r3, #0
 712 01b2 0093     		str	r3, [sp]
 713 01b4 2300     		movs	r3, r4
 714 01b6 FFF7FEFF 		bl	I2C_TransferConfig
 715              	.L22:
 666:Drivers/STM32F0xx_HAL_Driver/Src/stm32f0xx_hal_i2c.c ****     {
 716              		.loc 1 666 16
 717 01ba FB68     		ldr	r3, [r7, #12]
 718 01bc 5B8D     		ldrh	r3, [r3, #42]
 719 01be 9BB2     		uxth	r3, r3
 666:Drivers/STM32F0xx_HAL_Driver/Src/stm32f0xx_hal_i2c.c ****     {
 720              		.loc 1 666 11
 721 01c0 002B     		cmp	r3, #0
 722 01c2 94D1     		bne	.L27
 702:Drivers/STM32F0xx_HAL_Driver/Src/stm32f0xx_hal_i2c.c ****         }
 703:Drivers/STM32F0xx_HAL_Driver/Src/stm32f0xx_hal_i2c.c ****       }
 704:Drivers/STM32F0xx_HAL_Driver/Src/stm32f0xx_hal_i2c.c ****     }
 705:Drivers/STM32F0xx_HAL_Driver/Src/stm32f0xx_hal_i2c.c **** 
 706:Drivers/STM32F0xx_HAL_Driver/Src/stm32f0xx_hal_i2c.c ****     /* No need to Check TC flag, with AUTOEND mode the stop is automatically generated */
 707:Drivers/STM32F0xx_HAL_Driver/Src/stm32f0xx_hal_i2c.c ****     /* Wait until STOPF flag is set */
 708:Drivers/STM32F0xx_HAL_Driver/Src/stm32f0xx_hal_i2c.c ****     if (I2C_WaitOnSTOPFlagUntilTimeout(hi2c, Timeout, tickstart) != HAL_OK)
 723              		.loc 1 708 9
 724 01c4 7A69     		ldr	r2, [r7, #20]
ARM GAS  C:\Users\ADMINI~1\AppData\Local\Temp\cc3zYV2m.s 			page 26


 725 01c6 B96A     		ldr	r1, [r7, #40]
 726 01c8 FB68     		ldr	r3, [r7, #12]
 727 01ca 1800     		movs	r0, r3
 728 01cc FFF7FEFF 		bl	I2C_WaitOnSTOPFlagUntilTimeout
 729 01d0 031E     		subs	r3, r0, #0
 730              		.loc 1 708 8
 731 01d2 07D0     		beq	.L28
 709:Drivers/STM32F0xx_HAL_Driver/Src/stm32f0xx_hal_i2c.c ****     {
 710:Drivers/STM32F0xx_HAL_Driver/Src/stm32f0xx_hal_i2c.c ****       if (hi2c->ErrorCode == HAL_I2C_ERROR_AF)
 732              		.loc 1 710 15
 733 01d4 FB68     		ldr	r3, [r7, #12]
 734 01d6 5B6C     		ldr	r3, [r3, #68]
 735              		.loc 1 710 10
 736 01d8 042B     		cmp	r3, #4
 737 01da 01D1     		bne	.L29
 711:Drivers/STM32F0xx_HAL_Driver/Src/stm32f0xx_hal_i2c.c ****       {
 712:Drivers/STM32F0xx_HAL_Driver/Src/stm32f0xx_hal_i2c.c ****         return HAL_ERROR;
 738              		.loc 1 712 16
 739 01dc 0123     		movs	r3, #1
 740 01de 1CE0     		b	.L18
 741              	.L29:
 713:Drivers/STM32F0xx_HAL_Driver/Src/stm32f0xx_hal_i2c.c ****       }
 714:Drivers/STM32F0xx_HAL_Driver/Src/stm32f0xx_hal_i2c.c ****       else
 715:Drivers/STM32F0xx_HAL_Driver/Src/stm32f0xx_hal_i2c.c ****       {
 716:Drivers/STM32F0xx_HAL_Driver/Src/stm32f0xx_hal_i2c.c ****         return HAL_TIMEOUT;
 742              		.loc 1 716 16
 743 01e0 0323     		movs	r3, #3
 744 01e2 1AE0     		b	.L18
 745              	.L28:
 717:Drivers/STM32F0xx_HAL_Driver/Src/stm32f0xx_hal_i2c.c ****       }
 718:Drivers/STM32F0xx_HAL_Driver/Src/stm32f0xx_hal_i2c.c ****     }
 719:Drivers/STM32F0xx_HAL_Driver/Src/stm32f0xx_hal_i2c.c **** 
 720:Drivers/STM32F0xx_HAL_Driver/Src/stm32f0xx_hal_i2c.c ****     /* Clear STOP Flag */
 721:Drivers/STM32F0xx_HAL_Driver/Src/stm32f0xx_hal_i2c.c ****     __HAL_I2C_CLEAR_FLAG(hi2c, I2C_FLAG_STOPF);
 746              		.loc 1 721 5
 747 01e4 FB68     		ldr	r3, [r7, #12]
 748 01e6 1B68     		ldr	r3, [r3]
 749 01e8 2022     		movs	r2, #32
 750 01ea DA61     		str	r2, [r3, #28]
 722:Drivers/STM32F0xx_HAL_Driver/Src/stm32f0xx_hal_i2c.c **** 
 723:Drivers/STM32F0xx_HAL_Driver/Src/stm32f0xx_hal_i2c.c ****     /* Clear Configuration Register 2 */
 724:Drivers/STM32F0xx_HAL_Driver/Src/stm32f0xx_hal_i2c.c ****     I2C_RESET_CR2(hi2c);
 751              		.loc 1 724 5
 752 01ec FB68     		ldr	r3, [r7, #12]
 753 01ee 1B68     		ldr	r3, [r3]
 754 01f0 5A68     		ldr	r2, [r3, #4]
 755 01f2 FB68     		ldr	r3, [r7, #12]
 756 01f4 1B68     		ldr	r3, [r3]
 757 01f6 0B49     		ldr	r1, .L30
 758 01f8 0A40     		ands	r2, r1
 759 01fa 5A60     		str	r2, [r3, #4]
 725:Drivers/STM32F0xx_HAL_Driver/Src/stm32f0xx_hal_i2c.c **** 
 726:Drivers/STM32F0xx_HAL_Driver/Src/stm32f0xx_hal_i2c.c ****     hi2c->State = HAL_I2C_STATE_READY;
 760              		.loc 1 726 17
 761 01fc FB68     		ldr	r3, [r7, #12]
 762 01fe 4122     		movs	r2, #65
 763 0200 2021     		movs	r1, #32
ARM GAS  C:\Users\ADMINI~1\AppData\Local\Temp\cc3zYV2m.s 			page 27


 764 0202 9954     		strb	r1, [r3, r2]
 727:Drivers/STM32F0xx_HAL_Driver/Src/stm32f0xx_hal_i2c.c ****     hi2c->Mode  = HAL_I2C_MODE_NONE;
 765              		.loc 1 727 17
 766 0204 FB68     		ldr	r3, [r7, #12]
 767 0206 4222     		movs	r2, #66
 768 0208 0021     		movs	r1, #0
 769 020a 9954     		strb	r1, [r3, r2]
 728:Drivers/STM32F0xx_HAL_Driver/Src/stm32f0xx_hal_i2c.c **** 
 729:Drivers/STM32F0xx_HAL_Driver/Src/stm32f0xx_hal_i2c.c ****     /* Process Unlocked */
 730:Drivers/STM32F0xx_HAL_Driver/Src/stm32f0xx_hal_i2c.c ****     __HAL_UNLOCK(hi2c);
 770              		.loc 1 730 5
 771 020c FB68     		ldr	r3, [r7, #12]
 772 020e 4022     		movs	r2, #64
 773 0210 0021     		movs	r1, #0
 774 0212 9954     		strb	r1, [r3, r2]
 731:Drivers/STM32F0xx_HAL_Driver/Src/stm32f0xx_hal_i2c.c **** 
 732:Drivers/STM32F0xx_HAL_Driver/Src/stm32f0xx_hal_i2c.c ****     return HAL_OK;
 775              		.loc 1 732 12
 776 0214 0023     		movs	r3, #0
 777 0216 00E0     		b	.L18
 778              	.L16:
 733:Drivers/STM32F0xx_HAL_Driver/Src/stm32f0xx_hal_i2c.c ****   }
 734:Drivers/STM32F0xx_HAL_Driver/Src/stm32f0xx_hal_i2c.c ****   else
 735:Drivers/STM32F0xx_HAL_Driver/Src/stm32f0xx_hal_i2c.c ****   {
 736:Drivers/STM32F0xx_HAL_Driver/Src/stm32f0xx_hal_i2c.c ****     return HAL_BUSY;
 779              		.loc 1 736 12
 780 0218 0223     		movs	r3, #2
 781              	.L18:
 737:Drivers/STM32F0xx_HAL_Driver/Src/stm32f0xx_hal_i2c.c ****   }
 738:Drivers/STM32F0xx_HAL_Driver/Src/stm32f0xx_hal_i2c.c **** }
 782              		.loc 1 738 1
 783 021a 1800     		movs	r0, r3
 784 021c BD46     		mov	sp, r7
 785 021e 07B0     		add	sp, sp, #28
 786              		@ sp needed
 787 0220 90BD     		pop	{r4, r7, pc}
 788              	.L31:
 789 0222 C046     		.align	2
 790              	.L30:
 791 0224 00E800FE 		.word	-33495040
 792              		.cfi_endproc
 793              	.LFE41:
 795              		.section	.text.HAL_I2C_Master_Receive,"ax",%progbits
 796              		.align	1
 797              		.global	HAL_I2C_Master_Receive
 798              		.syntax unified
 799              		.code	16
 800              		.thumb_func
 801              		.fpu softvfp
 803              	HAL_I2C_Master_Receive:
 804              	.LFB42:
 739:Drivers/STM32F0xx_HAL_Driver/Src/stm32f0xx_hal_i2c.c **** 
 740:Drivers/STM32F0xx_HAL_Driver/Src/stm32f0xx_hal_i2c.c **** /**
 741:Drivers/STM32F0xx_HAL_Driver/Src/stm32f0xx_hal_i2c.c ****   * @brief  Receives in master mode an amount of data in blocking mode.
 742:Drivers/STM32F0xx_HAL_Driver/Src/stm32f0xx_hal_i2c.c ****   * @param  hi2c Pointer to a I2C_HandleTypeDef structure that contains
 743:Drivers/STM32F0xx_HAL_Driver/Src/stm32f0xx_hal_i2c.c ****   *                the configuration information for the specified I2C.
 744:Drivers/STM32F0xx_HAL_Driver/Src/stm32f0xx_hal_i2c.c ****   * @param  DevAddress Target device address: The device 7 bits address value
ARM GAS  C:\Users\ADMINI~1\AppData\Local\Temp\cc3zYV2m.s 			page 28


 745:Drivers/STM32F0xx_HAL_Driver/Src/stm32f0xx_hal_i2c.c ****   *         in datasheet must be shift at right before call interface
 746:Drivers/STM32F0xx_HAL_Driver/Src/stm32f0xx_hal_i2c.c ****   * @param  pData Pointer to data buffer
 747:Drivers/STM32F0xx_HAL_Driver/Src/stm32f0xx_hal_i2c.c ****   * @param  Size Amount of data to be sent
 748:Drivers/STM32F0xx_HAL_Driver/Src/stm32f0xx_hal_i2c.c ****   * @param  Timeout Timeout duration
 749:Drivers/STM32F0xx_HAL_Driver/Src/stm32f0xx_hal_i2c.c ****   * @retval HAL status
 750:Drivers/STM32F0xx_HAL_Driver/Src/stm32f0xx_hal_i2c.c ****   */
 751:Drivers/STM32F0xx_HAL_Driver/Src/stm32f0xx_hal_i2c.c **** HAL_StatusTypeDef HAL_I2C_Master_Receive(I2C_HandleTypeDef *hi2c, uint16_t DevAddress, uint8_t *pDa
 752:Drivers/STM32F0xx_HAL_Driver/Src/stm32f0xx_hal_i2c.c **** {
 805              		.loc 1 752 1
 806              		.cfi_startproc
 807              		@ args = 4, pretend = 0, frame = 24
 808              		@ frame_needed = 1, uses_anonymous_args = 0
 809 0000 90B5     		push	{r4, r7, lr}
 810              	.LCFI15:
 811              		.cfi_def_cfa_offset 12
 812              		.cfi_offset 4, -12
 813              		.cfi_offset 7, -8
 814              		.cfi_offset 14, -4
 815 0002 89B0     		sub	sp, sp, #36
 816              	.LCFI16:
 817              		.cfi_def_cfa_offset 48
 818 0004 02AF     		add	r7, sp, #8
 819              	.LCFI17:
 820              		.cfi_def_cfa 7, 40
 821 0006 F860     		str	r0, [r7, #12]
 822 0008 0800     		movs	r0, r1
 823 000a 7A60     		str	r2, [r7, #4]
 824 000c 1900     		movs	r1, r3
 825 000e 0A23     		movs	r3, #10
 826 0010 FB18     		adds	r3, r7, r3
 827 0012 021C     		adds	r2, r0, #0
 828 0014 1A80     		strh	r2, [r3]
 829 0016 0823     		movs	r3, #8
 830 0018 FB18     		adds	r3, r7, r3
 831 001a 0A1C     		adds	r2, r1, #0
 832 001c 1A80     		strh	r2, [r3]
 753:Drivers/STM32F0xx_HAL_Driver/Src/stm32f0xx_hal_i2c.c ****   uint32_t tickstart = 0U;
 833              		.loc 1 753 12
 834 001e 0023     		movs	r3, #0
 835 0020 7B61     		str	r3, [r7, #20]
 754:Drivers/STM32F0xx_HAL_Driver/Src/stm32f0xx_hal_i2c.c **** 
 755:Drivers/STM32F0xx_HAL_Driver/Src/stm32f0xx_hal_i2c.c ****   if (hi2c->State == HAL_I2C_STATE_READY)
 836              		.loc 1 755 11
 837 0022 FB68     		ldr	r3, [r7, #12]
 838 0024 4122     		movs	r2, #65
 839 0026 9B5C     		ldrb	r3, [r3, r2]
 840 0028 DBB2     		uxtb	r3, r3
 841              		.loc 1 755 6
 842 002a 202B     		cmp	r3, #32
 843 002c 00D0     		beq	.LCB675
 844 002e F4E0     		b	.L33	@long jump
 845              	.LCB675:
 756:Drivers/STM32F0xx_HAL_Driver/Src/stm32f0xx_hal_i2c.c ****   {
 757:Drivers/STM32F0xx_HAL_Driver/Src/stm32f0xx_hal_i2c.c ****     /* Process Locked */
 758:Drivers/STM32F0xx_HAL_Driver/Src/stm32f0xx_hal_i2c.c ****     __HAL_LOCK(hi2c);
 846              		.loc 1 758 5
 847 0030 FB68     		ldr	r3, [r7, #12]
ARM GAS  C:\Users\ADMINI~1\AppData\Local\Temp\cc3zYV2m.s 			page 29


 848 0032 4022     		movs	r2, #64
 849 0034 9B5C     		ldrb	r3, [r3, r2]
 850 0036 012B     		cmp	r3, #1
 851 0038 01D1     		bne	.L34
 852              		.loc 1 758 5 is_stmt 0 discriminator 1
 853 003a 0223     		movs	r3, #2
 854 003c EEE0     		b	.L35
 855              	.L34:
 856              		.loc 1 758 5 discriminator 2
 857 003e FB68     		ldr	r3, [r7, #12]
 858 0040 4022     		movs	r2, #64
 859 0042 0121     		movs	r1, #1
 860 0044 9954     		strb	r1, [r3, r2]
 759:Drivers/STM32F0xx_HAL_Driver/Src/stm32f0xx_hal_i2c.c **** 
 760:Drivers/STM32F0xx_HAL_Driver/Src/stm32f0xx_hal_i2c.c ****     /* Init tickstart for timeout management*/
 761:Drivers/STM32F0xx_HAL_Driver/Src/stm32f0xx_hal_i2c.c ****     tickstart = HAL_GetTick();
 861              		.loc 1 761 17 is_stmt 1 discriminator 2
 862 0046 FFF7FEFF 		bl	HAL_GetTick
 863 004a 0300     		movs	r3, r0
 864 004c 7B61     		str	r3, [r7, #20]
 762:Drivers/STM32F0xx_HAL_Driver/Src/stm32f0xx_hal_i2c.c **** 
 763:Drivers/STM32F0xx_HAL_Driver/Src/stm32f0xx_hal_i2c.c ****     if (I2C_WaitOnFlagUntilTimeout(hi2c, I2C_FLAG_BUSY, SET, I2C_TIMEOUT_BUSY, tickstart) != HAL_OK
 865              		.loc 1 763 9 discriminator 2
 866 004e 8023     		movs	r3, #128
 867 0050 1902     		lsls	r1, r3, #8
 868 0052 F868     		ldr	r0, [r7, #12]
 869 0054 7B69     		ldr	r3, [r7, #20]
 870 0056 0093     		str	r3, [sp]
 871 0058 1923     		movs	r3, #25
 872 005a 0122     		movs	r2, #1
 873 005c FFF7FEFF 		bl	I2C_WaitOnFlagUntilTimeout
 874 0060 031E     		subs	r3, r0, #0
 875              		.loc 1 763 8 discriminator 2
 876 0062 01D0     		beq	.L36
 764:Drivers/STM32F0xx_HAL_Driver/Src/stm32f0xx_hal_i2c.c ****     {
 765:Drivers/STM32F0xx_HAL_Driver/Src/stm32f0xx_hal_i2c.c ****       return HAL_TIMEOUT;
 877              		.loc 1 765 14
 878 0064 0323     		movs	r3, #3
 879 0066 D9E0     		b	.L35
 880              	.L36:
 766:Drivers/STM32F0xx_HAL_Driver/Src/stm32f0xx_hal_i2c.c ****     }
 767:Drivers/STM32F0xx_HAL_Driver/Src/stm32f0xx_hal_i2c.c **** 
 768:Drivers/STM32F0xx_HAL_Driver/Src/stm32f0xx_hal_i2c.c ****     hi2c->State     = HAL_I2C_STATE_BUSY_RX;
 881              		.loc 1 768 21
 882 0068 FB68     		ldr	r3, [r7, #12]
 883 006a 4122     		movs	r2, #65
 884 006c 2221     		movs	r1, #34
 885 006e 9954     		strb	r1, [r3, r2]
 769:Drivers/STM32F0xx_HAL_Driver/Src/stm32f0xx_hal_i2c.c ****     hi2c->Mode      = HAL_I2C_MODE_MASTER;
 886              		.loc 1 769 21
 887 0070 FB68     		ldr	r3, [r7, #12]
 888 0072 4222     		movs	r2, #66
 889 0074 1021     		movs	r1, #16
 890 0076 9954     		strb	r1, [r3, r2]
 770:Drivers/STM32F0xx_HAL_Driver/Src/stm32f0xx_hal_i2c.c ****     hi2c->ErrorCode = HAL_I2C_ERROR_NONE;
 891              		.loc 1 770 21
 892 0078 FB68     		ldr	r3, [r7, #12]
ARM GAS  C:\Users\ADMINI~1\AppData\Local\Temp\cc3zYV2m.s 			page 30


 893 007a 0022     		movs	r2, #0
 894 007c 5A64     		str	r2, [r3, #68]
 771:Drivers/STM32F0xx_HAL_Driver/Src/stm32f0xx_hal_i2c.c **** 
 772:Drivers/STM32F0xx_HAL_Driver/Src/stm32f0xx_hal_i2c.c ****     /* Prepare transfer parameters */
 773:Drivers/STM32F0xx_HAL_Driver/Src/stm32f0xx_hal_i2c.c ****     hi2c->pBuffPtr  = pData;
 895              		.loc 1 773 21
 896 007e FB68     		ldr	r3, [r7, #12]
 897 0080 7A68     		ldr	r2, [r7, #4]
 898 0082 5A62     		str	r2, [r3, #36]
 774:Drivers/STM32F0xx_HAL_Driver/Src/stm32f0xx_hal_i2c.c ****     hi2c->XferCount = Size;
 899              		.loc 1 774 21
 900 0084 FB68     		ldr	r3, [r7, #12]
 901 0086 0822     		movs	r2, #8
 902 0088 BA18     		adds	r2, r7, r2
 903 008a 1288     		ldrh	r2, [r2]
 904 008c 5A85     		strh	r2, [r3, #42]
 775:Drivers/STM32F0xx_HAL_Driver/Src/stm32f0xx_hal_i2c.c ****     hi2c->XferISR   = NULL;
 905              		.loc 1 775 21
 906 008e FB68     		ldr	r3, [r7, #12]
 907 0090 0022     		movs	r2, #0
 908 0092 5A63     		str	r2, [r3, #52]
 776:Drivers/STM32F0xx_HAL_Driver/Src/stm32f0xx_hal_i2c.c **** 
 777:Drivers/STM32F0xx_HAL_Driver/Src/stm32f0xx_hal_i2c.c ****     /* Send Slave Address */
 778:Drivers/STM32F0xx_HAL_Driver/Src/stm32f0xx_hal_i2c.c ****     /* Set NBYTES to write and reload if hi2c->XferCount > MAX_NBYTE_SIZE and generate RESTART */
 779:Drivers/STM32F0xx_HAL_Driver/Src/stm32f0xx_hal_i2c.c ****     if (hi2c->XferCount > MAX_NBYTE_SIZE)
 909              		.loc 1 779 13
 910 0094 FB68     		ldr	r3, [r7, #12]
 911 0096 5B8D     		ldrh	r3, [r3, #42]
 912 0098 9BB2     		uxth	r3, r3
 913              		.loc 1 779 8
 914 009a FF2B     		cmp	r3, #255
 915 009c 12D9     		bls	.L37
 780:Drivers/STM32F0xx_HAL_Driver/Src/stm32f0xx_hal_i2c.c ****     {
 781:Drivers/STM32F0xx_HAL_Driver/Src/stm32f0xx_hal_i2c.c ****       hi2c->XferSize = MAX_NBYTE_SIZE;
 916              		.loc 1 781 22
 917 009e FB68     		ldr	r3, [r7, #12]
 918 00a0 FF22     		movs	r2, #255
 919 00a2 1A85     		strh	r2, [r3, #40]
 782:Drivers/STM32F0xx_HAL_Driver/Src/stm32f0xx_hal_i2c.c ****       I2C_TransferConfig(hi2c, DevAddress, hi2c->XferSize, I2C_RELOAD_MODE, I2C_GENERATE_START_READ
 920              		.loc 1 782 48
 921 00a4 FB68     		ldr	r3, [r7, #12]
 922 00a6 1B8D     		ldrh	r3, [r3, #40]
 923              		.loc 1 782 7
 924 00a8 DAB2     		uxtb	r2, r3
 925 00aa 8023     		movs	r3, #128
 926 00ac 5C04     		lsls	r4, r3, #17
 927 00ae 0A23     		movs	r3, #10
 928 00b0 FB18     		adds	r3, r7, r3
 929 00b2 1988     		ldrh	r1, [r3]
 930 00b4 F868     		ldr	r0, [r7, #12]
 931 00b6 9023     		movs	r3, #144
 932 00b8 9B01     		lsls	r3, r3, #6
 933 00ba 0093     		str	r3, [sp]
 934 00bc 2300     		movs	r3, r4
 935 00be FFF7FEFF 		bl	I2C_TransferConfig
 936 00c2 7BE0     		b	.L39
 937              	.L37:
ARM GAS  C:\Users\ADMINI~1\AppData\Local\Temp\cc3zYV2m.s 			page 31


 783:Drivers/STM32F0xx_HAL_Driver/Src/stm32f0xx_hal_i2c.c ****     }
 784:Drivers/STM32F0xx_HAL_Driver/Src/stm32f0xx_hal_i2c.c ****     else
 785:Drivers/STM32F0xx_HAL_Driver/Src/stm32f0xx_hal_i2c.c ****     {
 786:Drivers/STM32F0xx_HAL_Driver/Src/stm32f0xx_hal_i2c.c ****       hi2c->XferSize = hi2c->XferCount;
 938              		.loc 1 786 28
 939 00c4 FB68     		ldr	r3, [r7, #12]
 940 00c6 5B8D     		ldrh	r3, [r3, #42]
 941 00c8 9AB2     		uxth	r2, r3
 942              		.loc 1 786 22
 943 00ca FB68     		ldr	r3, [r7, #12]
 944 00cc 1A85     		strh	r2, [r3, #40]
 787:Drivers/STM32F0xx_HAL_Driver/Src/stm32f0xx_hal_i2c.c ****       I2C_TransferConfig(hi2c, DevAddress, hi2c->XferSize, I2C_AUTOEND_MODE, I2C_GENERATE_START_REA
 945              		.loc 1 787 48
 946 00ce FB68     		ldr	r3, [r7, #12]
 947 00d0 1B8D     		ldrh	r3, [r3, #40]
 948              		.loc 1 787 7
 949 00d2 DAB2     		uxtb	r2, r3
 950 00d4 8023     		movs	r3, #128
 951 00d6 9C04     		lsls	r4, r3, #18
 952 00d8 0A23     		movs	r3, #10
 953 00da FB18     		adds	r3, r7, r3
 954 00dc 1988     		ldrh	r1, [r3]
 955 00de F868     		ldr	r0, [r7, #12]
 956 00e0 9023     		movs	r3, #144
 957 00e2 9B01     		lsls	r3, r3, #6
 958 00e4 0093     		str	r3, [sp]
 959 00e6 2300     		movs	r3, r4
 960 00e8 FFF7FEFF 		bl	I2C_TransferConfig
 788:Drivers/STM32F0xx_HAL_Driver/Src/stm32f0xx_hal_i2c.c ****     }
 789:Drivers/STM32F0xx_HAL_Driver/Src/stm32f0xx_hal_i2c.c **** 
 790:Drivers/STM32F0xx_HAL_Driver/Src/stm32f0xx_hal_i2c.c ****     while (hi2c->XferCount > 0U)
 961              		.loc 1 790 11
 962 00ec 66E0     		b	.L39
 963              	.L44:
 791:Drivers/STM32F0xx_HAL_Driver/Src/stm32f0xx_hal_i2c.c ****     {
 792:Drivers/STM32F0xx_HAL_Driver/Src/stm32f0xx_hal_i2c.c ****       /* Wait until RXNE flag is set */
 793:Drivers/STM32F0xx_HAL_Driver/Src/stm32f0xx_hal_i2c.c ****       if (I2C_WaitOnRXNEFlagUntilTimeout(hi2c, Timeout, tickstart) != HAL_OK)
 964              		.loc 1 793 11
 965 00ee 7A69     		ldr	r2, [r7, #20]
 966 00f0 B96A     		ldr	r1, [r7, #40]
 967 00f2 FB68     		ldr	r3, [r7, #12]
 968 00f4 1800     		movs	r0, r3
 969 00f6 FFF7FEFF 		bl	I2C_WaitOnRXNEFlagUntilTimeout
 970 00fa 031E     		subs	r3, r0, #0
 971              		.loc 1 793 10
 972 00fc 07D0     		beq	.L40
 794:Drivers/STM32F0xx_HAL_Driver/Src/stm32f0xx_hal_i2c.c ****       {
 795:Drivers/STM32F0xx_HAL_Driver/Src/stm32f0xx_hal_i2c.c ****         if (hi2c->ErrorCode == HAL_I2C_ERROR_AF)
 973              		.loc 1 795 17
 974 00fe FB68     		ldr	r3, [r7, #12]
 975 0100 5B6C     		ldr	r3, [r3, #68]
 976              		.loc 1 795 12
 977 0102 042B     		cmp	r3, #4
 978 0104 01D1     		bne	.L41
 796:Drivers/STM32F0xx_HAL_Driver/Src/stm32f0xx_hal_i2c.c ****         {
 797:Drivers/STM32F0xx_HAL_Driver/Src/stm32f0xx_hal_i2c.c ****           return HAL_ERROR;
 979              		.loc 1 797 18
ARM GAS  C:\Users\ADMINI~1\AppData\Local\Temp\cc3zYV2m.s 			page 32


 980 0106 0123     		movs	r3, #1
 981 0108 88E0     		b	.L35
 982              	.L41:
 798:Drivers/STM32F0xx_HAL_Driver/Src/stm32f0xx_hal_i2c.c ****         }
 799:Drivers/STM32F0xx_HAL_Driver/Src/stm32f0xx_hal_i2c.c ****         else
 800:Drivers/STM32F0xx_HAL_Driver/Src/stm32f0xx_hal_i2c.c ****         {
 801:Drivers/STM32F0xx_HAL_Driver/Src/stm32f0xx_hal_i2c.c ****           return HAL_TIMEOUT;
 983              		.loc 1 801 18
 984 010a 0323     		movs	r3, #3
 985 010c 86E0     		b	.L35
 986              	.L40:
 802:Drivers/STM32F0xx_HAL_Driver/Src/stm32f0xx_hal_i2c.c ****         }
 803:Drivers/STM32F0xx_HAL_Driver/Src/stm32f0xx_hal_i2c.c ****       }
 804:Drivers/STM32F0xx_HAL_Driver/Src/stm32f0xx_hal_i2c.c **** 
 805:Drivers/STM32F0xx_HAL_Driver/Src/stm32f0xx_hal_i2c.c ****       /* Read data from RXDR */
 806:Drivers/STM32F0xx_HAL_Driver/Src/stm32f0xx_hal_i2c.c ****       (*hi2c->pBuffPtr++) = hi2c->Instance->RXDR;
 987              		.loc 1 806 33
 988 010e FB68     		ldr	r3, [r7, #12]
 989 0110 1B68     		ldr	r3, [r3]
 990              		.loc 1 806 43
 991 0112 586A     		ldr	r0, [r3, #36]
 992              		.loc 1 806 13
 993 0114 FB68     		ldr	r3, [r7, #12]
 994 0116 5B6A     		ldr	r3, [r3, #36]
 995              		.loc 1 806 23
 996 0118 591C     		adds	r1, r3, #1
 997 011a FA68     		ldr	r2, [r7, #12]
 998 011c 5162     		str	r1, [r2, #36]
 999              		.loc 1 806 27
 1000 011e C2B2     		uxtb	r2, r0
 1001 0120 1A70     		strb	r2, [r3]
 807:Drivers/STM32F0xx_HAL_Driver/Src/stm32f0xx_hal_i2c.c ****       hi2c->XferSize--;
 1002              		.loc 1 807 11
 1003 0122 FB68     		ldr	r3, [r7, #12]
 1004 0124 1B8D     		ldrh	r3, [r3, #40]
 1005              		.loc 1 807 21
 1006 0126 013B     		subs	r3, r3, #1
 1007 0128 9AB2     		uxth	r2, r3
 1008 012a FB68     		ldr	r3, [r7, #12]
 1009 012c 1A85     		strh	r2, [r3, #40]
 808:Drivers/STM32F0xx_HAL_Driver/Src/stm32f0xx_hal_i2c.c ****       hi2c->XferCount--;
 1010              		.loc 1 808 11
 1011 012e FB68     		ldr	r3, [r7, #12]
 1012 0130 5B8D     		ldrh	r3, [r3, #42]
 1013 0132 9BB2     		uxth	r3, r3
 1014              		.loc 1 808 22
 1015 0134 013B     		subs	r3, r3, #1
 1016 0136 9AB2     		uxth	r2, r3
 1017 0138 FB68     		ldr	r3, [r7, #12]
 1018 013a 5A85     		strh	r2, [r3, #42]
 809:Drivers/STM32F0xx_HAL_Driver/Src/stm32f0xx_hal_i2c.c **** 
 810:Drivers/STM32F0xx_HAL_Driver/Src/stm32f0xx_hal_i2c.c ****       if ((hi2c->XferSize == 0U) && (hi2c->XferCount != 0U))
 1019              		.loc 1 810 16
 1020 013c FB68     		ldr	r3, [r7, #12]
 1021 013e 1B8D     		ldrh	r3, [r3, #40]
 1022              		.loc 1 810 10
 1023 0140 002B     		cmp	r3, #0
ARM GAS  C:\Users\ADMINI~1\AppData\Local\Temp\cc3zYV2m.s 			page 33


 1024 0142 3BD1     		bne	.L39
 1025              		.loc 1 810 42 discriminator 1
 1026 0144 FB68     		ldr	r3, [r7, #12]
 1027 0146 5B8D     		ldrh	r3, [r3, #42]
 1028 0148 9BB2     		uxth	r3, r3
 1029              		.loc 1 810 34 discriminator 1
 1030 014a 002B     		cmp	r3, #0
 1031 014c 36D0     		beq	.L39
 811:Drivers/STM32F0xx_HAL_Driver/Src/stm32f0xx_hal_i2c.c ****       {
 812:Drivers/STM32F0xx_HAL_Driver/Src/stm32f0xx_hal_i2c.c ****         /* Wait until TCR flag is set */
 813:Drivers/STM32F0xx_HAL_Driver/Src/stm32f0xx_hal_i2c.c ****         if (I2C_WaitOnFlagUntilTimeout(hi2c, I2C_FLAG_TCR, RESET, Timeout, tickstart) != HAL_OK)
 1032              		.loc 1 813 13
 1033 014e BA6A     		ldr	r2, [r7, #40]
 1034 0150 F868     		ldr	r0, [r7, #12]
 1035 0152 7B69     		ldr	r3, [r7, #20]
 1036 0154 0093     		str	r3, [sp]
 1037 0156 1300     		movs	r3, r2
 1038 0158 0022     		movs	r2, #0
 1039 015a 8021     		movs	r1, #128
 1040 015c FFF7FEFF 		bl	I2C_WaitOnFlagUntilTimeout
 1041 0160 031E     		subs	r3, r0, #0
 1042              		.loc 1 813 12
 1043 0162 01D0     		beq	.L42
 814:Drivers/STM32F0xx_HAL_Driver/Src/stm32f0xx_hal_i2c.c ****         {
 815:Drivers/STM32F0xx_HAL_Driver/Src/stm32f0xx_hal_i2c.c ****           return HAL_TIMEOUT;
 1044              		.loc 1 815 18
 1045 0164 0323     		movs	r3, #3
 1046 0166 59E0     		b	.L35
 1047              	.L42:
 816:Drivers/STM32F0xx_HAL_Driver/Src/stm32f0xx_hal_i2c.c ****         }
 817:Drivers/STM32F0xx_HAL_Driver/Src/stm32f0xx_hal_i2c.c **** 
 818:Drivers/STM32F0xx_HAL_Driver/Src/stm32f0xx_hal_i2c.c ****         if (hi2c->XferCount > MAX_NBYTE_SIZE)
 1048              		.loc 1 818 17
 1049 0168 FB68     		ldr	r3, [r7, #12]
 1050 016a 5B8D     		ldrh	r3, [r3, #42]
 1051 016c 9BB2     		uxth	r3, r3
 1052              		.loc 1 818 12
 1053 016e FF2B     		cmp	r3, #255
 1054 0170 11D9     		bls	.L43
 819:Drivers/STM32F0xx_HAL_Driver/Src/stm32f0xx_hal_i2c.c ****         {
 820:Drivers/STM32F0xx_HAL_Driver/Src/stm32f0xx_hal_i2c.c ****           hi2c->XferSize = MAX_NBYTE_SIZE;
 1055              		.loc 1 820 26
 1056 0172 FB68     		ldr	r3, [r7, #12]
 1057 0174 FF22     		movs	r2, #255
 1058 0176 1A85     		strh	r2, [r3, #40]
 821:Drivers/STM32F0xx_HAL_Driver/Src/stm32f0xx_hal_i2c.c ****           I2C_TransferConfig(hi2c, DevAddress, hi2c->XferSize, I2C_RELOAD_MODE, I2C_NO_STARTSTOP);
 1059              		.loc 1 821 52
 1060 0178 FB68     		ldr	r3, [r7, #12]
 1061 017a 1B8D     		ldrh	r3, [r3, #40]
 1062              		.loc 1 821 11
 1063 017c DAB2     		uxtb	r2, r3
 1064 017e 8023     		movs	r3, #128
 1065 0180 5C04     		lsls	r4, r3, #17
 1066 0182 0A23     		movs	r3, #10
 1067 0184 FB18     		adds	r3, r7, r3
 1068 0186 1988     		ldrh	r1, [r3]
 1069 0188 F868     		ldr	r0, [r7, #12]
ARM GAS  C:\Users\ADMINI~1\AppData\Local\Temp\cc3zYV2m.s 			page 34


 1070 018a 0023     		movs	r3, #0
 1071 018c 0093     		str	r3, [sp]
 1072 018e 2300     		movs	r3, r4
 1073 0190 FFF7FEFF 		bl	I2C_TransferConfig
 1074 0194 12E0     		b	.L39
 1075              	.L43:
 822:Drivers/STM32F0xx_HAL_Driver/Src/stm32f0xx_hal_i2c.c ****         }
 823:Drivers/STM32F0xx_HAL_Driver/Src/stm32f0xx_hal_i2c.c ****         else
 824:Drivers/STM32F0xx_HAL_Driver/Src/stm32f0xx_hal_i2c.c ****         {
 825:Drivers/STM32F0xx_HAL_Driver/Src/stm32f0xx_hal_i2c.c ****           hi2c->XferSize = hi2c->XferCount;
 1076              		.loc 1 825 32
 1077 0196 FB68     		ldr	r3, [r7, #12]
 1078 0198 5B8D     		ldrh	r3, [r3, #42]
 1079 019a 9AB2     		uxth	r2, r3
 1080              		.loc 1 825 26
 1081 019c FB68     		ldr	r3, [r7, #12]
 1082 019e 1A85     		strh	r2, [r3, #40]
 826:Drivers/STM32F0xx_HAL_Driver/Src/stm32f0xx_hal_i2c.c ****           I2C_TransferConfig(hi2c, DevAddress, hi2c->XferSize, I2C_AUTOEND_MODE, I2C_NO_STARTSTOP);
 1083              		.loc 1 826 52
 1084 01a0 FB68     		ldr	r3, [r7, #12]
 1085 01a2 1B8D     		ldrh	r3, [r3, #40]
 1086              		.loc 1 826 11
 1087 01a4 DAB2     		uxtb	r2, r3
 1088 01a6 8023     		movs	r3, #128
 1089 01a8 9C04     		lsls	r4, r3, #18
 1090 01aa 0A23     		movs	r3, #10
 1091 01ac FB18     		adds	r3, r7, r3
 1092 01ae 1988     		ldrh	r1, [r3]
 1093 01b0 F868     		ldr	r0, [r7, #12]
 1094 01b2 0023     		movs	r3, #0
 1095 01b4 0093     		str	r3, [sp]
 1096 01b6 2300     		movs	r3, r4
 1097 01b8 FFF7FEFF 		bl	I2C_TransferConfig
 1098              	.L39:
 790:Drivers/STM32F0xx_HAL_Driver/Src/stm32f0xx_hal_i2c.c ****     {
 1099              		.loc 1 790 16
 1100 01bc FB68     		ldr	r3, [r7, #12]
 1101 01be 5B8D     		ldrh	r3, [r3, #42]
 1102 01c0 9BB2     		uxth	r3, r3
 790:Drivers/STM32F0xx_HAL_Driver/Src/stm32f0xx_hal_i2c.c ****     {
 1103              		.loc 1 790 11
 1104 01c2 002B     		cmp	r3, #0
 1105 01c4 93D1     		bne	.L44
 827:Drivers/STM32F0xx_HAL_Driver/Src/stm32f0xx_hal_i2c.c ****         }
 828:Drivers/STM32F0xx_HAL_Driver/Src/stm32f0xx_hal_i2c.c ****       }
 829:Drivers/STM32F0xx_HAL_Driver/Src/stm32f0xx_hal_i2c.c ****     }
 830:Drivers/STM32F0xx_HAL_Driver/Src/stm32f0xx_hal_i2c.c **** 
 831:Drivers/STM32F0xx_HAL_Driver/Src/stm32f0xx_hal_i2c.c ****     /* No need to Check TC flag, with AUTOEND mode the stop is automatically generated */
 832:Drivers/STM32F0xx_HAL_Driver/Src/stm32f0xx_hal_i2c.c ****     /* Wait until STOPF flag is set */
 833:Drivers/STM32F0xx_HAL_Driver/Src/stm32f0xx_hal_i2c.c ****     if (I2C_WaitOnSTOPFlagUntilTimeout(hi2c, Timeout, tickstart) != HAL_OK)
 1106              		.loc 1 833 9
 1107 01c6 7A69     		ldr	r2, [r7, #20]
 1108 01c8 B96A     		ldr	r1, [r7, #40]
 1109 01ca FB68     		ldr	r3, [r7, #12]
 1110 01cc 1800     		movs	r0, r3
 1111 01ce FFF7FEFF 		bl	I2C_WaitOnSTOPFlagUntilTimeout
 1112 01d2 031E     		subs	r3, r0, #0
ARM GAS  C:\Users\ADMINI~1\AppData\Local\Temp\cc3zYV2m.s 			page 35


 1113              		.loc 1 833 8
 1114 01d4 07D0     		beq	.L45
 834:Drivers/STM32F0xx_HAL_Driver/Src/stm32f0xx_hal_i2c.c ****     {
 835:Drivers/STM32F0xx_HAL_Driver/Src/stm32f0xx_hal_i2c.c ****       if (hi2c->ErrorCode == HAL_I2C_ERROR_AF)
 1115              		.loc 1 835 15
 1116 01d6 FB68     		ldr	r3, [r7, #12]
 1117 01d8 5B6C     		ldr	r3, [r3, #68]
 1118              		.loc 1 835 10
 1119 01da 042B     		cmp	r3, #4
 1120 01dc 01D1     		bne	.L46
 836:Drivers/STM32F0xx_HAL_Driver/Src/stm32f0xx_hal_i2c.c ****       {
 837:Drivers/STM32F0xx_HAL_Driver/Src/stm32f0xx_hal_i2c.c ****         return HAL_ERROR;
 1121              		.loc 1 837 16
 1122 01de 0123     		movs	r3, #1
 1123 01e0 1CE0     		b	.L35
 1124              	.L46:
 838:Drivers/STM32F0xx_HAL_Driver/Src/stm32f0xx_hal_i2c.c ****       }
 839:Drivers/STM32F0xx_HAL_Driver/Src/stm32f0xx_hal_i2c.c ****       else
 840:Drivers/STM32F0xx_HAL_Driver/Src/stm32f0xx_hal_i2c.c ****       {
 841:Drivers/STM32F0xx_HAL_Driver/Src/stm32f0xx_hal_i2c.c ****         return HAL_TIMEOUT;
 1125              		.loc 1 841 16
 1126 01e2 0323     		movs	r3, #3
 1127 01e4 1AE0     		b	.L35
 1128              	.L45:
 842:Drivers/STM32F0xx_HAL_Driver/Src/stm32f0xx_hal_i2c.c ****       }
 843:Drivers/STM32F0xx_HAL_Driver/Src/stm32f0xx_hal_i2c.c ****     }
 844:Drivers/STM32F0xx_HAL_Driver/Src/stm32f0xx_hal_i2c.c **** 
 845:Drivers/STM32F0xx_HAL_Driver/Src/stm32f0xx_hal_i2c.c ****     /* Clear STOP Flag */
 846:Drivers/STM32F0xx_HAL_Driver/Src/stm32f0xx_hal_i2c.c ****     __HAL_I2C_CLEAR_FLAG(hi2c, I2C_FLAG_STOPF);
 1129              		.loc 1 846 5
 1130 01e6 FB68     		ldr	r3, [r7, #12]
 1131 01e8 1B68     		ldr	r3, [r3]
 1132 01ea 2022     		movs	r2, #32
 1133 01ec DA61     		str	r2, [r3, #28]
 847:Drivers/STM32F0xx_HAL_Driver/Src/stm32f0xx_hal_i2c.c **** 
 848:Drivers/STM32F0xx_HAL_Driver/Src/stm32f0xx_hal_i2c.c ****     /* Clear Configuration Register 2 */
 849:Drivers/STM32F0xx_HAL_Driver/Src/stm32f0xx_hal_i2c.c ****     I2C_RESET_CR2(hi2c);
 1134              		.loc 1 849 5
 1135 01ee FB68     		ldr	r3, [r7, #12]
 1136 01f0 1B68     		ldr	r3, [r3]
 1137 01f2 5A68     		ldr	r2, [r3, #4]
 1138 01f4 FB68     		ldr	r3, [r7, #12]
 1139 01f6 1B68     		ldr	r3, [r3]
 1140 01f8 0A49     		ldr	r1, .L47
 1141 01fa 0A40     		ands	r2, r1
 1142 01fc 5A60     		str	r2, [r3, #4]
 850:Drivers/STM32F0xx_HAL_Driver/Src/stm32f0xx_hal_i2c.c **** 
 851:Drivers/STM32F0xx_HAL_Driver/Src/stm32f0xx_hal_i2c.c ****     hi2c->State = HAL_I2C_STATE_READY;
 1143              		.loc 1 851 17
 1144 01fe FB68     		ldr	r3, [r7, #12]
 1145 0200 4122     		movs	r2, #65
 1146 0202 2021     		movs	r1, #32
 1147 0204 9954     		strb	r1, [r3, r2]
 852:Drivers/STM32F0xx_HAL_Driver/Src/stm32f0xx_hal_i2c.c ****     hi2c->Mode  = HAL_I2C_MODE_NONE;
 1148              		.loc 1 852 17
 1149 0206 FB68     		ldr	r3, [r7, #12]
 1150 0208 4222     		movs	r2, #66
ARM GAS  C:\Users\ADMINI~1\AppData\Local\Temp\cc3zYV2m.s 			page 36


 1151 020a 0021     		movs	r1, #0
 1152 020c 9954     		strb	r1, [r3, r2]
 853:Drivers/STM32F0xx_HAL_Driver/Src/stm32f0xx_hal_i2c.c **** 
 854:Drivers/STM32F0xx_HAL_Driver/Src/stm32f0xx_hal_i2c.c ****     /* Process Unlocked */
 855:Drivers/STM32F0xx_HAL_Driver/Src/stm32f0xx_hal_i2c.c ****     __HAL_UNLOCK(hi2c);
 1153              		.loc 1 855 5
 1154 020e FB68     		ldr	r3, [r7, #12]
 1155 0210 4022     		movs	r2, #64
 1156 0212 0021     		movs	r1, #0
 1157 0214 9954     		strb	r1, [r3, r2]
 856:Drivers/STM32F0xx_HAL_Driver/Src/stm32f0xx_hal_i2c.c **** 
 857:Drivers/STM32F0xx_HAL_Driver/Src/stm32f0xx_hal_i2c.c ****     return HAL_OK;
 1158              		.loc 1 857 12
 1159 0216 0023     		movs	r3, #0
 1160 0218 00E0     		b	.L35
 1161              	.L33:
 858:Drivers/STM32F0xx_HAL_Driver/Src/stm32f0xx_hal_i2c.c ****   }
 859:Drivers/STM32F0xx_HAL_Driver/Src/stm32f0xx_hal_i2c.c ****   else
 860:Drivers/STM32F0xx_HAL_Driver/Src/stm32f0xx_hal_i2c.c ****   {
 861:Drivers/STM32F0xx_HAL_Driver/Src/stm32f0xx_hal_i2c.c ****     return HAL_BUSY;
 1162              		.loc 1 861 12
 1163 021a 0223     		movs	r3, #2
 1164              	.L35:
 862:Drivers/STM32F0xx_HAL_Driver/Src/stm32f0xx_hal_i2c.c ****   }
 863:Drivers/STM32F0xx_HAL_Driver/Src/stm32f0xx_hal_i2c.c **** }
 1165              		.loc 1 863 1
 1166 021c 1800     		movs	r0, r3
 1167 021e BD46     		mov	sp, r7
 1168 0220 07B0     		add	sp, sp, #28
 1169              		@ sp needed
 1170 0222 90BD     		pop	{r4, r7, pc}
 1171              	.L48:
 1172              		.align	2
 1173              	.L47:
 1174 0224 00E800FE 		.word	-33495040
 1175              		.cfi_endproc
 1176              	.LFE42:
 1178              		.section	.text.HAL_I2C_Slave_Transmit,"ax",%progbits
 1179              		.align	1
 1180              		.global	HAL_I2C_Slave_Transmit
 1181              		.syntax unified
 1182              		.code	16
 1183              		.thumb_func
 1184              		.fpu softvfp
 1186              	HAL_I2C_Slave_Transmit:
 1187              	.LFB43:
 864:Drivers/STM32F0xx_HAL_Driver/Src/stm32f0xx_hal_i2c.c **** 
 865:Drivers/STM32F0xx_HAL_Driver/Src/stm32f0xx_hal_i2c.c **** /**
 866:Drivers/STM32F0xx_HAL_Driver/Src/stm32f0xx_hal_i2c.c ****   * @brief  Transmits in slave mode an amount of data in blocking mode.
 867:Drivers/STM32F0xx_HAL_Driver/Src/stm32f0xx_hal_i2c.c ****   * @param  hi2c Pointer to a I2C_HandleTypeDef structure that contains
 868:Drivers/STM32F0xx_HAL_Driver/Src/stm32f0xx_hal_i2c.c ****   *                the configuration information for the specified I2C.
 869:Drivers/STM32F0xx_HAL_Driver/Src/stm32f0xx_hal_i2c.c ****   * @param  pData Pointer to data buffer
 870:Drivers/STM32F0xx_HAL_Driver/Src/stm32f0xx_hal_i2c.c ****   * @param  Size Amount of data to be sent
 871:Drivers/STM32F0xx_HAL_Driver/Src/stm32f0xx_hal_i2c.c ****   * @param  Timeout Timeout duration
 872:Drivers/STM32F0xx_HAL_Driver/Src/stm32f0xx_hal_i2c.c ****   * @retval HAL status
 873:Drivers/STM32F0xx_HAL_Driver/Src/stm32f0xx_hal_i2c.c ****   */
 874:Drivers/STM32F0xx_HAL_Driver/Src/stm32f0xx_hal_i2c.c **** HAL_StatusTypeDef HAL_I2C_Slave_Transmit(I2C_HandleTypeDef *hi2c, uint8_t *pData, uint16_t Size, ui
ARM GAS  C:\Users\ADMINI~1\AppData\Local\Temp\cc3zYV2m.s 			page 37


 875:Drivers/STM32F0xx_HAL_Driver/Src/stm32f0xx_hal_i2c.c **** {
 1188              		.loc 1 875 1
 1189              		.cfi_startproc
 1190              		@ args = 0, pretend = 0, frame = 24
 1191              		@ frame_needed = 1, uses_anonymous_args = 0
 1192 0000 80B5     		push	{r7, lr}
 1193              	.LCFI18:
 1194              		.cfi_def_cfa_offset 8
 1195              		.cfi_offset 7, -8
 1196              		.cfi_offset 14, -4
 1197 0002 88B0     		sub	sp, sp, #32
 1198              	.LCFI19:
 1199              		.cfi_def_cfa_offset 40
 1200 0004 02AF     		add	r7, sp, #8
 1201              	.LCFI20:
 1202              		.cfi_def_cfa 7, 32
 1203 0006 F860     		str	r0, [r7, #12]
 1204 0008 B960     		str	r1, [r7, #8]
 1205 000a 3B60     		str	r3, [r7]
 1206 000c BB1D     		adds	r3, r7, #6
 1207 000e 1A80     		strh	r2, [r3]
 876:Drivers/STM32F0xx_HAL_Driver/Src/stm32f0xx_hal_i2c.c ****   uint32_t tickstart = 0U;
 1208              		.loc 1 876 12
 1209 0010 0023     		movs	r3, #0
 1210 0012 7B61     		str	r3, [r7, #20]
 877:Drivers/STM32F0xx_HAL_Driver/Src/stm32f0xx_hal_i2c.c **** 
 878:Drivers/STM32F0xx_HAL_Driver/Src/stm32f0xx_hal_i2c.c ****   if (hi2c->State == HAL_I2C_STATE_READY)
 1211              		.loc 1 878 11
 1212 0014 FB68     		ldr	r3, [r7, #12]
 1213 0016 4122     		movs	r2, #65
 1214 0018 9B5C     		ldrb	r3, [r3, r2]
 1215 001a DBB2     		uxtb	r3, r3
 1216              		.loc 1 878 6
 1217 001c 202B     		cmp	r3, #32
 1218 001e 00D0     		beq	.LCB999
 1219 0020 FEE0     		b	.L50	@long jump
 1220              	.LCB999:
 879:Drivers/STM32F0xx_HAL_Driver/Src/stm32f0xx_hal_i2c.c ****   {
 880:Drivers/STM32F0xx_HAL_Driver/Src/stm32f0xx_hal_i2c.c ****     if ((pData == NULL) || (Size == 0U))
 1221              		.loc 1 880 8
 1222 0022 BB68     		ldr	r3, [r7, #8]
 1223 0024 002B     		cmp	r3, #0
 1224 0026 03D0     		beq	.L51
 1225              		.loc 1 880 25 discriminator 1
 1226 0028 BB1D     		adds	r3, r7, #6
 1227 002a 1B88     		ldrh	r3, [r3]
 1228 002c 002B     		cmp	r3, #0
 1229 002e 01D1     		bne	.L52
 1230              	.L51:
 881:Drivers/STM32F0xx_HAL_Driver/Src/stm32f0xx_hal_i2c.c ****     {
 882:Drivers/STM32F0xx_HAL_Driver/Src/stm32f0xx_hal_i2c.c ****       return  HAL_ERROR;
 1231              		.loc 1 882 15
 1232 0030 0123     		movs	r3, #1
 1233 0032 F6E0     		b	.L53
 1234              	.L52:
 883:Drivers/STM32F0xx_HAL_Driver/Src/stm32f0xx_hal_i2c.c ****     }
 884:Drivers/STM32F0xx_HAL_Driver/Src/stm32f0xx_hal_i2c.c ****     /* Process Locked */
ARM GAS  C:\Users\ADMINI~1\AppData\Local\Temp\cc3zYV2m.s 			page 38


 885:Drivers/STM32F0xx_HAL_Driver/Src/stm32f0xx_hal_i2c.c ****     __HAL_LOCK(hi2c);
 1235              		.loc 1 885 5
 1236 0034 FB68     		ldr	r3, [r7, #12]
 1237 0036 4022     		movs	r2, #64
 1238 0038 9B5C     		ldrb	r3, [r3, r2]
 1239 003a 012B     		cmp	r3, #1
 1240 003c 01D1     		bne	.L54
 1241              		.loc 1 885 5 is_stmt 0 discriminator 1
 1242 003e 0223     		movs	r3, #2
 1243 0040 EFE0     		b	.L53
 1244              	.L54:
 1245              		.loc 1 885 5 discriminator 2
 1246 0042 FB68     		ldr	r3, [r7, #12]
 1247 0044 4022     		movs	r2, #64
 1248 0046 0121     		movs	r1, #1
 1249 0048 9954     		strb	r1, [r3, r2]
 886:Drivers/STM32F0xx_HAL_Driver/Src/stm32f0xx_hal_i2c.c **** 
 887:Drivers/STM32F0xx_HAL_Driver/Src/stm32f0xx_hal_i2c.c ****     /* Init tickstart for timeout management*/
 888:Drivers/STM32F0xx_HAL_Driver/Src/stm32f0xx_hal_i2c.c ****     tickstart = HAL_GetTick();
 1250              		.loc 1 888 17 is_stmt 1 discriminator 2
 1251 004a FFF7FEFF 		bl	HAL_GetTick
 1252 004e 0300     		movs	r3, r0
 1253 0050 7B61     		str	r3, [r7, #20]
 889:Drivers/STM32F0xx_HAL_Driver/Src/stm32f0xx_hal_i2c.c **** 
 890:Drivers/STM32F0xx_HAL_Driver/Src/stm32f0xx_hal_i2c.c ****     hi2c->State     = HAL_I2C_STATE_BUSY_TX;
 1254              		.loc 1 890 21 discriminator 2
 1255 0052 FB68     		ldr	r3, [r7, #12]
 1256 0054 4122     		movs	r2, #65
 1257 0056 2121     		movs	r1, #33
 1258 0058 9954     		strb	r1, [r3, r2]
 891:Drivers/STM32F0xx_HAL_Driver/Src/stm32f0xx_hal_i2c.c ****     hi2c->Mode      = HAL_I2C_MODE_SLAVE;
 1259              		.loc 1 891 21 discriminator 2
 1260 005a FB68     		ldr	r3, [r7, #12]
 1261 005c 4222     		movs	r2, #66
 1262 005e 2021     		movs	r1, #32
 1263 0060 9954     		strb	r1, [r3, r2]
 892:Drivers/STM32F0xx_HAL_Driver/Src/stm32f0xx_hal_i2c.c ****     hi2c->ErrorCode = HAL_I2C_ERROR_NONE;
 1264              		.loc 1 892 21 discriminator 2
 1265 0062 FB68     		ldr	r3, [r7, #12]
 1266 0064 0022     		movs	r2, #0
 1267 0066 5A64     		str	r2, [r3, #68]
 893:Drivers/STM32F0xx_HAL_Driver/Src/stm32f0xx_hal_i2c.c **** 
 894:Drivers/STM32F0xx_HAL_Driver/Src/stm32f0xx_hal_i2c.c ****     /* Prepare transfer parameters */
 895:Drivers/STM32F0xx_HAL_Driver/Src/stm32f0xx_hal_i2c.c ****     hi2c->pBuffPtr  = pData;
 1268              		.loc 1 895 21 discriminator 2
 1269 0068 FB68     		ldr	r3, [r7, #12]
 1270 006a BA68     		ldr	r2, [r7, #8]
 1271 006c 5A62     		str	r2, [r3, #36]
 896:Drivers/STM32F0xx_HAL_Driver/Src/stm32f0xx_hal_i2c.c ****     hi2c->XferCount = Size;
 1272              		.loc 1 896 21 discriminator 2
 1273 006e FB68     		ldr	r3, [r7, #12]
 1274 0070 BA1D     		adds	r2, r7, #6
 1275 0072 1288     		ldrh	r2, [r2]
 1276 0074 5A85     		strh	r2, [r3, #42]
 897:Drivers/STM32F0xx_HAL_Driver/Src/stm32f0xx_hal_i2c.c ****     hi2c->XferISR   = NULL;
 1277              		.loc 1 897 21 discriminator 2
 1278 0076 FB68     		ldr	r3, [r7, #12]
ARM GAS  C:\Users\ADMINI~1\AppData\Local\Temp\cc3zYV2m.s 			page 39


 1279 0078 0022     		movs	r2, #0
 1280 007a 5A63     		str	r2, [r3, #52]
 898:Drivers/STM32F0xx_HAL_Driver/Src/stm32f0xx_hal_i2c.c **** 
 899:Drivers/STM32F0xx_HAL_Driver/Src/stm32f0xx_hal_i2c.c ****     /* Enable Address Acknowledge */
 900:Drivers/STM32F0xx_HAL_Driver/Src/stm32f0xx_hal_i2c.c ****     hi2c->Instance->CR2 &= ~I2C_CR2_NACK;
 1281              		.loc 1 900 9 discriminator 2
 1282 007c FB68     		ldr	r3, [r7, #12]
 1283 007e 1B68     		ldr	r3, [r3]
 1284              		.loc 1 900 25 discriminator 2
 1285 0080 5A68     		ldr	r2, [r3, #4]
 1286              		.loc 1 900 9 discriminator 2
 1287 0082 FB68     		ldr	r3, [r7, #12]
 1288 0084 1B68     		ldr	r3, [r3]
 1289              		.loc 1 900 25 discriminator 2
 1290 0086 6949     		ldr	r1, .L66
 1291 0088 0A40     		ands	r2, r1
 1292 008a 5A60     		str	r2, [r3, #4]
 901:Drivers/STM32F0xx_HAL_Driver/Src/stm32f0xx_hal_i2c.c **** 
 902:Drivers/STM32F0xx_HAL_Driver/Src/stm32f0xx_hal_i2c.c ****     /* Wait until ADDR flag is set */
 903:Drivers/STM32F0xx_HAL_Driver/Src/stm32f0xx_hal_i2c.c ****     if (I2C_WaitOnFlagUntilTimeout(hi2c, I2C_FLAG_ADDR, RESET, Timeout, tickstart) != HAL_OK)
 1293              		.loc 1 903 9 discriminator 2
 1294 008c 3A68     		ldr	r2, [r7]
 1295 008e F868     		ldr	r0, [r7, #12]
 1296 0090 7B69     		ldr	r3, [r7, #20]
 1297 0092 0093     		str	r3, [sp]
 1298 0094 1300     		movs	r3, r2
 1299 0096 0022     		movs	r2, #0
 1300 0098 0821     		movs	r1, #8
 1301 009a FFF7FEFF 		bl	I2C_WaitOnFlagUntilTimeout
 1302 009e 031E     		subs	r3, r0, #0
 1303              		.loc 1 903 8 discriminator 2
 1304 00a0 0AD0     		beq	.L55
 904:Drivers/STM32F0xx_HAL_Driver/Src/stm32f0xx_hal_i2c.c ****     {
 905:Drivers/STM32F0xx_HAL_Driver/Src/stm32f0xx_hal_i2c.c ****       /* Disable Address Acknowledge */
 906:Drivers/STM32F0xx_HAL_Driver/Src/stm32f0xx_hal_i2c.c ****       hi2c->Instance->CR2 |= I2C_CR2_NACK;
 1305              		.loc 1 906 11
 1306 00a2 FB68     		ldr	r3, [r7, #12]
 1307 00a4 1B68     		ldr	r3, [r3]
 1308              		.loc 1 906 27
 1309 00a6 5A68     		ldr	r2, [r3, #4]
 1310              		.loc 1 906 11
 1311 00a8 FB68     		ldr	r3, [r7, #12]
 1312 00aa 1B68     		ldr	r3, [r3]
 1313              		.loc 1 906 27
 1314 00ac 8021     		movs	r1, #128
 1315 00ae 0902     		lsls	r1, r1, #8
 1316 00b0 0A43     		orrs	r2, r1
 1317 00b2 5A60     		str	r2, [r3, #4]
 907:Drivers/STM32F0xx_HAL_Driver/Src/stm32f0xx_hal_i2c.c ****       return HAL_TIMEOUT;
 1318              		.loc 1 907 14
 1319 00b4 0323     		movs	r3, #3
 1320 00b6 B4E0     		b	.L53
 1321              	.L55:
 908:Drivers/STM32F0xx_HAL_Driver/Src/stm32f0xx_hal_i2c.c ****     }
 909:Drivers/STM32F0xx_HAL_Driver/Src/stm32f0xx_hal_i2c.c **** 
 910:Drivers/STM32F0xx_HAL_Driver/Src/stm32f0xx_hal_i2c.c ****     /* Clear ADDR flag */
 911:Drivers/STM32F0xx_HAL_Driver/Src/stm32f0xx_hal_i2c.c ****     __HAL_I2C_CLEAR_FLAG(hi2c, I2C_FLAG_ADDR);
ARM GAS  C:\Users\ADMINI~1\AppData\Local\Temp\cc3zYV2m.s 			page 40


 1322              		.loc 1 911 5
 1323 00b8 FB68     		ldr	r3, [r7, #12]
 1324 00ba 1B68     		ldr	r3, [r3]
 1325 00bc 0822     		movs	r2, #8
 1326 00be DA61     		str	r2, [r3, #28]
 912:Drivers/STM32F0xx_HAL_Driver/Src/stm32f0xx_hal_i2c.c **** 
 913:Drivers/STM32F0xx_HAL_Driver/Src/stm32f0xx_hal_i2c.c ****     /* If 10bit addressing mode is selected */
 914:Drivers/STM32F0xx_HAL_Driver/Src/stm32f0xx_hal_i2c.c ****     if (hi2c->Init.AddressingMode == I2C_ADDRESSINGMODE_10BIT)
 1327              		.loc 1 914 19
 1328 00c0 FB68     		ldr	r3, [r7, #12]
 1329 00c2 DB68     		ldr	r3, [r3, #12]
 1330              		.loc 1 914 8
 1331 00c4 022B     		cmp	r3, #2
 1332 00c6 19D1     		bne	.L56
 915:Drivers/STM32F0xx_HAL_Driver/Src/stm32f0xx_hal_i2c.c ****     {
 916:Drivers/STM32F0xx_HAL_Driver/Src/stm32f0xx_hal_i2c.c ****       /* Wait until ADDR flag is set */
 917:Drivers/STM32F0xx_HAL_Driver/Src/stm32f0xx_hal_i2c.c ****       if (I2C_WaitOnFlagUntilTimeout(hi2c, I2C_FLAG_ADDR, RESET, Timeout, tickstart) != HAL_OK)
 1333              		.loc 1 917 11
 1334 00c8 3A68     		ldr	r2, [r7]
 1335 00ca F868     		ldr	r0, [r7, #12]
 1336 00cc 7B69     		ldr	r3, [r7, #20]
 1337 00ce 0093     		str	r3, [sp]
 1338 00d0 1300     		movs	r3, r2
 1339 00d2 0022     		movs	r2, #0
 1340 00d4 0821     		movs	r1, #8
 1341 00d6 FFF7FEFF 		bl	I2C_WaitOnFlagUntilTimeout
 1342 00da 031E     		subs	r3, r0, #0
 1343              		.loc 1 917 10
 1344 00dc 0AD0     		beq	.L57
 918:Drivers/STM32F0xx_HAL_Driver/Src/stm32f0xx_hal_i2c.c ****       {
 919:Drivers/STM32F0xx_HAL_Driver/Src/stm32f0xx_hal_i2c.c ****         /* Disable Address Acknowledge */
 920:Drivers/STM32F0xx_HAL_Driver/Src/stm32f0xx_hal_i2c.c ****         hi2c->Instance->CR2 |= I2C_CR2_NACK;
 1345              		.loc 1 920 13
 1346 00de FB68     		ldr	r3, [r7, #12]
 1347 00e0 1B68     		ldr	r3, [r3]
 1348              		.loc 1 920 29
 1349 00e2 5A68     		ldr	r2, [r3, #4]
 1350              		.loc 1 920 13
 1351 00e4 FB68     		ldr	r3, [r7, #12]
 1352 00e6 1B68     		ldr	r3, [r3]
 1353              		.loc 1 920 29
 1354 00e8 8021     		movs	r1, #128
 1355 00ea 0902     		lsls	r1, r1, #8
 1356 00ec 0A43     		orrs	r2, r1
 1357 00ee 5A60     		str	r2, [r3, #4]
 921:Drivers/STM32F0xx_HAL_Driver/Src/stm32f0xx_hal_i2c.c ****         return HAL_TIMEOUT;
 1358              		.loc 1 921 16
 1359 00f0 0323     		movs	r3, #3
 1360 00f2 96E0     		b	.L53
 1361              	.L57:
 922:Drivers/STM32F0xx_HAL_Driver/Src/stm32f0xx_hal_i2c.c ****       }
 923:Drivers/STM32F0xx_HAL_Driver/Src/stm32f0xx_hal_i2c.c **** 
 924:Drivers/STM32F0xx_HAL_Driver/Src/stm32f0xx_hal_i2c.c ****       /* Clear ADDR flag */
 925:Drivers/STM32F0xx_HAL_Driver/Src/stm32f0xx_hal_i2c.c ****       __HAL_I2C_CLEAR_FLAG(hi2c, I2C_FLAG_ADDR);
 1362              		.loc 1 925 7
 1363 00f4 FB68     		ldr	r3, [r7, #12]
 1364 00f6 1B68     		ldr	r3, [r3]
ARM GAS  C:\Users\ADMINI~1\AppData\Local\Temp\cc3zYV2m.s 			page 41


 1365 00f8 0822     		movs	r2, #8
 1366 00fa DA61     		str	r2, [r3, #28]
 1367              	.L56:
 926:Drivers/STM32F0xx_HAL_Driver/Src/stm32f0xx_hal_i2c.c ****     }
 927:Drivers/STM32F0xx_HAL_Driver/Src/stm32f0xx_hal_i2c.c **** 
 928:Drivers/STM32F0xx_HAL_Driver/Src/stm32f0xx_hal_i2c.c ****     /* Wait until DIR flag is set Transmitter mode */
 929:Drivers/STM32F0xx_HAL_Driver/Src/stm32f0xx_hal_i2c.c ****     if (I2C_WaitOnFlagUntilTimeout(hi2c, I2C_FLAG_DIR, RESET, Timeout, tickstart) != HAL_OK)
 1368              		.loc 1 929 9
 1369 00fc 3A68     		ldr	r2, [r7]
 1370 00fe 8023     		movs	r3, #128
 1371 0100 5902     		lsls	r1, r3, #9
 1372 0102 F868     		ldr	r0, [r7, #12]
 1373 0104 7B69     		ldr	r3, [r7, #20]
 1374 0106 0093     		str	r3, [sp]
 1375 0108 1300     		movs	r3, r2
 1376 010a 0022     		movs	r2, #0
 1377 010c FFF7FEFF 		bl	I2C_WaitOnFlagUntilTimeout
 1378 0110 031E     		subs	r3, r0, #0
 1379              		.loc 1 929 8
 1380 0112 33D0     		beq	.L59
 930:Drivers/STM32F0xx_HAL_Driver/Src/stm32f0xx_hal_i2c.c ****     {
 931:Drivers/STM32F0xx_HAL_Driver/Src/stm32f0xx_hal_i2c.c ****       /* Disable Address Acknowledge */
 932:Drivers/STM32F0xx_HAL_Driver/Src/stm32f0xx_hal_i2c.c ****       hi2c->Instance->CR2 |= I2C_CR2_NACK;
 1381              		.loc 1 932 11
 1382 0114 FB68     		ldr	r3, [r7, #12]
 1383 0116 1B68     		ldr	r3, [r3]
 1384              		.loc 1 932 27
 1385 0118 5A68     		ldr	r2, [r3, #4]
 1386              		.loc 1 932 11
 1387 011a FB68     		ldr	r3, [r7, #12]
 1388 011c 1B68     		ldr	r3, [r3]
 1389              		.loc 1 932 27
 1390 011e 8021     		movs	r1, #128
 1391 0120 0902     		lsls	r1, r1, #8
 1392 0122 0A43     		orrs	r2, r1
 1393 0124 5A60     		str	r2, [r3, #4]
 933:Drivers/STM32F0xx_HAL_Driver/Src/stm32f0xx_hal_i2c.c ****       return HAL_TIMEOUT;
 1394              		.loc 1 933 14
 1395 0126 0323     		movs	r3, #3
 1396 0128 7BE0     		b	.L53
 1397              	.L62:
 934:Drivers/STM32F0xx_HAL_Driver/Src/stm32f0xx_hal_i2c.c ****     }
 935:Drivers/STM32F0xx_HAL_Driver/Src/stm32f0xx_hal_i2c.c **** 
 936:Drivers/STM32F0xx_HAL_Driver/Src/stm32f0xx_hal_i2c.c ****     while (hi2c->XferCount > 0U)
 937:Drivers/STM32F0xx_HAL_Driver/Src/stm32f0xx_hal_i2c.c ****     {
 938:Drivers/STM32F0xx_HAL_Driver/Src/stm32f0xx_hal_i2c.c ****       /* Wait until TXIS flag is set */
 939:Drivers/STM32F0xx_HAL_Driver/Src/stm32f0xx_hal_i2c.c ****       if (I2C_WaitOnTXISFlagUntilTimeout(hi2c, Timeout, tickstart) != HAL_OK)
 1398              		.loc 1 939 11
 1399 012a 7A69     		ldr	r2, [r7, #20]
 1400 012c 3968     		ldr	r1, [r7]
 1401 012e FB68     		ldr	r3, [r7, #12]
 1402 0130 1800     		movs	r0, r3
 1403 0132 FFF7FEFF 		bl	I2C_WaitOnTXISFlagUntilTimeout
 1404 0136 031E     		subs	r3, r0, #0
 1405              		.loc 1 939 10
 1406 0138 10D0     		beq	.L60
 940:Drivers/STM32F0xx_HAL_Driver/Src/stm32f0xx_hal_i2c.c ****       {
ARM GAS  C:\Users\ADMINI~1\AppData\Local\Temp\cc3zYV2m.s 			page 42


 941:Drivers/STM32F0xx_HAL_Driver/Src/stm32f0xx_hal_i2c.c ****         /* Disable Address Acknowledge */
 942:Drivers/STM32F0xx_HAL_Driver/Src/stm32f0xx_hal_i2c.c ****         hi2c->Instance->CR2 |= I2C_CR2_NACK;
 1407              		.loc 1 942 13
 1408 013a FB68     		ldr	r3, [r7, #12]
 1409 013c 1B68     		ldr	r3, [r3]
 1410              		.loc 1 942 29
 1411 013e 5A68     		ldr	r2, [r3, #4]
 1412              		.loc 1 942 13
 1413 0140 FB68     		ldr	r3, [r7, #12]
 1414 0142 1B68     		ldr	r3, [r3]
 1415              		.loc 1 942 29
 1416 0144 8021     		movs	r1, #128
 1417 0146 0902     		lsls	r1, r1, #8
 1418 0148 0A43     		orrs	r2, r1
 1419 014a 5A60     		str	r2, [r3, #4]
 943:Drivers/STM32F0xx_HAL_Driver/Src/stm32f0xx_hal_i2c.c **** 
 944:Drivers/STM32F0xx_HAL_Driver/Src/stm32f0xx_hal_i2c.c ****         if (hi2c->ErrorCode == HAL_I2C_ERROR_AF)
 1420              		.loc 1 944 17
 1421 014c FB68     		ldr	r3, [r7, #12]
 1422 014e 5B6C     		ldr	r3, [r3, #68]
 1423              		.loc 1 944 12
 1424 0150 042B     		cmp	r3, #4
 1425 0152 01D1     		bne	.L61
 945:Drivers/STM32F0xx_HAL_Driver/Src/stm32f0xx_hal_i2c.c ****         {
 946:Drivers/STM32F0xx_HAL_Driver/Src/stm32f0xx_hal_i2c.c ****           return HAL_ERROR;
 1426              		.loc 1 946 18
 1427 0154 0123     		movs	r3, #1
 1428 0156 64E0     		b	.L53
 1429              	.L61:
 947:Drivers/STM32F0xx_HAL_Driver/Src/stm32f0xx_hal_i2c.c ****         }
 948:Drivers/STM32F0xx_HAL_Driver/Src/stm32f0xx_hal_i2c.c ****         else
 949:Drivers/STM32F0xx_HAL_Driver/Src/stm32f0xx_hal_i2c.c ****         {
 950:Drivers/STM32F0xx_HAL_Driver/Src/stm32f0xx_hal_i2c.c ****           return HAL_TIMEOUT;
 1430              		.loc 1 950 18
 1431 0158 0323     		movs	r3, #3
 1432 015a 62E0     		b	.L53
 1433              	.L60:
 951:Drivers/STM32F0xx_HAL_Driver/Src/stm32f0xx_hal_i2c.c ****         }
 952:Drivers/STM32F0xx_HAL_Driver/Src/stm32f0xx_hal_i2c.c ****       }
 953:Drivers/STM32F0xx_HAL_Driver/Src/stm32f0xx_hal_i2c.c **** 
 954:Drivers/STM32F0xx_HAL_Driver/Src/stm32f0xx_hal_i2c.c ****       /* Write data to TXDR */
 955:Drivers/STM32F0xx_HAL_Driver/Src/stm32f0xx_hal_i2c.c ****       hi2c->Instance->TXDR = (*hi2c->pBuffPtr++);
 1434              		.loc 1 955 36
 1435 015c FB68     		ldr	r3, [r7, #12]
 1436 015e 5B6A     		ldr	r3, [r3, #36]
 1437              		.loc 1 955 46
 1438 0160 591C     		adds	r1, r3, #1
 1439 0162 FA68     		ldr	r2, [r7, #12]
 1440 0164 5162     		str	r1, [r2, #36]
 1441              		.loc 1 955 31
 1442 0166 1A78     		ldrb	r2, [r3]
 1443              		.loc 1 955 11
 1444 0168 FB68     		ldr	r3, [r7, #12]
 1445 016a 1B68     		ldr	r3, [r3]
 1446              		.loc 1 955 28
 1447 016c 9A62     		str	r2, [r3, #40]
 956:Drivers/STM32F0xx_HAL_Driver/Src/stm32f0xx_hal_i2c.c ****       hi2c->XferCount--;
ARM GAS  C:\Users\ADMINI~1\AppData\Local\Temp\cc3zYV2m.s 			page 43


 1448              		.loc 1 956 11
 1449 016e FB68     		ldr	r3, [r7, #12]
 1450 0170 5B8D     		ldrh	r3, [r3, #42]
 1451 0172 9BB2     		uxth	r3, r3
 1452              		.loc 1 956 22
 1453 0174 013B     		subs	r3, r3, #1
 1454 0176 9AB2     		uxth	r2, r3
 1455 0178 FB68     		ldr	r3, [r7, #12]
 1456 017a 5A85     		strh	r2, [r3, #42]
 1457              	.L59:
 936:Drivers/STM32F0xx_HAL_Driver/Src/stm32f0xx_hal_i2c.c ****     {
 1458              		.loc 1 936 16
 1459 017c FB68     		ldr	r3, [r7, #12]
 1460 017e 5B8D     		ldrh	r3, [r3, #42]
 1461 0180 9BB2     		uxth	r3, r3
 936:Drivers/STM32F0xx_HAL_Driver/Src/stm32f0xx_hal_i2c.c ****     {
 1462              		.loc 1 936 11
 1463 0182 002B     		cmp	r3, #0
 1464 0184 D1D1     		bne	.L62
 957:Drivers/STM32F0xx_HAL_Driver/Src/stm32f0xx_hal_i2c.c ****     }
 958:Drivers/STM32F0xx_HAL_Driver/Src/stm32f0xx_hal_i2c.c **** 
 959:Drivers/STM32F0xx_HAL_Driver/Src/stm32f0xx_hal_i2c.c ****     /* Wait until STOP flag is set */
 960:Drivers/STM32F0xx_HAL_Driver/Src/stm32f0xx_hal_i2c.c ****     if (I2C_WaitOnSTOPFlagUntilTimeout(hi2c, Timeout, tickstart) != HAL_OK)
 1465              		.loc 1 960 9
 1466 0186 7A69     		ldr	r2, [r7, #20]
 1467 0188 3968     		ldr	r1, [r7]
 1468 018a FB68     		ldr	r3, [r7, #12]
 1469 018c 1800     		movs	r0, r3
 1470 018e FFF7FEFF 		bl	I2C_WaitOnSTOPFlagUntilTimeout
 1471 0192 031E     		subs	r3, r0, #0
 1472              		.loc 1 960 8
 1473 0194 12D0     		beq	.L63
 961:Drivers/STM32F0xx_HAL_Driver/Src/stm32f0xx_hal_i2c.c ****     {
 962:Drivers/STM32F0xx_HAL_Driver/Src/stm32f0xx_hal_i2c.c ****       /* Disable Address Acknowledge */
 963:Drivers/STM32F0xx_HAL_Driver/Src/stm32f0xx_hal_i2c.c ****       hi2c->Instance->CR2 |= I2C_CR2_NACK;
 1474              		.loc 1 963 11
 1475 0196 FB68     		ldr	r3, [r7, #12]
 1476 0198 1B68     		ldr	r3, [r3]
 1477              		.loc 1 963 27
 1478 019a 5A68     		ldr	r2, [r3, #4]
 1479              		.loc 1 963 11
 1480 019c FB68     		ldr	r3, [r7, #12]
 1481 019e 1B68     		ldr	r3, [r3]
 1482              		.loc 1 963 27
 1483 01a0 8021     		movs	r1, #128
 1484 01a2 0902     		lsls	r1, r1, #8
 1485 01a4 0A43     		orrs	r2, r1
 1486 01a6 5A60     		str	r2, [r3, #4]
 964:Drivers/STM32F0xx_HAL_Driver/Src/stm32f0xx_hal_i2c.c **** 
 965:Drivers/STM32F0xx_HAL_Driver/Src/stm32f0xx_hal_i2c.c ****       if (hi2c->ErrorCode == HAL_I2C_ERROR_AF)
 1487              		.loc 1 965 15
 1488 01a8 FB68     		ldr	r3, [r7, #12]
 1489 01aa 5B6C     		ldr	r3, [r3, #68]
 1490              		.loc 1 965 10
 1491 01ac 042B     		cmp	r3, #4
 1492 01ae 03D1     		bne	.L64
 966:Drivers/STM32F0xx_HAL_Driver/Src/stm32f0xx_hal_i2c.c ****       {
ARM GAS  C:\Users\ADMINI~1\AppData\Local\Temp\cc3zYV2m.s 			page 44


 967:Drivers/STM32F0xx_HAL_Driver/Src/stm32f0xx_hal_i2c.c ****         /* Normal use case for Transmitter mode */
 968:Drivers/STM32F0xx_HAL_Driver/Src/stm32f0xx_hal_i2c.c ****         /* A NACK is generated to confirm the end of transfer */
 969:Drivers/STM32F0xx_HAL_Driver/Src/stm32f0xx_hal_i2c.c ****         hi2c->ErrorCode = HAL_I2C_ERROR_NONE;
 1493              		.loc 1 969 25
 1494 01b0 FB68     		ldr	r3, [r7, #12]
 1495 01b2 0022     		movs	r2, #0
 1496 01b4 5A64     		str	r2, [r3, #68]
 1497 01b6 01E0     		b	.L63
 1498              	.L64:
 970:Drivers/STM32F0xx_HAL_Driver/Src/stm32f0xx_hal_i2c.c ****       }
 971:Drivers/STM32F0xx_HAL_Driver/Src/stm32f0xx_hal_i2c.c ****       else
 972:Drivers/STM32F0xx_HAL_Driver/Src/stm32f0xx_hal_i2c.c ****       {
 973:Drivers/STM32F0xx_HAL_Driver/Src/stm32f0xx_hal_i2c.c ****         return HAL_TIMEOUT;
 1499              		.loc 1 973 16
 1500 01b8 0323     		movs	r3, #3
 1501 01ba 32E0     		b	.L53
 1502              	.L63:
 974:Drivers/STM32F0xx_HAL_Driver/Src/stm32f0xx_hal_i2c.c ****       }
 975:Drivers/STM32F0xx_HAL_Driver/Src/stm32f0xx_hal_i2c.c ****     }
 976:Drivers/STM32F0xx_HAL_Driver/Src/stm32f0xx_hal_i2c.c **** 
 977:Drivers/STM32F0xx_HAL_Driver/Src/stm32f0xx_hal_i2c.c ****     /* Clear STOP flag */
 978:Drivers/STM32F0xx_HAL_Driver/Src/stm32f0xx_hal_i2c.c ****     __HAL_I2C_CLEAR_FLAG(hi2c, I2C_FLAG_STOPF);
 1503              		.loc 1 978 5
 1504 01bc FB68     		ldr	r3, [r7, #12]
 1505 01be 1B68     		ldr	r3, [r3]
 1506 01c0 2022     		movs	r2, #32
 1507 01c2 DA61     		str	r2, [r3, #28]
 979:Drivers/STM32F0xx_HAL_Driver/Src/stm32f0xx_hal_i2c.c **** 
 980:Drivers/STM32F0xx_HAL_Driver/Src/stm32f0xx_hal_i2c.c ****     /* Wait until BUSY flag is reset */
 981:Drivers/STM32F0xx_HAL_Driver/Src/stm32f0xx_hal_i2c.c ****     if (I2C_WaitOnFlagUntilTimeout(hi2c, I2C_FLAG_BUSY, SET, Timeout, tickstart) != HAL_OK)
 1508              		.loc 1 981 9
 1509 01c4 3A68     		ldr	r2, [r7]
 1510 01c6 8023     		movs	r3, #128
 1511 01c8 1902     		lsls	r1, r3, #8
 1512 01ca F868     		ldr	r0, [r7, #12]
 1513 01cc 7B69     		ldr	r3, [r7, #20]
 1514 01ce 0093     		str	r3, [sp]
 1515 01d0 1300     		movs	r3, r2
 1516 01d2 0122     		movs	r2, #1
 1517 01d4 FFF7FEFF 		bl	I2C_WaitOnFlagUntilTimeout
 1518 01d8 031E     		subs	r3, r0, #0
 1519              		.loc 1 981 8
 1520 01da 0AD0     		beq	.L65
 982:Drivers/STM32F0xx_HAL_Driver/Src/stm32f0xx_hal_i2c.c ****     {
 983:Drivers/STM32F0xx_HAL_Driver/Src/stm32f0xx_hal_i2c.c ****       /* Disable Address Acknowledge */
 984:Drivers/STM32F0xx_HAL_Driver/Src/stm32f0xx_hal_i2c.c ****       hi2c->Instance->CR2 |= I2C_CR2_NACK;
 1521              		.loc 1 984 11
 1522 01dc FB68     		ldr	r3, [r7, #12]
 1523 01de 1B68     		ldr	r3, [r3]
 1524              		.loc 1 984 27
 1525 01e0 5A68     		ldr	r2, [r3, #4]
 1526              		.loc 1 984 11
 1527 01e2 FB68     		ldr	r3, [r7, #12]
 1528 01e4 1B68     		ldr	r3, [r3]
 1529              		.loc 1 984 27
 1530 01e6 8021     		movs	r1, #128
 1531 01e8 0902     		lsls	r1, r1, #8
ARM GAS  C:\Users\ADMINI~1\AppData\Local\Temp\cc3zYV2m.s 			page 45


 1532 01ea 0A43     		orrs	r2, r1
 1533 01ec 5A60     		str	r2, [r3, #4]
 985:Drivers/STM32F0xx_HAL_Driver/Src/stm32f0xx_hal_i2c.c ****       return HAL_TIMEOUT;
 1534              		.loc 1 985 14
 1535 01ee 0323     		movs	r3, #3
 1536 01f0 17E0     		b	.L53
 1537              	.L65:
 986:Drivers/STM32F0xx_HAL_Driver/Src/stm32f0xx_hal_i2c.c ****     }
 987:Drivers/STM32F0xx_HAL_Driver/Src/stm32f0xx_hal_i2c.c **** 
 988:Drivers/STM32F0xx_HAL_Driver/Src/stm32f0xx_hal_i2c.c ****     /* Disable Address Acknowledge */
 989:Drivers/STM32F0xx_HAL_Driver/Src/stm32f0xx_hal_i2c.c ****     hi2c->Instance->CR2 |= I2C_CR2_NACK;
 1538              		.loc 1 989 9
 1539 01f2 FB68     		ldr	r3, [r7, #12]
 1540 01f4 1B68     		ldr	r3, [r3]
 1541              		.loc 1 989 25
 1542 01f6 5A68     		ldr	r2, [r3, #4]
 1543              		.loc 1 989 9
 1544 01f8 FB68     		ldr	r3, [r7, #12]
 1545 01fa 1B68     		ldr	r3, [r3]
 1546              		.loc 1 989 25
 1547 01fc 8021     		movs	r1, #128
 1548 01fe 0902     		lsls	r1, r1, #8
 1549 0200 0A43     		orrs	r2, r1
 1550 0202 5A60     		str	r2, [r3, #4]
 990:Drivers/STM32F0xx_HAL_Driver/Src/stm32f0xx_hal_i2c.c **** 
 991:Drivers/STM32F0xx_HAL_Driver/Src/stm32f0xx_hal_i2c.c ****     hi2c->State = HAL_I2C_STATE_READY;
 1551              		.loc 1 991 17
 1552 0204 FB68     		ldr	r3, [r7, #12]
 1553 0206 4122     		movs	r2, #65
 1554 0208 2021     		movs	r1, #32
 1555 020a 9954     		strb	r1, [r3, r2]
 992:Drivers/STM32F0xx_HAL_Driver/Src/stm32f0xx_hal_i2c.c ****     hi2c->Mode  = HAL_I2C_MODE_NONE;
 1556              		.loc 1 992 17
 1557 020c FB68     		ldr	r3, [r7, #12]
 1558 020e 4222     		movs	r2, #66
 1559 0210 0021     		movs	r1, #0
 1560 0212 9954     		strb	r1, [r3, r2]
 993:Drivers/STM32F0xx_HAL_Driver/Src/stm32f0xx_hal_i2c.c **** 
 994:Drivers/STM32F0xx_HAL_Driver/Src/stm32f0xx_hal_i2c.c ****     /* Process Unlocked */
 995:Drivers/STM32F0xx_HAL_Driver/Src/stm32f0xx_hal_i2c.c ****     __HAL_UNLOCK(hi2c);
 1561              		.loc 1 995 5
 1562 0214 FB68     		ldr	r3, [r7, #12]
 1563 0216 4022     		movs	r2, #64
 1564 0218 0021     		movs	r1, #0
 1565 021a 9954     		strb	r1, [r3, r2]
 996:Drivers/STM32F0xx_HAL_Driver/Src/stm32f0xx_hal_i2c.c **** 
 997:Drivers/STM32F0xx_HAL_Driver/Src/stm32f0xx_hal_i2c.c ****     return HAL_OK;
 1566              		.loc 1 997 12
 1567 021c 0023     		movs	r3, #0
 1568 021e 00E0     		b	.L53
 1569              	.L50:
 998:Drivers/STM32F0xx_HAL_Driver/Src/stm32f0xx_hal_i2c.c ****   }
 999:Drivers/STM32F0xx_HAL_Driver/Src/stm32f0xx_hal_i2c.c ****   else
1000:Drivers/STM32F0xx_HAL_Driver/Src/stm32f0xx_hal_i2c.c ****   {
1001:Drivers/STM32F0xx_HAL_Driver/Src/stm32f0xx_hal_i2c.c ****     return HAL_BUSY;
 1570              		.loc 1 1001 12
 1571 0220 0223     		movs	r3, #2
ARM GAS  C:\Users\ADMINI~1\AppData\Local\Temp\cc3zYV2m.s 			page 46


 1572              	.L53:
1002:Drivers/STM32F0xx_HAL_Driver/Src/stm32f0xx_hal_i2c.c ****   }
1003:Drivers/STM32F0xx_HAL_Driver/Src/stm32f0xx_hal_i2c.c **** }
 1573              		.loc 1 1003 1
 1574 0222 1800     		movs	r0, r3
 1575 0224 BD46     		mov	sp, r7
 1576 0226 06B0     		add	sp, sp, #24
 1577              		@ sp needed
 1578 0228 80BD     		pop	{r7, pc}
 1579              	.L67:
 1580 022a C046     		.align	2
 1581              	.L66:
 1582 022c FF7FFFFF 		.word	-32769
 1583              		.cfi_endproc
 1584              	.LFE43:
 1586              		.section	.text.HAL_I2C_Slave_Receive,"ax",%progbits
 1587              		.align	1
 1588              		.global	HAL_I2C_Slave_Receive
 1589              		.syntax unified
 1590              		.code	16
 1591              		.thumb_func
 1592              		.fpu softvfp
 1594              	HAL_I2C_Slave_Receive:
 1595              	.LFB44:
1004:Drivers/STM32F0xx_HAL_Driver/Src/stm32f0xx_hal_i2c.c **** 
1005:Drivers/STM32F0xx_HAL_Driver/Src/stm32f0xx_hal_i2c.c **** /**
1006:Drivers/STM32F0xx_HAL_Driver/Src/stm32f0xx_hal_i2c.c ****   * @brief  Receive in slave mode an amount of data in blocking mode
1007:Drivers/STM32F0xx_HAL_Driver/Src/stm32f0xx_hal_i2c.c ****   * @param  hi2c Pointer to a I2C_HandleTypeDef structure that contains
1008:Drivers/STM32F0xx_HAL_Driver/Src/stm32f0xx_hal_i2c.c ****   *                the configuration information for the specified I2C.
1009:Drivers/STM32F0xx_HAL_Driver/Src/stm32f0xx_hal_i2c.c ****   * @param  pData Pointer to data buffer
1010:Drivers/STM32F0xx_HAL_Driver/Src/stm32f0xx_hal_i2c.c ****   * @param  Size Amount of data to be sent
1011:Drivers/STM32F0xx_HAL_Driver/Src/stm32f0xx_hal_i2c.c ****   * @param  Timeout Timeout duration
1012:Drivers/STM32F0xx_HAL_Driver/Src/stm32f0xx_hal_i2c.c ****   * @retval HAL status
1013:Drivers/STM32F0xx_HAL_Driver/Src/stm32f0xx_hal_i2c.c ****   */
1014:Drivers/STM32F0xx_HAL_Driver/Src/stm32f0xx_hal_i2c.c **** HAL_StatusTypeDef HAL_I2C_Slave_Receive(I2C_HandleTypeDef *hi2c, uint8_t *pData, uint16_t Size, uin
1015:Drivers/STM32F0xx_HAL_Driver/Src/stm32f0xx_hal_i2c.c **** {
 1596              		.loc 1 1015 1
 1597              		.cfi_startproc
 1598              		@ args = 0, pretend = 0, frame = 24
 1599              		@ frame_needed = 1, uses_anonymous_args = 0
 1600 0000 80B5     		push	{r7, lr}
 1601              	.LCFI21:
 1602              		.cfi_def_cfa_offset 8
 1603              		.cfi_offset 7, -8
 1604              		.cfi_offset 14, -4
 1605 0002 88B0     		sub	sp, sp, #32
 1606              	.LCFI22:
 1607              		.cfi_def_cfa_offset 40
 1608 0004 02AF     		add	r7, sp, #8
 1609              	.LCFI23:
 1610              		.cfi_def_cfa 7, 32
 1611 0006 F860     		str	r0, [r7, #12]
 1612 0008 B960     		str	r1, [r7, #8]
 1613 000a 3B60     		str	r3, [r7]
 1614 000c BB1D     		adds	r3, r7, #6
 1615 000e 1A80     		strh	r2, [r3]
1016:Drivers/STM32F0xx_HAL_Driver/Src/stm32f0xx_hal_i2c.c ****   uint32_t tickstart = 0U;
ARM GAS  C:\Users\ADMINI~1\AppData\Local\Temp\cc3zYV2m.s 			page 47


 1616              		.loc 1 1016 12
 1617 0010 0023     		movs	r3, #0
 1618 0012 7B61     		str	r3, [r7, #20]
1017:Drivers/STM32F0xx_HAL_Driver/Src/stm32f0xx_hal_i2c.c **** 
1018:Drivers/STM32F0xx_HAL_Driver/Src/stm32f0xx_hal_i2c.c ****   if (hi2c->State == HAL_I2C_STATE_READY)
 1619              		.loc 1 1018 11
 1620 0014 FB68     		ldr	r3, [r7, #12]
 1621 0016 4122     		movs	r2, #65
 1622 0018 9B5C     		ldrb	r3, [r3, r2]
 1623 001a DBB2     		uxtb	r3, r3
 1624              		.loc 1 1018 6
 1625 001c 202B     		cmp	r3, #32
 1626 001e 00D0     		beq	.LCB1339
 1627 0020 F7E0     		b	.L69	@long jump
 1628              	.LCB1339:
1019:Drivers/STM32F0xx_HAL_Driver/Src/stm32f0xx_hal_i2c.c ****   {
1020:Drivers/STM32F0xx_HAL_Driver/Src/stm32f0xx_hal_i2c.c ****     if ((pData == NULL) || (Size == 0U))
 1629              		.loc 1 1020 8
 1630 0022 BB68     		ldr	r3, [r7, #8]
 1631 0024 002B     		cmp	r3, #0
 1632 0026 03D0     		beq	.L70
 1633              		.loc 1 1020 25 discriminator 1
 1634 0028 BB1D     		adds	r3, r7, #6
 1635 002a 1B88     		ldrh	r3, [r3]
 1636 002c 002B     		cmp	r3, #0
 1637 002e 01D1     		bne	.L71
 1638              	.L70:
1021:Drivers/STM32F0xx_HAL_Driver/Src/stm32f0xx_hal_i2c.c ****     {
1022:Drivers/STM32F0xx_HAL_Driver/Src/stm32f0xx_hal_i2c.c ****       return  HAL_ERROR;
 1639              		.loc 1 1022 15
 1640 0030 0123     		movs	r3, #1
 1641 0032 EFE0     		b	.L72
 1642              	.L71:
1023:Drivers/STM32F0xx_HAL_Driver/Src/stm32f0xx_hal_i2c.c ****     }
1024:Drivers/STM32F0xx_HAL_Driver/Src/stm32f0xx_hal_i2c.c ****     /* Process Locked */
1025:Drivers/STM32F0xx_HAL_Driver/Src/stm32f0xx_hal_i2c.c ****     __HAL_LOCK(hi2c);
 1643              		.loc 1 1025 5
 1644 0034 FB68     		ldr	r3, [r7, #12]
 1645 0036 4022     		movs	r2, #64
 1646 0038 9B5C     		ldrb	r3, [r3, r2]
 1647 003a 012B     		cmp	r3, #1
 1648 003c 01D1     		bne	.L73
 1649              		.loc 1 1025 5 is_stmt 0 discriminator 1
 1650 003e 0223     		movs	r3, #2
 1651 0040 E8E0     		b	.L72
 1652              	.L73:
 1653              		.loc 1 1025 5 discriminator 2
 1654 0042 FB68     		ldr	r3, [r7, #12]
 1655 0044 4022     		movs	r2, #64
 1656 0046 0121     		movs	r1, #1
 1657 0048 9954     		strb	r1, [r3, r2]
1026:Drivers/STM32F0xx_HAL_Driver/Src/stm32f0xx_hal_i2c.c **** 
1027:Drivers/STM32F0xx_HAL_Driver/Src/stm32f0xx_hal_i2c.c ****     /* Init tickstart for timeout management*/
1028:Drivers/STM32F0xx_HAL_Driver/Src/stm32f0xx_hal_i2c.c ****     tickstart = HAL_GetTick();
 1658              		.loc 1 1028 17 is_stmt 1 discriminator 2
 1659 004a FFF7FEFF 		bl	HAL_GetTick
 1660 004e 0300     		movs	r3, r0
ARM GAS  C:\Users\ADMINI~1\AppData\Local\Temp\cc3zYV2m.s 			page 48


 1661 0050 7B61     		str	r3, [r7, #20]
1029:Drivers/STM32F0xx_HAL_Driver/Src/stm32f0xx_hal_i2c.c **** 
1030:Drivers/STM32F0xx_HAL_Driver/Src/stm32f0xx_hal_i2c.c ****     hi2c->State     = HAL_I2C_STATE_BUSY_RX;
 1662              		.loc 1 1030 21 discriminator 2
 1663 0052 FB68     		ldr	r3, [r7, #12]
 1664 0054 4122     		movs	r2, #65
 1665 0056 2221     		movs	r1, #34
 1666 0058 9954     		strb	r1, [r3, r2]
1031:Drivers/STM32F0xx_HAL_Driver/Src/stm32f0xx_hal_i2c.c ****     hi2c->Mode      = HAL_I2C_MODE_SLAVE;
 1667              		.loc 1 1031 21 discriminator 2
 1668 005a FB68     		ldr	r3, [r7, #12]
 1669 005c 4222     		movs	r2, #66
 1670 005e 2021     		movs	r1, #32
 1671 0060 9954     		strb	r1, [r3, r2]
1032:Drivers/STM32F0xx_HAL_Driver/Src/stm32f0xx_hal_i2c.c ****     hi2c->ErrorCode = HAL_I2C_ERROR_NONE;
 1672              		.loc 1 1032 21 discriminator 2
 1673 0062 FB68     		ldr	r3, [r7, #12]
 1674 0064 0022     		movs	r2, #0
 1675 0066 5A64     		str	r2, [r3, #68]
1033:Drivers/STM32F0xx_HAL_Driver/Src/stm32f0xx_hal_i2c.c **** 
1034:Drivers/STM32F0xx_HAL_Driver/Src/stm32f0xx_hal_i2c.c ****     /* Prepare transfer parameters */
1035:Drivers/STM32F0xx_HAL_Driver/Src/stm32f0xx_hal_i2c.c ****     hi2c->pBuffPtr  = pData;
 1676              		.loc 1 1035 21 discriminator 2
 1677 0068 FB68     		ldr	r3, [r7, #12]
 1678 006a BA68     		ldr	r2, [r7, #8]
 1679 006c 5A62     		str	r2, [r3, #36]
1036:Drivers/STM32F0xx_HAL_Driver/Src/stm32f0xx_hal_i2c.c ****     hi2c->XferCount = Size;
 1680              		.loc 1 1036 21 discriminator 2
 1681 006e FB68     		ldr	r3, [r7, #12]
 1682 0070 BA1D     		adds	r2, r7, #6
 1683 0072 1288     		ldrh	r2, [r2]
 1684 0074 5A85     		strh	r2, [r3, #42]
1037:Drivers/STM32F0xx_HAL_Driver/Src/stm32f0xx_hal_i2c.c ****     hi2c->XferISR   = NULL;
 1685              		.loc 1 1037 21 discriminator 2
 1686 0076 FB68     		ldr	r3, [r7, #12]
 1687 0078 0022     		movs	r2, #0
 1688 007a 5A63     		str	r2, [r3, #52]
1038:Drivers/STM32F0xx_HAL_Driver/Src/stm32f0xx_hal_i2c.c **** 
1039:Drivers/STM32F0xx_HAL_Driver/Src/stm32f0xx_hal_i2c.c ****     /* Enable Address Acknowledge */
1040:Drivers/STM32F0xx_HAL_Driver/Src/stm32f0xx_hal_i2c.c ****     hi2c->Instance->CR2 &= ~I2C_CR2_NACK;
 1689              		.loc 1 1040 9 discriminator 2
 1690 007c FB68     		ldr	r3, [r7, #12]
 1691 007e 1B68     		ldr	r3, [r3]
 1692              		.loc 1 1040 25 discriminator 2
 1693 0080 5A68     		ldr	r2, [r3, #4]
 1694              		.loc 1 1040 9 discriminator 2
 1695 0082 FB68     		ldr	r3, [r7, #12]
 1696 0084 1B68     		ldr	r3, [r3]
 1697              		.loc 1 1040 25 discriminator 2
 1698 0086 6549     		ldr	r1, .L84
 1699 0088 0A40     		ands	r2, r1
 1700 008a 5A60     		str	r2, [r3, #4]
1041:Drivers/STM32F0xx_HAL_Driver/Src/stm32f0xx_hal_i2c.c **** 
1042:Drivers/STM32F0xx_HAL_Driver/Src/stm32f0xx_hal_i2c.c ****     /* Wait until ADDR flag is set */
1043:Drivers/STM32F0xx_HAL_Driver/Src/stm32f0xx_hal_i2c.c ****     if (I2C_WaitOnFlagUntilTimeout(hi2c, I2C_FLAG_ADDR, RESET, Timeout, tickstart) != HAL_OK)
 1701              		.loc 1 1043 9 discriminator 2
 1702 008c 3A68     		ldr	r2, [r7]
ARM GAS  C:\Users\ADMINI~1\AppData\Local\Temp\cc3zYV2m.s 			page 49


 1703 008e F868     		ldr	r0, [r7, #12]
 1704 0090 7B69     		ldr	r3, [r7, #20]
 1705 0092 0093     		str	r3, [sp]
 1706 0094 1300     		movs	r3, r2
 1707 0096 0022     		movs	r2, #0
 1708 0098 0821     		movs	r1, #8
 1709 009a FFF7FEFF 		bl	I2C_WaitOnFlagUntilTimeout
 1710 009e 031E     		subs	r3, r0, #0
 1711              		.loc 1 1043 8 discriminator 2
 1712 00a0 0AD0     		beq	.L74
1044:Drivers/STM32F0xx_HAL_Driver/Src/stm32f0xx_hal_i2c.c ****     {
1045:Drivers/STM32F0xx_HAL_Driver/Src/stm32f0xx_hal_i2c.c ****       /* Disable Address Acknowledge */
1046:Drivers/STM32F0xx_HAL_Driver/Src/stm32f0xx_hal_i2c.c ****       hi2c->Instance->CR2 |= I2C_CR2_NACK;
 1713              		.loc 1 1046 11
 1714 00a2 FB68     		ldr	r3, [r7, #12]
 1715 00a4 1B68     		ldr	r3, [r3]
 1716              		.loc 1 1046 27
 1717 00a6 5A68     		ldr	r2, [r3, #4]
 1718              		.loc 1 1046 11
 1719 00a8 FB68     		ldr	r3, [r7, #12]
 1720 00aa 1B68     		ldr	r3, [r3]
 1721              		.loc 1 1046 27
 1722 00ac 8021     		movs	r1, #128
 1723 00ae 0902     		lsls	r1, r1, #8
 1724 00b0 0A43     		orrs	r2, r1
 1725 00b2 5A60     		str	r2, [r3, #4]
1047:Drivers/STM32F0xx_HAL_Driver/Src/stm32f0xx_hal_i2c.c ****       return HAL_TIMEOUT;
 1726              		.loc 1 1047 14
 1727 00b4 0323     		movs	r3, #3
 1728 00b6 ADE0     		b	.L72
 1729              	.L74:
1048:Drivers/STM32F0xx_HAL_Driver/Src/stm32f0xx_hal_i2c.c ****     }
1049:Drivers/STM32F0xx_HAL_Driver/Src/stm32f0xx_hal_i2c.c **** 
1050:Drivers/STM32F0xx_HAL_Driver/Src/stm32f0xx_hal_i2c.c ****     /* Clear ADDR flag */
1051:Drivers/STM32F0xx_HAL_Driver/Src/stm32f0xx_hal_i2c.c ****     __HAL_I2C_CLEAR_FLAG(hi2c, I2C_FLAG_ADDR);
 1730              		.loc 1 1051 5
 1731 00b8 FB68     		ldr	r3, [r7, #12]
 1732 00ba 1B68     		ldr	r3, [r3]
 1733 00bc 0822     		movs	r2, #8
 1734 00be DA61     		str	r2, [r3, #28]
1052:Drivers/STM32F0xx_HAL_Driver/Src/stm32f0xx_hal_i2c.c **** 
1053:Drivers/STM32F0xx_HAL_Driver/Src/stm32f0xx_hal_i2c.c ****     /* Wait until DIR flag is reset Receiver mode */
1054:Drivers/STM32F0xx_HAL_Driver/Src/stm32f0xx_hal_i2c.c ****     if (I2C_WaitOnFlagUntilTimeout(hi2c, I2C_FLAG_DIR, SET, Timeout, tickstart) != HAL_OK)
 1735              		.loc 1 1054 9
 1736 00c0 3A68     		ldr	r2, [r7]
 1737 00c2 8023     		movs	r3, #128
 1738 00c4 5902     		lsls	r1, r3, #9
 1739 00c6 F868     		ldr	r0, [r7, #12]
 1740 00c8 7B69     		ldr	r3, [r7, #20]
 1741 00ca 0093     		str	r3, [sp]
 1742 00cc 1300     		movs	r3, r2
 1743 00ce 0122     		movs	r2, #1
 1744 00d0 FFF7FEFF 		bl	I2C_WaitOnFlagUntilTimeout
 1745 00d4 031E     		subs	r3, r0, #0
 1746              		.loc 1 1054 8
 1747 00d6 4CD0     		beq	.L76
1055:Drivers/STM32F0xx_HAL_Driver/Src/stm32f0xx_hal_i2c.c ****     {
ARM GAS  C:\Users\ADMINI~1\AppData\Local\Temp\cc3zYV2m.s 			page 50


1056:Drivers/STM32F0xx_HAL_Driver/Src/stm32f0xx_hal_i2c.c ****       /* Disable Address Acknowledge */
1057:Drivers/STM32F0xx_HAL_Driver/Src/stm32f0xx_hal_i2c.c ****       hi2c->Instance->CR2 |= I2C_CR2_NACK;
 1748              		.loc 1 1057 11
 1749 00d8 FB68     		ldr	r3, [r7, #12]
 1750 00da 1B68     		ldr	r3, [r3]
 1751              		.loc 1 1057 27
 1752 00dc 5A68     		ldr	r2, [r3, #4]
 1753              		.loc 1 1057 11
 1754 00de FB68     		ldr	r3, [r7, #12]
 1755 00e0 1B68     		ldr	r3, [r3]
 1756              		.loc 1 1057 27
 1757 00e2 8021     		movs	r1, #128
 1758 00e4 0902     		lsls	r1, r1, #8
 1759 00e6 0A43     		orrs	r2, r1
 1760 00e8 5A60     		str	r2, [r3, #4]
1058:Drivers/STM32F0xx_HAL_Driver/Src/stm32f0xx_hal_i2c.c ****       return HAL_TIMEOUT;
 1761              		.loc 1 1058 14
 1762 00ea 0323     		movs	r3, #3
 1763 00ec 92E0     		b	.L72
 1764              	.L80:
1059:Drivers/STM32F0xx_HAL_Driver/Src/stm32f0xx_hal_i2c.c ****     }
1060:Drivers/STM32F0xx_HAL_Driver/Src/stm32f0xx_hal_i2c.c **** 
1061:Drivers/STM32F0xx_HAL_Driver/Src/stm32f0xx_hal_i2c.c ****     while (hi2c->XferCount > 0U)
1062:Drivers/STM32F0xx_HAL_Driver/Src/stm32f0xx_hal_i2c.c ****     {
1063:Drivers/STM32F0xx_HAL_Driver/Src/stm32f0xx_hal_i2c.c ****       /* Wait until RXNE flag is set */
1064:Drivers/STM32F0xx_HAL_Driver/Src/stm32f0xx_hal_i2c.c ****       if (I2C_WaitOnRXNEFlagUntilTimeout(hi2c, Timeout, tickstart) != HAL_OK)
 1765              		.loc 1 1064 11
 1766 00ee 7A69     		ldr	r2, [r7, #20]
 1767 00f0 3968     		ldr	r1, [r7]
 1768 00f2 FB68     		ldr	r3, [r7, #12]
 1769 00f4 1800     		movs	r0, r3
 1770 00f6 FFF7FEFF 		bl	I2C_WaitOnRXNEFlagUntilTimeout
 1771 00fa 031E     		subs	r3, r0, #0
 1772              		.loc 1 1064 10
 1773 00fc 28D0     		beq	.L77
1065:Drivers/STM32F0xx_HAL_Driver/Src/stm32f0xx_hal_i2c.c ****       {
1066:Drivers/STM32F0xx_HAL_Driver/Src/stm32f0xx_hal_i2c.c ****         /* Disable Address Acknowledge */
1067:Drivers/STM32F0xx_HAL_Driver/Src/stm32f0xx_hal_i2c.c ****         hi2c->Instance->CR2 |= I2C_CR2_NACK;
 1774              		.loc 1 1067 13
 1775 00fe FB68     		ldr	r3, [r7, #12]
 1776 0100 1B68     		ldr	r3, [r3]
 1777              		.loc 1 1067 29
 1778 0102 5A68     		ldr	r2, [r3, #4]
 1779              		.loc 1 1067 13
 1780 0104 FB68     		ldr	r3, [r7, #12]
 1781 0106 1B68     		ldr	r3, [r3]
 1782              		.loc 1 1067 29
 1783 0108 8021     		movs	r1, #128
 1784 010a 0902     		lsls	r1, r1, #8
 1785 010c 0A43     		orrs	r2, r1
 1786 010e 5A60     		str	r2, [r3, #4]
1068:Drivers/STM32F0xx_HAL_Driver/Src/stm32f0xx_hal_i2c.c **** 
1069:Drivers/STM32F0xx_HAL_Driver/Src/stm32f0xx_hal_i2c.c ****         /* Store Last receive data if any */
1070:Drivers/STM32F0xx_HAL_Driver/Src/stm32f0xx_hal_i2c.c ****         if (__HAL_I2C_GET_FLAG(hi2c, I2C_FLAG_RXNE) == SET)
 1787              		.loc 1 1070 13
 1788 0110 FB68     		ldr	r3, [r7, #12]
 1789 0112 1B68     		ldr	r3, [r3]
ARM GAS  C:\Users\ADMINI~1\AppData\Local\Temp\cc3zYV2m.s 			page 51


 1790 0114 9B69     		ldr	r3, [r3, #24]
 1791 0116 0422     		movs	r2, #4
 1792 0118 1340     		ands	r3, r2
 1793              		.loc 1 1070 12
 1794 011a 042B     		cmp	r3, #4
 1795 011c 10D1     		bne	.L78
1071:Drivers/STM32F0xx_HAL_Driver/Src/stm32f0xx_hal_i2c.c ****         {
1072:Drivers/STM32F0xx_HAL_Driver/Src/stm32f0xx_hal_i2c.c ****           /* Read data from RXDR */
1073:Drivers/STM32F0xx_HAL_Driver/Src/stm32f0xx_hal_i2c.c ****           (*hi2c->pBuffPtr++) = hi2c->Instance->RXDR;
 1796              		.loc 1 1073 37
 1797 011e FB68     		ldr	r3, [r7, #12]
 1798 0120 1B68     		ldr	r3, [r3]
 1799              		.loc 1 1073 47
 1800 0122 586A     		ldr	r0, [r3, #36]
 1801              		.loc 1 1073 17
 1802 0124 FB68     		ldr	r3, [r7, #12]
 1803 0126 5B6A     		ldr	r3, [r3, #36]
 1804              		.loc 1 1073 27
 1805 0128 591C     		adds	r1, r3, #1
 1806 012a FA68     		ldr	r2, [r7, #12]
 1807 012c 5162     		str	r1, [r2, #36]
 1808              		.loc 1 1073 31
 1809 012e C2B2     		uxtb	r2, r0
 1810 0130 1A70     		strb	r2, [r3]
1074:Drivers/STM32F0xx_HAL_Driver/Src/stm32f0xx_hal_i2c.c ****           hi2c->XferCount--;
 1811              		.loc 1 1074 15
 1812 0132 FB68     		ldr	r3, [r7, #12]
 1813 0134 5B8D     		ldrh	r3, [r3, #42]
 1814 0136 9BB2     		uxth	r3, r3
 1815              		.loc 1 1074 26
 1816 0138 013B     		subs	r3, r3, #1
 1817 013a 9AB2     		uxth	r2, r3
 1818 013c FB68     		ldr	r3, [r7, #12]
 1819 013e 5A85     		strh	r2, [r3, #42]
 1820              	.L78:
1075:Drivers/STM32F0xx_HAL_Driver/Src/stm32f0xx_hal_i2c.c ****         }
1076:Drivers/STM32F0xx_HAL_Driver/Src/stm32f0xx_hal_i2c.c **** 
1077:Drivers/STM32F0xx_HAL_Driver/Src/stm32f0xx_hal_i2c.c ****         if (hi2c->ErrorCode == HAL_I2C_ERROR_TIMEOUT)
 1821              		.loc 1 1077 17
 1822 0140 FB68     		ldr	r3, [r7, #12]
 1823 0142 5B6C     		ldr	r3, [r3, #68]
 1824              		.loc 1 1077 12
 1825 0144 202B     		cmp	r3, #32
 1826 0146 01D1     		bne	.L79
1078:Drivers/STM32F0xx_HAL_Driver/Src/stm32f0xx_hal_i2c.c ****         {
1079:Drivers/STM32F0xx_HAL_Driver/Src/stm32f0xx_hal_i2c.c ****           return HAL_TIMEOUT;
 1827              		.loc 1 1079 18
 1828 0148 0323     		movs	r3, #3
 1829 014a 63E0     		b	.L72
 1830              	.L79:
1080:Drivers/STM32F0xx_HAL_Driver/Src/stm32f0xx_hal_i2c.c ****         }
1081:Drivers/STM32F0xx_HAL_Driver/Src/stm32f0xx_hal_i2c.c ****         else
1082:Drivers/STM32F0xx_HAL_Driver/Src/stm32f0xx_hal_i2c.c ****         {
1083:Drivers/STM32F0xx_HAL_Driver/Src/stm32f0xx_hal_i2c.c ****           return HAL_ERROR;
 1831              		.loc 1 1083 18
 1832 014c 0123     		movs	r3, #1
 1833 014e 61E0     		b	.L72
ARM GAS  C:\Users\ADMINI~1\AppData\Local\Temp\cc3zYV2m.s 			page 52


 1834              	.L77:
1084:Drivers/STM32F0xx_HAL_Driver/Src/stm32f0xx_hal_i2c.c ****         }
1085:Drivers/STM32F0xx_HAL_Driver/Src/stm32f0xx_hal_i2c.c ****       }
1086:Drivers/STM32F0xx_HAL_Driver/Src/stm32f0xx_hal_i2c.c **** 
1087:Drivers/STM32F0xx_HAL_Driver/Src/stm32f0xx_hal_i2c.c ****       /* Read data from RXDR */
1088:Drivers/STM32F0xx_HAL_Driver/Src/stm32f0xx_hal_i2c.c ****       (*hi2c->pBuffPtr++) = hi2c->Instance->RXDR;
 1835              		.loc 1 1088 33
 1836 0150 FB68     		ldr	r3, [r7, #12]
 1837 0152 1B68     		ldr	r3, [r3]
 1838              		.loc 1 1088 43
 1839 0154 586A     		ldr	r0, [r3, #36]
 1840              		.loc 1 1088 13
 1841 0156 FB68     		ldr	r3, [r7, #12]
 1842 0158 5B6A     		ldr	r3, [r3, #36]
 1843              		.loc 1 1088 23
 1844 015a 591C     		adds	r1, r3, #1
 1845 015c FA68     		ldr	r2, [r7, #12]
 1846 015e 5162     		str	r1, [r2, #36]
 1847              		.loc 1 1088 27
 1848 0160 C2B2     		uxtb	r2, r0
 1849 0162 1A70     		strb	r2, [r3]
1089:Drivers/STM32F0xx_HAL_Driver/Src/stm32f0xx_hal_i2c.c ****       hi2c->XferCount--;
 1850              		.loc 1 1089 11
 1851 0164 FB68     		ldr	r3, [r7, #12]
 1852 0166 5B8D     		ldrh	r3, [r3, #42]
 1853 0168 9BB2     		uxth	r3, r3
 1854              		.loc 1 1089 22
 1855 016a 013B     		subs	r3, r3, #1
 1856 016c 9AB2     		uxth	r2, r3
 1857 016e FB68     		ldr	r3, [r7, #12]
 1858 0170 5A85     		strh	r2, [r3, #42]
 1859              	.L76:
1061:Drivers/STM32F0xx_HAL_Driver/Src/stm32f0xx_hal_i2c.c ****     {
 1860              		.loc 1 1061 16
 1861 0172 FB68     		ldr	r3, [r7, #12]
 1862 0174 5B8D     		ldrh	r3, [r3, #42]
 1863 0176 9BB2     		uxth	r3, r3
1061:Drivers/STM32F0xx_HAL_Driver/Src/stm32f0xx_hal_i2c.c ****     {
 1864              		.loc 1 1061 11
 1865 0178 002B     		cmp	r3, #0
 1866 017a B8D1     		bne	.L80
1090:Drivers/STM32F0xx_HAL_Driver/Src/stm32f0xx_hal_i2c.c ****     }
1091:Drivers/STM32F0xx_HAL_Driver/Src/stm32f0xx_hal_i2c.c **** 
1092:Drivers/STM32F0xx_HAL_Driver/Src/stm32f0xx_hal_i2c.c ****     /* Wait until STOP flag is set */
1093:Drivers/STM32F0xx_HAL_Driver/Src/stm32f0xx_hal_i2c.c ****     if (I2C_WaitOnSTOPFlagUntilTimeout(hi2c, Timeout, tickstart) != HAL_OK)
 1867              		.loc 1 1093 9
 1868 017c 7A69     		ldr	r2, [r7, #20]
 1869 017e 3968     		ldr	r1, [r7]
 1870 0180 FB68     		ldr	r3, [r7, #12]
 1871 0182 1800     		movs	r0, r3
 1872 0184 FFF7FEFF 		bl	I2C_WaitOnSTOPFlagUntilTimeout
 1873 0188 031E     		subs	r3, r0, #0
 1874              		.loc 1 1093 8
 1875 018a 10D0     		beq	.L81
1094:Drivers/STM32F0xx_HAL_Driver/Src/stm32f0xx_hal_i2c.c ****     {
1095:Drivers/STM32F0xx_HAL_Driver/Src/stm32f0xx_hal_i2c.c ****       /* Disable Address Acknowledge */
1096:Drivers/STM32F0xx_HAL_Driver/Src/stm32f0xx_hal_i2c.c ****       hi2c->Instance->CR2 |= I2C_CR2_NACK;
ARM GAS  C:\Users\ADMINI~1\AppData\Local\Temp\cc3zYV2m.s 			page 53


 1876              		.loc 1 1096 11
 1877 018c FB68     		ldr	r3, [r7, #12]
 1878 018e 1B68     		ldr	r3, [r3]
 1879              		.loc 1 1096 27
 1880 0190 5A68     		ldr	r2, [r3, #4]
 1881              		.loc 1 1096 11
 1882 0192 FB68     		ldr	r3, [r7, #12]
 1883 0194 1B68     		ldr	r3, [r3]
 1884              		.loc 1 1096 27
 1885 0196 8021     		movs	r1, #128
 1886 0198 0902     		lsls	r1, r1, #8
 1887 019a 0A43     		orrs	r2, r1
 1888 019c 5A60     		str	r2, [r3, #4]
1097:Drivers/STM32F0xx_HAL_Driver/Src/stm32f0xx_hal_i2c.c **** 
1098:Drivers/STM32F0xx_HAL_Driver/Src/stm32f0xx_hal_i2c.c ****       if (hi2c->ErrorCode == HAL_I2C_ERROR_AF)
 1889              		.loc 1 1098 15
 1890 019e FB68     		ldr	r3, [r7, #12]
 1891 01a0 5B6C     		ldr	r3, [r3, #68]
 1892              		.loc 1 1098 10
 1893 01a2 042B     		cmp	r3, #4
 1894 01a4 01D1     		bne	.L82
1099:Drivers/STM32F0xx_HAL_Driver/Src/stm32f0xx_hal_i2c.c ****       {
1100:Drivers/STM32F0xx_HAL_Driver/Src/stm32f0xx_hal_i2c.c ****         return HAL_ERROR;
 1895              		.loc 1 1100 16
 1896 01a6 0123     		movs	r3, #1
 1897 01a8 34E0     		b	.L72
 1898              	.L82:
1101:Drivers/STM32F0xx_HAL_Driver/Src/stm32f0xx_hal_i2c.c ****       }
1102:Drivers/STM32F0xx_HAL_Driver/Src/stm32f0xx_hal_i2c.c ****       else
1103:Drivers/STM32F0xx_HAL_Driver/Src/stm32f0xx_hal_i2c.c ****       {
1104:Drivers/STM32F0xx_HAL_Driver/Src/stm32f0xx_hal_i2c.c ****         return HAL_TIMEOUT;
 1899              		.loc 1 1104 16
 1900 01aa 0323     		movs	r3, #3
 1901 01ac 32E0     		b	.L72
 1902              	.L81:
1105:Drivers/STM32F0xx_HAL_Driver/Src/stm32f0xx_hal_i2c.c ****       }
1106:Drivers/STM32F0xx_HAL_Driver/Src/stm32f0xx_hal_i2c.c ****     }
1107:Drivers/STM32F0xx_HAL_Driver/Src/stm32f0xx_hal_i2c.c **** 
1108:Drivers/STM32F0xx_HAL_Driver/Src/stm32f0xx_hal_i2c.c ****     /* Clear STOP flag */
1109:Drivers/STM32F0xx_HAL_Driver/Src/stm32f0xx_hal_i2c.c ****     __HAL_I2C_CLEAR_FLAG(hi2c, I2C_FLAG_STOPF);
 1903              		.loc 1 1109 5
 1904 01ae FB68     		ldr	r3, [r7, #12]
 1905 01b0 1B68     		ldr	r3, [r3]
 1906 01b2 2022     		movs	r2, #32
 1907 01b4 DA61     		str	r2, [r3, #28]
1110:Drivers/STM32F0xx_HAL_Driver/Src/stm32f0xx_hal_i2c.c **** 
1111:Drivers/STM32F0xx_HAL_Driver/Src/stm32f0xx_hal_i2c.c ****     /* Wait until BUSY flag is reset */
1112:Drivers/STM32F0xx_HAL_Driver/Src/stm32f0xx_hal_i2c.c ****     if (I2C_WaitOnFlagUntilTimeout(hi2c, I2C_FLAG_BUSY, SET, Timeout, tickstart) != HAL_OK)
 1908              		.loc 1 1112 9
 1909 01b6 3A68     		ldr	r2, [r7]
 1910 01b8 8023     		movs	r3, #128
 1911 01ba 1902     		lsls	r1, r3, #8
 1912 01bc F868     		ldr	r0, [r7, #12]
 1913 01be 7B69     		ldr	r3, [r7, #20]
 1914 01c0 0093     		str	r3, [sp]
 1915 01c2 1300     		movs	r3, r2
 1916 01c4 0122     		movs	r2, #1
ARM GAS  C:\Users\ADMINI~1\AppData\Local\Temp\cc3zYV2m.s 			page 54


 1917 01c6 FFF7FEFF 		bl	I2C_WaitOnFlagUntilTimeout
 1918 01ca 031E     		subs	r3, r0, #0
 1919              		.loc 1 1112 8
 1920 01cc 0AD0     		beq	.L83
1113:Drivers/STM32F0xx_HAL_Driver/Src/stm32f0xx_hal_i2c.c ****     {
1114:Drivers/STM32F0xx_HAL_Driver/Src/stm32f0xx_hal_i2c.c ****       /* Disable Address Acknowledge */
1115:Drivers/STM32F0xx_HAL_Driver/Src/stm32f0xx_hal_i2c.c ****       hi2c->Instance->CR2 |= I2C_CR2_NACK;
 1921              		.loc 1 1115 11
 1922 01ce FB68     		ldr	r3, [r7, #12]
 1923 01d0 1B68     		ldr	r3, [r3]
 1924              		.loc 1 1115 27
 1925 01d2 5A68     		ldr	r2, [r3, #4]
 1926              		.loc 1 1115 11
 1927 01d4 FB68     		ldr	r3, [r7, #12]
 1928 01d6 1B68     		ldr	r3, [r3]
 1929              		.loc 1 1115 27
 1930 01d8 8021     		movs	r1, #128
 1931 01da 0902     		lsls	r1, r1, #8
 1932 01dc 0A43     		orrs	r2, r1
 1933 01de 5A60     		str	r2, [r3, #4]
1116:Drivers/STM32F0xx_HAL_Driver/Src/stm32f0xx_hal_i2c.c ****       return HAL_TIMEOUT;
 1934              		.loc 1 1116 14
 1935 01e0 0323     		movs	r3, #3
 1936 01e2 17E0     		b	.L72
 1937              	.L83:
1117:Drivers/STM32F0xx_HAL_Driver/Src/stm32f0xx_hal_i2c.c ****     }
1118:Drivers/STM32F0xx_HAL_Driver/Src/stm32f0xx_hal_i2c.c **** 
1119:Drivers/STM32F0xx_HAL_Driver/Src/stm32f0xx_hal_i2c.c ****     /* Disable Address Acknowledge */
1120:Drivers/STM32F0xx_HAL_Driver/Src/stm32f0xx_hal_i2c.c ****     hi2c->Instance->CR2 |= I2C_CR2_NACK;
 1938              		.loc 1 1120 9
 1939 01e4 FB68     		ldr	r3, [r7, #12]
 1940 01e6 1B68     		ldr	r3, [r3]
 1941              		.loc 1 1120 25
 1942 01e8 5A68     		ldr	r2, [r3, #4]
 1943              		.loc 1 1120 9
 1944 01ea FB68     		ldr	r3, [r7, #12]
 1945 01ec 1B68     		ldr	r3, [r3]
 1946              		.loc 1 1120 25
 1947 01ee 8021     		movs	r1, #128
 1948 01f0 0902     		lsls	r1, r1, #8
 1949 01f2 0A43     		orrs	r2, r1
 1950 01f4 5A60     		str	r2, [r3, #4]
1121:Drivers/STM32F0xx_HAL_Driver/Src/stm32f0xx_hal_i2c.c **** 
1122:Drivers/STM32F0xx_HAL_Driver/Src/stm32f0xx_hal_i2c.c ****     hi2c->State = HAL_I2C_STATE_READY;
 1951              		.loc 1 1122 17
 1952 01f6 FB68     		ldr	r3, [r7, #12]
 1953 01f8 4122     		movs	r2, #65
 1954 01fa 2021     		movs	r1, #32
 1955 01fc 9954     		strb	r1, [r3, r2]
1123:Drivers/STM32F0xx_HAL_Driver/Src/stm32f0xx_hal_i2c.c ****     hi2c->Mode  = HAL_I2C_MODE_NONE;
 1956              		.loc 1 1123 17
 1957 01fe FB68     		ldr	r3, [r7, #12]
 1958 0200 4222     		movs	r2, #66
 1959 0202 0021     		movs	r1, #0
 1960 0204 9954     		strb	r1, [r3, r2]
1124:Drivers/STM32F0xx_HAL_Driver/Src/stm32f0xx_hal_i2c.c **** 
1125:Drivers/STM32F0xx_HAL_Driver/Src/stm32f0xx_hal_i2c.c ****     /* Process Unlocked */
ARM GAS  C:\Users\ADMINI~1\AppData\Local\Temp\cc3zYV2m.s 			page 55


1126:Drivers/STM32F0xx_HAL_Driver/Src/stm32f0xx_hal_i2c.c ****     __HAL_UNLOCK(hi2c);
 1961              		.loc 1 1126 5
 1962 0206 FB68     		ldr	r3, [r7, #12]
 1963 0208 4022     		movs	r2, #64
 1964 020a 0021     		movs	r1, #0
 1965 020c 9954     		strb	r1, [r3, r2]
1127:Drivers/STM32F0xx_HAL_Driver/Src/stm32f0xx_hal_i2c.c **** 
1128:Drivers/STM32F0xx_HAL_Driver/Src/stm32f0xx_hal_i2c.c ****     return HAL_OK;
 1966              		.loc 1 1128 12
 1967 020e 0023     		movs	r3, #0
 1968 0210 00E0     		b	.L72
 1969              	.L69:
1129:Drivers/STM32F0xx_HAL_Driver/Src/stm32f0xx_hal_i2c.c ****   }
1130:Drivers/STM32F0xx_HAL_Driver/Src/stm32f0xx_hal_i2c.c ****   else
1131:Drivers/STM32F0xx_HAL_Driver/Src/stm32f0xx_hal_i2c.c ****   {
1132:Drivers/STM32F0xx_HAL_Driver/Src/stm32f0xx_hal_i2c.c ****     return HAL_BUSY;
 1970              		.loc 1 1132 12
 1971 0212 0223     		movs	r3, #2
 1972              	.L72:
1133:Drivers/STM32F0xx_HAL_Driver/Src/stm32f0xx_hal_i2c.c ****   }
1134:Drivers/STM32F0xx_HAL_Driver/Src/stm32f0xx_hal_i2c.c **** }
 1973              		.loc 1 1134 1
 1974 0214 1800     		movs	r0, r3
 1975 0216 BD46     		mov	sp, r7
 1976 0218 06B0     		add	sp, sp, #24
 1977              		@ sp needed
 1978 021a 80BD     		pop	{r7, pc}
 1979              	.L85:
 1980              		.align	2
 1981              	.L84:
 1982 021c FF7FFFFF 		.word	-32769
 1983              		.cfi_endproc
 1984              	.LFE44:
 1986              		.section	.text.HAL_I2C_Master_Transmit_IT,"ax",%progbits
 1987              		.align	1
 1988              		.global	HAL_I2C_Master_Transmit_IT
 1989              		.syntax unified
 1990              		.code	16
 1991              		.thumb_func
 1992              		.fpu softvfp
 1994              	HAL_I2C_Master_Transmit_IT:
 1995              	.LFB45:
1135:Drivers/STM32F0xx_HAL_Driver/Src/stm32f0xx_hal_i2c.c **** 
1136:Drivers/STM32F0xx_HAL_Driver/Src/stm32f0xx_hal_i2c.c **** /**
1137:Drivers/STM32F0xx_HAL_Driver/Src/stm32f0xx_hal_i2c.c ****   * @brief  Transmit in master mode an amount of data in non-blocking mode with Interrupt
1138:Drivers/STM32F0xx_HAL_Driver/Src/stm32f0xx_hal_i2c.c ****   * @param  hi2c Pointer to a I2C_HandleTypeDef structure that contains
1139:Drivers/STM32F0xx_HAL_Driver/Src/stm32f0xx_hal_i2c.c ****   *                the configuration information for the specified I2C.
1140:Drivers/STM32F0xx_HAL_Driver/Src/stm32f0xx_hal_i2c.c ****   * @param  DevAddress Target device address: The device 7 bits address value
1141:Drivers/STM32F0xx_HAL_Driver/Src/stm32f0xx_hal_i2c.c ****   *         in datasheet must be shift at right before call interface
1142:Drivers/STM32F0xx_HAL_Driver/Src/stm32f0xx_hal_i2c.c ****   * @param  pData Pointer to data buffer
1143:Drivers/STM32F0xx_HAL_Driver/Src/stm32f0xx_hal_i2c.c ****   * @param  Size Amount of data to be sent
1144:Drivers/STM32F0xx_HAL_Driver/Src/stm32f0xx_hal_i2c.c ****   * @retval HAL status
1145:Drivers/STM32F0xx_HAL_Driver/Src/stm32f0xx_hal_i2c.c ****   */
1146:Drivers/STM32F0xx_HAL_Driver/Src/stm32f0xx_hal_i2c.c **** HAL_StatusTypeDef HAL_I2C_Master_Transmit_IT(I2C_HandleTypeDef *hi2c, uint16_t DevAddress, uint8_t 
1147:Drivers/STM32F0xx_HAL_Driver/Src/stm32f0xx_hal_i2c.c **** {
 1996              		.loc 1 1147 1
 1997              		.cfi_startproc
ARM GAS  C:\Users\ADMINI~1\AppData\Local\Temp\cc3zYV2m.s 			page 56


 1998              		@ args = 0, pretend = 0, frame = 24
 1999              		@ frame_needed = 1, uses_anonymous_args = 0
 2000 0000 90B5     		push	{r4, r7, lr}
 2001              	.LCFI24:
 2002              		.cfi_def_cfa_offset 12
 2003              		.cfi_offset 4, -12
 2004              		.cfi_offset 7, -8
 2005              		.cfi_offset 14, -4
 2006 0002 89B0     		sub	sp, sp, #36
 2007              	.LCFI25:
 2008              		.cfi_def_cfa_offset 48
 2009 0004 02AF     		add	r7, sp, #8
 2010              	.LCFI26:
 2011              		.cfi_def_cfa 7, 40
 2012 0006 F860     		str	r0, [r7, #12]
 2013 0008 0800     		movs	r0, r1
 2014 000a 7A60     		str	r2, [r7, #4]
 2015 000c 1900     		movs	r1, r3
 2016 000e 0A23     		movs	r3, #10
 2017 0010 FB18     		adds	r3, r7, r3
 2018 0012 021C     		adds	r2, r0, #0
 2019 0014 1A80     		strh	r2, [r3]
 2020 0016 0823     		movs	r3, #8
 2021 0018 FB18     		adds	r3, r7, r3
 2022 001a 0A1C     		adds	r2, r1, #0
 2023 001c 1A80     		strh	r2, [r3]
1148:Drivers/STM32F0xx_HAL_Driver/Src/stm32f0xx_hal_i2c.c ****   uint32_t xfermode = 0U;
 2024              		.loc 1 1148 12
 2025 001e 0023     		movs	r3, #0
 2026 0020 7B61     		str	r3, [r7, #20]
1149:Drivers/STM32F0xx_HAL_Driver/Src/stm32f0xx_hal_i2c.c **** 
1150:Drivers/STM32F0xx_HAL_Driver/Src/stm32f0xx_hal_i2c.c ****   if (hi2c->State == HAL_I2C_STATE_READY)
 2027              		.loc 1 1150 11
 2028 0022 FB68     		ldr	r3, [r7, #12]
 2029 0024 4122     		movs	r2, #65
 2030 0026 9B5C     		ldrb	r3, [r3, r2]
 2031 0028 DBB2     		uxtb	r3, r3
 2032              		.loc 1 1150 6
 2033 002a 202B     		cmp	r3, #32
 2034 002c 5CD1     		bne	.L87
1151:Drivers/STM32F0xx_HAL_Driver/Src/stm32f0xx_hal_i2c.c ****   {
1152:Drivers/STM32F0xx_HAL_Driver/Src/stm32f0xx_hal_i2c.c ****     if (__HAL_I2C_GET_FLAG(hi2c, I2C_FLAG_BUSY) == SET)
 2035              		.loc 1 1152 9
 2036 002e FB68     		ldr	r3, [r7, #12]
 2037 0030 1B68     		ldr	r3, [r3]
 2038 0032 9A69     		ldr	r2, [r3, #24]
 2039 0034 8023     		movs	r3, #128
 2040 0036 1B02     		lsls	r3, r3, #8
 2041 0038 1A40     		ands	r2, r3
 2042              		.loc 1 1152 8
 2043 003a 8023     		movs	r3, #128
 2044 003c 1B02     		lsls	r3, r3, #8
 2045 003e 9A42     		cmp	r2, r3
 2046 0040 01D1     		bne	.L88
1153:Drivers/STM32F0xx_HAL_Driver/Src/stm32f0xx_hal_i2c.c ****     {
1154:Drivers/STM32F0xx_HAL_Driver/Src/stm32f0xx_hal_i2c.c ****       return HAL_BUSY;
 2047              		.loc 1 1154 14
ARM GAS  C:\Users\ADMINI~1\AppData\Local\Temp\cc3zYV2m.s 			page 57


 2048 0042 0223     		movs	r3, #2
 2049 0044 51E0     		b	.L89
 2050              	.L88:
1155:Drivers/STM32F0xx_HAL_Driver/Src/stm32f0xx_hal_i2c.c ****     }
1156:Drivers/STM32F0xx_HAL_Driver/Src/stm32f0xx_hal_i2c.c **** 
1157:Drivers/STM32F0xx_HAL_Driver/Src/stm32f0xx_hal_i2c.c ****     /* Process Locked */
1158:Drivers/STM32F0xx_HAL_Driver/Src/stm32f0xx_hal_i2c.c ****     __HAL_LOCK(hi2c);
 2051              		.loc 1 1158 5
 2052 0046 FB68     		ldr	r3, [r7, #12]
 2053 0048 4022     		movs	r2, #64
 2054 004a 9B5C     		ldrb	r3, [r3, r2]
 2055 004c 012B     		cmp	r3, #1
 2056 004e 01D1     		bne	.L90
 2057              		.loc 1 1158 5 is_stmt 0 discriminator 1
 2058 0050 0223     		movs	r3, #2
 2059 0052 4AE0     		b	.L89
 2060              	.L90:
 2061              		.loc 1 1158 5 discriminator 2
 2062 0054 FB68     		ldr	r3, [r7, #12]
 2063 0056 4022     		movs	r2, #64
 2064 0058 0121     		movs	r1, #1
 2065 005a 9954     		strb	r1, [r3, r2]
1159:Drivers/STM32F0xx_HAL_Driver/Src/stm32f0xx_hal_i2c.c **** 
1160:Drivers/STM32F0xx_HAL_Driver/Src/stm32f0xx_hal_i2c.c ****     hi2c->State       = HAL_I2C_STATE_BUSY_TX;
 2066              		.loc 1 1160 23 is_stmt 1 discriminator 2
 2067 005c FB68     		ldr	r3, [r7, #12]
 2068 005e 4122     		movs	r2, #65
 2069 0060 2121     		movs	r1, #33
 2070 0062 9954     		strb	r1, [r3, r2]
1161:Drivers/STM32F0xx_HAL_Driver/Src/stm32f0xx_hal_i2c.c ****     hi2c->Mode        = HAL_I2C_MODE_MASTER;
 2071              		.loc 1 1161 23 discriminator 2
 2072 0064 FB68     		ldr	r3, [r7, #12]
 2073 0066 4222     		movs	r2, #66
 2074 0068 1021     		movs	r1, #16
 2075 006a 9954     		strb	r1, [r3, r2]
1162:Drivers/STM32F0xx_HAL_Driver/Src/stm32f0xx_hal_i2c.c ****     hi2c->ErrorCode   = HAL_I2C_ERROR_NONE;
 2076              		.loc 1 1162 23 discriminator 2
 2077 006c FB68     		ldr	r3, [r7, #12]
 2078 006e 0022     		movs	r2, #0
 2079 0070 5A64     		str	r2, [r3, #68]
1163:Drivers/STM32F0xx_HAL_Driver/Src/stm32f0xx_hal_i2c.c **** 
1164:Drivers/STM32F0xx_HAL_Driver/Src/stm32f0xx_hal_i2c.c ****     /* Prepare transfer parameters */
1165:Drivers/STM32F0xx_HAL_Driver/Src/stm32f0xx_hal_i2c.c ****     hi2c->pBuffPtr    = pData;
 2080              		.loc 1 1165 23 discriminator 2
 2081 0072 FB68     		ldr	r3, [r7, #12]
 2082 0074 7A68     		ldr	r2, [r7, #4]
 2083 0076 5A62     		str	r2, [r3, #36]
1166:Drivers/STM32F0xx_HAL_Driver/Src/stm32f0xx_hal_i2c.c ****     hi2c->XferCount   = Size;
 2084              		.loc 1 1166 23 discriminator 2
 2085 0078 FB68     		ldr	r3, [r7, #12]
 2086 007a 0822     		movs	r2, #8
 2087 007c BA18     		adds	r2, r7, r2
 2088 007e 1288     		ldrh	r2, [r2]
 2089 0080 5A85     		strh	r2, [r3, #42]
1167:Drivers/STM32F0xx_HAL_Driver/Src/stm32f0xx_hal_i2c.c ****     hi2c->XferOptions = I2C_NO_OPTION_FRAME;
 2090              		.loc 1 1167 23 discriminator 2
 2091 0082 FB68     		ldr	r3, [r7, #12]
ARM GAS  C:\Users\ADMINI~1\AppData\Local\Temp\cc3zYV2m.s 			page 58


 2092 0084 1B4A     		ldr	r2, .L93
 2093 0086 DA62     		str	r2, [r3, #44]
1168:Drivers/STM32F0xx_HAL_Driver/Src/stm32f0xx_hal_i2c.c ****     hi2c->XferISR     = I2C_Master_ISR_IT;
 2094              		.loc 1 1168 23 discriminator 2
 2095 0088 FB68     		ldr	r3, [r7, #12]
 2096 008a 1B4A     		ldr	r2, .L93+4
 2097 008c 5A63     		str	r2, [r3, #52]
1169:Drivers/STM32F0xx_HAL_Driver/Src/stm32f0xx_hal_i2c.c **** 
1170:Drivers/STM32F0xx_HAL_Driver/Src/stm32f0xx_hal_i2c.c ****     if (hi2c->XferCount > MAX_NBYTE_SIZE)
 2098              		.loc 1 1170 13 discriminator 2
 2099 008e FB68     		ldr	r3, [r7, #12]
 2100 0090 5B8D     		ldrh	r3, [r3, #42]
 2101 0092 9BB2     		uxth	r3, r3
 2102              		.loc 1 1170 8 discriminator 2
 2103 0094 FF2B     		cmp	r3, #255
 2104 0096 06D9     		bls	.L91
1171:Drivers/STM32F0xx_HAL_Driver/Src/stm32f0xx_hal_i2c.c ****     {
1172:Drivers/STM32F0xx_HAL_Driver/Src/stm32f0xx_hal_i2c.c ****       hi2c->XferSize = MAX_NBYTE_SIZE;
 2105              		.loc 1 1172 22
 2106 0098 FB68     		ldr	r3, [r7, #12]
 2107 009a FF22     		movs	r2, #255
 2108 009c 1A85     		strh	r2, [r3, #40]
1173:Drivers/STM32F0xx_HAL_Driver/Src/stm32f0xx_hal_i2c.c ****       xfermode = I2C_RELOAD_MODE;
 2109              		.loc 1 1173 16
 2110 009e 8023     		movs	r3, #128
 2111 00a0 5B04     		lsls	r3, r3, #17
 2112 00a2 7B61     		str	r3, [r7, #20]
 2113 00a4 07E0     		b	.L92
 2114              	.L91:
1174:Drivers/STM32F0xx_HAL_Driver/Src/stm32f0xx_hal_i2c.c ****     }
1175:Drivers/STM32F0xx_HAL_Driver/Src/stm32f0xx_hal_i2c.c ****     else
1176:Drivers/STM32F0xx_HAL_Driver/Src/stm32f0xx_hal_i2c.c ****     {
1177:Drivers/STM32F0xx_HAL_Driver/Src/stm32f0xx_hal_i2c.c ****       hi2c->XferSize = hi2c->XferCount;
 2115              		.loc 1 1177 28
 2116 00a6 FB68     		ldr	r3, [r7, #12]
 2117 00a8 5B8D     		ldrh	r3, [r3, #42]
 2118 00aa 9AB2     		uxth	r2, r3
 2119              		.loc 1 1177 22
 2120 00ac FB68     		ldr	r3, [r7, #12]
 2121 00ae 1A85     		strh	r2, [r3, #40]
1178:Drivers/STM32F0xx_HAL_Driver/Src/stm32f0xx_hal_i2c.c ****       xfermode = I2C_AUTOEND_MODE;
 2122              		.loc 1 1178 16
 2123 00b0 8023     		movs	r3, #128
 2124 00b2 9B04     		lsls	r3, r3, #18
 2125 00b4 7B61     		str	r3, [r7, #20]
 2126              	.L92:
1179:Drivers/STM32F0xx_HAL_Driver/Src/stm32f0xx_hal_i2c.c ****     }
1180:Drivers/STM32F0xx_HAL_Driver/Src/stm32f0xx_hal_i2c.c **** 
1181:Drivers/STM32F0xx_HAL_Driver/Src/stm32f0xx_hal_i2c.c ****     /* Send Slave Address */
1182:Drivers/STM32F0xx_HAL_Driver/Src/stm32f0xx_hal_i2c.c ****     /* Set NBYTES to write and reload if hi2c->XferCount > MAX_NBYTE_SIZE */
1183:Drivers/STM32F0xx_HAL_Driver/Src/stm32f0xx_hal_i2c.c ****     I2C_TransferConfig(hi2c, DevAddress, hi2c->XferSize, xfermode, I2C_GENERATE_START_WRITE);
 2127              		.loc 1 1183 46
 2128 00b6 FB68     		ldr	r3, [r7, #12]
 2129 00b8 1B8D     		ldrh	r3, [r3, #40]
 2130              		.loc 1 1183 5
 2131 00ba DAB2     		uxtb	r2, r3
 2132 00bc 7C69     		ldr	r4, [r7, #20]
ARM GAS  C:\Users\ADMINI~1\AppData\Local\Temp\cc3zYV2m.s 			page 59


 2133 00be 0A23     		movs	r3, #10
 2134 00c0 FB18     		adds	r3, r7, r3
 2135 00c2 1988     		ldrh	r1, [r3]
 2136 00c4 F868     		ldr	r0, [r7, #12]
 2137 00c6 8023     		movs	r3, #128
 2138 00c8 9B01     		lsls	r3, r3, #6
 2139 00ca 0093     		str	r3, [sp]
 2140 00cc 2300     		movs	r3, r4
 2141 00ce FFF7FEFF 		bl	I2C_TransferConfig
1184:Drivers/STM32F0xx_HAL_Driver/Src/stm32f0xx_hal_i2c.c **** 
1185:Drivers/STM32F0xx_HAL_Driver/Src/stm32f0xx_hal_i2c.c ****     /* Process Unlocked */
1186:Drivers/STM32F0xx_HAL_Driver/Src/stm32f0xx_hal_i2c.c ****     __HAL_UNLOCK(hi2c);
 2142              		.loc 1 1186 5
 2143 00d2 FB68     		ldr	r3, [r7, #12]
 2144 00d4 4022     		movs	r2, #64
 2145 00d6 0021     		movs	r1, #0
 2146 00d8 9954     		strb	r1, [r3, r2]
1187:Drivers/STM32F0xx_HAL_Driver/Src/stm32f0xx_hal_i2c.c **** 
1188:Drivers/STM32F0xx_HAL_Driver/Src/stm32f0xx_hal_i2c.c ****     /* Note : The I2C interrupts must be enabled after unlocking current process
1189:Drivers/STM32F0xx_HAL_Driver/Src/stm32f0xx_hal_i2c.c ****               to avoid the risk of I2C interrupt handle execution before current
1190:Drivers/STM32F0xx_HAL_Driver/Src/stm32f0xx_hal_i2c.c ****               process unlock */
1191:Drivers/STM32F0xx_HAL_Driver/Src/stm32f0xx_hal_i2c.c **** 
1192:Drivers/STM32F0xx_HAL_Driver/Src/stm32f0xx_hal_i2c.c ****     /* Enable ERR, TC, STOP, NACK, TXI interrupt */
1193:Drivers/STM32F0xx_HAL_Driver/Src/stm32f0xx_hal_i2c.c ****     /* possible to enable all of these */
1194:Drivers/STM32F0xx_HAL_Driver/Src/stm32f0xx_hal_i2c.c ****     /* I2C_IT_ERRI | I2C_IT_TCI| I2C_IT_STOPI| I2C_IT_NACKI | I2C_IT_ADDRI | I2C_IT_RXI | I2C_IT_TX
1195:Drivers/STM32F0xx_HAL_Driver/Src/stm32f0xx_hal_i2c.c ****     I2C_Enable_IRQ(hi2c, I2C_XFER_TX_IT);
 2147              		.loc 1 1195 5
 2148 00da FB68     		ldr	r3, [r7, #12]
 2149 00dc 0121     		movs	r1, #1
 2150 00de 1800     		movs	r0, r3
 2151 00e0 FFF7FEFF 		bl	I2C_Enable_IRQ
1196:Drivers/STM32F0xx_HAL_Driver/Src/stm32f0xx_hal_i2c.c **** 
1197:Drivers/STM32F0xx_HAL_Driver/Src/stm32f0xx_hal_i2c.c ****     return HAL_OK;
 2152              		.loc 1 1197 12
 2153 00e4 0023     		movs	r3, #0
 2154 00e6 00E0     		b	.L89
 2155              	.L87:
1198:Drivers/STM32F0xx_HAL_Driver/Src/stm32f0xx_hal_i2c.c ****   }
1199:Drivers/STM32F0xx_HAL_Driver/Src/stm32f0xx_hal_i2c.c ****   else
1200:Drivers/STM32F0xx_HAL_Driver/Src/stm32f0xx_hal_i2c.c ****   {
1201:Drivers/STM32F0xx_HAL_Driver/Src/stm32f0xx_hal_i2c.c ****     return HAL_BUSY;
 2156              		.loc 1 1201 12
 2157 00e8 0223     		movs	r3, #2
 2158              	.L89:
1202:Drivers/STM32F0xx_HAL_Driver/Src/stm32f0xx_hal_i2c.c ****   }
1203:Drivers/STM32F0xx_HAL_Driver/Src/stm32f0xx_hal_i2c.c **** }
 2159              		.loc 1 1203 1
 2160 00ea 1800     		movs	r0, r3
 2161 00ec BD46     		mov	sp, r7
 2162 00ee 07B0     		add	sp, sp, #28
 2163              		@ sp needed
 2164 00f0 90BD     		pop	{r4, r7, pc}
 2165              	.L94:
 2166 00f2 C046     		.align	2
 2167              	.L93:
 2168 00f4 0000FFFF 		.word	-65536
 2169 00f8 00000000 		.word	I2C_Master_ISR_IT
ARM GAS  C:\Users\ADMINI~1\AppData\Local\Temp\cc3zYV2m.s 			page 60


 2170              		.cfi_endproc
 2171              	.LFE45:
 2173              		.section	.text.HAL_I2C_Master_Receive_IT,"ax",%progbits
 2174              		.align	1
 2175              		.global	HAL_I2C_Master_Receive_IT
 2176              		.syntax unified
 2177              		.code	16
 2178              		.thumb_func
 2179              		.fpu softvfp
 2181              	HAL_I2C_Master_Receive_IT:
 2182              	.LFB46:
1204:Drivers/STM32F0xx_HAL_Driver/Src/stm32f0xx_hal_i2c.c **** 
1205:Drivers/STM32F0xx_HAL_Driver/Src/stm32f0xx_hal_i2c.c **** /**
1206:Drivers/STM32F0xx_HAL_Driver/Src/stm32f0xx_hal_i2c.c ****   * @brief  Receive in master mode an amount of data in non-blocking mode with Interrupt
1207:Drivers/STM32F0xx_HAL_Driver/Src/stm32f0xx_hal_i2c.c ****   * @param  hi2c Pointer to a I2C_HandleTypeDef structure that contains
1208:Drivers/STM32F0xx_HAL_Driver/Src/stm32f0xx_hal_i2c.c ****   *                the configuration information for the specified I2C.
1209:Drivers/STM32F0xx_HAL_Driver/Src/stm32f0xx_hal_i2c.c ****   * @param  DevAddress Target device address: The device 7 bits address value
1210:Drivers/STM32F0xx_HAL_Driver/Src/stm32f0xx_hal_i2c.c ****   *         in datasheet must be shift at right before call interface
1211:Drivers/STM32F0xx_HAL_Driver/Src/stm32f0xx_hal_i2c.c ****   * @param  pData Pointer to data buffer
1212:Drivers/STM32F0xx_HAL_Driver/Src/stm32f0xx_hal_i2c.c ****   * @param  Size Amount of data to be sent
1213:Drivers/STM32F0xx_HAL_Driver/Src/stm32f0xx_hal_i2c.c ****   * @retval HAL status
1214:Drivers/STM32F0xx_HAL_Driver/Src/stm32f0xx_hal_i2c.c ****   */
1215:Drivers/STM32F0xx_HAL_Driver/Src/stm32f0xx_hal_i2c.c **** HAL_StatusTypeDef HAL_I2C_Master_Receive_IT(I2C_HandleTypeDef *hi2c, uint16_t DevAddress, uint8_t *
1216:Drivers/STM32F0xx_HAL_Driver/Src/stm32f0xx_hal_i2c.c **** {
 2183              		.loc 1 1216 1
 2184              		.cfi_startproc
 2185              		@ args = 0, pretend = 0, frame = 24
 2186              		@ frame_needed = 1, uses_anonymous_args = 0
 2187 0000 90B5     		push	{r4, r7, lr}
 2188              	.LCFI27:
 2189              		.cfi_def_cfa_offset 12
 2190              		.cfi_offset 4, -12
 2191              		.cfi_offset 7, -8
 2192              		.cfi_offset 14, -4
 2193 0002 89B0     		sub	sp, sp, #36
 2194              	.LCFI28:
 2195              		.cfi_def_cfa_offset 48
 2196 0004 02AF     		add	r7, sp, #8
 2197              	.LCFI29:
 2198              		.cfi_def_cfa 7, 40
 2199 0006 F860     		str	r0, [r7, #12]
 2200 0008 0800     		movs	r0, r1
 2201 000a 7A60     		str	r2, [r7, #4]
 2202 000c 1900     		movs	r1, r3
 2203 000e 0A23     		movs	r3, #10
 2204 0010 FB18     		adds	r3, r7, r3
 2205 0012 021C     		adds	r2, r0, #0
 2206 0014 1A80     		strh	r2, [r3]
 2207 0016 0823     		movs	r3, #8
 2208 0018 FB18     		adds	r3, r7, r3
 2209 001a 0A1C     		adds	r2, r1, #0
 2210 001c 1A80     		strh	r2, [r3]
1217:Drivers/STM32F0xx_HAL_Driver/Src/stm32f0xx_hal_i2c.c ****   uint32_t xfermode = 0U;
 2211              		.loc 1 1217 12
 2212 001e 0023     		movs	r3, #0
 2213 0020 7B61     		str	r3, [r7, #20]
1218:Drivers/STM32F0xx_HAL_Driver/Src/stm32f0xx_hal_i2c.c **** 
ARM GAS  C:\Users\ADMINI~1\AppData\Local\Temp\cc3zYV2m.s 			page 61


1219:Drivers/STM32F0xx_HAL_Driver/Src/stm32f0xx_hal_i2c.c ****   if (hi2c->State == HAL_I2C_STATE_READY)
 2214              		.loc 1 1219 11
 2215 0022 FB68     		ldr	r3, [r7, #12]
 2216 0024 4122     		movs	r2, #65
 2217 0026 9B5C     		ldrb	r3, [r3, r2]
 2218 0028 DBB2     		uxtb	r3, r3
 2219              		.loc 1 1219 6
 2220 002a 202B     		cmp	r3, #32
 2221 002c 5CD1     		bne	.L96
1220:Drivers/STM32F0xx_HAL_Driver/Src/stm32f0xx_hal_i2c.c ****   {
1221:Drivers/STM32F0xx_HAL_Driver/Src/stm32f0xx_hal_i2c.c ****     if (__HAL_I2C_GET_FLAG(hi2c, I2C_FLAG_BUSY) == SET)
 2222              		.loc 1 1221 9
 2223 002e FB68     		ldr	r3, [r7, #12]
 2224 0030 1B68     		ldr	r3, [r3]
 2225 0032 9A69     		ldr	r2, [r3, #24]
 2226 0034 8023     		movs	r3, #128
 2227 0036 1B02     		lsls	r3, r3, #8
 2228 0038 1A40     		ands	r2, r3
 2229              		.loc 1 1221 8
 2230 003a 8023     		movs	r3, #128
 2231 003c 1B02     		lsls	r3, r3, #8
 2232 003e 9A42     		cmp	r2, r3
 2233 0040 01D1     		bne	.L97
1222:Drivers/STM32F0xx_HAL_Driver/Src/stm32f0xx_hal_i2c.c ****     {
1223:Drivers/STM32F0xx_HAL_Driver/Src/stm32f0xx_hal_i2c.c ****       return HAL_BUSY;
 2234              		.loc 1 1223 14
 2235 0042 0223     		movs	r3, #2
 2236 0044 51E0     		b	.L98
 2237              	.L97:
1224:Drivers/STM32F0xx_HAL_Driver/Src/stm32f0xx_hal_i2c.c ****     }
1225:Drivers/STM32F0xx_HAL_Driver/Src/stm32f0xx_hal_i2c.c **** 
1226:Drivers/STM32F0xx_HAL_Driver/Src/stm32f0xx_hal_i2c.c ****     /* Process Locked */
1227:Drivers/STM32F0xx_HAL_Driver/Src/stm32f0xx_hal_i2c.c ****     __HAL_LOCK(hi2c);
 2238              		.loc 1 1227 5
 2239 0046 FB68     		ldr	r3, [r7, #12]
 2240 0048 4022     		movs	r2, #64
 2241 004a 9B5C     		ldrb	r3, [r3, r2]
 2242 004c 012B     		cmp	r3, #1
 2243 004e 01D1     		bne	.L99
 2244              		.loc 1 1227 5 is_stmt 0 discriminator 1
 2245 0050 0223     		movs	r3, #2
 2246 0052 4AE0     		b	.L98
 2247              	.L99:
 2248              		.loc 1 1227 5 discriminator 2
 2249 0054 FB68     		ldr	r3, [r7, #12]
 2250 0056 4022     		movs	r2, #64
 2251 0058 0121     		movs	r1, #1
 2252 005a 9954     		strb	r1, [r3, r2]
1228:Drivers/STM32F0xx_HAL_Driver/Src/stm32f0xx_hal_i2c.c **** 
1229:Drivers/STM32F0xx_HAL_Driver/Src/stm32f0xx_hal_i2c.c ****     hi2c->State       = HAL_I2C_STATE_BUSY_RX;
 2253              		.loc 1 1229 23 is_stmt 1 discriminator 2
 2254 005c FB68     		ldr	r3, [r7, #12]
 2255 005e 4122     		movs	r2, #65
 2256 0060 2221     		movs	r1, #34
 2257 0062 9954     		strb	r1, [r3, r2]
1230:Drivers/STM32F0xx_HAL_Driver/Src/stm32f0xx_hal_i2c.c ****     hi2c->Mode        = HAL_I2C_MODE_MASTER;
 2258              		.loc 1 1230 23 discriminator 2
ARM GAS  C:\Users\ADMINI~1\AppData\Local\Temp\cc3zYV2m.s 			page 62


 2259 0064 FB68     		ldr	r3, [r7, #12]
 2260 0066 4222     		movs	r2, #66
 2261 0068 1021     		movs	r1, #16
 2262 006a 9954     		strb	r1, [r3, r2]
1231:Drivers/STM32F0xx_HAL_Driver/Src/stm32f0xx_hal_i2c.c ****     hi2c->ErrorCode   = HAL_I2C_ERROR_NONE;
 2263              		.loc 1 1231 23 discriminator 2
 2264 006c FB68     		ldr	r3, [r7, #12]
 2265 006e 0022     		movs	r2, #0
 2266 0070 5A64     		str	r2, [r3, #68]
1232:Drivers/STM32F0xx_HAL_Driver/Src/stm32f0xx_hal_i2c.c **** 
1233:Drivers/STM32F0xx_HAL_Driver/Src/stm32f0xx_hal_i2c.c ****     /* Prepare transfer parameters */
1234:Drivers/STM32F0xx_HAL_Driver/Src/stm32f0xx_hal_i2c.c ****     hi2c->pBuffPtr    = pData;
 2267              		.loc 1 1234 23 discriminator 2
 2268 0072 FB68     		ldr	r3, [r7, #12]
 2269 0074 7A68     		ldr	r2, [r7, #4]
 2270 0076 5A62     		str	r2, [r3, #36]
1235:Drivers/STM32F0xx_HAL_Driver/Src/stm32f0xx_hal_i2c.c ****     hi2c->XferCount   = Size;
 2271              		.loc 1 1235 23 discriminator 2
 2272 0078 FB68     		ldr	r3, [r7, #12]
 2273 007a 0822     		movs	r2, #8
 2274 007c BA18     		adds	r2, r7, r2
 2275 007e 1288     		ldrh	r2, [r2]
 2276 0080 5A85     		strh	r2, [r3, #42]
1236:Drivers/STM32F0xx_HAL_Driver/Src/stm32f0xx_hal_i2c.c ****     hi2c->XferOptions = I2C_NO_OPTION_FRAME;
 2277              		.loc 1 1236 23 discriminator 2
 2278 0082 FB68     		ldr	r3, [r7, #12]
 2279 0084 1B4A     		ldr	r2, .L102
 2280 0086 DA62     		str	r2, [r3, #44]
1237:Drivers/STM32F0xx_HAL_Driver/Src/stm32f0xx_hal_i2c.c ****     hi2c->XferISR     = I2C_Master_ISR_IT;
 2281              		.loc 1 1237 23 discriminator 2
 2282 0088 FB68     		ldr	r3, [r7, #12]
 2283 008a 1B4A     		ldr	r2, .L102+4
 2284 008c 5A63     		str	r2, [r3, #52]
1238:Drivers/STM32F0xx_HAL_Driver/Src/stm32f0xx_hal_i2c.c **** 
1239:Drivers/STM32F0xx_HAL_Driver/Src/stm32f0xx_hal_i2c.c ****     if (hi2c->XferCount > MAX_NBYTE_SIZE)
 2285              		.loc 1 1239 13 discriminator 2
 2286 008e FB68     		ldr	r3, [r7, #12]
 2287 0090 5B8D     		ldrh	r3, [r3, #42]
 2288 0092 9BB2     		uxth	r3, r3
 2289              		.loc 1 1239 8 discriminator 2
 2290 0094 FF2B     		cmp	r3, #255
 2291 0096 06D9     		bls	.L100
1240:Drivers/STM32F0xx_HAL_Driver/Src/stm32f0xx_hal_i2c.c ****     {
1241:Drivers/STM32F0xx_HAL_Driver/Src/stm32f0xx_hal_i2c.c ****       hi2c->XferSize = MAX_NBYTE_SIZE;
 2292              		.loc 1 1241 22
 2293 0098 FB68     		ldr	r3, [r7, #12]
 2294 009a FF22     		movs	r2, #255
 2295 009c 1A85     		strh	r2, [r3, #40]
1242:Drivers/STM32F0xx_HAL_Driver/Src/stm32f0xx_hal_i2c.c ****       xfermode = I2C_RELOAD_MODE;
 2296              		.loc 1 1242 16
 2297 009e 8023     		movs	r3, #128
 2298 00a0 5B04     		lsls	r3, r3, #17
 2299 00a2 7B61     		str	r3, [r7, #20]
 2300 00a4 07E0     		b	.L101
 2301              	.L100:
1243:Drivers/STM32F0xx_HAL_Driver/Src/stm32f0xx_hal_i2c.c ****     }
1244:Drivers/STM32F0xx_HAL_Driver/Src/stm32f0xx_hal_i2c.c ****     else
ARM GAS  C:\Users\ADMINI~1\AppData\Local\Temp\cc3zYV2m.s 			page 63


1245:Drivers/STM32F0xx_HAL_Driver/Src/stm32f0xx_hal_i2c.c ****     {
1246:Drivers/STM32F0xx_HAL_Driver/Src/stm32f0xx_hal_i2c.c ****       hi2c->XferSize = hi2c->XferCount;
 2302              		.loc 1 1246 28
 2303 00a6 FB68     		ldr	r3, [r7, #12]
 2304 00a8 5B8D     		ldrh	r3, [r3, #42]
 2305 00aa 9AB2     		uxth	r2, r3
 2306              		.loc 1 1246 22
 2307 00ac FB68     		ldr	r3, [r7, #12]
 2308 00ae 1A85     		strh	r2, [r3, #40]
1247:Drivers/STM32F0xx_HAL_Driver/Src/stm32f0xx_hal_i2c.c ****       xfermode = I2C_AUTOEND_MODE;
 2309              		.loc 1 1247 16
 2310 00b0 8023     		movs	r3, #128
 2311 00b2 9B04     		lsls	r3, r3, #18
 2312 00b4 7B61     		str	r3, [r7, #20]
 2313              	.L101:
1248:Drivers/STM32F0xx_HAL_Driver/Src/stm32f0xx_hal_i2c.c ****     }
1249:Drivers/STM32F0xx_HAL_Driver/Src/stm32f0xx_hal_i2c.c **** 
1250:Drivers/STM32F0xx_HAL_Driver/Src/stm32f0xx_hal_i2c.c ****     /* Send Slave Address */
1251:Drivers/STM32F0xx_HAL_Driver/Src/stm32f0xx_hal_i2c.c ****     /* Set NBYTES to write and reload if hi2c->XferCount > MAX_NBYTE_SIZE */
1252:Drivers/STM32F0xx_HAL_Driver/Src/stm32f0xx_hal_i2c.c ****     I2C_TransferConfig(hi2c, DevAddress, hi2c->XferSize, xfermode, I2C_GENERATE_START_READ);
 2314              		.loc 1 1252 46
 2315 00b6 FB68     		ldr	r3, [r7, #12]
 2316 00b8 1B8D     		ldrh	r3, [r3, #40]
 2317              		.loc 1 1252 5
 2318 00ba DAB2     		uxtb	r2, r3
 2319 00bc 7C69     		ldr	r4, [r7, #20]
 2320 00be 0A23     		movs	r3, #10
 2321 00c0 FB18     		adds	r3, r7, r3
 2322 00c2 1988     		ldrh	r1, [r3]
 2323 00c4 F868     		ldr	r0, [r7, #12]
 2324 00c6 9023     		movs	r3, #144
 2325 00c8 9B01     		lsls	r3, r3, #6
 2326 00ca 0093     		str	r3, [sp]
 2327 00cc 2300     		movs	r3, r4
 2328 00ce FFF7FEFF 		bl	I2C_TransferConfig
1253:Drivers/STM32F0xx_HAL_Driver/Src/stm32f0xx_hal_i2c.c **** 
1254:Drivers/STM32F0xx_HAL_Driver/Src/stm32f0xx_hal_i2c.c ****     /* Process Unlocked */
1255:Drivers/STM32F0xx_HAL_Driver/Src/stm32f0xx_hal_i2c.c ****     __HAL_UNLOCK(hi2c);
 2329              		.loc 1 1255 5
 2330 00d2 FB68     		ldr	r3, [r7, #12]
 2331 00d4 4022     		movs	r2, #64
 2332 00d6 0021     		movs	r1, #0
 2333 00d8 9954     		strb	r1, [r3, r2]
1256:Drivers/STM32F0xx_HAL_Driver/Src/stm32f0xx_hal_i2c.c **** 
1257:Drivers/STM32F0xx_HAL_Driver/Src/stm32f0xx_hal_i2c.c ****     /* Note : The I2C interrupts must be enabled after unlocking current process
1258:Drivers/STM32F0xx_HAL_Driver/Src/stm32f0xx_hal_i2c.c ****               to avoid the risk of I2C interrupt handle execution before current
1259:Drivers/STM32F0xx_HAL_Driver/Src/stm32f0xx_hal_i2c.c ****               process unlock */
1260:Drivers/STM32F0xx_HAL_Driver/Src/stm32f0xx_hal_i2c.c **** 
1261:Drivers/STM32F0xx_HAL_Driver/Src/stm32f0xx_hal_i2c.c ****     /* Enable ERR, TC, STOP, NACK, RXI interrupt */
1262:Drivers/STM32F0xx_HAL_Driver/Src/stm32f0xx_hal_i2c.c ****     /* possible to enable all of these */
1263:Drivers/STM32F0xx_HAL_Driver/Src/stm32f0xx_hal_i2c.c ****     /* I2C_IT_ERRI | I2C_IT_TCI| I2C_IT_STOPI| I2C_IT_NACKI | I2C_IT_ADDRI | I2C_IT_RXI | I2C_IT_TX
1264:Drivers/STM32F0xx_HAL_Driver/Src/stm32f0xx_hal_i2c.c ****     I2C_Enable_IRQ(hi2c, I2C_XFER_RX_IT);
 2334              		.loc 1 1264 5
 2335 00da FB68     		ldr	r3, [r7, #12]
 2336 00dc 0221     		movs	r1, #2
 2337 00de 1800     		movs	r0, r3
 2338 00e0 FFF7FEFF 		bl	I2C_Enable_IRQ
ARM GAS  C:\Users\ADMINI~1\AppData\Local\Temp\cc3zYV2m.s 			page 64


1265:Drivers/STM32F0xx_HAL_Driver/Src/stm32f0xx_hal_i2c.c **** 
1266:Drivers/STM32F0xx_HAL_Driver/Src/stm32f0xx_hal_i2c.c ****     return HAL_OK;
 2339              		.loc 1 1266 12
 2340 00e4 0023     		movs	r3, #0
 2341 00e6 00E0     		b	.L98
 2342              	.L96:
1267:Drivers/STM32F0xx_HAL_Driver/Src/stm32f0xx_hal_i2c.c ****   }
1268:Drivers/STM32F0xx_HAL_Driver/Src/stm32f0xx_hal_i2c.c ****   else
1269:Drivers/STM32F0xx_HAL_Driver/Src/stm32f0xx_hal_i2c.c ****   {
1270:Drivers/STM32F0xx_HAL_Driver/Src/stm32f0xx_hal_i2c.c ****     return HAL_BUSY;
 2343              		.loc 1 1270 12
 2344 00e8 0223     		movs	r3, #2
 2345              	.L98:
1271:Drivers/STM32F0xx_HAL_Driver/Src/stm32f0xx_hal_i2c.c ****   }
1272:Drivers/STM32F0xx_HAL_Driver/Src/stm32f0xx_hal_i2c.c **** }
 2346              		.loc 1 1272 1
 2347 00ea 1800     		movs	r0, r3
 2348 00ec BD46     		mov	sp, r7
 2349 00ee 07B0     		add	sp, sp, #28
 2350              		@ sp needed
 2351 00f0 90BD     		pop	{r4, r7, pc}
 2352              	.L103:
 2353 00f2 C046     		.align	2
 2354              	.L102:
 2355 00f4 0000FFFF 		.word	-65536
 2356 00f8 00000000 		.word	I2C_Master_ISR_IT
 2357              		.cfi_endproc
 2358              	.LFE46:
 2360              		.section	.text.HAL_I2C_Slave_Transmit_IT,"ax",%progbits
 2361              		.align	1
 2362              		.global	HAL_I2C_Slave_Transmit_IT
 2363              		.syntax unified
 2364              		.code	16
 2365              		.thumb_func
 2366              		.fpu softvfp
 2368              	HAL_I2C_Slave_Transmit_IT:
 2369              	.LFB47:
1273:Drivers/STM32F0xx_HAL_Driver/Src/stm32f0xx_hal_i2c.c **** 
1274:Drivers/STM32F0xx_HAL_Driver/Src/stm32f0xx_hal_i2c.c **** /**
1275:Drivers/STM32F0xx_HAL_Driver/Src/stm32f0xx_hal_i2c.c ****   * @brief  Transmit in slave mode an amount of data in non-blocking mode with Interrupt
1276:Drivers/STM32F0xx_HAL_Driver/Src/stm32f0xx_hal_i2c.c ****   * @param  hi2c Pointer to a I2C_HandleTypeDef structure that contains
1277:Drivers/STM32F0xx_HAL_Driver/Src/stm32f0xx_hal_i2c.c ****   *                the configuration information for the specified I2C.
1278:Drivers/STM32F0xx_HAL_Driver/Src/stm32f0xx_hal_i2c.c ****   * @param  pData Pointer to data buffer
1279:Drivers/STM32F0xx_HAL_Driver/Src/stm32f0xx_hal_i2c.c ****   * @param  Size Amount of data to be sent
1280:Drivers/STM32F0xx_HAL_Driver/Src/stm32f0xx_hal_i2c.c ****   * @retval HAL status
1281:Drivers/STM32F0xx_HAL_Driver/Src/stm32f0xx_hal_i2c.c ****   */
1282:Drivers/STM32F0xx_HAL_Driver/Src/stm32f0xx_hal_i2c.c **** HAL_StatusTypeDef HAL_I2C_Slave_Transmit_IT(I2C_HandleTypeDef *hi2c, uint8_t *pData, uint16_t Size)
1283:Drivers/STM32F0xx_HAL_Driver/Src/stm32f0xx_hal_i2c.c **** {
 2370              		.loc 1 1283 1
 2371              		.cfi_startproc
 2372              		@ args = 0, pretend = 0, frame = 16
 2373              		@ frame_needed = 1, uses_anonymous_args = 0
 2374 0000 80B5     		push	{r7, lr}
 2375              	.LCFI30:
 2376              		.cfi_def_cfa_offset 8
 2377              		.cfi_offset 7, -8
 2378              		.cfi_offset 14, -4
ARM GAS  C:\Users\ADMINI~1\AppData\Local\Temp\cc3zYV2m.s 			page 65


 2379 0002 84B0     		sub	sp, sp, #16
 2380              	.LCFI31:
 2381              		.cfi_def_cfa_offset 24
 2382 0004 00AF     		add	r7, sp, #0
 2383              	.LCFI32:
 2384              		.cfi_def_cfa_register 7
 2385 0006 F860     		str	r0, [r7, #12]
 2386 0008 B960     		str	r1, [r7, #8]
 2387 000a BB1D     		adds	r3, r7, #6
 2388 000c 1A80     		strh	r2, [r3]
1284:Drivers/STM32F0xx_HAL_Driver/Src/stm32f0xx_hal_i2c.c ****   if (hi2c->State == HAL_I2C_STATE_READY)
 2389              		.loc 1 1284 11
 2390 000e FB68     		ldr	r3, [r7, #12]
 2391 0010 4122     		movs	r2, #65
 2392 0012 9B5C     		ldrb	r3, [r3, r2]
 2393 0014 DBB2     		uxtb	r3, r3
 2394              		.loc 1 1284 6
 2395 0016 202B     		cmp	r3, #32
 2396 0018 3AD1     		bne	.L105
1285:Drivers/STM32F0xx_HAL_Driver/Src/stm32f0xx_hal_i2c.c ****   {
1286:Drivers/STM32F0xx_HAL_Driver/Src/stm32f0xx_hal_i2c.c ****     /* Process Locked */
1287:Drivers/STM32F0xx_HAL_Driver/Src/stm32f0xx_hal_i2c.c ****     __HAL_LOCK(hi2c);
 2397              		.loc 1 1287 5
 2398 001a FB68     		ldr	r3, [r7, #12]
 2399 001c 4022     		movs	r2, #64
 2400 001e 9B5C     		ldrb	r3, [r3, r2]
 2401 0020 012B     		cmp	r3, #1
 2402 0022 01D1     		bne	.L106
 2403              		.loc 1 1287 5 is_stmt 0 discriminator 1
 2404 0024 0223     		movs	r3, #2
 2405 0026 34E0     		b	.L107
 2406              	.L106:
 2407              		.loc 1 1287 5 discriminator 2
 2408 0028 FB68     		ldr	r3, [r7, #12]
 2409 002a 4022     		movs	r2, #64
 2410 002c 0121     		movs	r1, #1
 2411 002e 9954     		strb	r1, [r3, r2]
1288:Drivers/STM32F0xx_HAL_Driver/Src/stm32f0xx_hal_i2c.c **** 
1289:Drivers/STM32F0xx_HAL_Driver/Src/stm32f0xx_hal_i2c.c ****     hi2c->State       = HAL_I2C_STATE_BUSY_TX;
 2412              		.loc 1 1289 23 is_stmt 1 discriminator 2
 2413 0030 FB68     		ldr	r3, [r7, #12]
 2414 0032 4122     		movs	r2, #65
 2415 0034 2121     		movs	r1, #33
 2416 0036 9954     		strb	r1, [r3, r2]
1290:Drivers/STM32F0xx_HAL_Driver/Src/stm32f0xx_hal_i2c.c ****     hi2c->Mode        = HAL_I2C_MODE_SLAVE;
 2417              		.loc 1 1290 23 discriminator 2
 2418 0038 FB68     		ldr	r3, [r7, #12]
 2419 003a 4222     		movs	r2, #66
 2420 003c 2021     		movs	r1, #32
 2421 003e 9954     		strb	r1, [r3, r2]
1291:Drivers/STM32F0xx_HAL_Driver/Src/stm32f0xx_hal_i2c.c ****     hi2c->ErrorCode   = HAL_I2C_ERROR_NONE;
 2422              		.loc 1 1291 23 discriminator 2
 2423 0040 FB68     		ldr	r3, [r7, #12]
 2424 0042 0022     		movs	r2, #0
 2425 0044 5A64     		str	r2, [r3, #68]
1292:Drivers/STM32F0xx_HAL_Driver/Src/stm32f0xx_hal_i2c.c **** 
1293:Drivers/STM32F0xx_HAL_Driver/Src/stm32f0xx_hal_i2c.c ****     /* Enable Address Acknowledge */
ARM GAS  C:\Users\ADMINI~1\AppData\Local\Temp\cc3zYV2m.s 			page 66


1294:Drivers/STM32F0xx_HAL_Driver/Src/stm32f0xx_hal_i2c.c ****     hi2c->Instance->CR2 &= ~I2C_CR2_NACK;
 2426              		.loc 1 1294 9 discriminator 2
 2427 0046 FB68     		ldr	r3, [r7, #12]
 2428 0048 1B68     		ldr	r3, [r3]
 2429              		.loc 1 1294 25 discriminator 2
 2430 004a 5A68     		ldr	r2, [r3, #4]
 2431              		.loc 1 1294 9 discriminator 2
 2432 004c FB68     		ldr	r3, [r7, #12]
 2433 004e 1B68     		ldr	r3, [r3]
 2434              		.loc 1 1294 25 discriminator 2
 2435 0050 1249     		ldr	r1, .L108
 2436 0052 0A40     		ands	r2, r1
 2437 0054 5A60     		str	r2, [r3, #4]
1295:Drivers/STM32F0xx_HAL_Driver/Src/stm32f0xx_hal_i2c.c **** 
1296:Drivers/STM32F0xx_HAL_Driver/Src/stm32f0xx_hal_i2c.c ****     /* Prepare transfer parameters */
1297:Drivers/STM32F0xx_HAL_Driver/Src/stm32f0xx_hal_i2c.c ****     hi2c->pBuffPtr    = pData;
 2438              		.loc 1 1297 23 discriminator 2
 2439 0056 FB68     		ldr	r3, [r7, #12]
 2440 0058 BA68     		ldr	r2, [r7, #8]
 2441 005a 5A62     		str	r2, [r3, #36]
1298:Drivers/STM32F0xx_HAL_Driver/Src/stm32f0xx_hal_i2c.c ****     hi2c->XferCount   = Size;
 2442              		.loc 1 1298 23 discriminator 2
 2443 005c FB68     		ldr	r3, [r7, #12]
 2444 005e BA1D     		adds	r2, r7, #6
 2445 0060 1288     		ldrh	r2, [r2]
 2446 0062 5A85     		strh	r2, [r3, #42]
1299:Drivers/STM32F0xx_HAL_Driver/Src/stm32f0xx_hal_i2c.c ****     hi2c->XferSize    = hi2c->XferCount;
 2447              		.loc 1 1299 29 discriminator 2
 2448 0064 FB68     		ldr	r3, [r7, #12]
 2449 0066 5B8D     		ldrh	r3, [r3, #42]
 2450 0068 9AB2     		uxth	r2, r3
 2451              		.loc 1 1299 23 discriminator 2
 2452 006a FB68     		ldr	r3, [r7, #12]
 2453 006c 1A85     		strh	r2, [r3, #40]
1300:Drivers/STM32F0xx_HAL_Driver/Src/stm32f0xx_hal_i2c.c ****     hi2c->XferOptions = I2C_NO_OPTION_FRAME;
 2454              		.loc 1 1300 23 discriminator 2
 2455 006e FB68     		ldr	r3, [r7, #12]
 2456 0070 0B4A     		ldr	r2, .L108+4
 2457 0072 DA62     		str	r2, [r3, #44]
1301:Drivers/STM32F0xx_HAL_Driver/Src/stm32f0xx_hal_i2c.c ****     hi2c->XferISR     = I2C_Slave_ISR_IT;
 2458              		.loc 1 1301 23 discriminator 2
 2459 0074 FB68     		ldr	r3, [r7, #12]
 2460 0076 0B4A     		ldr	r2, .L108+8
 2461 0078 5A63     		str	r2, [r3, #52]
1302:Drivers/STM32F0xx_HAL_Driver/Src/stm32f0xx_hal_i2c.c **** 
1303:Drivers/STM32F0xx_HAL_Driver/Src/stm32f0xx_hal_i2c.c ****     /* Process Unlocked */
1304:Drivers/STM32F0xx_HAL_Driver/Src/stm32f0xx_hal_i2c.c ****     __HAL_UNLOCK(hi2c);
 2462              		.loc 1 1304 5 discriminator 2
 2463 007a FB68     		ldr	r3, [r7, #12]
 2464 007c 4022     		movs	r2, #64
 2465 007e 0021     		movs	r1, #0
 2466 0080 9954     		strb	r1, [r3, r2]
1305:Drivers/STM32F0xx_HAL_Driver/Src/stm32f0xx_hal_i2c.c **** 
1306:Drivers/STM32F0xx_HAL_Driver/Src/stm32f0xx_hal_i2c.c ****     /* Note : The I2C interrupts must be enabled after unlocking current process
1307:Drivers/STM32F0xx_HAL_Driver/Src/stm32f0xx_hal_i2c.c ****               to avoid the risk of I2C interrupt handle execution before current
1308:Drivers/STM32F0xx_HAL_Driver/Src/stm32f0xx_hal_i2c.c ****               process unlock */
1309:Drivers/STM32F0xx_HAL_Driver/Src/stm32f0xx_hal_i2c.c **** 
ARM GAS  C:\Users\ADMINI~1\AppData\Local\Temp\cc3zYV2m.s 			page 67


1310:Drivers/STM32F0xx_HAL_Driver/Src/stm32f0xx_hal_i2c.c ****     /* Enable ERR, TC, STOP, NACK, TXI interrupt */
1311:Drivers/STM32F0xx_HAL_Driver/Src/stm32f0xx_hal_i2c.c ****     /* possible to enable all of these */
1312:Drivers/STM32F0xx_HAL_Driver/Src/stm32f0xx_hal_i2c.c ****     /* I2C_IT_ERRI | I2C_IT_TCI| I2C_IT_STOPI| I2C_IT_NACKI | I2C_IT_ADDRI | I2C_IT_RXI | I2C_IT_TX
1313:Drivers/STM32F0xx_HAL_Driver/Src/stm32f0xx_hal_i2c.c ****     I2C_Enable_IRQ(hi2c, I2C_XFER_TX_IT | I2C_XFER_LISTEN_IT);
 2467              		.loc 1 1313 5 discriminator 2
 2468 0082 FB68     		ldr	r3, [r7, #12]
 2469 0084 0521     		movs	r1, #5
 2470 0086 1800     		movs	r0, r3
 2471 0088 FFF7FEFF 		bl	I2C_Enable_IRQ
1314:Drivers/STM32F0xx_HAL_Driver/Src/stm32f0xx_hal_i2c.c **** 
1315:Drivers/STM32F0xx_HAL_Driver/Src/stm32f0xx_hal_i2c.c ****     return HAL_OK;
 2472              		.loc 1 1315 12 discriminator 2
 2473 008c 0023     		movs	r3, #0
 2474 008e 00E0     		b	.L107
 2475              	.L105:
1316:Drivers/STM32F0xx_HAL_Driver/Src/stm32f0xx_hal_i2c.c ****   }
1317:Drivers/STM32F0xx_HAL_Driver/Src/stm32f0xx_hal_i2c.c ****   else
1318:Drivers/STM32F0xx_HAL_Driver/Src/stm32f0xx_hal_i2c.c ****   {
1319:Drivers/STM32F0xx_HAL_Driver/Src/stm32f0xx_hal_i2c.c ****     return HAL_BUSY;
 2476              		.loc 1 1319 12
 2477 0090 0223     		movs	r3, #2
 2478              	.L107:
1320:Drivers/STM32F0xx_HAL_Driver/Src/stm32f0xx_hal_i2c.c ****   }
1321:Drivers/STM32F0xx_HAL_Driver/Src/stm32f0xx_hal_i2c.c **** }
 2479              		.loc 1 1321 1
 2480 0092 1800     		movs	r0, r3
 2481 0094 BD46     		mov	sp, r7
 2482 0096 04B0     		add	sp, sp, #16
 2483              		@ sp needed
 2484 0098 80BD     		pop	{r7, pc}
 2485              	.L109:
 2486 009a C046     		.align	2
 2487              	.L108:
 2488 009c FF7FFFFF 		.word	-32769
 2489 00a0 0000FFFF 		.word	-65536
 2490 00a4 00000000 		.word	I2C_Slave_ISR_IT
 2491              		.cfi_endproc
 2492              	.LFE47:
 2494              		.section	.text.HAL_I2C_Slave_Receive_IT,"ax",%progbits
 2495              		.align	1
 2496              		.global	HAL_I2C_Slave_Receive_IT
 2497              		.syntax unified
 2498              		.code	16
 2499              		.thumb_func
 2500              		.fpu softvfp
 2502              	HAL_I2C_Slave_Receive_IT:
 2503              	.LFB48:
1322:Drivers/STM32F0xx_HAL_Driver/Src/stm32f0xx_hal_i2c.c **** 
1323:Drivers/STM32F0xx_HAL_Driver/Src/stm32f0xx_hal_i2c.c **** /**
1324:Drivers/STM32F0xx_HAL_Driver/Src/stm32f0xx_hal_i2c.c ****   * @brief  Receive in slave mode an amount of data in non-blocking mode with Interrupt
1325:Drivers/STM32F0xx_HAL_Driver/Src/stm32f0xx_hal_i2c.c ****   * @param  hi2c Pointer to a I2C_HandleTypeDef structure that contains
1326:Drivers/STM32F0xx_HAL_Driver/Src/stm32f0xx_hal_i2c.c ****   *                the configuration information for the specified I2C.
1327:Drivers/STM32F0xx_HAL_Driver/Src/stm32f0xx_hal_i2c.c ****   * @param  pData Pointer to data buffer
1328:Drivers/STM32F0xx_HAL_Driver/Src/stm32f0xx_hal_i2c.c ****   * @param  Size Amount of data to be sent
1329:Drivers/STM32F0xx_HAL_Driver/Src/stm32f0xx_hal_i2c.c ****   * @retval HAL status
1330:Drivers/STM32F0xx_HAL_Driver/Src/stm32f0xx_hal_i2c.c ****   */
1331:Drivers/STM32F0xx_HAL_Driver/Src/stm32f0xx_hal_i2c.c **** HAL_StatusTypeDef HAL_I2C_Slave_Receive_IT(I2C_HandleTypeDef *hi2c, uint8_t *pData, uint16_t Size)
ARM GAS  C:\Users\ADMINI~1\AppData\Local\Temp\cc3zYV2m.s 			page 68


1332:Drivers/STM32F0xx_HAL_Driver/Src/stm32f0xx_hal_i2c.c **** {
 2504              		.loc 1 1332 1
 2505              		.cfi_startproc
 2506              		@ args = 0, pretend = 0, frame = 16
 2507              		@ frame_needed = 1, uses_anonymous_args = 0
 2508 0000 80B5     		push	{r7, lr}
 2509              	.LCFI33:
 2510              		.cfi_def_cfa_offset 8
 2511              		.cfi_offset 7, -8
 2512              		.cfi_offset 14, -4
 2513 0002 84B0     		sub	sp, sp, #16
 2514              	.LCFI34:
 2515              		.cfi_def_cfa_offset 24
 2516 0004 00AF     		add	r7, sp, #0
 2517              	.LCFI35:
 2518              		.cfi_def_cfa_register 7
 2519 0006 F860     		str	r0, [r7, #12]
 2520 0008 B960     		str	r1, [r7, #8]
 2521 000a BB1D     		adds	r3, r7, #6
 2522 000c 1A80     		strh	r2, [r3]
1333:Drivers/STM32F0xx_HAL_Driver/Src/stm32f0xx_hal_i2c.c ****   if (hi2c->State == HAL_I2C_STATE_READY)
 2523              		.loc 1 1333 11
 2524 000e FB68     		ldr	r3, [r7, #12]
 2525 0010 4122     		movs	r2, #65
 2526 0012 9B5C     		ldrb	r3, [r3, r2]
 2527 0014 DBB2     		uxtb	r3, r3
 2528              		.loc 1 1333 6
 2529 0016 202B     		cmp	r3, #32
 2530 0018 3AD1     		bne	.L111
1334:Drivers/STM32F0xx_HAL_Driver/Src/stm32f0xx_hal_i2c.c ****   {
1335:Drivers/STM32F0xx_HAL_Driver/Src/stm32f0xx_hal_i2c.c ****     /* Process Locked */
1336:Drivers/STM32F0xx_HAL_Driver/Src/stm32f0xx_hal_i2c.c ****     __HAL_LOCK(hi2c);
 2531              		.loc 1 1336 5
 2532 001a FB68     		ldr	r3, [r7, #12]
 2533 001c 4022     		movs	r2, #64
 2534 001e 9B5C     		ldrb	r3, [r3, r2]
 2535 0020 012B     		cmp	r3, #1
 2536 0022 01D1     		bne	.L112
 2537              		.loc 1 1336 5 is_stmt 0 discriminator 1
 2538 0024 0223     		movs	r3, #2
 2539 0026 34E0     		b	.L113
 2540              	.L112:
 2541              		.loc 1 1336 5 discriminator 2
 2542 0028 FB68     		ldr	r3, [r7, #12]
 2543 002a 4022     		movs	r2, #64
 2544 002c 0121     		movs	r1, #1
 2545 002e 9954     		strb	r1, [r3, r2]
1337:Drivers/STM32F0xx_HAL_Driver/Src/stm32f0xx_hal_i2c.c **** 
1338:Drivers/STM32F0xx_HAL_Driver/Src/stm32f0xx_hal_i2c.c ****     hi2c->State       = HAL_I2C_STATE_BUSY_RX;
 2546              		.loc 1 1338 23 is_stmt 1 discriminator 2
 2547 0030 FB68     		ldr	r3, [r7, #12]
 2548 0032 4122     		movs	r2, #65
 2549 0034 2221     		movs	r1, #34
 2550 0036 9954     		strb	r1, [r3, r2]
1339:Drivers/STM32F0xx_HAL_Driver/Src/stm32f0xx_hal_i2c.c ****     hi2c->Mode        = HAL_I2C_MODE_SLAVE;
 2551              		.loc 1 1339 23 discriminator 2
 2552 0038 FB68     		ldr	r3, [r7, #12]
ARM GAS  C:\Users\ADMINI~1\AppData\Local\Temp\cc3zYV2m.s 			page 69


 2553 003a 4222     		movs	r2, #66
 2554 003c 2021     		movs	r1, #32
 2555 003e 9954     		strb	r1, [r3, r2]
1340:Drivers/STM32F0xx_HAL_Driver/Src/stm32f0xx_hal_i2c.c ****     hi2c->ErrorCode   = HAL_I2C_ERROR_NONE;
 2556              		.loc 1 1340 23 discriminator 2
 2557 0040 FB68     		ldr	r3, [r7, #12]
 2558 0042 0022     		movs	r2, #0
 2559 0044 5A64     		str	r2, [r3, #68]
1341:Drivers/STM32F0xx_HAL_Driver/Src/stm32f0xx_hal_i2c.c **** 
1342:Drivers/STM32F0xx_HAL_Driver/Src/stm32f0xx_hal_i2c.c ****     /* Enable Address Acknowledge */
1343:Drivers/STM32F0xx_HAL_Driver/Src/stm32f0xx_hal_i2c.c ****     hi2c->Instance->CR2 &= ~I2C_CR2_NACK;
 2560              		.loc 1 1343 9 discriminator 2
 2561 0046 FB68     		ldr	r3, [r7, #12]
 2562 0048 1B68     		ldr	r3, [r3]
 2563              		.loc 1 1343 25 discriminator 2
 2564 004a 5A68     		ldr	r2, [r3, #4]
 2565              		.loc 1 1343 9 discriminator 2
 2566 004c FB68     		ldr	r3, [r7, #12]
 2567 004e 1B68     		ldr	r3, [r3]
 2568              		.loc 1 1343 25 discriminator 2
 2569 0050 1249     		ldr	r1, .L114
 2570 0052 0A40     		ands	r2, r1
 2571 0054 5A60     		str	r2, [r3, #4]
1344:Drivers/STM32F0xx_HAL_Driver/Src/stm32f0xx_hal_i2c.c **** 
1345:Drivers/STM32F0xx_HAL_Driver/Src/stm32f0xx_hal_i2c.c ****     /* Prepare transfer parameters */
1346:Drivers/STM32F0xx_HAL_Driver/Src/stm32f0xx_hal_i2c.c ****     hi2c->pBuffPtr    = pData;
 2572              		.loc 1 1346 23 discriminator 2
 2573 0056 FB68     		ldr	r3, [r7, #12]
 2574 0058 BA68     		ldr	r2, [r7, #8]
 2575 005a 5A62     		str	r2, [r3, #36]
1347:Drivers/STM32F0xx_HAL_Driver/Src/stm32f0xx_hal_i2c.c ****     hi2c->XferCount   = Size;
 2576              		.loc 1 1347 23 discriminator 2
 2577 005c FB68     		ldr	r3, [r7, #12]
 2578 005e BA1D     		adds	r2, r7, #6
 2579 0060 1288     		ldrh	r2, [r2]
 2580 0062 5A85     		strh	r2, [r3, #42]
1348:Drivers/STM32F0xx_HAL_Driver/Src/stm32f0xx_hal_i2c.c ****     hi2c->XferSize    = hi2c->XferCount;
 2581              		.loc 1 1348 29 discriminator 2
 2582 0064 FB68     		ldr	r3, [r7, #12]
 2583 0066 5B8D     		ldrh	r3, [r3, #42]
 2584 0068 9AB2     		uxth	r2, r3
 2585              		.loc 1 1348 23 discriminator 2
 2586 006a FB68     		ldr	r3, [r7, #12]
 2587 006c 1A85     		strh	r2, [r3, #40]
1349:Drivers/STM32F0xx_HAL_Driver/Src/stm32f0xx_hal_i2c.c ****     hi2c->XferOptions = I2C_NO_OPTION_FRAME;
 2588              		.loc 1 1349 23 discriminator 2
 2589 006e FB68     		ldr	r3, [r7, #12]
 2590 0070 0B4A     		ldr	r2, .L114+4
 2591 0072 DA62     		str	r2, [r3, #44]
1350:Drivers/STM32F0xx_HAL_Driver/Src/stm32f0xx_hal_i2c.c ****     hi2c->XferISR     = I2C_Slave_ISR_IT;
 2592              		.loc 1 1350 23 discriminator 2
 2593 0074 FB68     		ldr	r3, [r7, #12]
 2594 0076 0B4A     		ldr	r2, .L114+8
 2595 0078 5A63     		str	r2, [r3, #52]
1351:Drivers/STM32F0xx_HAL_Driver/Src/stm32f0xx_hal_i2c.c **** 
1352:Drivers/STM32F0xx_HAL_Driver/Src/stm32f0xx_hal_i2c.c ****     /* Process Unlocked */
1353:Drivers/STM32F0xx_HAL_Driver/Src/stm32f0xx_hal_i2c.c ****     __HAL_UNLOCK(hi2c);
ARM GAS  C:\Users\ADMINI~1\AppData\Local\Temp\cc3zYV2m.s 			page 70


 2596              		.loc 1 1353 5 discriminator 2
 2597 007a FB68     		ldr	r3, [r7, #12]
 2598 007c 4022     		movs	r2, #64
 2599 007e 0021     		movs	r1, #0
 2600 0080 9954     		strb	r1, [r3, r2]
1354:Drivers/STM32F0xx_HAL_Driver/Src/stm32f0xx_hal_i2c.c **** 
1355:Drivers/STM32F0xx_HAL_Driver/Src/stm32f0xx_hal_i2c.c ****     /* Note : The I2C interrupts must be enabled after unlocking current process
1356:Drivers/STM32F0xx_HAL_Driver/Src/stm32f0xx_hal_i2c.c ****               to avoid the risk of I2C interrupt handle execution before current
1357:Drivers/STM32F0xx_HAL_Driver/Src/stm32f0xx_hal_i2c.c ****               process unlock */
1358:Drivers/STM32F0xx_HAL_Driver/Src/stm32f0xx_hal_i2c.c **** 
1359:Drivers/STM32F0xx_HAL_Driver/Src/stm32f0xx_hal_i2c.c ****     /* Enable ERR, TC, STOP, NACK, RXI interrupt */
1360:Drivers/STM32F0xx_HAL_Driver/Src/stm32f0xx_hal_i2c.c ****     /* possible to enable all of these */
1361:Drivers/STM32F0xx_HAL_Driver/Src/stm32f0xx_hal_i2c.c ****     /* I2C_IT_ERRI | I2C_IT_TCI| I2C_IT_STOPI| I2C_IT_NACKI | I2C_IT_ADDRI | I2C_IT_RXI | I2C_IT_TX
1362:Drivers/STM32F0xx_HAL_Driver/Src/stm32f0xx_hal_i2c.c ****     I2C_Enable_IRQ(hi2c, I2C_XFER_RX_IT | I2C_XFER_LISTEN_IT);
 2601              		.loc 1 1362 5 discriminator 2
 2602 0082 FB68     		ldr	r3, [r7, #12]
 2603 0084 0621     		movs	r1, #6
 2604 0086 1800     		movs	r0, r3
 2605 0088 FFF7FEFF 		bl	I2C_Enable_IRQ
1363:Drivers/STM32F0xx_HAL_Driver/Src/stm32f0xx_hal_i2c.c **** 
1364:Drivers/STM32F0xx_HAL_Driver/Src/stm32f0xx_hal_i2c.c ****     return HAL_OK;
 2606              		.loc 1 1364 12 discriminator 2
 2607 008c 0023     		movs	r3, #0
 2608 008e 00E0     		b	.L113
 2609              	.L111:
1365:Drivers/STM32F0xx_HAL_Driver/Src/stm32f0xx_hal_i2c.c ****   }
1366:Drivers/STM32F0xx_HAL_Driver/Src/stm32f0xx_hal_i2c.c ****   else
1367:Drivers/STM32F0xx_HAL_Driver/Src/stm32f0xx_hal_i2c.c ****   {
1368:Drivers/STM32F0xx_HAL_Driver/Src/stm32f0xx_hal_i2c.c ****     return HAL_BUSY;
 2610              		.loc 1 1368 12
 2611 0090 0223     		movs	r3, #2
 2612              	.L113:
1369:Drivers/STM32F0xx_HAL_Driver/Src/stm32f0xx_hal_i2c.c ****   }
1370:Drivers/STM32F0xx_HAL_Driver/Src/stm32f0xx_hal_i2c.c **** }
 2613              		.loc 1 1370 1
 2614 0092 1800     		movs	r0, r3
 2615 0094 BD46     		mov	sp, r7
 2616 0096 04B0     		add	sp, sp, #16
 2617              		@ sp needed
 2618 0098 80BD     		pop	{r7, pc}
 2619              	.L115:
 2620 009a C046     		.align	2
 2621              	.L114:
 2622 009c FF7FFFFF 		.word	-32769
 2623 00a0 0000FFFF 		.word	-65536
 2624 00a4 00000000 		.word	I2C_Slave_ISR_IT
 2625              		.cfi_endproc
 2626              	.LFE48:
 2628              		.section	.text.HAL_I2C_Master_Transmit_DMA,"ax",%progbits
 2629              		.align	1
 2630              		.global	HAL_I2C_Master_Transmit_DMA
 2631              		.syntax unified
 2632              		.code	16
 2633              		.thumb_func
 2634              		.fpu softvfp
 2636              	HAL_I2C_Master_Transmit_DMA:
 2637              	.LFB49:
ARM GAS  C:\Users\ADMINI~1\AppData\Local\Temp\cc3zYV2m.s 			page 71


1371:Drivers/STM32F0xx_HAL_Driver/Src/stm32f0xx_hal_i2c.c **** 
1372:Drivers/STM32F0xx_HAL_Driver/Src/stm32f0xx_hal_i2c.c **** /**
1373:Drivers/STM32F0xx_HAL_Driver/Src/stm32f0xx_hal_i2c.c ****   * @brief  Transmit in master mode an amount of data in non-blocking mode with DMA
1374:Drivers/STM32F0xx_HAL_Driver/Src/stm32f0xx_hal_i2c.c ****   * @param  hi2c Pointer to a I2C_HandleTypeDef structure that contains
1375:Drivers/STM32F0xx_HAL_Driver/Src/stm32f0xx_hal_i2c.c ****   *                the configuration information for the specified I2C.
1376:Drivers/STM32F0xx_HAL_Driver/Src/stm32f0xx_hal_i2c.c ****   * @param  DevAddress Target device address: The device 7 bits address value
1377:Drivers/STM32F0xx_HAL_Driver/Src/stm32f0xx_hal_i2c.c ****   *         in datasheet must be shift at right before call interface
1378:Drivers/STM32F0xx_HAL_Driver/Src/stm32f0xx_hal_i2c.c ****   * @param  pData Pointer to data buffer
1379:Drivers/STM32F0xx_HAL_Driver/Src/stm32f0xx_hal_i2c.c ****   * @param  Size Amount of data to be sent
1380:Drivers/STM32F0xx_HAL_Driver/Src/stm32f0xx_hal_i2c.c ****   * @retval HAL status
1381:Drivers/STM32F0xx_HAL_Driver/Src/stm32f0xx_hal_i2c.c ****   */
1382:Drivers/STM32F0xx_HAL_Driver/Src/stm32f0xx_hal_i2c.c **** HAL_StatusTypeDef HAL_I2C_Master_Transmit_DMA(I2C_HandleTypeDef *hi2c, uint16_t DevAddress, uint8_t
1383:Drivers/STM32F0xx_HAL_Driver/Src/stm32f0xx_hal_i2c.c **** {
 2638              		.loc 1 1383 1
 2639              		.cfi_startproc
 2640              		@ args = 0, pretend = 0, frame = 24
 2641              		@ frame_needed = 1, uses_anonymous_args = 0
 2642 0000 90B5     		push	{r4, r7, lr}
 2643              	.LCFI36:
 2644              		.cfi_def_cfa_offset 12
 2645              		.cfi_offset 4, -12
 2646              		.cfi_offset 7, -8
 2647              		.cfi_offset 14, -4
 2648 0002 89B0     		sub	sp, sp, #36
 2649              	.LCFI37:
 2650              		.cfi_def_cfa_offset 48
 2651 0004 02AF     		add	r7, sp, #8
 2652              	.LCFI38:
 2653              		.cfi_def_cfa 7, 40
 2654 0006 F860     		str	r0, [r7, #12]
 2655 0008 0800     		movs	r0, r1
 2656 000a 7A60     		str	r2, [r7, #4]
 2657 000c 1900     		movs	r1, r3
 2658 000e 0A23     		movs	r3, #10
 2659 0010 FB18     		adds	r3, r7, r3
 2660 0012 021C     		adds	r2, r0, #0
 2661 0014 1A80     		strh	r2, [r3]
 2662 0016 0823     		movs	r3, #8
 2663 0018 FB18     		adds	r3, r7, r3
 2664 001a 0A1C     		adds	r2, r1, #0
 2665 001c 1A80     		strh	r2, [r3]
1384:Drivers/STM32F0xx_HAL_Driver/Src/stm32f0xx_hal_i2c.c ****   uint32_t xfermode = 0U;
 2666              		.loc 1 1384 12
 2667 001e 0023     		movs	r3, #0
 2668 0020 7B61     		str	r3, [r7, #20]
1385:Drivers/STM32F0xx_HAL_Driver/Src/stm32f0xx_hal_i2c.c **** 
1386:Drivers/STM32F0xx_HAL_Driver/Src/stm32f0xx_hal_i2c.c ****   if (hi2c->State == HAL_I2C_STATE_READY)
 2669              		.loc 1 1386 11
 2670 0022 FB68     		ldr	r3, [r7, #12]
 2671 0024 4122     		movs	r2, #65
 2672 0026 9B5C     		ldrb	r3, [r3, r2]
 2673 0028 DBB2     		uxtb	r3, r3
 2674              		.loc 1 1386 6
 2675 002a 202B     		cmp	r3, #32
 2676 002c 00D0     		beq	.LCB2225
 2677 002e A9E0     		b	.L117	@long jump
 2678              	.LCB2225:
ARM GAS  C:\Users\ADMINI~1\AppData\Local\Temp\cc3zYV2m.s 			page 72


1387:Drivers/STM32F0xx_HAL_Driver/Src/stm32f0xx_hal_i2c.c ****   {
1388:Drivers/STM32F0xx_HAL_Driver/Src/stm32f0xx_hal_i2c.c ****     if (__HAL_I2C_GET_FLAG(hi2c, I2C_FLAG_BUSY) == SET)
 2679              		.loc 1 1388 9
 2680 0030 FB68     		ldr	r3, [r7, #12]
 2681 0032 1B68     		ldr	r3, [r3]
 2682 0034 9A69     		ldr	r2, [r3, #24]
 2683 0036 8023     		movs	r3, #128
 2684 0038 1B02     		lsls	r3, r3, #8
 2685 003a 1A40     		ands	r2, r3
 2686              		.loc 1 1388 8
 2687 003c 8023     		movs	r3, #128
 2688 003e 1B02     		lsls	r3, r3, #8
 2689 0040 9A42     		cmp	r2, r3
 2690 0042 01D1     		bne	.L118
1389:Drivers/STM32F0xx_HAL_Driver/Src/stm32f0xx_hal_i2c.c ****     {
1390:Drivers/STM32F0xx_HAL_Driver/Src/stm32f0xx_hal_i2c.c ****       return HAL_BUSY;
 2691              		.loc 1 1390 14
 2692 0044 0223     		movs	r3, #2
 2693 0046 9EE0     		b	.L119
 2694              	.L118:
1391:Drivers/STM32F0xx_HAL_Driver/Src/stm32f0xx_hal_i2c.c ****     }
1392:Drivers/STM32F0xx_HAL_Driver/Src/stm32f0xx_hal_i2c.c **** 
1393:Drivers/STM32F0xx_HAL_Driver/Src/stm32f0xx_hal_i2c.c ****     /* Process Locked */
1394:Drivers/STM32F0xx_HAL_Driver/Src/stm32f0xx_hal_i2c.c ****     __HAL_LOCK(hi2c);
 2695              		.loc 1 1394 5
 2696 0048 FB68     		ldr	r3, [r7, #12]
 2697 004a 4022     		movs	r2, #64
 2698 004c 9B5C     		ldrb	r3, [r3, r2]
 2699 004e 012B     		cmp	r3, #1
 2700 0050 01D1     		bne	.L120
 2701              		.loc 1 1394 5 is_stmt 0 discriminator 1
 2702 0052 0223     		movs	r3, #2
 2703 0054 97E0     		b	.L119
 2704              	.L120:
 2705              		.loc 1 1394 5 discriminator 2
 2706 0056 FB68     		ldr	r3, [r7, #12]
 2707 0058 4022     		movs	r2, #64
 2708 005a 0121     		movs	r1, #1
 2709 005c 9954     		strb	r1, [r3, r2]
1395:Drivers/STM32F0xx_HAL_Driver/Src/stm32f0xx_hal_i2c.c **** 
1396:Drivers/STM32F0xx_HAL_Driver/Src/stm32f0xx_hal_i2c.c ****     hi2c->State       = HAL_I2C_STATE_BUSY_TX;
 2710              		.loc 1 1396 23 is_stmt 1 discriminator 2
 2711 005e FB68     		ldr	r3, [r7, #12]
 2712 0060 4122     		movs	r2, #65
 2713 0062 2121     		movs	r1, #33
 2714 0064 9954     		strb	r1, [r3, r2]
1397:Drivers/STM32F0xx_HAL_Driver/Src/stm32f0xx_hal_i2c.c ****     hi2c->Mode        = HAL_I2C_MODE_MASTER;
 2715              		.loc 1 1397 23 discriminator 2
 2716 0066 FB68     		ldr	r3, [r7, #12]
 2717 0068 4222     		movs	r2, #66
 2718 006a 1021     		movs	r1, #16
 2719 006c 9954     		strb	r1, [r3, r2]
1398:Drivers/STM32F0xx_HAL_Driver/Src/stm32f0xx_hal_i2c.c ****     hi2c->ErrorCode   = HAL_I2C_ERROR_NONE;
 2720              		.loc 1 1398 23 discriminator 2
 2721 006e FB68     		ldr	r3, [r7, #12]
 2722 0070 0022     		movs	r2, #0
 2723 0072 5A64     		str	r2, [r3, #68]
ARM GAS  C:\Users\ADMINI~1\AppData\Local\Temp\cc3zYV2m.s 			page 73


1399:Drivers/STM32F0xx_HAL_Driver/Src/stm32f0xx_hal_i2c.c **** 
1400:Drivers/STM32F0xx_HAL_Driver/Src/stm32f0xx_hal_i2c.c ****     /* Prepare transfer parameters */
1401:Drivers/STM32F0xx_HAL_Driver/Src/stm32f0xx_hal_i2c.c ****     hi2c->pBuffPtr    = pData;
 2724              		.loc 1 1401 23 discriminator 2
 2725 0074 FB68     		ldr	r3, [r7, #12]
 2726 0076 7A68     		ldr	r2, [r7, #4]
 2727 0078 5A62     		str	r2, [r3, #36]
1402:Drivers/STM32F0xx_HAL_Driver/Src/stm32f0xx_hal_i2c.c ****     hi2c->XferCount   = Size;
 2728              		.loc 1 1402 23 discriminator 2
 2729 007a FB68     		ldr	r3, [r7, #12]
 2730 007c 0822     		movs	r2, #8
 2731 007e BA18     		adds	r2, r7, r2
 2732 0080 1288     		ldrh	r2, [r2]
 2733 0082 5A85     		strh	r2, [r3, #42]
1403:Drivers/STM32F0xx_HAL_Driver/Src/stm32f0xx_hal_i2c.c ****     hi2c->XferOptions = I2C_NO_OPTION_FRAME;
 2734              		.loc 1 1403 23 discriminator 2
 2735 0084 FB68     		ldr	r3, [r7, #12]
 2736 0086 424A     		ldr	r2, .L125
 2737 0088 DA62     		str	r2, [r3, #44]
1404:Drivers/STM32F0xx_HAL_Driver/Src/stm32f0xx_hal_i2c.c ****     hi2c->XferISR     = I2C_Master_ISR_DMA;
 2738              		.loc 1 1404 23 discriminator 2
 2739 008a FB68     		ldr	r3, [r7, #12]
 2740 008c 414A     		ldr	r2, .L125+4
 2741 008e 5A63     		str	r2, [r3, #52]
1405:Drivers/STM32F0xx_HAL_Driver/Src/stm32f0xx_hal_i2c.c **** 
1406:Drivers/STM32F0xx_HAL_Driver/Src/stm32f0xx_hal_i2c.c ****     if (hi2c->XferCount > MAX_NBYTE_SIZE)
 2742              		.loc 1 1406 13 discriminator 2
 2743 0090 FB68     		ldr	r3, [r7, #12]
 2744 0092 5B8D     		ldrh	r3, [r3, #42]
 2745 0094 9BB2     		uxth	r3, r3
 2746              		.loc 1 1406 8 discriminator 2
 2747 0096 FF2B     		cmp	r3, #255
 2748 0098 06D9     		bls	.L121
1407:Drivers/STM32F0xx_HAL_Driver/Src/stm32f0xx_hal_i2c.c ****     {
1408:Drivers/STM32F0xx_HAL_Driver/Src/stm32f0xx_hal_i2c.c ****       hi2c->XferSize = MAX_NBYTE_SIZE;
 2749              		.loc 1 1408 22
 2750 009a FB68     		ldr	r3, [r7, #12]
 2751 009c FF22     		movs	r2, #255
 2752 009e 1A85     		strh	r2, [r3, #40]
1409:Drivers/STM32F0xx_HAL_Driver/Src/stm32f0xx_hal_i2c.c ****       xfermode = I2C_RELOAD_MODE;
 2753              		.loc 1 1409 16
 2754 00a0 8023     		movs	r3, #128
 2755 00a2 5B04     		lsls	r3, r3, #17
 2756 00a4 7B61     		str	r3, [r7, #20]
 2757 00a6 07E0     		b	.L122
 2758              	.L121:
1410:Drivers/STM32F0xx_HAL_Driver/Src/stm32f0xx_hal_i2c.c ****     }
1411:Drivers/STM32F0xx_HAL_Driver/Src/stm32f0xx_hal_i2c.c ****     else
1412:Drivers/STM32F0xx_HAL_Driver/Src/stm32f0xx_hal_i2c.c ****     {
1413:Drivers/STM32F0xx_HAL_Driver/Src/stm32f0xx_hal_i2c.c ****       hi2c->XferSize = hi2c->XferCount;
 2759              		.loc 1 1413 28
 2760 00a8 FB68     		ldr	r3, [r7, #12]
 2761 00aa 5B8D     		ldrh	r3, [r3, #42]
 2762 00ac 9AB2     		uxth	r2, r3
 2763              		.loc 1 1413 22
 2764 00ae FB68     		ldr	r3, [r7, #12]
 2765 00b0 1A85     		strh	r2, [r3, #40]
ARM GAS  C:\Users\ADMINI~1\AppData\Local\Temp\cc3zYV2m.s 			page 74


1414:Drivers/STM32F0xx_HAL_Driver/Src/stm32f0xx_hal_i2c.c ****       xfermode = I2C_AUTOEND_MODE;
 2766              		.loc 1 1414 16
 2767 00b2 8023     		movs	r3, #128
 2768 00b4 9B04     		lsls	r3, r3, #18
 2769 00b6 7B61     		str	r3, [r7, #20]
 2770              	.L122:
1415:Drivers/STM32F0xx_HAL_Driver/Src/stm32f0xx_hal_i2c.c ****     }
1416:Drivers/STM32F0xx_HAL_Driver/Src/stm32f0xx_hal_i2c.c **** 
1417:Drivers/STM32F0xx_HAL_Driver/Src/stm32f0xx_hal_i2c.c ****     if (hi2c->XferSize > 0U)
 2771              		.loc 1 1417 13
 2772 00b8 FB68     		ldr	r3, [r7, #12]
 2773 00ba 1B8D     		ldrh	r3, [r3, #40]
 2774              		.loc 1 1417 8
 2775 00bc 002B     		cmp	r3, #0
 2776 00be 44D0     		beq	.L123
1418:Drivers/STM32F0xx_HAL_Driver/Src/stm32f0xx_hal_i2c.c ****     {
1419:Drivers/STM32F0xx_HAL_Driver/Src/stm32f0xx_hal_i2c.c ****       /* Set the I2C DMA transfer complete callback */
1420:Drivers/STM32F0xx_HAL_Driver/Src/stm32f0xx_hal_i2c.c ****       hi2c->hdmatx->XferCpltCallback = I2C_DMAMasterTransmitCplt;
 2777              		.loc 1 1420 11
 2778 00c0 FB68     		ldr	r3, [r7, #12]
 2779 00c2 9B6B     		ldr	r3, [r3, #56]
 2780              		.loc 1 1420 38
 2781 00c4 344A     		ldr	r2, .L125+8
 2782 00c6 9A62     		str	r2, [r3, #40]
1421:Drivers/STM32F0xx_HAL_Driver/Src/stm32f0xx_hal_i2c.c **** 
1422:Drivers/STM32F0xx_HAL_Driver/Src/stm32f0xx_hal_i2c.c ****       /* Set the DMA error callback */
1423:Drivers/STM32F0xx_HAL_Driver/Src/stm32f0xx_hal_i2c.c ****       hi2c->hdmatx->XferErrorCallback = I2C_DMAError;
 2783              		.loc 1 1423 11
 2784 00c8 FB68     		ldr	r3, [r7, #12]
 2785 00ca 9B6B     		ldr	r3, [r3, #56]
 2786              		.loc 1 1423 39
 2787 00cc 334A     		ldr	r2, .L125+12
 2788 00ce 1A63     		str	r2, [r3, #48]
1424:Drivers/STM32F0xx_HAL_Driver/Src/stm32f0xx_hal_i2c.c **** 
1425:Drivers/STM32F0xx_HAL_Driver/Src/stm32f0xx_hal_i2c.c ****       /* Set the unused DMA callbacks to NULL */
1426:Drivers/STM32F0xx_HAL_Driver/Src/stm32f0xx_hal_i2c.c ****       hi2c->hdmatx->XferHalfCpltCallback = NULL;
 2789              		.loc 1 1426 11
 2790 00d0 FB68     		ldr	r3, [r7, #12]
 2791 00d2 9B6B     		ldr	r3, [r3, #56]
 2792              		.loc 1 1426 42
 2793 00d4 0022     		movs	r2, #0
 2794 00d6 DA62     		str	r2, [r3, #44]
1427:Drivers/STM32F0xx_HAL_Driver/Src/stm32f0xx_hal_i2c.c ****       hi2c->hdmatx->XferAbortCallback = NULL;
 2795              		.loc 1 1427 11
 2796 00d8 FB68     		ldr	r3, [r7, #12]
 2797 00da 9B6B     		ldr	r3, [r3, #56]
 2798              		.loc 1 1427 39
 2799 00dc 0022     		movs	r2, #0
 2800 00de 5A63     		str	r2, [r3, #52]
1428:Drivers/STM32F0xx_HAL_Driver/Src/stm32f0xx_hal_i2c.c **** 
1429:Drivers/STM32F0xx_HAL_Driver/Src/stm32f0xx_hal_i2c.c ****       /* Enable the DMA channel */
1430:Drivers/STM32F0xx_HAL_Driver/Src/stm32f0xx_hal_i2c.c ****       HAL_DMA_Start_IT(hi2c->hdmatx, (uint32_t)pData, (uint32_t)&hi2c->Instance->TXDR, hi2c->XferSi
 2801              		.loc 1 1430 7
 2802 00e0 FB68     		ldr	r3, [r7, #12]
 2803 00e2 986B     		ldr	r0, [r3, #56]
 2804 00e4 7968     		ldr	r1, [r7, #4]
 2805              		.loc 1 1430 70
ARM GAS  C:\Users\ADMINI~1\AppData\Local\Temp\cc3zYV2m.s 			page 75


 2806 00e6 FB68     		ldr	r3, [r7, #12]
 2807 00e8 1B68     		ldr	r3, [r3]
 2808              		.loc 1 1430 65
 2809 00ea 2833     		adds	r3, r3, #40
 2810              		.loc 1 1430 7
 2811 00ec 1A00     		movs	r2, r3
 2812              		.loc 1 1430 92
 2813 00ee FB68     		ldr	r3, [r7, #12]
 2814 00f0 1B8D     		ldrh	r3, [r3, #40]
 2815              		.loc 1 1430 7
 2816 00f2 FFF7FEFF 		bl	HAL_DMA_Start_IT
1431:Drivers/STM32F0xx_HAL_Driver/Src/stm32f0xx_hal_i2c.c **** 
1432:Drivers/STM32F0xx_HAL_Driver/Src/stm32f0xx_hal_i2c.c ****       /* Send Slave Address */
1433:Drivers/STM32F0xx_HAL_Driver/Src/stm32f0xx_hal_i2c.c ****       /* Set NBYTES to write and reload if hi2c->XferCount > MAX_NBYTE_SIZE and generate RESTART */
1434:Drivers/STM32F0xx_HAL_Driver/Src/stm32f0xx_hal_i2c.c ****       I2C_TransferConfig(hi2c, DevAddress, hi2c->XferSize, xfermode, I2C_GENERATE_START_WRITE);
 2817              		.loc 1 1434 48
 2818 00f6 FB68     		ldr	r3, [r7, #12]
 2819 00f8 1B8D     		ldrh	r3, [r3, #40]
 2820              		.loc 1 1434 7
 2821 00fa DAB2     		uxtb	r2, r3
 2822 00fc 7C69     		ldr	r4, [r7, #20]
 2823 00fe 0A23     		movs	r3, #10
 2824 0100 FB18     		adds	r3, r7, r3
 2825 0102 1988     		ldrh	r1, [r3]
 2826 0104 F868     		ldr	r0, [r7, #12]
 2827 0106 8023     		movs	r3, #128
 2828 0108 9B01     		lsls	r3, r3, #6
 2829 010a 0093     		str	r3, [sp]
 2830 010c 2300     		movs	r3, r4
 2831 010e FFF7FEFF 		bl	I2C_TransferConfig
1435:Drivers/STM32F0xx_HAL_Driver/Src/stm32f0xx_hal_i2c.c **** 
1436:Drivers/STM32F0xx_HAL_Driver/Src/stm32f0xx_hal_i2c.c ****       /* Update XferCount value */
1437:Drivers/STM32F0xx_HAL_Driver/Src/stm32f0xx_hal_i2c.c ****       hi2c->XferCount -= hi2c->XferSize;
 2832              		.loc 1 1437 23
 2833 0112 FB68     		ldr	r3, [r7, #12]
 2834 0114 5B8D     		ldrh	r3, [r3, #42]
 2835 0116 9AB2     		uxth	r2, r3
 2836              		.loc 1 1437 30
 2837 0118 FB68     		ldr	r3, [r7, #12]
 2838 011a 1B8D     		ldrh	r3, [r3, #40]
 2839              		.loc 1 1437 23
 2840 011c D31A     		subs	r3, r2, r3
 2841 011e 9AB2     		uxth	r2, r3
 2842 0120 FB68     		ldr	r3, [r7, #12]
 2843 0122 5A85     		strh	r2, [r3, #42]
1438:Drivers/STM32F0xx_HAL_Driver/Src/stm32f0xx_hal_i2c.c **** 
1439:Drivers/STM32F0xx_HAL_Driver/Src/stm32f0xx_hal_i2c.c ****       /* Process Unlocked */
1440:Drivers/STM32F0xx_HAL_Driver/Src/stm32f0xx_hal_i2c.c ****       __HAL_UNLOCK(hi2c);
 2844              		.loc 1 1440 7
 2845 0124 FB68     		ldr	r3, [r7, #12]
 2846 0126 4022     		movs	r2, #64
 2847 0128 0021     		movs	r1, #0
 2848 012a 9954     		strb	r1, [r3, r2]
1441:Drivers/STM32F0xx_HAL_Driver/Src/stm32f0xx_hal_i2c.c **** 
1442:Drivers/STM32F0xx_HAL_Driver/Src/stm32f0xx_hal_i2c.c ****       /* Note : The I2C interrupts must be enabled after unlocking current process
1443:Drivers/STM32F0xx_HAL_Driver/Src/stm32f0xx_hal_i2c.c ****                 to avoid the risk of I2C interrupt handle execution before current
1444:Drivers/STM32F0xx_HAL_Driver/Src/stm32f0xx_hal_i2c.c ****                 process unlock */
ARM GAS  C:\Users\ADMINI~1\AppData\Local\Temp\cc3zYV2m.s 			page 76


1445:Drivers/STM32F0xx_HAL_Driver/Src/stm32f0xx_hal_i2c.c ****       /* Enable ERR and NACK interrupts */
1446:Drivers/STM32F0xx_HAL_Driver/Src/stm32f0xx_hal_i2c.c ****       I2C_Enable_IRQ(hi2c, I2C_XFER_ERROR_IT);
 2849              		.loc 1 1446 7
 2850 012c FB68     		ldr	r3, [r7, #12]
 2851 012e 1121     		movs	r1, #17
 2852 0130 1800     		movs	r0, r3
 2853 0132 FFF7FEFF 		bl	I2C_Enable_IRQ
1447:Drivers/STM32F0xx_HAL_Driver/Src/stm32f0xx_hal_i2c.c **** 
1448:Drivers/STM32F0xx_HAL_Driver/Src/stm32f0xx_hal_i2c.c ****       /* Enable DMA Request */
1449:Drivers/STM32F0xx_HAL_Driver/Src/stm32f0xx_hal_i2c.c ****       hi2c->Instance->CR1 |= I2C_CR1_TXDMAEN;
 2854              		.loc 1 1449 11
 2855 0136 FB68     		ldr	r3, [r7, #12]
 2856 0138 1B68     		ldr	r3, [r3]
 2857              		.loc 1 1449 27
 2858 013a 1A68     		ldr	r2, [r3]
 2859              		.loc 1 1449 11
 2860 013c FB68     		ldr	r3, [r7, #12]
 2861 013e 1B68     		ldr	r3, [r3]
 2862              		.loc 1 1449 27
 2863 0140 8021     		movs	r1, #128
 2864 0142 C901     		lsls	r1, r1, #7
 2865 0144 0A43     		orrs	r2, r1
 2866 0146 1A60     		str	r2, [r3]
 2867 0148 1AE0     		b	.L124
 2868              	.L123:
1450:Drivers/STM32F0xx_HAL_Driver/Src/stm32f0xx_hal_i2c.c ****     }
1451:Drivers/STM32F0xx_HAL_Driver/Src/stm32f0xx_hal_i2c.c ****     else
1452:Drivers/STM32F0xx_HAL_Driver/Src/stm32f0xx_hal_i2c.c ****     {
1453:Drivers/STM32F0xx_HAL_Driver/Src/stm32f0xx_hal_i2c.c ****       /* Update Transfer ISR function pointer */
1454:Drivers/STM32F0xx_HAL_Driver/Src/stm32f0xx_hal_i2c.c ****       hi2c->XferISR = I2C_Master_ISR_IT;
 2869              		.loc 1 1454 21
 2870 014a FB68     		ldr	r3, [r7, #12]
 2871 014c 144A     		ldr	r2, .L125+16
 2872 014e 5A63     		str	r2, [r3, #52]
1455:Drivers/STM32F0xx_HAL_Driver/Src/stm32f0xx_hal_i2c.c **** 
1456:Drivers/STM32F0xx_HAL_Driver/Src/stm32f0xx_hal_i2c.c ****       /* Send Slave Address */
1457:Drivers/STM32F0xx_HAL_Driver/Src/stm32f0xx_hal_i2c.c ****       /* Set NBYTES to write and generate START condition */
1458:Drivers/STM32F0xx_HAL_Driver/Src/stm32f0xx_hal_i2c.c ****       I2C_TransferConfig(hi2c, DevAddress, hi2c->XferSize, I2C_AUTOEND_MODE, I2C_GENERATE_START_WRI
 2873              		.loc 1 1458 48
 2874 0150 FB68     		ldr	r3, [r7, #12]
 2875 0152 1B8D     		ldrh	r3, [r3, #40]
 2876              		.loc 1 1458 7
 2877 0154 DAB2     		uxtb	r2, r3
 2878 0156 8023     		movs	r3, #128
 2879 0158 9C04     		lsls	r4, r3, #18
 2880 015a 0A23     		movs	r3, #10
 2881 015c FB18     		adds	r3, r7, r3
 2882 015e 1988     		ldrh	r1, [r3]
 2883 0160 F868     		ldr	r0, [r7, #12]
 2884 0162 8023     		movs	r3, #128
 2885 0164 9B01     		lsls	r3, r3, #6
 2886 0166 0093     		str	r3, [sp]
 2887 0168 2300     		movs	r3, r4
 2888 016a FFF7FEFF 		bl	I2C_TransferConfig
1459:Drivers/STM32F0xx_HAL_Driver/Src/stm32f0xx_hal_i2c.c **** 
1460:Drivers/STM32F0xx_HAL_Driver/Src/stm32f0xx_hal_i2c.c ****       /* Process Unlocked */
1461:Drivers/STM32F0xx_HAL_Driver/Src/stm32f0xx_hal_i2c.c ****       __HAL_UNLOCK(hi2c);
ARM GAS  C:\Users\ADMINI~1\AppData\Local\Temp\cc3zYV2m.s 			page 77


 2889              		.loc 1 1461 7
 2890 016e FB68     		ldr	r3, [r7, #12]
 2891 0170 4022     		movs	r2, #64
 2892 0172 0021     		movs	r1, #0
 2893 0174 9954     		strb	r1, [r3, r2]
1462:Drivers/STM32F0xx_HAL_Driver/Src/stm32f0xx_hal_i2c.c **** 
1463:Drivers/STM32F0xx_HAL_Driver/Src/stm32f0xx_hal_i2c.c ****       /* Note : The I2C interrupts must be enabled after unlocking current process
1464:Drivers/STM32F0xx_HAL_Driver/Src/stm32f0xx_hal_i2c.c ****                 to avoid the risk of I2C interrupt handle execution before current
1465:Drivers/STM32F0xx_HAL_Driver/Src/stm32f0xx_hal_i2c.c ****                 process unlock */
1466:Drivers/STM32F0xx_HAL_Driver/Src/stm32f0xx_hal_i2c.c ****       /* Enable ERR, TC, STOP, NACK, TXI interrupt */
1467:Drivers/STM32F0xx_HAL_Driver/Src/stm32f0xx_hal_i2c.c ****       /* possible to enable all of these */
1468:Drivers/STM32F0xx_HAL_Driver/Src/stm32f0xx_hal_i2c.c ****       /* I2C_IT_ERRI | I2C_IT_TCI| I2C_IT_STOPI| I2C_IT_NACKI | I2C_IT_ADDRI | I2C_IT_RXI | I2C_IT_
1469:Drivers/STM32F0xx_HAL_Driver/Src/stm32f0xx_hal_i2c.c ****       I2C_Enable_IRQ(hi2c, I2C_XFER_TX_IT);
 2894              		.loc 1 1469 7
 2895 0176 FB68     		ldr	r3, [r7, #12]
 2896 0178 0121     		movs	r1, #1
 2897 017a 1800     		movs	r0, r3
 2898 017c FFF7FEFF 		bl	I2C_Enable_IRQ
 2899              	.L124:
1470:Drivers/STM32F0xx_HAL_Driver/Src/stm32f0xx_hal_i2c.c ****     }
1471:Drivers/STM32F0xx_HAL_Driver/Src/stm32f0xx_hal_i2c.c **** 
1472:Drivers/STM32F0xx_HAL_Driver/Src/stm32f0xx_hal_i2c.c ****     return HAL_OK;
 2900              		.loc 1 1472 12
 2901 0180 0023     		movs	r3, #0
 2902 0182 00E0     		b	.L119
 2903              	.L117:
1473:Drivers/STM32F0xx_HAL_Driver/Src/stm32f0xx_hal_i2c.c ****   }
1474:Drivers/STM32F0xx_HAL_Driver/Src/stm32f0xx_hal_i2c.c ****   else
1475:Drivers/STM32F0xx_HAL_Driver/Src/stm32f0xx_hal_i2c.c ****   {
1476:Drivers/STM32F0xx_HAL_Driver/Src/stm32f0xx_hal_i2c.c ****     return HAL_BUSY;
 2904              		.loc 1 1476 12
 2905 0184 0223     		movs	r3, #2
 2906              	.L119:
1477:Drivers/STM32F0xx_HAL_Driver/Src/stm32f0xx_hal_i2c.c ****   }
1478:Drivers/STM32F0xx_HAL_Driver/Src/stm32f0xx_hal_i2c.c **** }
 2907              		.loc 1 1478 1
 2908 0186 1800     		movs	r0, r3
 2909 0188 BD46     		mov	sp, r7
 2910 018a 07B0     		add	sp, sp, #28
 2911              		@ sp needed
 2912 018c 90BD     		pop	{r4, r7, pc}
 2913              	.L126:
 2914 018e C046     		.align	2
 2915              	.L125:
 2916 0190 0000FFFF 		.word	-65536
 2917 0194 00000000 		.word	I2C_Master_ISR_DMA
 2918 0198 00000000 		.word	I2C_DMAMasterTransmitCplt
 2919 019c 00000000 		.word	I2C_DMAError
 2920 01a0 00000000 		.word	I2C_Master_ISR_IT
 2921              		.cfi_endproc
 2922              	.LFE49:
 2924              		.section	.text.HAL_I2C_Master_Receive_DMA,"ax",%progbits
 2925              		.align	1
 2926              		.global	HAL_I2C_Master_Receive_DMA
 2927              		.syntax unified
 2928              		.code	16
 2929              		.thumb_func
ARM GAS  C:\Users\ADMINI~1\AppData\Local\Temp\cc3zYV2m.s 			page 78


 2930              		.fpu softvfp
 2932              	HAL_I2C_Master_Receive_DMA:
 2933              	.LFB50:
1479:Drivers/STM32F0xx_HAL_Driver/Src/stm32f0xx_hal_i2c.c **** 
1480:Drivers/STM32F0xx_HAL_Driver/Src/stm32f0xx_hal_i2c.c **** /**
1481:Drivers/STM32F0xx_HAL_Driver/Src/stm32f0xx_hal_i2c.c ****   * @brief  Receive in master mode an amount of data in non-blocking mode with DMA
1482:Drivers/STM32F0xx_HAL_Driver/Src/stm32f0xx_hal_i2c.c ****   * @param  hi2c Pointer to a I2C_HandleTypeDef structure that contains
1483:Drivers/STM32F0xx_HAL_Driver/Src/stm32f0xx_hal_i2c.c ****   *                the configuration information for the specified I2C.
1484:Drivers/STM32F0xx_HAL_Driver/Src/stm32f0xx_hal_i2c.c ****   * @param  DevAddress Target device address: The device 7 bits address value
1485:Drivers/STM32F0xx_HAL_Driver/Src/stm32f0xx_hal_i2c.c ****   *         in datasheet must be shift at right before call interface
1486:Drivers/STM32F0xx_HAL_Driver/Src/stm32f0xx_hal_i2c.c ****   * @param  pData Pointer to data buffer
1487:Drivers/STM32F0xx_HAL_Driver/Src/stm32f0xx_hal_i2c.c ****   * @param  Size Amount of data to be sent
1488:Drivers/STM32F0xx_HAL_Driver/Src/stm32f0xx_hal_i2c.c ****   * @retval HAL status
1489:Drivers/STM32F0xx_HAL_Driver/Src/stm32f0xx_hal_i2c.c ****   */
1490:Drivers/STM32F0xx_HAL_Driver/Src/stm32f0xx_hal_i2c.c **** HAL_StatusTypeDef HAL_I2C_Master_Receive_DMA(I2C_HandleTypeDef *hi2c, uint16_t DevAddress, uint8_t 
1491:Drivers/STM32F0xx_HAL_Driver/Src/stm32f0xx_hal_i2c.c **** {
 2934              		.loc 1 1491 1
 2935              		.cfi_startproc
 2936              		@ args = 0, pretend = 0, frame = 24
 2937              		@ frame_needed = 1, uses_anonymous_args = 0
 2938 0000 90B5     		push	{r4, r7, lr}
 2939              	.LCFI39:
 2940              		.cfi_def_cfa_offset 12
 2941              		.cfi_offset 4, -12
 2942              		.cfi_offset 7, -8
 2943              		.cfi_offset 14, -4
 2944 0002 89B0     		sub	sp, sp, #36
 2945              	.LCFI40:
 2946              		.cfi_def_cfa_offset 48
 2947 0004 02AF     		add	r7, sp, #8
 2948              	.LCFI41:
 2949              		.cfi_def_cfa 7, 40
 2950 0006 F860     		str	r0, [r7, #12]
 2951 0008 0800     		movs	r0, r1
 2952 000a 7A60     		str	r2, [r7, #4]
 2953 000c 1900     		movs	r1, r3
 2954 000e 0A23     		movs	r3, #10
 2955 0010 FB18     		adds	r3, r7, r3
 2956 0012 021C     		adds	r2, r0, #0
 2957 0014 1A80     		strh	r2, [r3]
 2958 0016 0823     		movs	r3, #8
 2959 0018 FB18     		adds	r3, r7, r3
 2960 001a 0A1C     		adds	r2, r1, #0
 2961 001c 1A80     		strh	r2, [r3]
1492:Drivers/STM32F0xx_HAL_Driver/Src/stm32f0xx_hal_i2c.c ****   uint32_t xfermode = 0U;
 2962              		.loc 1 1492 12
 2963 001e 0023     		movs	r3, #0
 2964 0020 7B61     		str	r3, [r7, #20]
1493:Drivers/STM32F0xx_HAL_Driver/Src/stm32f0xx_hal_i2c.c **** 
1494:Drivers/STM32F0xx_HAL_Driver/Src/stm32f0xx_hal_i2c.c ****   if (hi2c->State == HAL_I2C_STATE_READY)
 2965              		.loc 1 1494 11
 2966 0022 FB68     		ldr	r3, [r7, #12]
 2967 0024 4122     		movs	r2, #65
 2968 0026 9B5C     		ldrb	r3, [r3, r2]
 2969 0028 DBB2     		uxtb	r3, r3
 2970              		.loc 1 1494 6
 2971 002a 202B     		cmp	r3, #32
ARM GAS  C:\Users\ADMINI~1\AppData\Local\Temp\cc3zYV2m.s 			page 79


 2972 002c 00D0     		beq	.LCB2470
 2973 002e A9E0     		b	.L128	@long jump
 2974              	.LCB2470:
1495:Drivers/STM32F0xx_HAL_Driver/Src/stm32f0xx_hal_i2c.c ****   {
1496:Drivers/STM32F0xx_HAL_Driver/Src/stm32f0xx_hal_i2c.c ****     if (__HAL_I2C_GET_FLAG(hi2c, I2C_FLAG_BUSY) == SET)
 2975              		.loc 1 1496 9
 2976 0030 FB68     		ldr	r3, [r7, #12]
 2977 0032 1B68     		ldr	r3, [r3]
 2978 0034 9A69     		ldr	r2, [r3, #24]
 2979 0036 8023     		movs	r3, #128
 2980 0038 1B02     		lsls	r3, r3, #8
 2981 003a 1A40     		ands	r2, r3
 2982              		.loc 1 1496 8
 2983 003c 8023     		movs	r3, #128
 2984 003e 1B02     		lsls	r3, r3, #8
 2985 0040 9A42     		cmp	r2, r3
 2986 0042 01D1     		bne	.L129
1497:Drivers/STM32F0xx_HAL_Driver/Src/stm32f0xx_hal_i2c.c ****     {
1498:Drivers/STM32F0xx_HAL_Driver/Src/stm32f0xx_hal_i2c.c ****       return HAL_BUSY;
 2987              		.loc 1 1498 14
 2988 0044 0223     		movs	r3, #2
 2989 0046 9EE0     		b	.L130
 2990              	.L129:
1499:Drivers/STM32F0xx_HAL_Driver/Src/stm32f0xx_hal_i2c.c ****     }
1500:Drivers/STM32F0xx_HAL_Driver/Src/stm32f0xx_hal_i2c.c **** 
1501:Drivers/STM32F0xx_HAL_Driver/Src/stm32f0xx_hal_i2c.c ****     /* Process Locked */
1502:Drivers/STM32F0xx_HAL_Driver/Src/stm32f0xx_hal_i2c.c ****     __HAL_LOCK(hi2c);
 2991              		.loc 1 1502 5
 2992 0048 FB68     		ldr	r3, [r7, #12]
 2993 004a 4022     		movs	r2, #64
 2994 004c 9B5C     		ldrb	r3, [r3, r2]
 2995 004e 012B     		cmp	r3, #1
 2996 0050 01D1     		bne	.L131
 2997              		.loc 1 1502 5 is_stmt 0 discriminator 1
 2998 0052 0223     		movs	r3, #2
 2999 0054 97E0     		b	.L130
 3000              	.L131:
 3001              		.loc 1 1502 5 discriminator 2
 3002 0056 FB68     		ldr	r3, [r7, #12]
 3003 0058 4022     		movs	r2, #64
 3004 005a 0121     		movs	r1, #1
 3005 005c 9954     		strb	r1, [r3, r2]
1503:Drivers/STM32F0xx_HAL_Driver/Src/stm32f0xx_hal_i2c.c **** 
1504:Drivers/STM32F0xx_HAL_Driver/Src/stm32f0xx_hal_i2c.c ****     hi2c->State       = HAL_I2C_STATE_BUSY_RX;
 3006              		.loc 1 1504 23 is_stmt 1 discriminator 2
 3007 005e FB68     		ldr	r3, [r7, #12]
 3008 0060 4122     		movs	r2, #65
 3009 0062 2221     		movs	r1, #34
 3010 0064 9954     		strb	r1, [r3, r2]
1505:Drivers/STM32F0xx_HAL_Driver/Src/stm32f0xx_hal_i2c.c ****     hi2c->Mode        = HAL_I2C_MODE_MASTER;
 3011              		.loc 1 1505 23 discriminator 2
 3012 0066 FB68     		ldr	r3, [r7, #12]
 3013 0068 4222     		movs	r2, #66
 3014 006a 1021     		movs	r1, #16
 3015 006c 9954     		strb	r1, [r3, r2]
1506:Drivers/STM32F0xx_HAL_Driver/Src/stm32f0xx_hal_i2c.c ****     hi2c->ErrorCode   = HAL_I2C_ERROR_NONE;
 3016              		.loc 1 1506 23 discriminator 2
ARM GAS  C:\Users\ADMINI~1\AppData\Local\Temp\cc3zYV2m.s 			page 80


 3017 006e FB68     		ldr	r3, [r7, #12]
 3018 0070 0022     		movs	r2, #0
 3019 0072 5A64     		str	r2, [r3, #68]
1507:Drivers/STM32F0xx_HAL_Driver/Src/stm32f0xx_hal_i2c.c **** 
1508:Drivers/STM32F0xx_HAL_Driver/Src/stm32f0xx_hal_i2c.c ****     /* Prepare transfer parameters */
1509:Drivers/STM32F0xx_HAL_Driver/Src/stm32f0xx_hal_i2c.c ****     hi2c->pBuffPtr    = pData;
 3020              		.loc 1 1509 23 discriminator 2
 3021 0074 FB68     		ldr	r3, [r7, #12]
 3022 0076 7A68     		ldr	r2, [r7, #4]
 3023 0078 5A62     		str	r2, [r3, #36]
1510:Drivers/STM32F0xx_HAL_Driver/Src/stm32f0xx_hal_i2c.c ****     hi2c->XferCount   = Size;
 3024              		.loc 1 1510 23 discriminator 2
 3025 007a FB68     		ldr	r3, [r7, #12]
 3026 007c 0822     		movs	r2, #8
 3027 007e BA18     		adds	r2, r7, r2
 3028 0080 1288     		ldrh	r2, [r2]
 3029 0082 5A85     		strh	r2, [r3, #42]
1511:Drivers/STM32F0xx_HAL_Driver/Src/stm32f0xx_hal_i2c.c ****     hi2c->XferOptions = I2C_NO_OPTION_FRAME;
 3030              		.loc 1 1511 23 discriminator 2
 3031 0084 FB68     		ldr	r3, [r7, #12]
 3032 0086 424A     		ldr	r2, .L136
 3033 0088 DA62     		str	r2, [r3, #44]
1512:Drivers/STM32F0xx_HAL_Driver/Src/stm32f0xx_hal_i2c.c ****     hi2c->XferISR     = I2C_Master_ISR_DMA;
 3034              		.loc 1 1512 23 discriminator 2
 3035 008a FB68     		ldr	r3, [r7, #12]
 3036 008c 414A     		ldr	r2, .L136+4
 3037 008e 5A63     		str	r2, [r3, #52]
1513:Drivers/STM32F0xx_HAL_Driver/Src/stm32f0xx_hal_i2c.c **** 
1514:Drivers/STM32F0xx_HAL_Driver/Src/stm32f0xx_hal_i2c.c ****     if (hi2c->XferCount > MAX_NBYTE_SIZE)
 3038              		.loc 1 1514 13 discriminator 2
 3039 0090 FB68     		ldr	r3, [r7, #12]
 3040 0092 5B8D     		ldrh	r3, [r3, #42]
 3041 0094 9BB2     		uxth	r3, r3
 3042              		.loc 1 1514 8 discriminator 2
 3043 0096 FF2B     		cmp	r3, #255
 3044 0098 06D9     		bls	.L132
1515:Drivers/STM32F0xx_HAL_Driver/Src/stm32f0xx_hal_i2c.c ****     {
1516:Drivers/STM32F0xx_HAL_Driver/Src/stm32f0xx_hal_i2c.c ****       hi2c->XferSize = MAX_NBYTE_SIZE;
 3045              		.loc 1 1516 22
 3046 009a FB68     		ldr	r3, [r7, #12]
 3047 009c FF22     		movs	r2, #255
 3048 009e 1A85     		strh	r2, [r3, #40]
1517:Drivers/STM32F0xx_HAL_Driver/Src/stm32f0xx_hal_i2c.c ****       xfermode = I2C_RELOAD_MODE;
 3049              		.loc 1 1517 16
 3050 00a0 8023     		movs	r3, #128
 3051 00a2 5B04     		lsls	r3, r3, #17
 3052 00a4 7B61     		str	r3, [r7, #20]
 3053 00a6 07E0     		b	.L133
 3054              	.L132:
1518:Drivers/STM32F0xx_HAL_Driver/Src/stm32f0xx_hal_i2c.c ****     }
1519:Drivers/STM32F0xx_HAL_Driver/Src/stm32f0xx_hal_i2c.c ****     else
1520:Drivers/STM32F0xx_HAL_Driver/Src/stm32f0xx_hal_i2c.c ****     {
1521:Drivers/STM32F0xx_HAL_Driver/Src/stm32f0xx_hal_i2c.c ****       hi2c->XferSize = hi2c->XferCount;
 3055              		.loc 1 1521 28
 3056 00a8 FB68     		ldr	r3, [r7, #12]
 3057 00aa 5B8D     		ldrh	r3, [r3, #42]
 3058 00ac 9AB2     		uxth	r2, r3
ARM GAS  C:\Users\ADMINI~1\AppData\Local\Temp\cc3zYV2m.s 			page 81


 3059              		.loc 1 1521 22
 3060 00ae FB68     		ldr	r3, [r7, #12]
 3061 00b0 1A85     		strh	r2, [r3, #40]
1522:Drivers/STM32F0xx_HAL_Driver/Src/stm32f0xx_hal_i2c.c ****       xfermode = I2C_AUTOEND_MODE;
 3062              		.loc 1 1522 16
 3063 00b2 8023     		movs	r3, #128
 3064 00b4 9B04     		lsls	r3, r3, #18
 3065 00b6 7B61     		str	r3, [r7, #20]
 3066              	.L133:
1523:Drivers/STM32F0xx_HAL_Driver/Src/stm32f0xx_hal_i2c.c ****     }
1524:Drivers/STM32F0xx_HAL_Driver/Src/stm32f0xx_hal_i2c.c **** 
1525:Drivers/STM32F0xx_HAL_Driver/Src/stm32f0xx_hal_i2c.c ****     if (hi2c->XferSize > 0U)
 3067              		.loc 1 1525 13
 3068 00b8 FB68     		ldr	r3, [r7, #12]
 3069 00ba 1B8D     		ldrh	r3, [r3, #40]
 3070              		.loc 1 1525 8
 3071 00bc 002B     		cmp	r3, #0
 3072 00be 44D0     		beq	.L134
1526:Drivers/STM32F0xx_HAL_Driver/Src/stm32f0xx_hal_i2c.c ****     {
1527:Drivers/STM32F0xx_HAL_Driver/Src/stm32f0xx_hal_i2c.c ****       /* Set the I2C DMA transfer complete callback */
1528:Drivers/STM32F0xx_HAL_Driver/Src/stm32f0xx_hal_i2c.c ****       hi2c->hdmarx->XferCpltCallback = I2C_DMAMasterReceiveCplt;
 3073              		.loc 1 1528 11
 3074 00c0 FB68     		ldr	r3, [r7, #12]
 3075 00c2 DB6B     		ldr	r3, [r3, #60]
 3076              		.loc 1 1528 38
 3077 00c4 344A     		ldr	r2, .L136+8
 3078 00c6 9A62     		str	r2, [r3, #40]
1529:Drivers/STM32F0xx_HAL_Driver/Src/stm32f0xx_hal_i2c.c **** 
1530:Drivers/STM32F0xx_HAL_Driver/Src/stm32f0xx_hal_i2c.c ****       /* Set the DMA error callback */
1531:Drivers/STM32F0xx_HAL_Driver/Src/stm32f0xx_hal_i2c.c ****       hi2c->hdmarx->XferErrorCallback = I2C_DMAError;
 3079              		.loc 1 1531 11
 3080 00c8 FB68     		ldr	r3, [r7, #12]
 3081 00ca DB6B     		ldr	r3, [r3, #60]
 3082              		.loc 1 1531 39
 3083 00cc 334A     		ldr	r2, .L136+12
 3084 00ce 1A63     		str	r2, [r3, #48]
1532:Drivers/STM32F0xx_HAL_Driver/Src/stm32f0xx_hal_i2c.c **** 
1533:Drivers/STM32F0xx_HAL_Driver/Src/stm32f0xx_hal_i2c.c ****       /* Set the unused DMA callbacks to NULL */
1534:Drivers/STM32F0xx_HAL_Driver/Src/stm32f0xx_hal_i2c.c ****       hi2c->hdmarx->XferHalfCpltCallback = NULL;
 3085              		.loc 1 1534 11
 3086 00d0 FB68     		ldr	r3, [r7, #12]
 3087 00d2 DB6B     		ldr	r3, [r3, #60]
 3088              		.loc 1 1534 42
 3089 00d4 0022     		movs	r2, #0
 3090 00d6 DA62     		str	r2, [r3, #44]
1535:Drivers/STM32F0xx_HAL_Driver/Src/stm32f0xx_hal_i2c.c ****       hi2c->hdmarx->XferAbortCallback = NULL;
 3091              		.loc 1 1535 11
 3092 00d8 FB68     		ldr	r3, [r7, #12]
 3093 00da DB6B     		ldr	r3, [r3, #60]
 3094              		.loc 1 1535 39
 3095 00dc 0022     		movs	r2, #0
 3096 00de 5A63     		str	r2, [r3, #52]
1536:Drivers/STM32F0xx_HAL_Driver/Src/stm32f0xx_hal_i2c.c **** 
1537:Drivers/STM32F0xx_HAL_Driver/Src/stm32f0xx_hal_i2c.c ****       /* Enable the DMA channel */
1538:Drivers/STM32F0xx_HAL_Driver/Src/stm32f0xx_hal_i2c.c ****       HAL_DMA_Start_IT(hi2c->hdmarx, (uint32_t)&hi2c->Instance->RXDR, (uint32_t)pData, hi2c->XferSi
 3097              		.loc 1 1538 7
 3098 00e0 FB68     		ldr	r3, [r7, #12]
ARM GAS  C:\Users\ADMINI~1\AppData\Local\Temp\cc3zYV2m.s 			page 82


 3099 00e2 D86B     		ldr	r0, [r3, #60]
 3100              		.loc 1 1538 53
 3101 00e4 FB68     		ldr	r3, [r7, #12]
 3102 00e6 1B68     		ldr	r3, [r3]
 3103              		.loc 1 1538 48
 3104 00e8 2433     		adds	r3, r3, #36
 3105              		.loc 1 1538 7
 3106 00ea 1900     		movs	r1, r3
 3107 00ec 7A68     		ldr	r2, [r7, #4]
 3108              		.loc 1 1538 92
 3109 00ee FB68     		ldr	r3, [r7, #12]
 3110 00f0 1B8D     		ldrh	r3, [r3, #40]
 3111              		.loc 1 1538 7
 3112 00f2 FFF7FEFF 		bl	HAL_DMA_Start_IT
1539:Drivers/STM32F0xx_HAL_Driver/Src/stm32f0xx_hal_i2c.c **** 
1540:Drivers/STM32F0xx_HAL_Driver/Src/stm32f0xx_hal_i2c.c ****       /* Send Slave Address */
1541:Drivers/STM32F0xx_HAL_Driver/Src/stm32f0xx_hal_i2c.c ****       /* Set NBYTES to read and reload if hi2c->XferCount > MAX_NBYTE_SIZE and generate RESTART */
1542:Drivers/STM32F0xx_HAL_Driver/Src/stm32f0xx_hal_i2c.c ****       I2C_TransferConfig(hi2c, DevAddress, hi2c->XferSize, xfermode, I2C_GENERATE_START_READ);
 3113              		.loc 1 1542 48
 3114 00f6 FB68     		ldr	r3, [r7, #12]
 3115 00f8 1B8D     		ldrh	r3, [r3, #40]
 3116              		.loc 1 1542 7
 3117 00fa DAB2     		uxtb	r2, r3
 3118 00fc 7C69     		ldr	r4, [r7, #20]
 3119 00fe 0A23     		movs	r3, #10
 3120 0100 FB18     		adds	r3, r7, r3
 3121 0102 1988     		ldrh	r1, [r3]
 3122 0104 F868     		ldr	r0, [r7, #12]
 3123 0106 9023     		movs	r3, #144
 3124 0108 9B01     		lsls	r3, r3, #6
 3125 010a 0093     		str	r3, [sp]
 3126 010c 2300     		movs	r3, r4
 3127 010e FFF7FEFF 		bl	I2C_TransferConfig
1543:Drivers/STM32F0xx_HAL_Driver/Src/stm32f0xx_hal_i2c.c **** 
1544:Drivers/STM32F0xx_HAL_Driver/Src/stm32f0xx_hal_i2c.c ****       /* Update XferCount value */
1545:Drivers/STM32F0xx_HAL_Driver/Src/stm32f0xx_hal_i2c.c ****       hi2c->XferCount -= hi2c->XferSize;
 3128              		.loc 1 1545 23
 3129 0112 FB68     		ldr	r3, [r7, #12]
 3130 0114 5B8D     		ldrh	r3, [r3, #42]
 3131 0116 9AB2     		uxth	r2, r3
 3132              		.loc 1 1545 30
 3133 0118 FB68     		ldr	r3, [r7, #12]
 3134 011a 1B8D     		ldrh	r3, [r3, #40]
 3135              		.loc 1 1545 23
 3136 011c D31A     		subs	r3, r2, r3
 3137 011e 9AB2     		uxth	r2, r3
 3138 0120 FB68     		ldr	r3, [r7, #12]
 3139 0122 5A85     		strh	r2, [r3, #42]
1546:Drivers/STM32F0xx_HAL_Driver/Src/stm32f0xx_hal_i2c.c **** 
1547:Drivers/STM32F0xx_HAL_Driver/Src/stm32f0xx_hal_i2c.c ****       /* Process Unlocked */
1548:Drivers/STM32F0xx_HAL_Driver/Src/stm32f0xx_hal_i2c.c ****       __HAL_UNLOCK(hi2c);
 3140              		.loc 1 1548 7
 3141 0124 FB68     		ldr	r3, [r7, #12]
 3142 0126 4022     		movs	r2, #64
 3143 0128 0021     		movs	r1, #0
 3144 012a 9954     		strb	r1, [r3, r2]
1549:Drivers/STM32F0xx_HAL_Driver/Src/stm32f0xx_hal_i2c.c **** 
ARM GAS  C:\Users\ADMINI~1\AppData\Local\Temp\cc3zYV2m.s 			page 83


1550:Drivers/STM32F0xx_HAL_Driver/Src/stm32f0xx_hal_i2c.c ****       /* Note : The I2C interrupts must be enabled after unlocking current process
1551:Drivers/STM32F0xx_HAL_Driver/Src/stm32f0xx_hal_i2c.c ****                 to avoid the risk of I2C interrupt handle execution before current
1552:Drivers/STM32F0xx_HAL_Driver/Src/stm32f0xx_hal_i2c.c ****                 process unlock */
1553:Drivers/STM32F0xx_HAL_Driver/Src/stm32f0xx_hal_i2c.c ****       /* Enable ERR and NACK interrupts */
1554:Drivers/STM32F0xx_HAL_Driver/Src/stm32f0xx_hal_i2c.c ****       I2C_Enable_IRQ(hi2c, I2C_XFER_ERROR_IT);
 3145              		.loc 1 1554 7
 3146 012c FB68     		ldr	r3, [r7, #12]
 3147 012e 1121     		movs	r1, #17
 3148 0130 1800     		movs	r0, r3
 3149 0132 FFF7FEFF 		bl	I2C_Enable_IRQ
1555:Drivers/STM32F0xx_HAL_Driver/Src/stm32f0xx_hal_i2c.c **** 
1556:Drivers/STM32F0xx_HAL_Driver/Src/stm32f0xx_hal_i2c.c ****       /* Enable DMA Request */
1557:Drivers/STM32F0xx_HAL_Driver/Src/stm32f0xx_hal_i2c.c ****       hi2c->Instance->CR1 |= I2C_CR1_RXDMAEN;
 3150              		.loc 1 1557 11
 3151 0136 FB68     		ldr	r3, [r7, #12]
 3152 0138 1B68     		ldr	r3, [r3]
 3153              		.loc 1 1557 27
 3154 013a 1A68     		ldr	r2, [r3]
 3155              		.loc 1 1557 11
 3156 013c FB68     		ldr	r3, [r7, #12]
 3157 013e 1B68     		ldr	r3, [r3]
 3158              		.loc 1 1557 27
 3159 0140 8021     		movs	r1, #128
 3160 0142 0902     		lsls	r1, r1, #8
 3161 0144 0A43     		orrs	r2, r1
 3162 0146 1A60     		str	r2, [r3]
 3163 0148 1AE0     		b	.L135
 3164              	.L134:
1558:Drivers/STM32F0xx_HAL_Driver/Src/stm32f0xx_hal_i2c.c ****     }
1559:Drivers/STM32F0xx_HAL_Driver/Src/stm32f0xx_hal_i2c.c ****     else
1560:Drivers/STM32F0xx_HAL_Driver/Src/stm32f0xx_hal_i2c.c ****     {
1561:Drivers/STM32F0xx_HAL_Driver/Src/stm32f0xx_hal_i2c.c ****       /* Update Transfer ISR function pointer */
1562:Drivers/STM32F0xx_HAL_Driver/Src/stm32f0xx_hal_i2c.c ****       hi2c->XferISR = I2C_Master_ISR_IT;
 3165              		.loc 1 1562 21
 3166 014a FB68     		ldr	r3, [r7, #12]
 3167 014c 144A     		ldr	r2, .L136+16
 3168 014e 5A63     		str	r2, [r3, #52]
1563:Drivers/STM32F0xx_HAL_Driver/Src/stm32f0xx_hal_i2c.c **** 
1564:Drivers/STM32F0xx_HAL_Driver/Src/stm32f0xx_hal_i2c.c ****       /* Send Slave Address */
1565:Drivers/STM32F0xx_HAL_Driver/Src/stm32f0xx_hal_i2c.c ****       /* Set NBYTES to read and generate START condition */
1566:Drivers/STM32F0xx_HAL_Driver/Src/stm32f0xx_hal_i2c.c ****       I2C_TransferConfig(hi2c, DevAddress, hi2c->XferSize, I2C_AUTOEND_MODE, I2C_GENERATE_START_REA
 3169              		.loc 1 1566 48
 3170 0150 FB68     		ldr	r3, [r7, #12]
 3171 0152 1B8D     		ldrh	r3, [r3, #40]
 3172              		.loc 1 1566 7
 3173 0154 DAB2     		uxtb	r2, r3
 3174 0156 8023     		movs	r3, #128
 3175 0158 9C04     		lsls	r4, r3, #18
 3176 015a 0A23     		movs	r3, #10
 3177 015c FB18     		adds	r3, r7, r3
 3178 015e 1988     		ldrh	r1, [r3]
 3179 0160 F868     		ldr	r0, [r7, #12]
 3180 0162 9023     		movs	r3, #144
 3181 0164 9B01     		lsls	r3, r3, #6
 3182 0166 0093     		str	r3, [sp]
 3183 0168 2300     		movs	r3, r4
 3184 016a FFF7FEFF 		bl	I2C_TransferConfig
ARM GAS  C:\Users\ADMINI~1\AppData\Local\Temp\cc3zYV2m.s 			page 84


1567:Drivers/STM32F0xx_HAL_Driver/Src/stm32f0xx_hal_i2c.c **** 
1568:Drivers/STM32F0xx_HAL_Driver/Src/stm32f0xx_hal_i2c.c ****       /* Process Unlocked */
1569:Drivers/STM32F0xx_HAL_Driver/Src/stm32f0xx_hal_i2c.c ****       __HAL_UNLOCK(hi2c);
 3185              		.loc 1 1569 7
 3186 016e FB68     		ldr	r3, [r7, #12]
 3187 0170 4022     		movs	r2, #64
 3188 0172 0021     		movs	r1, #0
 3189 0174 9954     		strb	r1, [r3, r2]
1570:Drivers/STM32F0xx_HAL_Driver/Src/stm32f0xx_hal_i2c.c **** 
1571:Drivers/STM32F0xx_HAL_Driver/Src/stm32f0xx_hal_i2c.c ****       /* Note : The I2C interrupts must be enabled after unlocking current process
1572:Drivers/STM32F0xx_HAL_Driver/Src/stm32f0xx_hal_i2c.c ****                 to avoid the risk of I2C interrupt handle execution before current
1573:Drivers/STM32F0xx_HAL_Driver/Src/stm32f0xx_hal_i2c.c ****                 process unlock */
1574:Drivers/STM32F0xx_HAL_Driver/Src/stm32f0xx_hal_i2c.c ****       /* Enable ERR, TC, STOP, NACK, TXI interrupt */
1575:Drivers/STM32F0xx_HAL_Driver/Src/stm32f0xx_hal_i2c.c ****       /* possible to enable all of these */
1576:Drivers/STM32F0xx_HAL_Driver/Src/stm32f0xx_hal_i2c.c ****       /* I2C_IT_ERRI | I2C_IT_TCI| I2C_IT_STOPI| I2C_IT_NACKI | I2C_IT_ADDRI | I2C_IT_RXI | I2C_IT_
1577:Drivers/STM32F0xx_HAL_Driver/Src/stm32f0xx_hal_i2c.c ****       I2C_Enable_IRQ(hi2c, I2C_XFER_TX_IT);
 3190              		.loc 1 1577 7
 3191 0176 FB68     		ldr	r3, [r7, #12]
 3192 0178 0121     		movs	r1, #1
 3193 017a 1800     		movs	r0, r3
 3194 017c FFF7FEFF 		bl	I2C_Enable_IRQ
 3195              	.L135:
1578:Drivers/STM32F0xx_HAL_Driver/Src/stm32f0xx_hal_i2c.c ****     }
1579:Drivers/STM32F0xx_HAL_Driver/Src/stm32f0xx_hal_i2c.c ****     return HAL_OK;
 3196              		.loc 1 1579 12
 3197 0180 0023     		movs	r3, #0
 3198 0182 00E0     		b	.L130
 3199              	.L128:
1580:Drivers/STM32F0xx_HAL_Driver/Src/stm32f0xx_hal_i2c.c ****   }
1581:Drivers/STM32F0xx_HAL_Driver/Src/stm32f0xx_hal_i2c.c ****   else
1582:Drivers/STM32F0xx_HAL_Driver/Src/stm32f0xx_hal_i2c.c ****   {
1583:Drivers/STM32F0xx_HAL_Driver/Src/stm32f0xx_hal_i2c.c ****     return HAL_BUSY;
 3200              		.loc 1 1583 12
 3201 0184 0223     		movs	r3, #2
 3202              	.L130:
1584:Drivers/STM32F0xx_HAL_Driver/Src/stm32f0xx_hal_i2c.c ****   }
1585:Drivers/STM32F0xx_HAL_Driver/Src/stm32f0xx_hal_i2c.c **** }
 3203              		.loc 1 1585 1
 3204 0186 1800     		movs	r0, r3
 3205 0188 BD46     		mov	sp, r7
 3206 018a 07B0     		add	sp, sp, #28
 3207              		@ sp needed
 3208 018c 90BD     		pop	{r4, r7, pc}
 3209              	.L137:
 3210 018e C046     		.align	2
 3211              	.L136:
 3212 0190 0000FFFF 		.word	-65536
 3213 0194 00000000 		.word	I2C_Master_ISR_DMA
 3214 0198 00000000 		.word	I2C_DMAMasterReceiveCplt
 3215 019c 00000000 		.word	I2C_DMAError
 3216 01a0 00000000 		.word	I2C_Master_ISR_IT
 3217              		.cfi_endproc
 3218              	.LFE50:
 3220              		.section	.text.HAL_I2C_Slave_Transmit_DMA,"ax",%progbits
 3221              		.align	1
 3222              		.global	HAL_I2C_Slave_Transmit_DMA
 3223              		.syntax unified
ARM GAS  C:\Users\ADMINI~1\AppData\Local\Temp\cc3zYV2m.s 			page 85


 3224              		.code	16
 3225              		.thumb_func
 3226              		.fpu softvfp
 3228              	HAL_I2C_Slave_Transmit_DMA:
 3229              	.LFB51:
1586:Drivers/STM32F0xx_HAL_Driver/Src/stm32f0xx_hal_i2c.c **** 
1587:Drivers/STM32F0xx_HAL_Driver/Src/stm32f0xx_hal_i2c.c **** /**
1588:Drivers/STM32F0xx_HAL_Driver/Src/stm32f0xx_hal_i2c.c ****   * @brief  Transmit in slave mode an amount of data in non-blocking mode with DMA
1589:Drivers/STM32F0xx_HAL_Driver/Src/stm32f0xx_hal_i2c.c ****   * @param  hi2c Pointer to a I2C_HandleTypeDef structure that contains
1590:Drivers/STM32F0xx_HAL_Driver/Src/stm32f0xx_hal_i2c.c ****   *                the configuration information for the specified I2C.
1591:Drivers/STM32F0xx_HAL_Driver/Src/stm32f0xx_hal_i2c.c ****   * @param  pData Pointer to data buffer
1592:Drivers/STM32F0xx_HAL_Driver/Src/stm32f0xx_hal_i2c.c ****   * @param  Size Amount of data to be sent
1593:Drivers/STM32F0xx_HAL_Driver/Src/stm32f0xx_hal_i2c.c ****   * @retval HAL status
1594:Drivers/STM32F0xx_HAL_Driver/Src/stm32f0xx_hal_i2c.c ****   */
1595:Drivers/STM32F0xx_HAL_Driver/Src/stm32f0xx_hal_i2c.c **** HAL_StatusTypeDef HAL_I2C_Slave_Transmit_DMA(I2C_HandleTypeDef *hi2c, uint8_t *pData, uint16_t Size
1596:Drivers/STM32F0xx_HAL_Driver/Src/stm32f0xx_hal_i2c.c **** {
 3230              		.loc 1 1596 1
 3231              		.cfi_startproc
 3232              		@ args = 0, pretend = 0, frame = 16
 3233              		@ frame_needed = 1, uses_anonymous_args = 0
 3234 0000 80B5     		push	{r7, lr}
 3235              	.LCFI42:
 3236              		.cfi_def_cfa_offset 8
 3237              		.cfi_offset 7, -8
 3238              		.cfi_offset 14, -4
 3239 0002 84B0     		sub	sp, sp, #16
 3240              	.LCFI43:
 3241              		.cfi_def_cfa_offset 24
 3242 0004 00AF     		add	r7, sp, #0
 3243              	.LCFI44:
 3244              		.cfi_def_cfa_register 7
 3245 0006 F860     		str	r0, [r7, #12]
 3246 0008 B960     		str	r1, [r7, #8]
 3247 000a BB1D     		adds	r3, r7, #6
 3248 000c 1A80     		strh	r2, [r3]
1597:Drivers/STM32F0xx_HAL_Driver/Src/stm32f0xx_hal_i2c.c ****   if (hi2c->State == HAL_I2C_STATE_READY)
 3249              		.loc 1 1597 11
 3250 000e FB68     		ldr	r3, [r7, #12]
 3251 0010 4122     		movs	r2, #65
 3252 0012 9B5C     		ldrb	r3, [r3, r2]
 3253 0014 DBB2     		uxtb	r3, r3
 3254              		.loc 1 1597 6
 3255 0016 202B     		cmp	r3, #32
 3256 0018 67D1     		bne	.L139
1598:Drivers/STM32F0xx_HAL_Driver/Src/stm32f0xx_hal_i2c.c ****   {
1599:Drivers/STM32F0xx_HAL_Driver/Src/stm32f0xx_hal_i2c.c ****     if ((pData == NULL) || (Size == 0U))
 3257              		.loc 1 1599 8
 3258 001a BB68     		ldr	r3, [r7, #8]
 3259 001c 002B     		cmp	r3, #0
 3260 001e 03D0     		beq	.L140
 3261              		.loc 1 1599 25 discriminator 1
 3262 0020 BB1D     		adds	r3, r7, #6
 3263 0022 1B88     		ldrh	r3, [r3]
 3264 0024 002B     		cmp	r3, #0
 3265 0026 01D1     		bne	.L141
 3266              	.L140:
1600:Drivers/STM32F0xx_HAL_Driver/Src/stm32f0xx_hal_i2c.c ****     {
ARM GAS  C:\Users\ADMINI~1\AppData\Local\Temp\cc3zYV2m.s 			page 86


1601:Drivers/STM32F0xx_HAL_Driver/Src/stm32f0xx_hal_i2c.c ****       return  HAL_ERROR;
 3267              		.loc 1 1601 15
 3268 0028 0123     		movs	r3, #1
 3269 002a 5FE0     		b	.L142
 3270              	.L141:
1602:Drivers/STM32F0xx_HAL_Driver/Src/stm32f0xx_hal_i2c.c ****     }
1603:Drivers/STM32F0xx_HAL_Driver/Src/stm32f0xx_hal_i2c.c ****     /* Process Locked */
1604:Drivers/STM32F0xx_HAL_Driver/Src/stm32f0xx_hal_i2c.c ****     __HAL_LOCK(hi2c);
 3271              		.loc 1 1604 5
 3272 002c FB68     		ldr	r3, [r7, #12]
 3273 002e 4022     		movs	r2, #64
 3274 0030 9B5C     		ldrb	r3, [r3, r2]
 3275 0032 012B     		cmp	r3, #1
 3276 0034 01D1     		bne	.L143
 3277              		.loc 1 1604 5 is_stmt 0 discriminator 1
 3278 0036 0223     		movs	r3, #2
 3279 0038 58E0     		b	.L142
 3280              	.L143:
 3281              		.loc 1 1604 5 discriminator 2
 3282 003a FB68     		ldr	r3, [r7, #12]
 3283 003c 4022     		movs	r2, #64
 3284 003e 0121     		movs	r1, #1
 3285 0040 9954     		strb	r1, [r3, r2]
1605:Drivers/STM32F0xx_HAL_Driver/Src/stm32f0xx_hal_i2c.c **** 
1606:Drivers/STM32F0xx_HAL_Driver/Src/stm32f0xx_hal_i2c.c ****     hi2c->State       = HAL_I2C_STATE_BUSY_TX;
 3286              		.loc 1 1606 23 is_stmt 1 discriminator 2
 3287 0042 FB68     		ldr	r3, [r7, #12]
 3288 0044 4122     		movs	r2, #65
 3289 0046 2121     		movs	r1, #33
 3290 0048 9954     		strb	r1, [r3, r2]
1607:Drivers/STM32F0xx_HAL_Driver/Src/stm32f0xx_hal_i2c.c ****     hi2c->Mode        = HAL_I2C_MODE_SLAVE;
 3291              		.loc 1 1607 23 discriminator 2
 3292 004a FB68     		ldr	r3, [r7, #12]
 3293 004c 4222     		movs	r2, #66
 3294 004e 2021     		movs	r1, #32
 3295 0050 9954     		strb	r1, [r3, r2]
1608:Drivers/STM32F0xx_HAL_Driver/Src/stm32f0xx_hal_i2c.c ****     hi2c->ErrorCode   = HAL_I2C_ERROR_NONE;
 3296              		.loc 1 1608 23 discriminator 2
 3297 0052 FB68     		ldr	r3, [r7, #12]
 3298 0054 0022     		movs	r2, #0
 3299 0056 5A64     		str	r2, [r3, #68]
1609:Drivers/STM32F0xx_HAL_Driver/Src/stm32f0xx_hal_i2c.c **** 
1610:Drivers/STM32F0xx_HAL_Driver/Src/stm32f0xx_hal_i2c.c ****     /* Prepare transfer parameters */
1611:Drivers/STM32F0xx_HAL_Driver/Src/stm32f0xx_hal_i2c.c ****     hi2c->pBuffPtr    = pData;
 3300              		.loc 1 1611 23 discriminator 2
 3301 0058 FB68     		ldr	r3, [r7, #12]
 3302 005a BA68     		ldr	r2, [r7, #8]
 3303 005c 5A62     		str	r2, [r3, #36]
1612:Drivers/STM32F0xx_HAL_Driver/Src/stm32f0xx_hal_i2c.c ****     hi2c->XferCount   = Size;
 3304              		.loc 1 1612 23 discriminator 2
 3305 005e FB68     		ldr	r3, [r7, #12]
 3306 0060 BA1D     		adds	r2, r7, #6
 3307 0062 1288     		ldrh	r2, [r2]
 3308 0064 5A85     		strh	r2, [r3, #42]
1613:Drivers/STM32F0xx_HAL_Driver/Src/stm32f0xx_hal_i2c.c ****     hi2c->XferSize    = hi2c->XferCount;
 3309              		.loc 1 1613 29 discriminator 2
 3310 0066 FB68     		ldr	r3, [r7, #12]
ARM GAS  C:\Users\ADMINI~1\AppData\Local\Temp\cc3zYV2m.s 			page 87


 3311 0068 5B8D     		ldrh	r3, [r3, #42]
 3312 006a 9AB2     		uxth	r2, r3
 3313              		.loc 1 1613 23 discriminator 2
 3314 006c FB68     		ldr	r3, [r7, #12]
 3315 006e 1A85     		strh	r2, [r3, #40]
1614:Drivers/STM32F0xx_HAL_Driver/Src/stm32f0xx_hal_i2c.c ****     hi2c->XferOptions = I2C_NO_OPTION_FRAME;
 3316              		.loc 1 1614 23 discriminator 2
 3317 0070 FB68     		ldr	r3, [r7, #12]
 3318 0072 204A     		ldr	r2, .L144
 3319 0074 DA62     		str	r2, [r3, #44]
1615:Drivers/STM32F0xx_HAL_Driver/Src/stm32f0xx_hal_i2c.c ****     hi2c->XferISR     = I2C_Slave_ISR_DMA;
 3320              		.loc 1 1615 23 discriminator 2
 3321 0076 FB68     		ldr	r3, [r7, #12]
 3322 0078 1F4A     		ldr	r2, .L144+4
 3323 007a 5A63     		str	r2, [r3, #52]
1616:Drivers/STM32F0xx_HAL_Driver/Src/stm32f0xx_hal_i2c.c **** 
1617:Drivers/STM32F0xx_HAL_Driver/Src/stm32f0xx_hal_i2c.c ****     /* Set the I2C DMA transfer complete callback */
1618:Drivers/STM32F0xx_HAL_Driver/Src/stm32f0xx_hal_i2c.c ****     hi2c->hdmatx->XferCpltCallback = I2C_DMASlaveTransmitCplt;
 3324              		.loc 1 1618 9 discriminator 2
 3325 007c FB68     		ldr	r3, [r7, #12]
 3326 007e 9B6B     		ldr	r3, [r3, #56]
 3327              		.loc 1 1618 36 discriminator 2
 3328 0080 1E4A     		ldr	r2, .L144+8
 3329 0082 9A62     		str	r2, [r3, #40]
1619:Drivers/STM32F0xx_HAL_Driver/Src/stm32f0xx_hal_i2c.c **** 
1620:Drivers/STM32F0xx_HAL_Driver/Src/stm32f0xx_hal_i2c.c ****     /* Set the DMA error callback */
1621:Drivers/STM32F0xx_HAL_Driver/Src/stm32f0xx_hal_i2c.c ****     hi2c->hdmatx->XferErrorCallback = I2C_DMAError;
 3330              		.loc 1 1621 9 discriminator 2
 3331 0084 FB68     		ldr	r3, [r7, #12]
 3332 0086 9B6B     		ldr	r3, [r3, #56]
 3333              		.loc 1 1621 37 discriminator 2
 3334 0088 1D4A     		ldr	r2, .L144+12
 3335 008a 1A63     		str	r2, [r3, #48]
1622:Drivers/STM32F0xx_HAL_Driver/Src/stm32f0xx_hal_i2c.c **** 
1623:Drivers/STM32F0xx_HAL_Driver/Src/stm32f0xx_hal_i2c.c ****     /* Set the unused DMA callbacks to NULL */
1624:Drivers/STM32F0xx_HAL_Driver/Src/stm32f0xx_hal_i2c.c ****     hi2c->hdmatx->XferHalfCpltCallback = NULL;
 3336              		.loc 1 1624 9 discriminator 2
 3337 008c FB68     		ldr	r3, [r7, #12]
 3338 008e 9B6B     		ldr	r3, [r3, #56]
 3339              		.loc 1 1624 40 discriminator 2
 3340 0090 0022     		movs	r2, #0
 3341 0092 DA62     		str	r2, [r3, #44]
1625:Drivers/STM32F0xx_HAL_Driver/Src/stm32f0xx_hal_i2c.c ****     hi2c->hdmatx->XferAbortCallback = NULL;
 3342              		.loc 1 1625 9 discriminator 2
 3343 0094 FB68     		ldr	r3, [r7, #12]
 3344 0096 9B6B     		ldr	r3, [r3, #56]
 3345              		.loc 1 1625 37 discriminator 2
 3346 0098 0022     		movs	r2, #0
 3347 009a 5A63     		str	r2, [r3, #52]
1626:Drivers/STM32F0xx_HAL_Driver/Src/stm32f0xx_hal_i2c.c **** 
1627:Drivers/STM32F0xx_HAL_Driver/Src/stm32f0xx_hal_i2c.c ****     /* Enable the DMA channel */
1628:Drivers/STM32F0xx_HAL_Driver/Src/stm32f0xx_hal_i2c.c ****     HAL_DMA_Start_IT(hi2c->hdmatx, (uint32_t)pData, (uint32_t)&hi2c->Instance->TXDR, hi2c->XferSize
 3348              		.loc 1 1628 5 discriminator 2
 3349 009c FB68     		ldr	r3, [r7, #12]
 3350 009e 986B     		ldr	r0, [r3, #56]
 3351 00a0 B968     		ldr	r1, [r7, #8]
 3352              		.loc 1 1628 68 discriminator 2
ARM GAS  C:\Users\ADMINI~1\AppData\Local\Temp\cc3zYV2m.s 			page 88


 3353 00a2 FB68     		ldr	r3, [r7, #12]
 3354 00a4 1B68     		ldr	r3, [r3]
 3355              		.loc 1 1628 63 discriminator 2
 3356 00a6 2833     		adds	r3, r3, #40
 3357              		.loc 1 1628 5 discriminator 2
 3358 00a8 1A00     		movs	r2, r3
 3359              		.loc 1 1628 90 discriminator 2
 3360 00aa FB68     		ldr	r3, [r7, #12]
 3361 00ac 1B8D     		ldrh	r3, [r3, #40]
 3362              		.loc 1 1628 5 discriminator 2
 3363 00ae FFF7FEFF 		bl	HAL_DMA_Start_IT
1629:Drivers/STM32F0xx_HAL_Driver/Src/stm32f0xx_hal_i2c.c **** 
1630:Drivers/STM32F0xx_HAL_Driver/Src/stm32f0xx_hal_i2c.c ****     /* Enable Address Acknowledge */
1631:Drivers/STM32F0xx_HAL_Driver/Src/stm32f0xx_hal_i2c.c ****     hi2c->Instance->CR2 &= ~I2C_CR2_NACK;
 3364              		.loc 1 1631 9 discriminator 2
 3365 00b2 FB68     		ldr	r3, [r7, #12]
 3366 00b4 1B68     		ldr	r3, [r3]
 3367              		.loc 1 1631 25 discriminator 2
 3368 00b6 5A68     		ldr	r2, [r3, #4]
 3369              		.loc 1 1631 9 discriminator 2
 3370 00b8 FB68     		ldr	r3, [r7, #12]
 3371 00ba 1B68     		ldr	r3, [r3]
 3372              		.loc 1 1631 25 discriminator 2
 3373 00bc 1149     		ldr	r1, .L144+16
 3374 00be 0A40     		ands	r2, r1
 3375 00c0 5A60     		str	r2, [r3, #4]
1632:Drivers/STM32F0xx_HAL_Driver/Src/stm32f0xx_hal_i2c.c **** 
1633:Drivers/STM32F0xx_HAL_Driver/Src/stm32f0xx_hal_i2c.c ****     /* Process Unlocked */
1634:Drivers/STM32F0xx_HAL_Driver/Src/stm32f0xx_hal_i2c.c ****     __HAL_UNLOCK(hi2c);
 3376              		.loc 1 1634 5 discriminator 2
 3377 00c2 FB68     		ldr	r3, [r7, #12]
 3378 00c4 4022     		movs	r2, #64
 3379 00c6 0021     		movs	r1, #0
 3380 00c8 9954     		strb	r1, [r3, r2]
1635:Drivers/STM32F0xx_HAL_Driver/Src/stm32f0xx_hal_i2c.c **** 
1636:Drivers/STM32F0xx_HAL_Driver/Src/stm32f0xx_hal_i2c.c ****     /* Note : The I2C interrupts must be enabled after unlocking current process
1637:Drivers/STM32F0xx_HAL_Driver/Src/stm32f0xx_hal_i2c.c ****               to avoid the risk of I2C interrupt handle execution before current
1638:Drivers/STM32F0xx_HAL_Driver/Src/stm32f0xx_hal_i2c.c ****               process unlock */
1639:Drivers/STM32F0xx_HAL_Driver/Src/stm32f0xx_hal_i2c.c ****     /* Enable ERR, STOP, NACK, ADDR interrupts */
1640:Drivers/STM32F0xx_HAL_Driver/Src/stm32f0xx_hal_i2c.c ****     I2C_Enable_IRQ(hi2c, I2C_XFER_LISTEN_IT);
 3381              		.loc 1 1640 5 discriminator 2
 3382 00ca FB68     		ldr	r3, [r7, #12]
 3383 00cc 0421     		movs	r1, #4
 3384 00ce 1800     		movs	r0, r3
 3385 00d0 FFF7FEFF 		bl	I2C_Enable_IRQ
1641:Drivers/STM32F0xx_HAL_Driver/Src/stm32f0xx_hal_i2c.c **** 
1642:Drivers/STM32F0xx_HAL_Driver/Src/stm32f0xx_hal_i2c.c ****     /* Enable DMA Request */
1643:Drivers/STM32F0xx_HAL_Driver/Src/stm32f0xx_hal_i2c.c ****     hi2c->Instance->CR1 |= I2C_CR1_TXDMAEN;
 3386              		.loc 1 1643 9 discriminator 2
 3387 00d4 FB68     		ldr	r3, [r7, #12]
 3388 00d6 1B68     		ldr	r3, [r3]
 3389              		.loc 1 1643 25 discriminator 2
 3390 00d8 1A68     		ldr	r2, [r3]
 3391              		.loc 1 1643 9 discriminator 2
 3392 00da FB68     		ldr	r3, [r7, #12]
 3393 00dc 1B68     		ldr	r3, [r3]
 3394              		.loc 1 1643 25 discriminator 2
ARM GAS  C:\Users\ADMINI~1\AppData\Local\Temp\cc3zYV2m.s 			page 89


 3395 00de 8021     		movs	r1, #128
 3396 00e0 C901     		lsls	r1, r1, #7
 3397 00e2 0A43     		orrs	r2, r1
 3398 00e4 1A60     		str	r2, [r3]
1644:Drivers/STM32F0xx_HAL_Driver/Src/stm32f0xx_hal_i2c.c **** 
1645:Drivers/STM32F0xx_HAL_Driver/Src/stm32f0xx_hal_i2c.c ****     return HAL_OK;
 3399              		.loc 1 1645 12 discriminator 2
 3400 00e6 0023     		movs	r3, #0
 3401 00e8 00E0     		b	.L142
 3402              	.L139:
1646:Drivers/STM32F0xx_HAL_Driver/Src/stm32f0xx_hal_i2c.c ****   }
1647:Drivers/STM32F0xx_HAL_Driver/Src/stm32f0xx_hal_i2c.c ****   else
1648:Drivers/STM32F0xx_HAL_Driver/Src/stm32f0xx_hal_i2c.c ****   {
1649:Drivers/STM32F0xx_HAL_Driver/Src/stm32f0xx_hal_i2c.c ****     return HAL_BUSY;
 3403              		.loc 1 1649 12
 3404 00ea 0223     		movs	r3, #2
 3405              	.L142:
1650:Drivers/STM32F0xx_HAL_Driver/Src/stm32f0xx_hal_i2c.c ****   }
1651:Drivers/STM32F0xx_HAL_Driver/Src/stm32f0xx_hal_i2c.c **** }
 3406              		.loc 1 1651 1
 3407 00ec 1800     		movs	r0, r3
 3408 00ee BD46     		mov	sp, r7
 3409 00f0 04B0     		add	sp, sp, #16
 3410              		@ sp needed
 3411 00f2 80BD     		pop	{r7, pc}
 3412              	.L145:
 3413              		.align	2
 3414              	.L144:
 3415 00f4 0000FFFF 		.word	-65536
 3416 00f8 00000000 		.word	I2C_Slave_ISR_DMA
 3417 00fc 00000000 		.word	I2C_DMASlaveTransmitCplt
 3418 0100 00000000 		.word	I2C_DMAError
 3419 0104 FF7FFFFF 		.word	-32769
 3420              		.cfi_endproc
 3421              	.LFE51:
 3423              		.section	.text.HAL_I2C_Slave_Receive_DMA,"ax",%progbits
 3424              		.align	1
 3425              		.global	HAL_I2C_Slave_Receive_DMA
 3426              		.syntax unified
 3427              		.code	16
 3428              		.thumb_func
 3429              		.fpu softvfp
 3431              	HAL_I2C_Slave_Receive_DMA:
 3432              	.LFB52:
1652:Drivers/STM32F0xx_HAL_Driver/Src/stm32f0xx_hal_i2c.c **** 
1653:Drivers/STM32F0xx_HAL_Driver/Src/stm32f0xx_hal_i2c.c **** /**
1654:Drivers/STM32F0xx_HAL_Driver/Src/stm32f0xx_hal_i2c.c ****   * @brief  Receive in slave mode an amount of data in non-blocking mode with DMA
1655:Drivers/STM32F0xx_HAL_Driver/Src/stm32f0xx_hal_i2c.c ****   * @param  hi2c Pointer to a I2C_HandleTypeDef structure that contains
1656:Drivers/STM32F0xx_HAL_Driver/Src/stm32f0xx_hal_i2c.c ****   *                the configuration information for the specified I2C.
1657:Drivers/STM32F0xx_HAL_Driver/Src/stm32f0xx_hal_i2c.c ****   * @param  pData Pointer to data buffer
1658:Drivers/STM32F0xx_HAL_Driver/Src/stm32f0xx_hal_i2c.c ****   * @param  Size Amount of data to be sent
1659:Drivers/STM32F0xx_HAL_Driver/Src/stm32f0xx_hal_i2c.c ****   * @retval HAL status
1660:Drivers/STM32F0xx_HAL_Driver/Src/stm32f0xx_hal_i2c.c ****   */
1661:Drivers/STM32F0xx_HAL_Driver/Src/stm32f0xx_hal_i2c.c **** HAL_StatusTypeDef HAL_I2C_Slave_Receive_DMA(I2C_HandleTypeDef *hi2c, uint8_t *pData, uint16_t Size)
1662:Drivers/STM32F0xx_HAL_Driver/Src/stm32f0xx_hal_i2c.c **** {
 3433              		.loc 1 1662 1
 3434              		.cfi_startproc
ARM GAS  C:\Users\ADMINI~1\AppData\Local\Temp\cc3zYV2m.s 			page 90


 3435              		@ args = 0, pretend = 0, frame = 16
 3436              		@ frame_needed = 1, uses_anonymous_args = 0
 3437 0000 80B5     		push	{r7, lr}
 3438              	.LCFI45:
 3439              		.cfi_def_cfa_offset 8
 3440              		.cfi_offset 7, -8
 3441              		.cfi_offset 14, -4
 3442 0002 84B0     		sub	sp, sp, #16
 3443              	.LCFI46:
 3444              		.cfi_def_cfa_offset 24
 3445 0004 00AF     		add	r7, sp, #0
 3446              	.LCFI47:
 3447              		.cfi_def_cfa_register 7
 3448 0006 F860     		str	r0, [r7, #12]
 3449 0008 B960     		str	r1, [r7, #8]
 3450 000a BB1D     		adds	r3, r7, #6
 3451 000c 1A80     		strh	r2, [r3]
1663:Drivers/STM32F0xx_HAL_Driver/Src/stm32f0xx_hal_i2c.c ****   if (hi2c->State == HAL_I2C_STATE_READY)
 3452              		.loc 1 1663 11
 3453 000e FB68     		ldr	r3, [r7, #12]
 3454 0010 4122     		movs	r2, #65
 3455 0012 9B5C     		ldrb	r3, [r3, r2]
 3456 0014 DBB2     		uxtb	r3, r3
 3457              		.loc 1 1663 6
 3458 0016 202B     		cmp	r3, #32
 3459 0018 67D1     		bne	.L147
1664:Drivers/STM32F0xx_HAL_Driver/Src/stm32f0xx_hal_i2c.c ****   {
1665:Drivers/STM32F0xx_HAL_Driver/Src/stm32f0xx_hal_i2c.c ****     if ((pData == NULL) || (Size == 0U))
 3460              		.loc 1 1665 8
 3461 001a BB68     		ldr	r3, [r7, #8]
 3462 001c 002B     		cmp	r3, #0
 3463 001e 03D0     		beq	.L148
 3464              		.loc 1 1665 25 discriminator 1
 3465 0020 BB1D     		adds	r3, r7, #6
 3466 0022 1B88     		ldrh	r3, [r3]
 3467 0024 002B     		cmp	r3, #0
 3468 0026 01D1     		bne	.L149
 3469              	.L148:
1666:Drivers/STM32F0xx_HAL_Driver/Src/stm32f0xx_hal_i2c.c ****     {
1667:Drivers/STM32F0xx_HAL_Driver/Src/stm32f0xx_hal_i2c.c ****       return  HAL_ERROR;
 3470              		.loc 1 1667 15
 3471 0028 0123     		movs	r3, #1
 3472 002a 5FE0     		b	.L150
 3473              	.L149:
1668:Drivers/STM32F0xx_HAL_Driver/Src/stm32f0xx_hal_i2c.c ****     }
1669:Drivers/STM32F0xx_HAL_Driver/Src/stm32f0xx_hal_i2c.c ****     /* Process Locked */
1670:Drivers/STM32F0xx_HAL_Driver/Src/stm32f0xx_hal_i2c.c ****     __HAL_LOCK(hi2c);
 3474              		.loc 1 1670 5
 3475 002c FB68     		ldr	r3, [r7, #12]
 3476 002e 4022     		movs	r2, #64
 3477 0030 9B5C     		ldrb	r3, [r3, r2]
 3478 0032 012B     		cmp	r3, #1
 3479 0034 01D1     		bne	.L151
 3480              		.loc 1 1670 5 is_stmt 0 discriminator 1
 3481 0036 0223     		movs	r3, #2
 3482 0038 58E0     		b	.L150
 3483              	.L151:
ARM GAS  C:\Users\ADMINI~1\AppData\Local\Temp\cc3zYV2m.s 			page 91


 3484              		.loc 1 1670 5 discriminator 2
 3485 003a FB68     		ldr	r3, [r7, #12]
 3486 003c 4022     		movs	r2, #64
 3487 003e 0121     		movs	r1, #1
 3488 0040 9954     		strb	r1, [r3, r2]
1671:Drivers/STM32F0xx_HAL_Driver/Src/stm32f0xx_hal_i2c.c **** 
1672:Drivers/STM32F0xx_HAL_Driver/Src/stm32f0xx_hal_i2c.c ****     hi2c->State       = HAL_I2C_STATE_BUSY_RX;
 3489              		.loc 1 1672 23 is_stmt 1 discriminator 2
 3490 0042 FB68     		ldr	r3, [r7, #12]
 3491 0044 4122     		movs	r2, #65
 3492 0046 2221     		movs	r1, #34
 3493 0048 9954     		strb	r1, [r3, r2]
1673:Drivers/STM32F0xx_HAL_Driver/Src/stm32f0xx_hal_i2c.c ****     hi2c->Mode        = HAL_I2C_MODE_SLAVE;
 3494              		.loc 1 1673 23 discriminator 2
 3495 004a FB68     		ldr	r3, [r7, #12]
 3496 004c 4222     		movs	r2, #66
 3497 004e 2021     		movs	r1, #32
 3498 0050 9954     		strb	r1, [r3, r2]
1674:Drivers/STM32F0xx_HAL_Driver/Src/stm32f0xx_hal_i2c.c ****     hi2c->ErrorCode   = HAL_I2C_ERROR_NONE;
 3499              		.loc 1 1674 23 discriminator 2
 3500 0052 FB68     		ldr	r3, [r7, #12]
 3501 0054 0022     		movs	r2, #0
 3502 0056 5A64     		str	r2, [r3, #68]
1675:Drivers/STM32F0xx_HAL_Driver/Src/stm32f0xx_hal_i2c.c **** 
1676:Drivers/STM32F0xx_HAL_Driver/Src/stm32f0xx_hal_i2c.c ****     /* Prepare transfer parameters */
1677:Drivers/STM32F0xx_HAL_Driver/Src/stm32f0xx_hal_i2c.c ****     hi2c->pBuffPtr    = pData;
 3503              		.loc 1 1677 23 discriminator 2
 3504 0058 FB68     		ldr	r3, [r7, #12]
 3505 005a BA68     		ldr	r2, [r7, #8]
 3506 005c 5A62     		str	r2, [r3, #36]
1678:Drivers/STM32F0xx_HAL_Driver/Src/stm32f0xx_hal_i2c.c ****     hi2c->XferCount   = Size;
 3507              		.loc 1 1678 23 discriminator 2
 3508 005e FB68     		ldr	r3, [r7, #12]
 3509 0060 BA1D     		adds	r2, r7, #6
 3510 0062 1288     		ldrh	r2, [r2]
 3511 0064 5A85     		strh	r2, [r3, #42]
1679:Drivers/STM32F0xx_HAL_Driver/Src/stm32f0xx_hal_i2c.c ****     hi2c->XferSize    = hi2c->XferCount;
 3512              		.loc 1 1679 29 discriminator 2
 3513 0066 FB68     		ldr	r3, [r7, #12]
 3514 0068 5B8D     		ldrh	r3, [r3, #42]
 3515 006a 9AB2     		uxth	r2, r3
 3516              		.loc 1 1679 23 discriminator 2
 3517 006c FB68     		ldr	r3, [r7, #12]
 3518 006e 1A85     		strh	r2, [r3, #40]
1680:Drivers/STM32F0xx_HAL_Driver/Src/stm32f0xx_hal_i2c.c ****     hi2c->XferOptions = I2C_NO_OPTION_FRAME;
 3519              		.loc 1 1680 23 discriminator 2
 3520 0070 FB68     		ldr	r3, [r7, #12]
 3521 0072 204A     		ldr	r2, .L152
 3522 0074 DA62     		str	r2, [r3, #44]
1681:Drivers/STM32F0xx_HAL_Driver/Src/stm32f0xx_hal_i2c.c ****     hi2c->XferISR     = I2C_Slave_ISR_DMA;
 3523              		.loc 1 1681 23 discriminator 2
 3524 0076 FB68     		ldr	r3, [r7, #12]
 3525 0078 1F4A     		ldr	r2, .L152+4
 3526 007a 5A63     		str	r2, [r3, #52]
1682:Drivers/STM32F0xx_HAL_Driver/Src/stm32f0xx_hal_i2c.c **** 
1683:Drivers/STM32F0xx_HAL_Driver/Src/stm32f0xx_hal_i2c.c ****     /* Set the I2C DMA transfer complete callback */
1684:Drivers/STM32F0xx_HAL_Driver/Src/stm32f0xx_hal_i2c.c ****     hi2c->hdmarx->XferCpltCallback = I2C_DMASlaveReceiveCplt;
ARM GAS  C:\Users\ADMINI~1\AppData\Local\Temp\cc3zYV2m.s 			page 92


 3527              		.loc 1 1684 9 discriminator 2
 3528 007c FB68     		ldr	r3, [r7, #12]
 3529 007e DB6B     		ldr	r3, [r3, #60]
 3530              		.loc 1 1684 36 discriminator 2
 3531 0080 1E4A     		ldr	r2, .L152+8
 3532 0082 9A62     		str	r2, [r3, #40]
1685:Drivers/STM32F0xx_HAL_Driver/Src/stm32f0xx_hal_i2c.c **** 
1686:Drivers/STM32F0xx_HAL_Driver/Src/stm32f0xx_hal_i2c.c ****     /* Set the DMA error callback */
1687:Drivers/STM32F0xx_HAL_Driver/Src/stm32f0xx_hal_i2c.c ****     hi2c->hdmarx->XferErrorCallback = I2C_DMAError;
 3533              		.loc 1 1687 9 discriminator 2
 3534 0084 FB68     		ldr	r3, [r7, #12]
 3535 0086 DB6B     		ldr	r3, [r3, #60]
 3536              		.loc 1 1687 37 discriminator 2
 3537 0088 1D4A     		ldr	r2, .L152+12
 3538 008a 1A63     		str	r2, [r3, #48]
1688:Drivers/STM32F0xx_HAL_Driver/Src/stm32f0xx_hal_i2c.c **** 
1689:Drivers/STM32F0xx_HAL_Driver/Src/stm32f0xx_hal_i2c.c ****     /* Set the unused DMA callbacks to NULL */
1690:Drivers/STM32F0xx_HAL_Driver/Src/stm32f0xx_hal_i2c.c ****     hi2c->hdmarx->XferHalfCpltCallback = NULL;
 3539              		.loc 1 1690 9 discriminator 2
 3540 008c FB68     		ldr	r3, [r7, #12]
 3541 008e DB6B     		ldr	r3, [r3, #60]
 3542              		.loc 1 1690 40 discriminator 2
 3543 0090 0022     		movs	r2, #0
 3544 0092 DA62     		str	r2, [r3, #44]
1691:Drivers/STM32F0xx_HAL_Driver/Src/stm32f0xx_hal_i2c.c ****     hi2c->hdmarx->XferAbortCallback = NULL;
 3545              		.loc 1 1691 9 discriminator 2
 3546 0094 FB68     		ldr	r3, [r7, #12]
 3547 0096 DB6B     		ldr	r3, [r3, #60]
 3548              		.loc 1 1691 37 discriminator 2
 3549 0098 0022     		movs	r2, #0
 3550 009a 5A63     		str	r2, [r3, #52]
1692:Drivers/STM32F0xx_HAL_Driver/Src/stm32f0xx_hal_i2c.c **** 
1693:Drivers/STM32F0xx_HAL_Driver/Src/stm32f0xx_hal_i2c.c ****     /* Enable the DMA channel */
1694:Drivers/STM32F0xx_HAL_Driver/Src/stm32f0xx_hal_i2c.c ****     HAL_DMA_Start_IT(hi2c->hdmarx, (uint32_t)&hi2c->Instance->RXDR, (uint32_t)pData, hi2c->XferSize
 3551              		.loc 1 1694 5 discriminator 2
 3552 009c FB68     		ldr	r3, [r7, #12]
 3553 009e D86B     		ldr	r0, [r3, #60]
 3554              		.loc 1 1694 51 discriminator 2
 3555 00a0 FB68     		ldr	r3, [r7, #12]
 3556 00a2 1B68     		ldr	r3, [r3]
 3557              		.loc 1 1694 46 discriminator 2
 3558 00a4 2433     		adds	r3, r3, #36
 3559              		.loc 1 1694 5 discriminator 2
 3560 00a6 1900     		movs	r1, r3
 3561 00a8 BA68     		ldr	r2, [r7, #8]
 3562              		.loc 1 1694 90 discriminator 2
 3563 00aa FB68     		ldr	r3, [r7, #12]
 3564 00ac 1B8D     		ldrh	r3, [r3, #40]
 3565              		.loc 1 1694 5 discriminator 2
 3566 00ae FFF7FEFF 		bl	HAL_DMA_Start_IT
1695:Drivers/STM32F0xx_HAL_Driver/Src/stm32f0xx_hal_i2c.c **** 
1696:Drivers/STM32F0xx_HAL_Driver/Src/stm32f0xx_hal_i2c.c ****     /* Enable Address Acknowledge */
1697:Drivers/STM32F0xx_HAL_Driver/Src/stm32f0xx_hal_i2c.c ****     hi2c->Instance->CR2 &= ~I2C_CR2_NACK;
 3567              		.loc 1 1697 9 discriminator 2
 3568 00b2 FB68     		ldr	r3, [r7, #12]
 3569 00b4 1B68     		ldr	r3, [r3]
 3570              		.loc 1 1697 25 discriminator 2
ARM GAS  C:\Users\ADMINI~1\AppData\Local\Temp\cc3zYV2m.s 			page 93


 3571 00b6 5A68     		ldr	r2, [r3, #4]
 3572              		.loc 1 1697 9 discriminator 2
 3573 00b8 FB68     		ldr	r3, [r7, #12]
 3574 00ba 1B68     		ldr	r3, [r3]
 3575              		.loc 1 1697 25 discriminator 2
 3576 00bc 1149     		ldr	r1, .L152+16
 3577 00be 0A40     		ands	r2, r1
 3578 00c0 5A60     		str	r2, [r3, #4]
1698:Drivers/STM32F0xx_HAL_Driver/Src/stm32f0xx_hal_i2c.c **** 
1699:Drivers/STM32F0xx_HAL_Driver/Src/stm32f0xx_hal_i2c.c ****     /* Process Unlocked */
1700:Drivers/STM32F0xx_HAL_Driver/Src/stm32f0xx_hal_i2c.c ****     __HAL_UNLOCK(hi2c);
 3579              		.loc 1 1700 5 discriminator 2
 3580 00c2 FB68     		ldr	r3, [r7, #12]
 3581 00c4 4022     		movs	r2, #64
 3582 00c6 0021     		movs	r1, #0
 3583 00c8 9954     		strb	r1, [r3, r2]
1701:Drivers/STM32F0xx_HAL_Driver/Src/stm32f0xx_hal_i2c.c **** 
1702:Drivers/STM32F0xx_HAL_Driver/Src/stm32f0xx_hal_i2c.c ****     /* Note : The I2C interrupts must be enabled after unlocking current process
1703:Drivers/STM32F0xx_HAL_Driver/Src/stm32f0xx_hal_i2c.c ****               to avoid the risk of I2C interrupt handle execution before current
1704:Drivers/STM32F0xx_HAL_Driver/Src/stm32f0xx_hal_i2c.c ****               process unlock */
1705:Drivers/STM32F0xx_HAL_Driver/Src/stm32f0xx_hal_i2c.c ****     /* Enable ERR, STOP, NACK, ADDR interrupts */
1706:Drivers/STM32F0xx_HAL_Driver/Src/stm32f0xx_hal_i2c.c ****     I2C_Enable_IRQ(hi2c, I2C_XFER_LISTEN_IT);
 3584              		.loc 1 1706 5 discriminator 2
 3585 00ca FB68     		ldr	r3, [r7, #12]
 3586 00cc 0421     		movs	r1, #4
 3587 00ce 1800     		movs	r0, r3
 3588 00d0 FFF7FEFF 		bl	I2C_Enable_IRQ
1707:Drivers/STM32F0xx_HAL_Driver/Src/stm32f0xx_hal_i2c.c **** 
1708:Drivers/STM32F0xx_HAL_Driver/Src/stm32f0xx_hal_i2c.c ****     /* Enable DMA Request */
1709:Drivers/STM32F0xx_HAL_Driver/Src/stm32f0xx_hal_i2c.c ****     hi2c->Instance->CR1 |= I2C_CR1_RXDMAEN;
 3589              		.loc 1 1709 9 discriminator 2
 3590 00d4 FB68     		ldr	r3, [r7, #12]
 3591 00d6 1B68     		ldr	r3, [r3]
 3592              		.loc 1 1709 25 discriminator 2
 3593 00d8 1A68     		ldr	r2, [r3]
 3594              		.loc 1 1709 9 discriminator 2
 3595 00da FB68     		ldr	r3, [r7, #12]
 3596 00dc 1B68     		ldr	r3, [r3]
 3597              		.loc 1 1709 25 discriminator 2
 3598 00de 8021     		movs	r1, #128
 3599 00e0 0902     		lsls	r1, r1, #8
 3600 00e2 0A43     		orrs	r2, r1
 3601 00e4 1A60     		str	r2, [r3]
1710:Drivers/STM32F0xx_HAL_Driver/Src/stm32f0xx_hal_i2c.c **** 
1711:Drivers/STM32F0xx_HAL_Driver/Src/stm32f0xx_hal_i2c.c ****     return HAL_OK;
 3602              		.loc 1 1711 12 discriminator 2
 3603 00e6 0023     		movs	r3, #0
 3604 00e8 00E0     		b	.L150
 3605              	.L147:
1712:Drivers/STM32F0xx_HAL_Driver/Src/stm32f0xx_hal_i2c.c ****   }
1713:Drivers/STM32F0xx_HAL_Driver/Src/stm32f0xx_hal_i2c.c ****   else
1714:Drivers/STM32F0xx_HAL_Driver/Src/stm32f0xx_hal_i2c.c ****   {
1715:Drivers/STM32F0xx_HAL_Driver/Src/stm32f0xx_hal_i2c.c ****     return HAL_BUSY;
 3606              		.loc 1 1715 12
 3607 00ea 0223     		movs	r3, #2
 3608              	.L150:
1716:Drivers/STM32F0xx_HAL_Driver/Src/stm32f0xx_hal_i2c.c ****   }
ARM GAS  C:\Users\ADMINI~1\AppData\Local\Temp\cc3zYV2m.s 			page 94


1717:Drivers/STM32F0xx_HAL_Driver/Src/stm32f0xx_hal_i2c.c **** }
 3609              		.loc 1 1717 1
 3610 00ec 1800     		movs	r0, r3
 3611 00ee BD46     		mov	sp, r7
 3612 00f0 04B0     		add	sp, sp, #16
 3613              		@ sp needed
 3614 00f2 80BD     		pop	{r7, pc}
 3615              	.L153:
 3616              		.align	2
 3617              	.L152:
 3618 00f4 0000FFFF 		.word	-65536
 3619 00f8 00000000 		.word	I2C_Slave_ISR_DMA
 3620 00fc 00000000 		.word	I2C_DMASlaveReceiveCplt
 3621 0100 00000000 		.word	I2C_DMAError
 3622 0104 FF7FFFFF 		.word	-32769
 3623              		.cfi_endproc
 3624              	.LFE52:
 3626              		.section	.text.HAL_I2C_Mem_Write,"ax",%progbits
 3627              		.align	1
 3628              		.global	HAL_I2C_Mem_Write
 3629              		.syntax unified
 3630              		.code	16
 3631              		.thumb_func
 3632              		.fpu softvfp
 3634              	HAL_I2C_Mem_Write:
 3635              	.LFB53:
1718:Drivers/STM32F0xx_HAL_Driver/Src/stm32f0xx_hal_i2c.c **** /**
1719:Drivers/STM32F0xx_HAL_Driver/Src/stm32f0xx_hal_i2c.c ****   * @brief  Write an amount of data in blocking mode to a specific memory address
1720:Drivers/STM32F0xx_HAL_Driver/Src/stm32f0xx_hal_i2c.c ****   * @param  hi2c Pointer to a I2C_HandleTypeDef structure that contains
1721:Drivers/STM32F0xx_HAL_Driver/Src/stm32f0xx_hal_i2c.c ****   *                the configuration information for the specified I2C.
1722:Drivers/STM32F0xx_HAL_Driver/Src/stm32f0xx_hal_i2c.c ****   * @param  DevAddress Target device address: The device 7 bits address value
1723:Drivers/STM32F0xx_HAL_Driver/Src/stm32f0xx_hal_i2c.c ****   *         in datasheet must be shift at right before call interface
1724:Drivers/STM32F0xx_HAL_Driver/Src/stm32f0xx_hal_i2c.c ****   * @param  MemAddress Internal memory address
1725:Drivers/STM32F0xx_HAL_Driver/Src/stm32f0xx_hal_i2c.c ****   * @param  MemAddSize Size of internal memory address
1726:Drivers/STM32F0xx_HAL_Driver/Src/stm32f0xx_hal_i2c.c ****   * @param  pData Pointer to data buffer
1727:Drivers/STM32F0xx_HAL_Driver/Src/stm32f0xx_hal_i2c.c ****   * @param  Size Amount of data to be sent
1728:Drivers/STM32F0xx_HAL_Driver/Src/stm32f0xx_hal_i2c.c ****   * @param  Timeout Timeout duration
1729:Drivers/STM32F0xx_HAL_Driver/Src/stm32f0xx_hal_i2c.c ****   * @retval HAL status
1730:Drivers/STM32F0xx_HAL_Driver/Src/stm32f0xx_hal_i2c.c ****   */
1731:Drivers/STM32F0xx_HAL_Driver/Src/stm32f0xx_hal_i2c.c **** HAL_StatusTypeDef HAL_I2C_Mem_Write(I2C_HandleTypeDef *hi2c, uint16_t DevAddress, uint16_t MemAddre
1732:Drivers/STM32F0xx_HAL_Driver/Src/stm32f0xx_hal_i2c.c **** {
 3636              		.loc 1 1732 1
 3637              		.cfi_startproc
 3638              		@ args = 12, pretend = 0, frame = 24
 3639              		@ frame_needed = 1, uses_anonymous_args = 0
 3640 0000 90B5     		push	{r4, r7, lr}
 3641              	.LCFI48:
 3642              		.cfi_def_cfa_offset 12
 3643              		.cfi_offset 4, -12
 3644              		.cfi_offset 7, -8
 3645              		.cfi_offset 14, -4
 3646 0002 89B0     		sub	sp, sp, #36
 3647              	.LCFI49:
 3648              		.cfi_def_cfa_offset 48
 3649 0004 02AF     		add	r7, sp, #8
 3650              	.LCFI50:
 3651              		.cfi_def_cfa 7, 40
ARM GAS  C:\Users\ADMINI~1\AppData\Local\Temp\cc3zYV2m.s 			page 95


 3652 0006 F860     		str	r0, [r7, #12]
 3653 0008 0C00     		movs	r4, r1
 3654 000a 1000     		movs	r0, r2
 3655 000c 1900     		movs	r1, r3
 3656 000e 0A23     		movs	r3, #10
 3657 0010 FB18     		adds	r3, r7, r3
 3658 0012 221C     		adds	r2, r4, #0
 3659 0014 1A80     		strh	r2, [r3]
 3660 0016 0823     		movs	r3, #8
 3661 0018 FB18     		adds	r3, r7, r3
 3662 001a 021C     		adds	r2, r0, #0
 3663 001c 1A80     		strh	r2, [r3]
 3664 001e BB1D     		adds	r3, r7, #6
 3665 0020 0A1C     		adds	r2, r1, #0
 3666 0022 1A80     		strh	r2, [r3]
1733:Drivers/STM32F0xx_HAL_Driver/Src/stm32f0xx_hal_i2c.c ****   uint32_t tickstart = 0U;
 3667              		.loc 1 1733 12
 3668 0024 0023     		movs	r3, #0
 3669 0026 7B61     		str	r3, [r7, #20]
1734:Drivers/STM32F0xx_HAL_Driver/Src/stm32f0xx_hal_i2c.c **** 
1735:Drivers/STM32F0xx_HAL_Driver/Src/stm32f0xx_hal_i2c.c ****   /* Check the parameters */
1736:Drivers/STM32F0xx_HAL_Driver/Src/stm32f0xx_hal_i2c.c ****   assert_param(IS_I2C_MEMADD_SIZE(MemAddSize));
1737:Drivers/STM32F0xx_HAL_Driver/Src/stm32f0xx_hal_i2c.c **** 
1738:Drivers/STM32F0xx_HAL_Driver/Src/stm32f0xx_hal_i2c.c ****   if (hi2c->State == HAL_I2C_STATE_READY)
 3670              		.loc 1 1738 11
 3671 0028 FB68     		ldr	r3, [r7, #12]
 3672 002a 4122     		movs	r2, #65
 3673 002c 9B5C     		ldrb	r3, [r3, r2]
 3674 002e DBB2     		uxtb	r3, r3
 3675              		.loc 1 1738 6
 3676 0030 202B     		cmp	r3, #32
 3677 0032 00D0     		beq	.LCB3040
 3678 0034 1CE1     		b	.L155	@long jump
 3679              	.LCB3040:
1739:Drivers/STM32F0xx_HAL_Driver/Src/stm32f0xx_hal_i2c.c ****   {
1740:Drivers/STM32F0xx_HAL_Driver/Src/stm32f0xx_hal_i2c.c ****     if ((pData == NULL) || (Size == 0U))
 3680              		.loc 1 1740 8
 3681 0036 BB6A     		ldr	r3, [r7, #40]
 3682 0038 002B     		cmp	r3, #0
 3683 003a 04D0     		beq	.L156
 3684              		.loc 1 1740 25 discriminator 1
 3685 003c 2C23     		movs	r3, #44
 3686 003e FB18     		adds	r3, r7, r3
 3687 0040 1B88     		ldrh	r3, [r3]
 3688 0042 002B     		cmp	r3, #0
 3689 0044 01D1     		bne	.L157
 3690              	.L156:
1741:Drivers/STM32F0xx_HAL_Driver/Src/stm32f0xx_hal_i2c.c ****     {
1742:Drivers/STM32F0xx_HAL_Driver/Src/stm32f0xx_hal_i2c.c ****       return  HAL_ERROR;
 3691              		.loc 1 1742 15
 3692 0046 0123     		movs	r3, #1
 3693 0048 13E1     		b	.L158
 3694              	.L157:
1743:Drivers/STM32F0xx_HAL_Driver/Src/stm32f0xx_hal_i2c.c ****     }
1744:Drivers/STM32F0xx_HAL_Driver/Src/stm32f0xx_hal_i2c.c **** 
1745:Drivers/STM32F0xx_HAL_Driver/Src/stm32f0xx_hal_i2c.c ****     /* Process Locked */
1746:Drivers/STM32F0xx_HAL_Driver/Src/stm32f0xx_hal_i2c.c ****     __HAL_LOCK(hi2c);
ARM GAS  C:\Users\ADMINI~1\AppData\Local\Temp\cc3zYV2m.s 			page 96


 3695              		.loc 1 1746 5
 3696 004a FB68     		ldr	r3, [r7, #12]
 3697 004c 4022     		movs	r2, #64
 3698 004e 9B5C     		ldrb	r3, [r3, r2]
 3699 0050 012B     		cmp	r3, #1
 3700 0052 01D1     		bne	.L159
 3701              		.loc 1 1746 5 is_stmt 0 discriminator 1
 3702 0054 0223     		movs	r3, #2
 3703 0056 0CE1     		b	.L158
 3704              	.L159:
 3705              		.loc 1 1746 5 discriminator 2
 3706 0058 FB68     		ldr	r3, [r7, #12]
 3707 005a 4022     		movs	r2, #64
 3708 005c 0121     		movs	r1, #1
 3709 005e 9954     		strb	r1, [r3, r2]
1747:Drivers/STM32F0xx_HAL_Driver/Src/stm32f0xx_hal_i2c.c **** 
1748:Drivers/STM32F0xx_HAL_Driver/Src/stm32f0xx_hal_i2c.c ****     /* Init tickstart for timeout management*/
1749:Drivers/STM32F0xx_HAL_Driver/Src/stm32f0xx_hal_i2c.c ****     tickstart = HAL_GetTick();
 3710              		.loc 1 1749 17 is_stmt 1 discriminator 2
 3711 0060 FFF7FEFF 		bl	HAL_GetTick
 3712 0064 0300     		movs	r3, r0
 3713 0066 7B61     		str	r3, [r7, #20]
1750:Drivers/STM32F0xx_HAL_Driver/Src/stm32f0xx_hal_i2c.c **** 
1751:Drivers/STM32F0xx_HAL_Driver/Src/stm32f0xx_hal_i2c.c ****     if (I2C_WaitOnFlagUntilTimeout(hi2c, I2C_FLAG_BUSY, SET, I2C_TIMEOUT_BUSY, tickstart) != HAL_OK
 3714              		.loc 1 1751 9 discriminator 2
 3715 0068 8023     		movs	r3, #128
 3716 006a 1902     		lsls	r1, r3, #8
 3717 006c F868     		ldr	r0, [r7, #12]
 3718 006e 7B69     		ldr	r3, [r7, #20]
 3719 0070 0093     		str	r3, [sp]
 3720 0072 1923     		movs	r3, #25
 3721 0074 0122     		movs	r2, #1
 3722 0076 FFF7FEFF 		bl	I2C_WaitOnFlagUntilTimeout
 3723 007a 031E     		subs	r3, r0, #0
 3724              		.loc 1 1751 8 discriminator 2
 3725 007c 01D0     		beq	.L160
1752:Drivers/STM32F0xx_HAL_Driver/Src/stm32f0xx_hal_i2c.c ****     {
1753:Drivers/STM32F0xx_HAL_Driver/Src/stm32f0xx_hal_i2c.c ****       return HAL_TIMEOUT;
 3726              		.loc 1 1753 14
 3727 007e 0323     		movs	r3, #3
 3728 0080 F7E0     		b	.L158
 3729              	.L160:
1754:Drivers/STM32F0xx_HAL_Driver/Src/stm32f0xx_hal_i2c.c ****     }
1755:Drivers/STM32F0xx_HAL_Driver/Src/stm32f0xx_hal_i2c.c **** 
1756:Drivers/STM32F0xx_HAL_Driver/Src/stm32f0xx_hal_i2c.c ****     hi2c->State     = HAL_I2C_STATE_BUSY_TX;
 3730              		.loc 1 1756 21
 3731 0082 FB68     		ldr	r3, [r7, #12]
 3732 0084 4122     		movs	r2, #65
 3733 0086 2121     		movs	r1, #33
 3734 0088 9954     		strb	r1, [r3, r2]
1757:Drivers/STM32F0xx_HAL_Driver/Src/stm32f0xx_hal_i2c.c ****     hi2c->Mode      = HAL_I2C_MODE_MEM;
 3735              		.loc 1 1757 21
 3736 008a FB68     		ldr	r3, [r7, #12]
 3737 008c 4222     		movs	r2, #66
 3738 008e 4021     		movs	r1, #64
 3739 0090 9954     		strb	r1, [r3, r2]
1758:Drivers/STM32F0xx_HAL_Driver/Src/stm32f0xx_hal_i2c.c ****     hi2c->ErrorCode = HAL_I2C_ERROR_NONE;
ARM GAS  C:\Users\ADMINI~1\AppData\Local\Temp\cc3zYV2m.s 			page 97


 3740              		.loc 1 1758 21
 3741 0092 FB68     		ldr	r3, [r7, #12]
 3742 0094 0022     		movs	r2, #0
 3743 0096 5A64     		str	r2, [r3, #68]
1759:Drivers/STM32F0xx_HAL_Driver/Src/stm32f0xx_hal_i2c.c **** 
1760:Drivers/STM32F0xx_HAL_Driver/Src/stm32f0xx_hal_i2c.c ****     /* Prepare transfer parameters */
1761:Drivers/STM32F0xx_HAL_Driver/Src/stm32f0xx_hal_i2c.c ****     hi2c->pBuffPtr  = pData;
 3744              		.loc 1 1761 21
 3745 0098 FB68     		ldr	r3, [r7, #12]
 3746 009a BA6A     		ldr	r2, [r7, #40]
 3747 009c 5A62     		str	r2, [r3, #36]
1762:Drivers/STM32F0xx_HAL_Driver/Src/stm32f0xx_hal_i2c.c ****     hi2c->XferCount = Size;
 3748              		.loc 1 1762 21
 3749 009e FB68     		ldr	r3, [r7, #12]
 3750 00a0 2C22     		movs	r2, #44
 3751 00a2 BA18     		adds	r2, r7, r2
 3752 00a4 1288     		ldrh	r2, [r2]
 3753 00a6 5A85     		strh	r2, [r3, #42]
1763:Drivers/STM32F0xx_HAL_Driver/Src/stm32f0xx_hal_i2c.c ****     hi2c->XferISR   = NULL;
 3754              		.loc 1 1763 21
 3755 00a8 FB68     		ldr	r3, [r7, #12]
 3756 00aa 0022     		movs	r2, #0
 3757 00ac 5A63     		str	r2, [r3, #52]
1764:Drivers/STM32F0xx_HAL_Driver/Src/stm32f0xx_hal_i2c.c **** 
1765:Drivers/STM32F0xx_HAL_Driver/Src/stm32f0xx_hal_i2c.c ****     /* Send Slave Address and Memory Address */
1766:Drivers/STM32F0xx_HAL_Driver/Src/stm32f0xx_hal_i2c.c ****     if (I2C_RequestMemoryWrite(hi2c, DevAddress, MemAddress, MemAddSize, Timeout, tickstart) != HAL
 3758              		.loc 1 1766 9
 3759 00ae BB1D     		adds	r3, r7, #6
 3760 00b0 1C88     		ldrh	r4, [r3]
 3761 00b2 0823     		movs	r3, #8
 3762 00b4 FB18     		adds	r3, r7, r3
 3763 00b6 1A88     		ldrh	r2, [r3]
 3764 00b8 0A23     		movs	r3, #10
 3765 00ba FB18     		adds	r3, r7, r3
 3766 00bc 1988     		ldrh	r1, [r3]
 3767 00be F868     		ldr	r0, [r7, #12]
 3768 00c0 7B69     		ldr	r3, [r7, #20]
 3769 00c2 0193     		str	r3, [sp, #4]
 3770 00c4 3B6B     		ldr	r3, [r7, #48]
 3771 00c6 0093     		str	r3, [sp]
 3772 00c8 2300     		movs	r3, r4
 3773 00ca FFF7FEFF 		bl	I2C_RequestMemoryWrite
 3774 00ce 031E     		subs	r3, r0, #0
 3775              		.loc 1 1766 8
 3776 00d0 0FD0     		beq	.L161
1767:Drivers/STM32F0xx_HAL_Driver/Src/stm32f0xx_hal_i2c.c ****     {
1768:Drivers/STM32F0xx_HAL_Driver/Src/stm32f0xx_hal_i2c.c ****       if (hi2c->ErrorCode == HAL_I2C_ERROR_AF)
 3777              		.loc 1 1768 15
 3778 00d2 FB68     		ldr	r3, [r7, #12]
 3779 00d4 5B6C     		ldr	r3, [r3, #68]
 3780              		.loc 1 1768 10
 3781 00d6 042B     		cmp	r3, #4
 3782 00d8 05D1     		bne	.L162
1769:Drivers/STM32F0xx_HAL_Driver/Src/stm32f0xx_hal_i2c.c ****       {
1770:Drivers/STM32F0xx_HAL_Driver/Src/stm32f0xx_hal_i2c.c ****         /* Process Unlocked */
1771:Drivers/STM32F0xx_HAL_Driver/Src/stm32f0xx_hal_i2c.c ****         __HAL_UNLOCK(hi2c);
 3783              		.loc 1 1771 9
ARM GAS  C:\Users\ADMINI~1\AppData\Local\Temp\cc3zYV2m.s 			page 98


 3784 00da FB68     		ldr	r3, [r7, #12]
 3785 00dc 4022     		movs	r2, #64
 3786 00de 0021     		movs	r1, #0
 3787 00e0 9954     		strb	r1, [r3, r2]
1772:Drivers/STM32F0xx_HAL_Driver/Src/stm32f0xx_hal_i2c.c ****         return HAL_ERROR;
 3788              		.loc 1 1772 16
 3789 00e2 0123     		movs	r3, #1
 3790 00e4 C5E0     		b	.L158
 3791              	.L162:
1773:Drivers/STM32F0xx_HAL_Driver/Src/stm32f0xx_hal_i2c.c ****       }
1774:Drivers/STM32F0xx_HAL_Driver/Src/stm32f0xx_hal_i2c.c ****       else
1775:Drivers/STM32F0xx_HAL_Driver/Src/stm32f0xx_hal_i2c.c ****       {
1776:Drivers/STM32F0xx_HAL_Driver/Src/stm32f0xx_hal_i2c.c ****         /* Process Unlocked */
1777:Drivers/STM32F0xx_HAL_Driver/Src/stm32f0xx_hal_i2c.c ****         __HAL_UNLOCK(hi2c);
 3792              		.loc 1 1777 9
 3793 00e6 FB68     		ldr	r3, [r7, #12]
 3794 00e8 4022     		movs	r2, #64
 3795 00ea 0021     		movs	r1, #0
 3796 00ec 9954     		strb	r1, [r3, r2]
1778:Drivers/STM32F0xx_HAL_Driver/Src/stm32f0xx_hal_i2c.c ****         return HAL_TIMEOUT;
 3797              		.loc 1 1778 16
 3798 00ee 0323     		movs	r3, #3
 3799 00f0 BFE0     		b	.L158
 3800              	.L161:
1779:Drivers/STM32F0xx_HAL_Driver/Src/stm32f0xx_hal_i2c.c ****       }
1780:Drivers/STM32F0xx_HAL_Driver/Src/stm32f0xx_hal_i2c.c ****     }
1781:Drivers/STM32F0xx_HAL_Driver/Src/stm32f0xx_hal_i2c.c **** 
1782:Drivers/STM32F0xx_HAL_Driver/Src/stm32f0xx_hal_i2c.c ****     /* Set NBYTES to write and reload if hi2c->XferCount > MAX_NBYTE_SIZE */
1783:Drivers/STM32F0xx_HAL_Driver/Src/stm32f0xx_hal_i2c.c ****     if (hi2c->XferCount > MAX_NBYTE_SIZE)
 3801              		.loc 1 1783 13
 3802 00f2 FB68     		ldr	r3, [r7, #12]
 3803 00f4 5B8D     		ldrh	r3, [r3, #42]
 3804 00f6 9BB2     		uxth	r3, r3
 3805              		.loc 1 1783 8
 3806 00f8 FF2B     		cmp	r3, #255
 3807 00fa 11D9     		bls	.L163
1784:Drivers/STM32F0xx_HAL_Driver/Src/stm32f0xx_hal_i2c.c ****     {
1785:Drivers/STM32F0xx_HAL_Driver/Src/stm32f0xx_hal_i2c.c ****       hi2c->XferSize = MAX_NBYTE_SIZE;
 3808              		.loc 1 1785 22
 3809 00fc FB68     		ldr	r3, [r7, #12]
 3810 00fe FF22     		movs	r2, #255
 3811 0100 1A85     		strh	r2, [r3, #40]
1786:Drivers/STM32F0xx_HAL_Driver/Src/stm32f0xx_hal_i2c.c ****       I2C_TransferConfig(hi2c, DevAddress, hi2c->XferSize, I2C_RELOAD_MODE, I2C_NO_STARTSTOP);
 3812              		.loc 1 1786 48
 3813 0102 FB68     		ldr	r3, [r7, #12]
 3814 0104 1B8D     		ldrh	r3, [r3, #40]
 3815              		.loc 1 1786 7
 3816 0106 DAB2     		uxtb	r2, r3
 3817 0108 8023     		movs	r3, #128
 3818 010a 5C04     		lsls	r4, r3, #17
 3819 010c 0A23     		movs	r3, #10
 3820 010e FB18     		adds	r3, r7, r3
 3821 0110 1988     		ldrh	r1, [r3]
 3822 0112 F868     		ldr	r0, [r7, #12]
 3823 0114 0023     		movs	r3, #0
 3824 0116 0093     		str	r3, [sp]
 3825 0118 2300     		movs	r3, r4
ARM GAS  C:\Users\ADMINI~1\AppData\Local\Temp\cc3zYV2m.s 			page 99


 3826 011a FFF7FEFF 		bl	I2C_TransferConfig
 3827 011e 12E0     		b	.L170
 3828              	.L163:
1787:Drivers/STM32F0xx_HAL_Driver/Src/stm32f0xx_hal_i2c.c ****     }
1788:Drivers/STM32F0xx_HAL_Driver/Src/stm32f0xx_hal_i2c.c ****     else
1789:Drivers/STM32F0xx_HAL_Driver/Src/stm32f0xx_hal_i2c.c ****     {
1790:Drivers/STM32F0xx_HAL_Driver/Src/stm32f0xx_hal_i2c.c ****       hi2c->XferSize = hi2c->XferCount;
 3829              		.loc 1 1790 28
 3830 0120 FB68     		ldr	r3, [r7, #12]
 3831 0122 5B8D     		ldrh	r3, [r3, #42]
 3832 0124 9AB2     		uxth	r2, r3
 3833              		.loc 1 1790 22
 3834 0126 FB68     		ldr	r3, [r7, #12]
 3835 0128 1A85     		strh	r2, [r3, #40]
1791:Drivers/STM32F0xx_HAL_Driver/Src/stm32f0xx_hal_i2c.c ****       I2C_TransferConfig(hi2c, DevAddress, hi2c->XferSize, I2C_AUTOEND_MODE, I2C_NO_STARTSTOP);
 3836              		.loc 1 1791 48
 3837 012a FB68     		ldr	r3, [r7, #12]
 3838 012c 1B8D     		ldrh	r3, [r3, #40]
 3839              		.loc 1 1791 7
 3840 012e DAB2     		uxtb	r2, r3
 3841 0130 8023     		movs	r3, #128
 3842 0132 9C04     		lsls	r4, r3, #18
 3843 0134 0A23     		movs	r3, #10
 3844 0136 FB18     		adds	r3, r7, r3
 3845 0138 1988     		ldrh	r1, [r3]
 3846 013a F868     		ldr	r0, [r7, #12]
 3847 013c 0023     		movs	r3, #0
 3848 013e 0093     		str	r3, [sp]
 3849 0140 2300     		movs	r3, r4
 3850 0142 FFF7FEFF 		bl	I2C_TransferConfig
 3851              	.L170:
1792:Drivers/STM32F0xx_HAL_Driver/Src/stm32f0xx_hal_i2c.c ****     }
1793:Drivers/STM32F0xx_HAL_Driver/Src/stm32f0xx_hal_i2c.c **** 
1794:Drivers/STM32F0xx_HAL_Driver/Src/stm32f0xx_hal_i2c.c ****     do
1795:Drivers/STM32F0xx_HAL_Driver/Src/stm32f0xx_hal_i2c.c ****     {
1796:Drivers/STM32F0xx_HAL_Driver/Src/stm32f0xx_hal_i2c.c ****       /* Wait until TXIS flag is set */
1797:Drivers/STM32F0xx_HAL_Driver/Src/stm32f0xx_hal_i2c.c ****       if (I2C_WaitOnTXISFlagUntilTimeout(hi2c, Timeout, tickstart) != HAL_OK)
 3852              		.loc 1 1797 11
 3853 0146 7A69     		ldr	r2, [r7, #20]
 3854 0148 396B     		ldr	r1, [r7, #48]
 3855 014a FB68     		ldr	r3, [r7, #12]
 3856 014c 1800     		movs	r0, r3
 3857 014e FFF7FEFF 		bl	I2C_WaitOnTXISFlagUntilTimeout
 3858 0152 031E     		subs	r3, r0, #0
 3859              		.loc 1 1797 10
 3860 0154 07D0     		beq	.L165
1798:Drivers/STM32F0xx_HAL_Driver/Src/stm32f0xx_hal_i2c.c ****       {
1799:Drivers/STM32F0xx_HAL_Driver/Src/stm32f0xx_hal_i2c.c ****         if (hi2c->ErrorCode == HAL_I2C_ERROR_AF)
 3861              		.loc 1 1799 17
 3862 0156 FB68     		ldr	r3, [r7, #12]
 3863 0158 5B6C     		ldr	r3, [r3, #68]
 3864              		.loc 1 1799 12
 3865 015a 042B     		cmp	r3, #4
 3866 015c 01D1     		bne	.L166
1800:Drivers/STM32F0xx_HAL_Driver/Src/stm32f0xx_hal_i2c.c ****         {
1801:Drivers/STM32F0xx_HAL_Driver/Src/stm32f0xx_hal_i2c.c ****           return HAL_ERROR;
 3867              		.loc 1 1801 18
ARM GAS  C:\Users\ADMINI~1\AppData\Local\Temp\cc3zYV2m.s 			page 100


 3868 015e 0123     		movs	r3, #1
 3869 0160 87E0     		b	.L158
 3870              	.L166:
1802:Drivers/STM32F0xx_HAL_Driver/Src/stm32f0xx_hal_i2c.c ****         }
1803:Drivers/STM32F0xx_HAL_Driver/Src/stm32f0xx_hal_i2c.c ****         else
1804:Drivers/STM32F0xx_HAL_Driver/Src/stm32f0xx_hal_i2c.c ****         {
1805:Drivers/STM32F0xx_HAL_Driver/Src/stm32f0xx_hal_i2c.c ****           return HAL_TIMEOUT;
 3871              		.loc 1 1805 18
 3872 0162 0323     		movs	r3, #3
 3873 0164 85E0     		b	.L158
 3874              	.L165:
1806:Drivers/STM32F0xx_HAL_Driver/Src/stm32f0xx_hal_i2c.c ****         }
1807:Drivers/STM32F0xx_HAL_Driver/Src/stm32f0xx_hal_i2c.c ****       }
1808:Drivers/STM32F0xx_HAL_Driver/Src/stm32f0xx_hal_i2c.c **** 
1809:Drivers/STM32F0xx_HAL_Driver/Src/stm32f0xx_hal_i2c.c ****       /* Write data to TXDR */
1810:Drivers/STM32F0xx_HAL_Driver/Src/stm32f0xx_hal_i2c.c ****       hi2c->Instance->TXDR = (*hi2c->pBuffPtr++);
 3875              		.loc 1 1810 36
 3876 0166 FB68     		ldr	r3, [r7, #12]
 3877 0168 5B6A     		ldr	r3, [r3, #36]
 3878              		.loc 1 1810 46
 3879 016a 591C     		adds	r1, r3, #1
 3880 016c FA68     		ldr	r2, [r7, #12]
 3881 016e 5162     		str	r1, [r2, #36]
 3882              		.loc 1 1810 31
 3883 0170 1A78     		ldrb	r2, [r3]
 3884              		.loc 1 1810 11
 3885 0172 FB68     		ldr	r3, [r7, #12]
 3886 0174 1B68     		ldr	r3, [r3]
 3887              		.loc 1 1810 28
 3888 0176 9A62     		str	r2, [r3, #40]
1811:Drivers/STM32F0xx_HAL_Driver/Src/stm32f0xx_hal_i2c.c ****       hi2c->XferCount--;
 3889              		.loc 1 1811 11
 3890 0178 FB68     		ldr	r3, [r7, #12]
 3891 017a 5B8D     		ldrh	r3, [r3, #42]
 3892 017c 9BB2     		uxth	r3, r3
 3893              		.loc 1 1811 22
 3894 017e 013B     		subs	r3, r3, #1
 3895 0180 9AB2     		uxth	r2, r3
 3896 0182 FB68     		ldr	r3, [r7, #12]
 3897 0184 5A85     		strh	r2, [r3, #42]
1812:Drivers/STM32F0xx_HAL_Driver/Src/stm32f0xx_hal_i2c.c ****       hi2c->XferSize--;
 3898              		.loc 1 1812 11
 3899 0186 FB68     		ldr	r3, [r7, #12]
 3900 0188 1B8D     		ldrh	r3, [r3, #40]
 3901              		.loc 1 1812 21
 3902 018a 013B     		subs	r3, r3, #1
 3903 018c 9AB2     		uxth	r2, r3
 3904 018e FB68     		ldr	r3, [r7, #12]
 3905 0190 1A85     		strh	r2, [r3, #40]
1813:Drivers/STM32F0xx_HAL_Driver/Src/stm32f0xx_hal_i2c.c **** 
1814:Drivers/STM32F0xx_HAL_Driver/Src/stm32f0xx_hal_i2c.c ****       if ((hi2c->XferSize == 0U) && (hi2c->XferCount != 0U))
 3906              		.loc 1 1814 16
 3907 0192 FB68     		ldr	r3, [r7, #12]
 3908 0194 1B8D     		ldrh	r3, [r3, #40]
 3909              		.loc 1 1814 10
 3910 0196 002B     		cmp	r3, #0
 3911 0198 3BD1     		bne	.L167
ARM GAS  C:\Users\ADMINI~1\AppData\Local\Temp\cc3zYV2m.s 			page 101


 3912              		.loc 1 1814 42 discriminator 1
 3913 019a FB68     		ldr	r3, [r7, #12]
 3914 019c 5B8D     		ldrh	r3, [r3, #42]
 3915 019e 9BB2     		uxth	r3, r3
 3916              		.loc 1 1814 34 discriminator 1
 3917 01a0 002B     		cmp	r3, #0
 3918 01a2 36D0     		beq	.L167
1815:Drivers/STM32F0xx_HAL_Driver/Src/stm32f0xx_hal_i2c.c ****       {
1816:Drivers/STM32F0xx_HAL_Driver/Src/stm32f0xx_hal_i2c.c ****         /* Wait until TCR flag is set */
1817:Drivers/STM32F0xx_HAL_Driver/Src/stm32f0xx_hal_i2c.c ****         if (I2C_WaitOnFlagUntilTimeout(hi2c, I2C_FLAG_TCR, RESET, Timeout, tickstart) != HAL_OK)
 3919              		.loc 1 1817 13
 3920 01a4 3A6B     		ldr	r2, [r7, #48]
 3921 01a6 F868     		ldr	r0, [r7, #12]
 3922 01a8 7B69     		ldr	r3, [r7, #20]
 3923 01aa 0093     		str	r3, [sp]
 3924 01ac 1300     		movs	r3, r2
 3925 01ae 0022     		movs	r2, #0
 3926 01b0 8021     		movs	r1, #128
 3927 01b2 FFF7FEFF 		bl	I2C_WaitOnFlagUntilTimeout
 3928 01b6 031E     		subs	r3, r0, #0
 3929              		.loc 1 1817 12
 3930 01b8 01D0     		beq	.L168
1818:Drivers/STM32F0xx_HAL_Driver/Src/stm32f0xx_hal_i2c.c ****         {
1819:Drivers/STM32F0xx_HAL_Driver/Src/stm32f0xx_hal_i2c.c ****           return HAL_TIMEOUT;
 3931              		.loc 1 1819 18
 3932 01ba 0323     		movs	r3, #3
 3933 01bc 59E0     		b	.L158
 3934              	.L168:
1820:Drivers/STM32F0xx_HAL_Driver/Src/stm32f0xx_hal_i2c.c ****         }
1821:Drivers/STM32F0xx_HAL_Driver/Src/stm32f0xx_hal_i2c.c **** 
1822:Drivers/STM32F0xx_HAL_Driver/Src/stm32f0xx_hal_i2c.c ****         if (hi2c->XferCount > MAX_NBYTE_SIZE)
 3935              		.loc 1 1822 17
 3936 01be FB68     		ldr	r3, [r7, #12]
 3937 01c0 5B8D     		ldrh	r3, [r3, #42]
 3938 01c2 9BB2     		uxth	r3, r3
 3939              		.loc 1 1822 12
 3940 01c4 FF2B     		cmp	r3, #255
 3941 01c6 11D9     		bls	.L169
1823:Drivers/STM32F0xx_HAL_Driver/Src/stm32f0xx_hal_i2c.c ****         {
1824:Drivers/STM32F0xx_HAL_Driver/Src/stm32f0xx_hal_i2c.c ****           hi2c->XferSize = MAX_NBYTE_SIZE;
 3942              		.loc 1 1824 26
 3943 01c8 FB68     		ldr	r3, [r7, #12]
 3944 01ca FF22     		movs	r2, #255
 3945 01cc 1A85     		strh	r2, [r3, #40]
1825:Drivers/STM32F0xx_HAL_Driver/Src/stm32f0xx_hal_i2c.c ****           I2C_TransferConfig(hi2c, DevAddress, hi2c->XferSize, I2C_RELOAD_MODE, I2C_NO_STARTSTOP);
 3946              		.loc 1 1825 52
 3947 01ce FB68     		ldr	r3, [r7, #12]
 3948 01d0 1B8D     		ldrh	r3, [r3, #40]
 3949              		.loc 1 1825 11
 3950 01d2 DAB2     		uxtb	r2, r3
 3951 01d4 8023     		movs	r3, #128
 3952 01d6 5C04     		lsls	r4, r3, #17
 3953 01d8 0A23     		movs	r3, #10
 3954 01da FB18     		adds	r3, r7, r3
 3955 01dc 1988     		ldrh	r1, [r3]
 3956 01de F868     		ldr	r0, [r7, #12]
 3957 01e0 0023     		movs	r3, #0
ARM GAS  C:\Users\ADMINI~1\AppData\Local\Temp\cc3zYV2m.s 			page 102


 3958 01e2 0093     		str	r3, [sp]
 3959 01e4 2300     		movs	r3, r4
 3960 01e6 FFF7FEFF 		bl	I2C_TransferConfig
 3961 01ea 12E0     		b	.L167
 3962              	.L169:
1826:Drivers/STM32F0xx_HAL_Driver/Src/stm32f0xx_hal_i2c.c ****         }
1827:Drivers/STM32F0xx_HAL_Driver/Src/stm32f0xx_hal_i2c.c ****         else
1828:Drivers/STM32F0xx_HAL_Driver/Src/stm32f0xx_hal_i2c.c ****         {
1829:Drivers/STM32F0xx_HAL_Driver/Src/stm32f0xx_hal_i2c.c ****           hi2c->XferSize = hi2c->XferCount;
 3963              		.loc 1 1829 32
 3964 01ec FB68     		ldr	r3, [r7, #12]
 3965 01ee 5B8D     		ldrh	r3, [r3, #42]
 3966 01f0 9AB2     		uxth	r2, r3
 3967              		.loc 1 1829 26
 3968 01f2 FB68     		ldr	r3, [r7, #12]
 3969 01f4 1A85     		strh	r2, [r3, #40]
1830:Drivers/STM32F0xx_HAL_Driver/Src/stm32f0xx_hal_i2c.c ****           I2C_TransferConfig(hi2c, DevAddress, hi2c->XferSize, I2C_AUTOEND_MODE, I2C_NO_STARTSTOP);
 3970              		.loc 1 1830 52
 3971 01f6 FB68     		ldr	r3, [r7, #12]
 3972 01f8 1B8D     		ldrh	r3, [r3, #40]
 3973              		.loc 1 1830 11
 3974 01fa DAB2     		uxtb	r2, r3
 3975 01fc 8023     		movs	r3, #128
 3976 01fe 9C04     		lsls	r4, r3, #18
 3977 0200 0A23     		movs	r3, #10
 3978 0202 FB18     		adds	r3, r7, r3
 3979 0204 1988     		ldrh	r1, [r3]
 3980 0206 F868     		ldr	r0, [r7, #12]
 3981 0208 0023     		movs	r3, #0
 3982 020a 0093     		str	r3, [sp]
 3983 020c 2300     		movs	r3, r4
 3984 020e FFF7FEFF 		bl	I2C_TransferConfig
 3985              	.L167:
1831:Drivers/STM32F0xx_HAL_Driver/Src/stm32f0xx_hal_i2c.c ****         }
1832:Drivers/STM32F0xx_HAL_Driver/Src/stm32f0xx_hal_i2c.c ****       }
1833:Drivers/STM32F0xx_HAL_Driver/Src/stm32f0xx_hal_i2c.c **** 
1834:Drivers/STM32F0xx_HAL_Driver/Src/stm32f0xx_hal_i2c.c ****     }
1835:Drivers/STM32F0xx_HAL_Driver/Src/stm32f0xx_hal_i2c.c ****     while (hi2c->XferCount > 0U);
 3986              		.loc 1 1835 16
 3987 0212 FB68     		ldr	r3, [r7, #12]
 3988 0214 5B8D     		ldrh	r3, [r3, #42]
 3989 0216 9BB2     		uxth	r3, r3
 3990              		.loc 1 1835 5
 3991 0218 002B     		cmp	r3, #0
 3992 021a 94D1     		bne	.L170
1836:Drivers/STM32F0xx_HAL_Driver/Src/stm32f0xx_hal_i2c.c **** 
1837:Drivers/STM32F0xx_HAL_Driver/Src/stm32f0xx_hal_i2c.c ****     /* No need to Check TC flag, with AUTOEND mode the stop is automatically generated */
1838:Drivers/STM32F0xx_HAL_Driver/Src/stm32f0xx_hal_i2c.c ****     /* Wait until STOPF flag is reset */
1839:Drivers/STM32F0xx_HAL_Driver/Src/stm32f0xx_hal_i2c.c ****     if (I2C_WaitOnSTOPFlagUntilTimeout(hi2c, Timeout, tickstart) != HAL_OK)
 3993              		.loc 1 1839 9
 3994 021c 7A69     		ldr	r2, [r7, #20]
 3995 021e 396B     		ldr	r1, [r7, #48]
 3996 0220 FB68     		ldr	r3, [r7, #12]
 3997 0222 1800     		movs	r0, r3
 3998 0224 FFF7FEFF 		bl	I2C_WaitOnSTOPFlagUntilTimeout
 3999 0228 031E     		subs	r3, r0, #0
 4000              		.loc 1 1839 8
ARM GAS  C:\Users\ADMINI~1\AppData\Local\Temp\cc3zYV2m.s 			page 103


 4001 022a 07D0     		beq	.L171
1840:Drivers/STM32F0xx_HAL_Driver/Src/stm32f0xx_hal_i2c.c ****     {
1841:Drivers/STM32F0xx_HAL_Driver/Src/stm32f0xx_hal_i2c.c ****       if (hi2c->ErrorCode == HAL_I2C_ERROR_AF)
 4002              		.loc 1 1841 15
 4003 022c FB68     		ldr	r3, [r7, #12]
 4004 022e 5B6C     		ldr	r3, [r3, #68]
 4005              		.loc 1 1841 10
 4006 0230 042B     		cmp	r3, #4
 4007 0232 01D1     		bne	.L172
1842:Drivers/STM32F0xx_HAL_Driver/Src/stm32f0xx_hal_i2c.c ****       {
1843:Drivers/STM32F0xx_HAL_Driver/Src/stm32f0xx_hal_i2c.c ****         return HAL_ERROR;
 4008              		.loc 1 1843 16
 4009 0234 0123     		movs	r3, #1
 4010 0236 1CE0     		b	.L158
 4011              	.L172:
1844:Drivers/STM32F0xx_HAL_Driver/Src/stm32f0xx_hal_i2c.c ****       }
1845:Drivers/STM32F0xx_HAL_Driver/Src/stm32f0xx_hal_i2c.c ****       else
1846:Drivers/STM32F0xx_HAL_Driver/Src/stm32f0xx_hal_i2c.c ****       {
1847:Drivers/STM32F0xx_HAL_Driver/Src/stm32f0xx_hal_i2c.c ****         return HAL_TIMEOUT;
 4012              		.loc 1 1847 16
 4013 0238 0323     		movs	r3, #3
 4014 023a 1AE0     		b	.L158
 4015              	.L171:
1848:Drivers/STM32F0xx_HAL_Driver/Src/stm32f0xx_hal_i2c.c ****       }
1849:Drivers/STM32F0xx_HAL_Driver/Src/stm32f0xx_hal_i2c.c ****     }
1850:Drivers/STM32F0xx_HAL_Driver/Src/stm32f0xx_hal_i2c.c **** 
1851:Drivers/STM32F0xx_HAL_Driver/Src/stm32f0xx_hal_i2c.c ****     /* Clear STOP Flag */
1852:Drivers/STM32F0xx_HAL_Driver/Src/stm32f0xx_hal_i2c.c ****     __HAL_I2C_CLEAR_FLAG(hi2c, I2C_FLAG_STOPF);
 4016              		.loc 1 1852 5
 4017 023c FB68     		ldr	r3, [r7, #12]
 4018 023e 1B68     		ldr	r3, [r3]
 4019 0240 2022     		movs	r2, #32
 4020 0242 DA61     		str	r2, [r3, #28]
1853:Drivers/STM32F0xx_HAL_Driver/Src/stm32f0xx_hal_i2c.c **** 
1854:Drivers/STM32F0xx_HAL_Driver/Src/stm32f0xx_hal_i2c.c ****     /* Clear Configuration Register 2 */
1855:Drivers/STM32F0xx_HAL_Driver/Src/stm32f0xx_hal_i2c.c ****     I2C_RESET_CR2(hi2c);
 4021              		.loc 1 1855 5
 4022 0244 FB68     		ldr	r3, [r7, #12]
 4023 0246 1B68     		ldr	r3, [r3]
 4024 0248 5A68     		ldr	r2, [r3, #4]
 4025 024a FB68     		ldr	r3, [r7, #12]
 4026 024c 1B68     		ldr	r3, [r3]
 4027 024e 0B49     		ldr	r1, .L173
 4028 0250 0A40     		ands	r2, r1
 4029 0252 5A60     		str	r2, [r3, #4]
1856:Drivers/STM32F0xx_HAL_Driver/Src/stm32f0xx_hal_i2c.c **** 
1857:Drivers/STM32F0xx_HAL_Driver/Src/stm32f0xx_hal_i2c.c ****     hi2c->State = HAL_I2C_STATE_READY;
 4030              		.loc 1 1857 17
 4031 0254 FB68     		ldr	r3, [r7, #12]
 4032 0256 4122     		movs	r2, #65
 4033 0258 2021     		movs	r1, #32
 4034 025a 9954     		strb	r1, [r3, r2]
1858:Drivers/STM32F0xx_HAL_Driver/Src/stm32f0xx_hal_i2c.c ****     hi2c->Mode  = HAL_I2C_MODE_NONE;
 4035              		.loc 1 1858 17
 4036 025c FB68     		ldr	r3, [r7, #12]
 4037 025e 4222     		movs	r2, #66
 4038 0260 0021     		movs	r1, #0
ARM GAS  C:\Users\ADMINI~1\AppData\Local\Temp\cc3zYV2m.s 			page 104


 4039 0262 9954     		strb	r1, [r3, r2]
1859:Drivers/STM32F0xx_HAL_Driver/Src/stm32f0xx_hal_i2c.c **** 
1860:Drivers/STM32F0xx_HAL_Driver/Src/stm32f0xx_hal_i2c.c ****     /* Process Unlocked */
1861:Drivers/STM32F0xx_HAL_Driver/Src/stm32f0xx_hal_i2c.c ****     __HAL_UNLOCK(hi2c);
 4040              		.loc 1 1861 5
 4041 0264 FB68     		ldr	r3, [r7, #12]
 4042 0266 4022     		movs	r2, #64
 4043 0268 0021     		movs	r1, #0
 4044 026a 9954     		strb	r1, [r3, r2]
1862:Drivers/STM32F0xx_HAL_Driver/Src/stm32f0xx_hal_i2c.c **** 
1863:Drivers/STM32F0xx_HAL_Driver/Src/stm32f0xx_hal_i2c.c ****     return HAL_OK;
 4045              		.loc 1 1863 12
 4046 026c 0023     		movs	r3, #0
 4047 026e 00E0     		b	.L158
 4048              	.L155:
1864:Drivers/STM32F0xx_HAL_Driver/Src/stm32f0xx_hal_i2c.c ****   }
1865:Drivers/STM32F0xx_HAL_Driver/Src/stm32f0xx_hal_i2c.c ****   else
1866:Drivers/STM32F0xx_HAL_Driver/Src/stm32f0xx_hal_i2c.c ****   {
1867:Drivers/STM32F0xx_HAL_Driver/Src/stm32f0xx_hal_i2c.c ****     return HAL_BUSY;
 4049              		.loc 1 1867 12
 4050 0270 0223     		movs	r3, #2
 4051              	.L158:
1868:Drivers/STM32F0xx_HAL_Driver/Src/stm32f0xx_hal_i2c.c ****   }
1869:Drivers/STM32F0xx_HAL_Driver/Src/stm32f0xx_hal_i2c.c **** }
 4052              		.loc 1 1869 1
 4053 0272 1800     		movs	r0, r3
 4054 0274 BD46     		mov	sp, r7
 4055 0276 07B0     		add	sp, sp, #28
 4056              		@ sp needed
 4057 0278 90BD     		pop	{r4, r7, pc}
 4058              	.L174:
 4059 027a C046     		.align	2
 4060              	.L173:
 4061 027c 00E800FE 		.word	-33495040
 4062              		.cfi_endproc
 4063              	.LFE53:
 4065              		.section	.text.HAL_I2C_Mem_Read,"ax",%progbits
 4066              		.align	1
 4067              		.global	HAL_I2C_Mem_Read
 4068              		.syntax unified
 4069              		.code	16
 4070              		.thumb_func
 4071              		.fpu softvfp
 4073              	HAL_I2C_Mem_Read:
 4074              	.LFB54:
1870:Drivers/STM32F0xx_HAL_Driver/Src/stm32f0xx_hal_i2c.c **** 
1871:Drivers/STM32F0xx_HAL_Driver/Src/stm32f0xx_hal_i2c.c **** /**
1872:Drivers/STM32F0xx_HAL_Driver/Src/stm32f0xx_hal_i2c.c ****   * @brief  Read an amount of data in blocking mode from a specific memory address
1873:Drivers/STM32F0xx_HAL_Driver/Src/stm32f0xx_hal_i2c.c ****   * @param  hi2c Pointer to a I2C_HandleTypeDef structure that contains
1874:Drivers/STM32F0xx_HAL_Driver/Src/stm32f0xx_hal_i2c.c ****   *                the configuration information for the specified I2C.
1875:Drivers/STM32F0xx_HAL_Driver/Src/stm32f0xx_hal_i2c.c ****   * @param  DevAddress Target device address: The device 7 bits address value
1876:Drivers/STM32F0xx_HAL_Driver/Src/stm32f0xx_hal_i2c.c ****   *         in datasheet must be shift at right before call interface
1877:Drivers/STM32F0xx_HAL_Driver/Src/stm32f0xx_hal_i2c.c ****   * @param  MemAddress Internal memory address
1878:Drivers/STM32F0xx_HAL_Driver/Src/stm32f0xx_hal_i2c.c ****   * @param  MemAddSize Size of internal memory address
1879:Drivers/STM32F0xx_HAL_Driver/Src/stm32f0xx_hal_i2c.c ****   * @param  pData Pointer to data buffer
1880:Drivers/STM32F0xx_HAL_Driver/Src/stm32f0xx_hal_i2c.c ****   * @param  Size Amount of data to be sent
1881:Drivers/STM32F0xx_HAL_Driver/Src/stm32f0xx_hal_i2c.c ****   * @param  Timeout Timeout duration
ARM GAS  C:\Users\ADMINI~1\AppData\Local\Temp\cc3zYV2m.s 			page 105


1882:Drivers/STM32F0xx_HAL_Driver/Src/stm32f0xx_hal_i2c.c ****   * @retval HAL status
1883:Drivers/STM32F0xx_HAL_Driver/Src/stm32f0xx_hal_i2c.c ****   */
1884:Drivers/STM32F0xx_HAL_Driver/Src/stm32f0xx_hal_i2c.c **** HAL_StatusTypeDef HAL_I2C_Mem_Read(I2C_HandleTypeDef *hi2c, uint16_t DevAddress, uint16_t MemAddres
1885:Drivers/STM32F0xx_HAL_Driver/Src/stm32f0xx_hal_i2c.c **** {
 4075              		.loc 1 1885 1
 4076              		.cfi_startproc
 4077              		@ args = 12, pretend = 0, frame = 24
 4078              		@ frame_needed = 1, uses_anonymous_args = 0
 4079 0000 90B5     		push	{r4, r7, lr}
 4080              	.LCFI51:
 4081              		.cfi_def_cfa_offset 12
 4082              		.cfi_offset 4, -12
 4083              		.cfi_offset 7, -8
 4084              		.cfi_offset 14, -4
 4085 0002 89B0     		sub	sp, sp, #36
 4086              	.LCFI52:
 4087              		.cfi_def_cfa_offset 48
 4088 0004 02AF     		add	r7, sp, #8
 4089              	.LCFI53:
 4090              		.cfi_def_cfa 7, 40
 4091 0006 F860     		str	r0, [r7, #12]
 4092 0008 0C00     		movs	r4, r1
 4093 000a 1000     		movs	r0, r2
 4094 000c 1900     		movs	r1, r3
 4095 000e 0A23     		movs	r3, #10
 4096 0010 FB18     		adds	r3, r7, r3
 4097 0012 221C     		adds	r2, r4, #0
 4098 0014 1A80     		strh	r2, [r3]
 4099 0016 0823     		movs	r3, #8
 4100 0018 FB18     		adds	r3, r7, r3
 4101 001a 021C     		adds	r2, r0, #0
 4102 001c 1A80     		strh	r2, [r3]
 4103 001e BB1D     		adds	r3, r7, #6
 4104 0020 0A1C     		adds	r2, r1, #0
 4105 0022 1A80     		strh	r2, [r3]
1886:Drivers/STM32F0xx_HAL_Driver/Src/stm32f0xx_hal_i2c.c ****   uint32_t tickstart = 0U;
 4106              		.loc 1 1886 12
 4107 0024 0023     		movs	r3, #0
 4108 0026 7B61     		str	r3, [r7, #20]
1887:Drivers/STM32F0xx_HAL_Driver/Src/stm32f0xx_hal_i2c.c **** 
1888:Drivers/STM32F0xx_HAL_Driver/Src/stm32f0xx_hal_i2c.c ****   /* Check the parameters */
1889:Drivers/STM32F0xx_HAL_Driver/Src/stm32f0xx_hal_i2c.c ****   assert_param(IS_I2C_MEMADD_SIZE(MemAddSize));
1890:Drivers/STM32F0xx_HAL_Driver/Src/stm32f0xx_hal_i2c.c **** 
1891:Drivers/STM32F0xx_HAL_Driver/Src/stm32f0xx_hal_i2c.c ****   if (hi2c->State == HAL_I2C_STATE_READY)
 4109              		.loc 1 1891 11
 4110 0028 FB68     		ldr	r3, [r7, #12]
 4111 002a 4122     		movs	r2, #65
 4112 002c 9B5C     		ldrb	r3, [r3, r2]
 4113 002e DBB2     		uxtb	r3, r3
 4114              		.loc 1 1891 6
 4115 0030 202B     		cmp	r3, #32
 4116 0032 00D0     		beq	.LCB3424
 4117 0034 1CE1     		b	.L176	@long jump
 4118              	.LCB3424:
1892:Drivers/STM32F0xx_HAL_Driver/Src/stm32f0xx_hal_i2c.c ****   {
1893:Drivers/STM32F0xx_HAL_Driver/Src/stm32f0xx_hal_i2c.c ****     if ((pData == NULL) || (Size == 0U))
 4119              		.loc 1 1893 8
ARM GAS  C:\Users\ADMINI~1\AppData\Local\Temp\cc3zYV2m.s 			page 106


 4120 0036 BB6A     		ldr	r3, [r7, #40]
 4121 0038 002B     		cmp	r3, #0
 4122 003a 04D0     		beq	.L177
 4123              		.loc 1 1893 25 discriminator 1
 4124 003c 2C23     		movs	r3, #44
 4125 003e FB18     		adds	r3, r7, r3
 4126 0040 1B88     		ldrh	r3, [r3]
 4127 0042 002B     		cmp	r3, #0
 4128 0044 01D1     		bne	.L178
 4129              	.L177:
1894:Drivers/STM32F0xx_HAL_Driver/Src/stm32f0xx_hal_i2c.c ****     {
1895:Drivers/STM32F0xx_HAL_Driver/Src/stm32f0xx_hal_i2c.c ****       return  HAL_ERROR;
 4130              		.loc 1 1895 15
 4131 0046 0123     		movs	r3, #1
 4132 0048 13E1     		b	.L179
 4133              	.L178:
1896:Drivers/STM32F0xx_HAL_Driver/Src/stm32f0xx_hal_i2c.c ****     }
1897:Drivers/STM32F0xx_HAL_Driver/Src/stm32f0xx_hal_i2c.c **** 
1898:Drivers/STM32F0xx_HAL_Driver/Src/stm32f0xx_hal_i2c.c ****     /* Process Locked */
1899:Drivers/STM32F0xx_HAL_Driver/Src/stm32f0xx_hal_i2c.c ****     __HAL_LOCK(hi2c);
 4134              		.loc 1 1899 5
 4135 004a FB68     		ldr	r3, [r7, #12]
 4136 004c 4022     		movs	r2, #64
 4137 004e 9B5C     		ldrb	r3, [r3, r2]
 4138 0050 012B     		cmp	r3, #1
 4139 0052 01D1     		bne	.L180
 4140              		.loc 1 1899 5 is_stmt 0 discriminator 1
 4141 0054 0223     		movs	r3, #2
 4142 0056 0CE1     		b	.L179
 4143              	.L180:
 4144              		.loc 1 1899 5 discriminator 2
 4145 0058 FB68     		ldr	r3, [r7, #12]
 4146 005a 4022     		movs	r2, #64
 4147 005c 0121     		movs	r1, #1
 4148 005e 9954     		strb	r1, [r3, r2]
1900:Drivers/STM32F0xx_HAL_Driver/Src/stm32f0xx_hal_i2c.c **** 
1901:Drivers/STM32F0xx_HAL_Driver/Src/stm32f0xx_hal_i2c.c ****     /* Init tickstart for timeout management*/
1902:Drivers/STM32F0xx_HAL_Driver/Src/stm32f0xx_hal_i2c.c ****     tickstart = HAL_GetTick();
 4149              		.loc 1 1902 17 is_stmt 1 discriminator 2
 4150 0060 FFF7FEFF 		bl	HAL_GetTick
 4151 0064 0300     		movs	r3, r0
 4152 0066 7B61     		str	r3, [r7, #20]
1903:Drivers/STM32F0xx_HAL_Driver/Src/stm32f0xx_hal_i2c.c **** 
1904:Drivers/STM32F0xx_HAL_Driver/Src/stm32f0xx_hal_i2c.c ****     if (I2C_WaitOnFlagUntilTimeout(hi2c, I2C_FLAG_BUSY, SET, I2C_TIMEOUT_BUSY, tickstart) != HAL_OK
 4153              		.loc 1 1904 9 discriminator 2
 4154 0068 8023     		movs	r3, #128
 4155 006a 1902     		lsls	r1, r3, #8
 4156 006c F868     		ldr	r0, [r7, #12]
 4157 006e 7B69     		ldr	r3, [r7, #20]
 4158 0070 0093     		str	r3, [sp]
 4159 0072 1923     		movs	r3, #25
 4160 0074 0122     		movs	r2, #1
 4161 0076 FFF7FEFF 		bl	I2C_WaitOnFlagUntilTimeout
 4162 007a 031E     		subs	r3, r0, #0
 4163              		.loc 1 1904 8 discriminator 2
 4164 007c 01D0     		beq	.L181
1905:Drivers/STM32F0xx_HAL_Driver/Src/stm32f0xx_hal_i2c.c ****     {
ARM GAS  C:\Users\ADMINI~1\AppData\Local\Temp\cc3zYV2m.s 			page 107


1906:Drivers/STM32F0xx_HAL_Driver/Src/stm32f0xx_hal_i2c.c ****       return HAL_TIMEOUT;
 4165              		.loc 1 1906 14
 4166 007e 0323     		movs	r3, #3
 4167 0080 F7E0     		b	.L179
 4168              	.L181:
1907:Drivers/STM32F0xx_HAL_Driver/Src/stm32f0xx_hal_i2c.c ****     }
1908:Drivers/STM32F0xx_HAL_Driver/Src/stm32f0xx_hal_i2c.c **** 
1909:Drivers/STM32F0xx_HAL_Driver/Src/stm32f0xx_hal_i2c.c ****     hi2c->State     = HAL_I2C_STATE_BUSY_RX;
 4169              		.loc 1 1909 21
 4170 0082 FB68     		ldr	r3, [r7, #12]
 4171 0084 4122     		movs	r2, #65
 4172 0086 2221     		movs	r1, #34
 4173 0088 9954     		strb	r1, [r3, r2]
1910:Drivers/STM32F0xx_HAL_Driver/Src/stm32f0xx_hal_i2c.c ****     hi2c->Mode      = HAL_I2C_MODE_MEM;
 4174              		.loc 1 1910 21
 4175 008a FB68     		ldr	r3, [r7, #12]
 4176 008c 4222     		movs	r2, #66
 4177 008e 4021     		movs	r1, #64
 4178 0090 9954     		strb	r1, [r3, r2]
1911:Drivers/STM32F0xx_HAL_Driver/Src/stm32f0xx_hal_i2c.c ****     hi2c->ErrorCode = HAL_I2C_ERROR_NONE;
 4179              		.loc 1 1911 21
 4180 0092 FB68     		ldr	r3, [r7, #12]
 4181 0094 0022     		movs	r2, #0
 4182 0096 5A64     		str	r2, [r3, #68]
1912:Drivers/STM32F0xx_HAL_Driver/Src/stm32f0xx_hal_i2c.c **** 
1913:Drivers/STM32F0xx_HAL_Driver/Src/stm32f0xx_hal_i2c.c ****     /* Prepare transfer parameters */
1914:Drivers/STM32F0xx_HAL_Driver/Src/stm32f0xx_hal_i2c.c ****     hi2c->pBuffPtr  = pData;
 4183              		.loc 1 1914 21
 4184 0098 FB68     		ldr	r3, [r7, #12]
 4185 009a BA6A     		ldr	r2, [r7, #40]
 4186 009c 5A62     		str	r2, [r3, #36]
1915:Drivers/STM32F0xx_HAL_Driver/Src/stm32f0xx_hal_i2c.c ****     hi2c->XferCount = Size;
 4187              		.loc 1 1915 21
 4188 009e FB68     		ldr	r3, [r7, #12]
 4189 00a0 2C22     		movs	r2, #44
 4190 00a2 BA18     		adds	r2, r7, r2
 4191 00a4 1288     		ldrh	r2, [r2]
 4192 00a6 5A85     		strh	r2, [r3, #42]
1916:Drivers/STM32F0xx_HAL_Driver/Src/stm32f0xx_hal_i2c.c ****     hi2c->XferISR   = NULL;
 4193              		.loc 1 1916 21
 4194 00a8 FB68     		ldr	r3, [r7, #12]
 4195 00aa 0022     		movs	r2, #0
 4196 00ac 5A63     		str	r2, [r3, #52]
1917:Drivers/STM32F0xx_HAL_Driver/Src/stm32f0xx_hal_i2c.c **** 
1918:Drivers/STM32F0xx_HAL_Driver/Src/stm32f0xx_hal_i2c.c ****     /* Send Slave Address and Memory Address */
1919:Drivers/STM32F0xx_HAL_Driver/Src/stm32f0xx_hal_i2c.c ****     if (I2C_RequestMemoryRead(hi2c, DevAddress, MemAddress, MemAddSize, Timeout, tickstart) != HAL_
 4197              		.loc 1 1919 9
 4198 00ae BB1D     		adds	r3, r7, #6
 4199 00b0 1C88     		ldrh	r4, [r3]
 4200 00b2 0823     		movs	r3, #8
 4201 00b4 FB18     		adds	r3, r7, r3
 4202 00b6 1A88     		ldrh	r2, [r3]
 4203 00b8 0A23     		movs	r3, #10
 4204 00ba FB18     		adds	r3, r7, r3
 4205 00bc 1988     		ldrh	r1, [r3]
 4206 00be F868     		ldr	r0, [r7, #12]
 4207 00c0 7B69     		ldr	r3, [r7, #20]
ARM GAS  C:\Users\ADMINI~1\AppData\Local\Temp\cc3zYV2m.s 			page 108


 4208 00c2 0193     		str	r3, [sp, #4]
 4209 00c4 3B6B     		ldr	r3, [r7, #48]
 4210 00c6 0093     		str	r3, [sp]
 4211 00c8 2300     		movs	r3, r4
 4212 00ca FFF7FEFF 		bl	I2C_RequestMemoryRead
 4213 00ce 031E     		subs	r3, r0, #0
 4214              		.loc 1 1919 8
 4215 00d0 0FD0     		beq	.L182
1920:Drivers/STM32F0xx_HAL_Driver/Src/stm32f0xx_hal_i2c.c ****     {
1921:Drivers/STM32F0xx_HAL_Driver/Src/stm32f0xx_hal_i2c.c ****       if (hi2c->ErrorCode == HAL_I2C_ERROR_AF)
 4216              		.loc 1 1921 15
 4217 00d2 FB68     		ldr	r3, [r7, #12]
 4218 00d4 5B6C     		ldr	r3, [r3, #68]
 4219              		.loc 1 1921 10
 4220 00d6 042B     		cmp	r3, #4
 4221 00d8 05D1     		bne	.L183
1922:Drivers/STM32F0xx_HAL_Driver/Src/stm32f0xx_hal_i2c.c ****       {
1923:Drivers/STM32F0xx_HAL_Driver/Src/stm32f0xx_hal_i2c.c ****         /* Process Unlocked */
1924:Drivers/STM32F0xx_HAL_Driver/Src/stm32f0xx_hal_i2c.c ****         __HAL_UNLOCK(hi2c);
 4222              		.loc 1 1924 9
 4223 00da FB68     		ldr	r3, [r7, #12]
 4224 00dc 4022     		movs	r2, #64
 4225 00de 0021     		movs	r1, #0
 4226 00e0 9954     		strb	r1, [r3, r2]
1925:Drivers/STM32F0xx_HAL_Driver/Src/stm32f0xx_hal_i2c.c ****         return HAL_ERROR;
 4227              		.loc 1 1925 16
 4228 00e2 0123     		movs	r3, #1
 4229 00e4 C5E0     		b	.L179
 4230              	.L183:
1926:Drivers/STM32F0xx_HAL_Driver/Src/stm32f0xx_hal_i2c.c ****       }
1927:Drivers/STM32F0xx_HAL_Driver/Src/stm32f0xx_hal_i2c.c ****       else
1928:Drivers/STM32F0xx_HAL_Driver/Src/stm32f0xx_hal_i2c.c ****       {
1929:Drivers/STM32F0xx_HAL_Driver/Src/stm32f0xx_hal_i2c.c ****         /* Process Unlocked */
1930:Drivers/STM32F0xx_HAL_Driver/Src/stm32f0xx_hal_i2c.c ****         __HAL_UNLOCK(hi2c);
 4231              		.loc 1 1930 9
 4232 00e6 FB68     		ldr	r3, [r7, #12]
 4233 00e8 4022     		movs	r2, #64
 4234 00ea 0021     		movs	r1, #0
 4235 00ec 9954     		strb	r1, [r3, r2]
1931:Drivers/STM32F0xx_HAL_Driver/Src/stm32f0xx_hal_i2c.c ****         return HAL_TIMEOUT;
 4236              		.loc 1 1931 16
 4237 00ee 0323     		movs	r3, #3
 4238 00f0 BFE0     		b	.L179
 4239              	.L182:
1932:Drivers/STM32F0xx_HAL_Driver/Src/stm32f0xx_hal_i2c.c ****       }
1933:Drivers/STM32F0xx_HAL_Driver/Src/stm32f0xx_hal_i2c.c ****     }
1934:Drivers/STM32F0xx_HAL_Driver/Src/stm32f0xx_hal_i2c.c **** 
1935:Drivers/STM32F0xx_HAL_Driver/Src/stm32f0xx_hal_i2c.c ****     /* Send Slave Address */
1936:Drivers/STM32F0xx_HAL_Driver/Src/stm32f0xx_hal_i2c.c ****     /* Set NBYTES to write and reload if hi2c->XferCount > MAX_NBYTE_SIZE and generate RESTART */
1937:Drivers/STM32F0xx_HAL_Driver/Src/stm32f0xx_hal_i2c.c ****     if (hi2c->XferCount > MAX_NBYTE_SIZE)
 4240              		.loc 1 1937 13
 4241 00f2 FB68     		ldr	r3, [r7, #12]
 4242 00f4 5B8D     		ldrh	r3, [r3, #42]
 4243 00f6 9BB2     		uxth	r3, r3
 4244              		.loc 1 1937 8
 4245 00f8 FF2B     		cmp	r3, #255
 4246 00fa 12D9     		bls	.L184
ARM GAS  C:\Users\ADMINI~1\AppData\Local\Temp\cc3zYV2m.s 			page 109


1938:Drivers/STM32F0xx_HAL_Driver/Src/stm32f0xx_hal_i2c.c ****     {
1939:Drivers/STM32F0xx_HAL_Driver/Src/stm32f0xx_hal_i2c.c ****       hi2c->XferSize = MAX_NBYTE_SIZE;
 4247              		.loc 1 1939 22
 4248 00fc FB68     		ldr	r3, [r7, #12]
 4249 00fe FF22     		movs	r2, #255
 4250 0100 1A85     		strh	r2, [r3, #40]
1940:Drivers/STM32F0xx_HAL_Driver/Src/stm32f0xx_hal_i2c.c ****       I2C_TransferConfig(hi2c, DevAddress, hi2c->XferSize, I2C_RELOAD_MODE, I2C_GENERATE_START_READ
 4251              		.loc 1 1940 48
 4252 0102 FB68     		ldr	r3, [r7, #12]
 4253 0104 1B8D     		ldrh	r3, [r3, #40]
 4254              		.loc 1 1940 7
 4255 0106 DAB2     		uxtb	r2, r3
 4256 0108 8023     		movs	r3, #128
 4257 010a 5C04     		lsls	r4, r3, #17
 4258 010c 0A23     		movs	r3, #10
 4259 010e FB18     		adds	r3, r7, r3
 4260 0110 1988     		ldrh	r1, [r3]
 4261 0112 F868     		ldr	r0, [r7, #12]
 4262 0114 9023     		movs	r3, #144
 4263 0116 9B01     		lsls	r3, r3, #6
 4264 0118 0093     		str	r3, [sp]
 4265 011a 2300     		movs	r3, r4
 4266 011c FFF7FEFF 		bl	I2C_TransferConfig
 4267 0120 13E0     		b	.L190
 4268              	.L184:
1941:Drivers/STM32F0xx_HAL_Driver/Src/stm32f0xx_hal_i2c.c ****     }
1942:Drivers/STM32F0xx_HAL_Driver/Src/stm32f0xx_hal_i2c.c ****     else
1943:Drivers/STM32F0xx_HAL_Driver/Src/stm32f0xx_hal_i2c.c ****     {
1944:Drivers/STM32F0xx_HAL_Driver/Src/stm32f0xx_hal_i2c.c ****       hi2c->XferSize = hi2c->XferCount;
 4269              		.loc 1 1944 28
 4270 0122 FB68     		ldr	r3, [r7, #12]
 4271 0124 5B8D     		ldrh	r3, [r3, #42]
 4272 0126 9AB2     		uxth	r2, r3
 4273              		.loc 1 1944 22
 4274 0128 FB68     		ldr	r3, [r7, #12]
 4275 012a 1A85     		strh	r2, [r3, #40]
1945:Drivers/STM32F0xx_HAL_Driver/Src/stm32f0xx_hal_i2c.c ****       I2C_TransferConfig(hi2c, DevAddress, hi2c->XferSize, I2C_AUTOEND_MODE, I2C_GENERATE_START_REA
 4276              		.loc 1 1945 48
 4277 012c FB68     		ldr	r3, [r7, #12]
 4278 012e 1B8D     		ldrh	r3, [r3, #40]
 4279              		.loc 1 1945 7
 4280 0130 DAB2     		uxtb	r2, r3
 4281 0132 8023     		movs	r3, #128
 4282 0134 9C04     		lsls	r4, r3, #18
 4283 0136 0A23     		movs	r3, #10
 4284 0138 FB18     		adds	r3, r7, r3
 4285 013a 1988     		ldrh	r1, [r3]
 4286 013c F868     		ldr	r0, [r7, #12]
 4287 013e 9023     		movs	r3, #144
 4288 0140 9B01     		lsls	r3, r3, #6
 4289 0142 0093     		str	r3, [sp]
 4290 0144 2300     		movs	r3, r4
 4291 0146 FFF7FEFF 		bl	I2C_TransferConfig
 4292              	.L190:
1946:Drivers/STM32F0xx_HAL_Driver/Src/stm32f0xx_hal_i2c.c ****     }
1947:Drivers/STM32F0xx_HAL_Driver/Src/stm32f0xx_hal_i2c.c **** 
1948:Drivers/STM32F0xx_HAL_Driver/Src/stm32f0xx_hal_i2c.c ****     do
ARM GAS  C:\Users\ADMINI~1\AppData\Local\Temp\cc3zYV2m.s 			page 110


1949:Drivers/STM32F0xx_HAL_Driver/Src/stm32f0xx_hal_i2c.c ****     {
1950:Drivers/STM32F0xx_HAL_Driver/Src/stm32f0xx_hal_i2c.c ****       /* Wait until RXNE flag is set */
1951:Drivers/STM32F0xx_HAL_Driver/Src/stm32f0xx_hal_i2c.c ****       if (I2C_WaitOnFlagUntilTimeout(hi2c, I2C_FLAG_RXNE, RESET, Timeout, tickstart) != HAL_OK)
 4293              		.loc 1 1951 11
 4294 014a 3A6B     		ldr	r2, [r7, #48]
 4295 014c F868     		ldr	r0, [r7, #12]
 4296 014e 7B69     		ldr	r3, [r7, #20]
 4297 0150 0093     		str	r3, [sp]
 4298 0152 1300     		movs	r3, r2
 4299 0154 0022     		movs	r2, #0
 4300 0156 0421     		movs	r1, #4
 4301 0158 FFF7FEFF 		bl	I2C_WaitOnFlagUntilTimeout
 4302 015c 031E     		subs	r3, r0, #0
 4303              		.loc 1 1951 10
 4304 015e 01D0     		beq	.L186
1952:Drivers/STM32F0xx_HAL_Driver/Src/stm32f0xx_hal_i2c.c ****       {
1953:Drivers/STM32F0xx_HAL_Driver/Src/stm32f0xx_hal_i2c.c ****         return HAL_TIMEOUT;
 4305              		.loc 1 1953 16
 4306 0160 0323     		movs	r3, #3
 4307 0162 86E0     		b	.L179
 4308              	.L186:
1954:Drivers/STM32F0xx_HAL_Driver/Src/stm32f0xx_hal_i2c.c ****       }
1955:Drivers/STM32F0xx_HAL_Driver/Src/stm32f0xx_hal_i2c.c **** 
1956:Drivers/STM32F0xx_HAL_Driver/Src/stm32f0xx_hal_i2c.c ****       /* Read data from RXDR */
1957:Drivers/STM32F0xx_HAL_Driver/Src/stm32f0xx_hal_i2c.c ****       (*hi2c->pBuffPtr++) = hi2c->Instance->RXDR;
 4309              		.loc 1 1957 33
 4310 0164 FB68     		ldr	r3, [r7, #12]
 4311 0166 1B68     		ldr	r3, [r3]
 4312              		.loc 1 1957 43
 4313 0168 586A     		ldr	r0, [r3, #36]
 4314              		.loc 1 1957 13
 4315 016a FB68     		ldr	r3, [r7, #12]
 4316 016c 5B6A     		ldr	r3, [r3, #36]
 4317              		.loc 1 1957 23
 4318 016e 591C     		adds	r1, r3, #1
 4319 0170 FA68     		ldr	r2, [r7, #12]
 4320 0172 5162     		str	r1, [r2, #36]
 4321              		.loc 1 1957 27
 4322 0174 C2B2     		uxtb	r2, r0
 4323 0176 1A70     		strb	r2, [r3]
1958:Drivers/STM32F0xx_HAL_Driver/Src/stm32f0xx_hal_i2c.c ****       hi2c->XferSize--;
 4324              		.loc 1 1958 11
 4325 0178 FB68     		ldr	r3, [r7, #12]
 4326 017a 1B8D     		ldrh	r3, [r3, #40]
 4327              		.loc 1 1958 21
 4328 017c 013B     		subs	r3, r3, #1
 4329 017e 9AB2     		uxth	r2, r3
 4330 0180 FB68     		ldr	r3, [r7, #12]
 4331 0182 1A85     		strh	r2, [r3, #40]
1959:Drivers/STM32F0xx_HAL_Driver/Src/stm32f0xx_hal_i2c.c ****       hi2c->XferCount--;
 4332              		.loc 1 1959 11
 4333 0184 FB68     		ldr	r3, [r7, #12]
 4334 0186 5B8D     		ldrh	r3, [r3, #42]
 4335 0188 9BB2     		uxth	r3, r3
 4336              		.loc 1 1959 22
 4337 018a 013B     		subs	r3, r3, #1
 4338 018c 9AB2     		uxth	r2, r3
ARM GAS  C:\Users\ADMINI~1\AppData\Local\Temp\cc3zYV2m.s 			page 111


 4339 018e FB68     		ldr	r3, [r7, #12]
 4340 0190 5A85     		strh	r2, [r3, #42]
1960:Drivers/STM32F0xx_HAL_Driver/Src/stm32f0xx_hal_i2c.c **** 
1961:Drivers/STM32F0xx_HAL_Driver/Src/stm32f0xx_hal_i2c.c ****       if ((hi2c->XferSize == 0U) && (hi2c->XferCount != 0U))
 4341              		.loc 1 1961 16
 4342 0192 FB68     		ldr	r3, [r7, #12]
 4343 0194 1B8D     		ldrh	r3, [r3, #40]
 4344              		.loc 1 1961 10
 4345 0196 002B     		cmp	r3, #0
 4346 0198 3BD1     		bne	.L187
 4347              		.loc 1 1961 42 discriminator 1
 4348 019a FB68     		ldr	r3, [r7, #12]
 4349 019c 5B8D     		ldrh	r3, [r3, #42]
 4350 019e 9BB2     		uxth	r3, r3
 4351              		.loc 1 1961 34 discriminator 1
 4352 01a0 002B     		cmp	r3, #0
 4353 01a2 36D0     		beq	.L187
1962:Drivers/STM32F0xx_HAL_Driver/Src/stm32f0xx_hal_i2c.c ****       {
1963:Drivers/STM32F0xx_HAL_Driver/Src/stm32f0xx_hal_i2c.c ****         /* Wait until TCR flag is set */
1964:Drivers/STM32F0xx_HAL_Driver/Src/stm32f0xx_hal_i2c.c ****         if (I2C_WaitOnFlagUntilTimeout(hi2c, I2C_FLAG_TCR, RESET, Timeout, tickstart) != HAL_OK)
 4354              		.loc 1 1964 13
 4355 01a4 3A6B     		ldr	r2, [r7, #48]
 4356 01a6 F868     		ldr	r0, [r7, #12]
 4357 01a8 7B69     		ldr	r3, [r7, #20]
 4358 01aa 0093     		str	r3, [sp]
 4359 01ac 1300     		movs	r3, r2
 4360 01ae 0022     		movs	r2, #0
 4361 01b0 8021     		movs	r1, #128
 4362 01b2 FFF7FEFF 		bl	I2C_WaitOnFlagUntilTimeout
 4363 01b6 031E     		subs	r3, r0, #0
 4364              		.loc 1 1964 12
 4365 01b8 01D0     		beq	.L188
1965:Drivers/STM32F0xx_HAL_Driver/Src/stm32f0xx_hal_i2c.c ****         {
1966:Drivers/STM32F0xx_HAL_Driver/Src/stm32f0xx_hal_i2c.c ****           return HAL_TIMEOUT;
 4366              		.loc 1 1966 18
 4367 01ba 0323     		movs	r3, #3
 4368 01bc 59E0     		b	.L179
 4369              	.L188:
1967:Drivers/STM32F0xx_HAL_Driver/Src/stm32f0xx_hal_i2c.c ****         }
1968:Drivers/STM32F0xx_HAL_Driver/Src/stm32f0xx_hal_i2c.c **** 
1969:Drivers/STM32F0xx_HAL_Driver/Src/stm32f0xx_hal_i2c.c ****         if (hi2c->XferCount > MAX_NBYTE_SIZE)
 4370              		.loc 1 1969 17
 4371 01be FB68     		ldr	r3, [r7, #12]
 4372 01c0 5B8D     		ldrh	r3, [r3, #42]
 4373 01c2 9BB2     		uxth	r3, r3
 4374              		.loc 1 1969 12
 4375 01c4 FF2B     		cmp	r3, #255
 4376 01c6 11D9     		bls	.L189
1970:Drivers/STM32F0xx_HAL_Driver/Src/stm32f0xx_hal_i2c.c ****         {
1971:Drivers/STM32F0xx_HAL_Driver/Src/stm32f0xx_hal_i2c.c ****           hi2c->XferSize = MAX_NBYTE_SIZE;
 4377              		.loc 1 1971 26
 4378 01c8 FB68     		ldr	r3, [r7, #12]
 4379 01ca FF22     		movs	r2, #255
 4380 01cc 1A85     		strh	r2, [r3, #40]
1972:Drivers/STM32F0xx_HAL_Driver/Src/stm32f0xx_hal_i2c.c ****           I2C_TransferConfig(hi2c, DevAddress, hi2c->XferSize, I2C_RELOAD_MODE, I2C_NO_STARTSTOP);
 4381              		.loc 1 1972 52
 4382 01ce FB68     		ldr	r3, [r7, #12]
ARM GAS  C:\Users\ADMINI~1\AppData\Local\Temp\cc3zYV2m.s 			page 112


 4383 01d0 1B8D     		ldrh	r3, [r3, #40]
 4384              		.loc 1 1972 11
 4385 01d2 DAB2     		uxtb	r2, r3
 4386 01d4 8023     		movs	r3, #128
 4387 01d6 5C04     		lsls	r4, r3, #17
 4388 01d8 0A23     		movs	r3, #10
 4389 01da FB18     		adds	r3, r7, r3
 4390 01dc 1988     		ldrh	r1, [r3]
 4391 01de F868     		ldr	r0, [r7, #12]
 4392 01e0 0023     		movs	r3, #0
 4393 01e2 0093     		str	r3, [sp]
 4394 01e4 2300     		movs	r3, r4
 4395 01e6 FFF7FEFF 		bl	I2C_TransferConfig
 4396 01ea 12E0     		b	.L187
 4397              	.L189:
1973:Drivers/STM32F0xx_HAL_Driver/Src/stm32f0xx_hal_i2c.c ****         }
1974:Drivers/STM32F0xx_HAL_Driver/Src/stm32f0xx_hal_i2c.c ****         else
1975:Drivers/STM32F0xx_HAL_Driver/Src/stm32f0xx_hal_i2c.c ****         {
1976:Drivers/STM32F0xx_HAL_Driver/Src/stm32f0xx_hal_i2c.c ****           hi2c->XferSize = hi2c->XferCount;
 4398              		.loc 1 1976 32
 4399 01ec FB68     		ldr	r3, [r7, #12]
 4400 01ee 5B8D     		ldrh	r3, [r3, #42]
 4401 01f0 9AB2     		uxth	r2, r3
 4402              		.loc 1 1976 26
 4403 01f2 FB68     		ldr	r3, [r7, #12]
 4404 01f4 1A85     		strh	r2, [r3, #40]
1977:Drivers/STM32F0xx_HAL_Driver/Src/stm32f0xx_hal_i2c.c ****           I2C_TransferConfig(hi2c, DevAddress, hi2c->XferSize, I2C_AUTOEND_MODE, I2C_NO_STARTSTOP);
 4405              		.loc 1 1977 52
 4406 01f6 FB68     		ldr	r3, [r7, #12]
 4407 01f8 1B8D     		ldrh	r3, [r3, #40]
 4408              		.loc 1 1977 11
 4409 01fa DAB2     		uxtb	r2, r3
 4410 01fc 8023     		movs	r3, #128
 4411 01fe 9C04     		lsls	r4, r3, #18
 4412 0200 0A23     		movs	r3, #10
 4413 0202 FB18     		adds	r3, r7, r3
 4414 0204 1988     		ldrh	r1, [r3]
 4415 0206 F868     		ldr	r0, [r7, #12]
 4416 0208 0023     		movs	r3, #0
 4417 020a 0093     		str	r3, [sp]
 4418 020c 2300     		movs	r3, r4
 4419 020e FFF7FEFF 		bl	I2C_TransferConfig
 4420              	.L187:
1978:Drivers/STM32F0xx_HAL_Driver/Src/stm32f0xx_hal_i2c.c ****         }
1979:Drivers/STM32F0xx_HAL_Driver/Src/stm32f0xx_hal_i2c.c ****       }
1980:Drivers/STM32F0xx_HAL_Driver/Src/stm32f0xx_hal_i2c.c ****     }
1981:Drivers/STM32F0xx_HAL_Driver/Src/stm32f0xx_hal_i2c.c ****     while (hi2c->XferCount > 0U);
 4421              		.loc 1 1981 16
 4422 0212 FB68     		ldr	r3, [r7, #12]
 4423 0214 5B8D     		ldrh	r3, [r3, #42]
 4424 0216 9BB2     		uxth	r3, r3
 4425              		.loc 1 1981 5
 4426 0218 002B     		cmp	r3, #0
 4427 021a 96D1     		bne	.L190
1982:Drivers/STM32F0xx_HAL_Driver/Src/stm32f0xx_hal_i2c.c **** 
1983:Drivers/STM32F0xx_HAL_Driver/Src/stm32f0xx_hal_i2c.c ****     /* No need to Check TC flag, with AUTOEND mode the stop is automatically generated */
1984:Drivers/STM32F0xx_HAL_Driver/Src/stm32f0xx_hal_i2c.c ****     /* Wait until STOPF flag is reset */
ARM GAS  C:\Users\ADMINI~1\AppData\Local\Temp\cc3zYV2m.s 			page 113


1985:Drivers/STM32F0xx_HAL_Driver/Src/stm32f0xx_hal_i2c.c ****     if (I2C_WaitOnSTOPFlagUntilTimeout(hi2c, Timeout, tickstart) != HAL_OK)
 4428              		.loc 1 1985 9
 4429 021c 7A69     		ldr	r2, [r7, #20]
 4430 021e 396B     		ldr	r1, [r7, #48]
 4431 0220 FB68     		ldr	r3, [r7, #12]
 4432 0222 1800     		movs	r0, r3
 4433 0224 FFF7FEFF 		bl	I2C_WaitOnSTOPFlagUntilTimeout
 4434 0228 031E     		subs	r3, r0, #0
 4435              		.loc 1 1985 8
 4436 022a 07D0     		beq	.L191
1986:Drivers/STM32F0xx_HAL_Driver/Src/stm32f0xx_hal_i2c.c ****     {
1987:Drivers/STM32F0xx_HAL_Driver/Src/stm32f0xx_hal_i2c.c ****       if (hi2c->ErrorCode == HAL_I2C_ERROR_AF)
 4437              		.loc 1 1987 15
 4438 022c FB68     		ldr	r3, [r7, #12]
 4439 022e 5B6C     		ldr	r3, [r3, #68]
 4440              		.loc 1 1987 10
 4441 0230 042B     		cmp	r3, #4
 4442 0232 01D1     		bne	.L192
1988:Drivers/STM32F0xx_HAL_Driver/Src/stm32f0xx_hal_i2c.c ****       {
1989:Drivers/STM32F0xx_HAL_Driver/Src/stm32f0xx_hal_i2c.c ****         return HAL_ERROR;
 4443              		.loc 1 1989 16
 4444 0234 0123     		movs	r3, #1
 4445 0236 1CE0     		b	.L179
 4446              	.L192:
1990:Drivers/STM32F0xx_HAL_Driver/Src/stm32f0xx_hal_i2c.c ****       }
1991:Drivers/STM32F0xx_HAL_Driver/Src/stm32f0xx_hal_i2c.c ****       else
1992:Drivers/STM32F0xx_HAL_Driver/Src/stm32f0xx_hal_i2c.c ****       {
1993:Drivers/STM32F0xx_HAL_Driver/Src/stm32f0xx_hal_i2c.c ****         return HAL_TIMEOUT;
 4447              		.loc 1 1993 16
 4448 0238 0323     		movs	r3, #3
 4449 023a 1AE0     		b	.L179
 4450              	.L191:
1994:Drivers/STM32F0xx_HAL_Driver/Src/stm32f0xx_hal_i2c.c ****       }
1995:Drivers/STM32F0xx_HAL_Driver/Src/stm32f0xx_hal_i2c.c ****     }
1996:Drivers/STM32F0xx_HAL_Driver/Src/stm32f0xx_hal_i2c.c **** 
1997:Drivers/STM32F0xx_HAL_Driver/Src/stm32f0xx_hal_i2c.c ****     /* Clear STOP Flag */
1998:Drivers/STM32F0xx_HAL_Driver/Src/stm32f0xx_hal_i2c.c ****     __HAL_I2C_CLEAR_FLAG(hi2c, I2C_FLAG_STOPF);
 4451              		.loc 1 1998 5
 4452 023c FB68     		ldr	r3, [r7, #12]
 4453 023e 1B68     		ldr	r3, [r3]
 4454 0240 2022     		movs	r2, #32
 4455 0242 DA61     		str	r2, [r3, #28]
1999:Drivers/STM32F0xx_HAL_Driver/Src/stm32f0xx_hal_i2c.c **** 
2000:Drivers/STM32F0xx_HAL_Driver/Src/stm32f0xx_hal_i2c.c ****     /* Clear Configuration Register 2 */
2001:Drivers/STM32F0xx_HAL_Driver/Src/stm32f0xx_hal_i2c.c ****     I2C_RESET_CR2(hi2c);
 4456              		.loc 1 2001 5
 4457 0244 FB68     		ldr	r3, [r7, #12]
 4458 0246 1B68     		ldr	r3, [r3]
 4459 0248 5A68     		ldr	r2, [r3, #4]
 4460 024a FB68     		ldr	r3, [r7, #12]
 4461 024c 1B68     		ldr	r3, [r3]
 4462 024e 0B49     		ldr	r1, .L193
 4463 0250 0A40     		ands	r2, r1
 4464 0252 5A60     		str	r2, [r3, #4]
2002:Drivers/STM32F0xx_HAL_Driver/Src/stm32f0xx_hal_i2c.c **** 
2003:Drivers/STM32F0xx_HAL_Driver/Src/stm32f0xx_hal_i2c.c ****     hi2c->State = HAL_I2C_STATE_READY;
 4465              		.loc 1 2003 17
ARM GAS  C:\Users\ADMINI~1\AppData\Local\Temp\cc3zYV2m.s 			page 114


 4466 0254 FB68     		ldr	r3, [r7, #12]
 4467 0256 4122     		movs	r2, #65
 4468 0258 2021     		movs	r1, #32
 4469 025a 9954     		strb	r1, [r3, r2]
2004:Drivers/STM32F0xx_HAL_Driver/Src/stm32f0xx_hal_i2c.c ****     hi2c->Mode  = HAL_I2C_MODE_NONE;
 4470              		.loc 1 2004 17
 4471 025c FB68     		ldr	r3, [r7, #12]
 4472 025e 4222     		movs	r2, #66
 4473 0260 0021     		movs	r1, #0
 4474 0262 9954     		strb	r1, [r3, r2]
2005:Drivers/STM32F0xx_HAL_Driver/Src/stm32f0xx_hal_i2c.c **** 
2006:Drivers/STM32F0xx_HAL_Driver/Src/stm32f0xx_hal_i2c.c ****     /* Process Unlocked */
2007:Drivers/STM32F0xx_HAL_Driver/Src/stm32f0xx_hal_i2c.c ****     __HAL_UNLOCK(hi2c);
 4475              		.loc 1 2007 5
 4476 0264 FB68     		ldr	r3, [r7, #12]
 4477 0266 4022     		movs	r2, #64
 4478 0268 0021     		movs	r1, #0
 4479 026a 9954     		strb	r1, [r3, r2]
2008:Drivers/STM32F0xx_HAL_Driver/Src/stm32f0xx_hal_i2c.c **** 
2009:Drivers/STM32F0xx_HAL_Driver/Src/stm32f0xx_hal_i2c.c ****     return HAL_OK;
 4480              		.loc 1 2009 12
 4481 026c 0023     		movs	r3, #0
 4482 026e 00E0     		b	.L179
 4483              	.L176:
2010:Drivers/STM32F0xx_HAL_Driver/Src/stm32f0xx_hal_i2c.c ****   }
2011:Drivers/STM32F0xx_HAL_Driver/Src/stm32f0xx_hal_i2c.c ****   else
2012:Drivers/STM32F0xx_HAL_Driver/Src/stm32f0xx_hal_i2c.c ****   {
2013:Drivers/STM32F0xx_HAL_Driver/Src/stm32f0xx_hal_i2c.c ****     return HAL_BUSY;
 4484              		.loc 1 2013 12
 4485 0270 0223     		movs	r3, #2
 4486              	.L179:
2014:Drivers/STM32F0xx_HAL_Driver/Src/stm32f0xx_hal_i2c.c ****   }
2015:Drivers/STM32F0xx_HAL_Driver/Src/stm32f0xx_hal_i2c.c **** }
 4487              		.loc 1 2015 1
 4488 0272 1800     		movs	r0, r3
 4489 0274 BD46     		mov	sp, r7
 4490 0276 07B0     		add	sp, sp, #28
 4491              		@ sp needed
 4492 0278 90BD     		pop	{r4, r7, pc}
 4493              	.L194:
 4494 027a C046     		.align	2
 4495              	.L193:
 4496 027c 00E800FE 		.word	-33495040
 4497              		.cfi_endproc
 4498              	.LFE54:
 4500              		.section	.text.HAL_I2C_Mem_Write_IT,"ax",%progbits
 4501              		.align	1
 4502              		.global	HAL_I2C_Mem_Write_IT
 4503              		.syntax unified
 4504              		.code	16
 4505              		.thumb_func
 4506              		.fpu softvfp
 4508              	HAL_I2C_Mem_Write_IT:
 4509              	.LFB55:
2016:Drivers/STM32F0xx_HAL_Driver/Src/stm32f0xx_hal_i2c.c **** /**
2017:Drivers/STM32F0xx_HAL_Driver/Src/stm32f0xx_hal_i2c.c ****   * @brief  Write an amount of data in non-blocking mode with Interrupt to a specific memory addres
2018:Drivers/STM32F0xx_HAL_Driver/Src/stm32f0xx_hal_i2c.c ****   * @param  hi2c Pointer to a I2C_HandleTypeDef structure that contains
ARM GAS  C:\Users\ADMINI~1\AppData\Local\Temp\cc3zYV2m.s 			page 115


2019:Drivers/STM32F0xx_HAL_Driver/Src/stm32f0xx_hal_i2c.c ****   *                the configuration information for the specified I2C.
2020:Drivers/STM32F0xx_HAL_Driver/Src/stm32f0xx_hal_i2c.c ****   * @param  DevAddress Target device address: The device 7 bits address value
2021:Drivers/STM32F0xx_HAL_Driver/Src/stm32f0xx_hal_i2c.c ****   *         in datasheet must be shift at right before call interface
2022:Drivers/STM32F0xx_HAL_Driver/Src/stm32f0xx_hal_i2c.c ****   * @param  MemAddress Internal memory address
2023:Drivers/STM32F0xx_HAL_Driver/Src/stm32f0xx_hal_i2c.c ****   * @param  MemAddSize Size of internal memory address
2024:Drivers/STM32F0xx_HAL_Driver/Src/stm32f0xx_hal_i2c.c ****   * @param  pData Pointer to data buffer
2025:Drivers/STM32F0xx_HAL_Driver/Src/stm32f0xx_hal_i2c.c ****   * @param  Size Amount of data to be sent
2026:Drivers/STM32F0xx_HAL_Driver/Src/stm32f0xx_hal_i2c.c ****   * @retval HAL status
2027:Drivers/STM32F0xx_HAL_Driver/Src/stm32f0xx_hal_i2c.c ****   */
2028:Drivers/STM32F0xx_HAL_Driver/Src/stm32f0xx_hal_i2c.c **** HAL_StatusTypeDef HAL_I2C_Mem_Write_IT(I2C_HandleTypeDef *hi2c, uint16_t DevAddress, uint16_t MemAd
2029:Drivers/STM32F0xx_HAL_Driver/Src/stm32f0xx_hal_i2c.c **** {
 4510              		.loc 1 2029 1
 4511              		.cfi_startproc
 4512              		@ args = 8, pretend = 0, frame = 24
 4513              		@ frame_needed = 1, uses_anonymous_args = 0
 4514 0000 90B5     		push	{r4, r7, lr}
 4515              	.LCFI54:
 4516              		.cfi_def_cfa_offset 12
 4517              		.cfi_offset 4, -12
 4518              		.cfi_offset 7, -8
 4519              		.cfi_offset 14, -4
 4520 0002 89B0     		sub	sp, sp, #36
 4521              	.LCFI55:
 4522              		.cfi_def_cfa_offset 48
 4523 0004 02AF     		add	r7, sp, #8
 4524              	.LCFI56:
 4525              		.cfi_def_cfa 7, 40
 4526 0006 F860     		str	r0, [r7, #12]
 4527 0008 0C00     		movs	r4, r1
 4528 000a 1000     		movs	r0, r2
 4529 000c 1900     		movs	r1, r3
 4530 000e 0A23     		movs	r3, #10
 4531 0010 FB18     		adds	r3, r7, r3
 4532 0012 221C     		adds	r2, r4, #0
 4533 0014 1A80     		strh	r2, [r3]
 4534 0016 0823     		movs	r3, #8
 4535 0018 FB18     		adds	r3, r7, r3
 4536 001a 021C     		adds	r2, r0, #0
 4537 001c 1A80     		strh	r2, [r3]
 4538 001e BB1D     		adds	r3, r7, #6
 4539 0020 0A1C     		adds	r2, r1, #0
 4540 0022 1A80     		strh	r2, [r3]
2030:Drivers/STM32F0xx_HAL_Driver/Src/stm32f0xx_hal_i2c.c ****   uint32_t tickstart = 0U;
 4541              		.loc 1 2030 12
 4542 0024 0023     		movs	r3, #0
 4543 0026 3B61     		str	r3, [r7, #16]
2031:Drivers/STM32F0xx_HAL_Driver/Src/stm32f0xx_hal_i2c.c ****   uint32_t xfermode = 0U;
 4544              		.loc 1 2031 12
 4545 0028 0023     		movs	r3, #0
 4546 002a 7B61     		str	r3, [r7, #20]
2032:Drivers/STM32F0xx_HAL_Driver/Src/stm32f0xx_hal_i2c.c **** 
2033:Drivers/STM32F0xx_HAL_Driver/Src/stm32f0xx_hal_i2c.c ****   /* Check the parameters */
2034:Drivers/STM32F0xx_HAL_Driver/Src/stm32f0xx_hal_i2c.c ****   assert_param(IS_I2C_MEMADD_SIZE(MemAddSize));
2035:Drivers/STM32F0xx_HAL_Driver/Src/stm32f0xx_hal_i2c.c **** 
2036:Drivers/STM32F0xx_HAL_Driver/Src/stm32f0xx_hal_i2c.c ****   if (hi2c->State == HAL_I2C_STATE_READY)
 4547              		.loc 1 2036 11
 4548 002c FB68     		ldr	r3, [r7, #12]
ARM GAS  C:\Users\ADMINI~1\AppData\Local\Temp\cc3zYV2m.s 			page 116


 4549 002e 4122     		movs	r2, #65
 4550 0030 9B5C     		ldrb	r3, [r3, r2]
 4551 0032 DBB2     		uxtb	r3, r3
 4552              		.loc 1 2036 6
 4553 0034 202B     		cmp	r3, #32
 4554 0036 00D0     		beq	.LCB3807
 4555 0038 8BE0     		b	.L196	@long jump
 4556              	.LCB3807:
2037:Drivers/STM32F0xx_HAL_Driver/Src/stm32f0xx_hal_i2c.c ****   {
2038:Drivers/STM32F0xx_HAL_Driver/Src/stm32f0xx_hal_i2c.c ****     if ((pData == NULL) || (Size == 0U))
 4557              		.loc 1 2038 8
 4558 003a BB6A     		ldr	r3, [r7, #40]
 4559 003c 002B     		cmp	r3, #0
 4560 003e 04D0     		beq	.L197
 4561              		.loc 1 2038 25 discriminator 1
 4562 0040 2C23     		movs	r3, #44
 4563 0042 FB18     		adds	r3, r7, r3
 4564 0044 1B88     		ldrh	r3, [r3]
 4565 0046 002B     		cmp	r3, #0
 4566 0048 01D1     		bne	.L198
 4567              	.L197:
2039:Drivers/STM32F0xx_HAL_Driver/Src/stm32f0xx_hal_i2c.c ****     {
2040:Drivers/STM32F0xx_HAL_Driver/Src/stm32f0xx_hal_i2c.c ****       return  HAL_ERROR;
 4568              		.loc 1 2040 15
 4569 004a 0123     		movs	r3, #1
 4570 004c 82E0     		b	.L199
 4571              	.L198:
2041:Drivers/STM32F0xx_HAL_Driver/Src/stm32f0xx_hal_i2c.c ****     }
2042:Drivers/STM32F0xx_HAL_Driver/Src/stm32f0xx_hal_i2c.c **** 
2043:Drivers/STM32F0xx_HAL_Driver/Src/stm32f0xx_hal_i2c.c ****     if (__HAL_I2C_GET_FLAG(hi2c, I2C_FLAG_BUSY) == SET)
 4572              		.loc 1 2043 9
 4573 004e FB68     		ldr	r3, [r7, #12]
 4574 0050 1B68     		ldr	r3, [r3]
 4575 0052 9A69     		ldr	r2, [r3, #24]
 4576 0054 8023     		movs	r3, #128
 4577 0056 1B02     		lsls	r3, r3, #8
 4578 0058 1A40     		ands	r2, r3
 4579              		.loc 1 2043 8
 4580 005a 8023     		movs	r3, #128
 4581 005c 1B02     		lsls	r3, r3, #8
 4582 005e 9A42     		cmp	r2, r3
 4583 0060 01D1     		bne	.L200
2044:Drivers/STM32F0xx_HAL_Driver/Src/stm32f0xx_hal_i2c.c ****     {
2045:Drivers/STM32F0xx_HAL_Driver/Src/stm32f0xx_hal_i2c.c ****       return HAL_BUSY;
 4584              		.loc 1 2045 14
 4585 0062 0223     		movs	r3, #2
 4586 0064 76E0     		b	.L199
 4587              	.L200:
2046:Drivers/STM32F0xx_HAL_Driver/Src/stm32f0xx_hal_i2c.c ****     }
2047:Drivers/STM32F0xx_HAL_Driver/Src/stm32f0xx_hal_i2c.c **** 
2048:Drivers/STM32F0xx_HAL_Driver/Src/stm32f0xx_hal_i2c.c ****     /* Process Locked */
2049:Drivers/STM32F0xx_HAL_Driver/Src/stm32f0xx_hal_i2c.c ****     __HAL_LOCK(hi2c);
 4588              		.loc 1 2049 5
 4589 0066 FB68     		ldr	r3, [r7, #12]
 4590 0068 4022     		movs	r2, #64
 4591 006a 9B5C     		ldrb	r3, [r3, r2]
 4592 006c 012B     		cmp	r3, #1
ARM GAS  C:\Users\ADMINI~1\AppData\Local\Temp\cc3zYV2m.s 			page 117


 4593 006e 01D1     		bne	.L201
 4594              		.loc 1 2049 5 is_stmt 0 discriminator 1
 4595 0070 0223     		movs	r3, #2
 4596 0072 6FE0     		b	.L199
 4597              	.L201:
 4598              		.loc 1 2049 5 discriminator 2
 4599 0074 FB68     		ldr	r3, [r7, #12]
 4600 0076 4022     		movs	r2, #64
 4601 0078 0121     		movs	r1, #1
 4602 007a 9954     		strb	r1, [r3, r2]
2050:Drivers/STM32F0xx_HAL_Driver/Src/stm32f0xx_hal_i2c.c **** 
2051:Drivers/STM32F0xx_HAL_Driver/Src/stm32f0xx_hal_i2c.c ****     /* Init tickstart for timeout management*/
2052:Drivers/STM32F0xx_HAL_Driver/Src/stm32f0xx_hal_i2c.c ****     tickstart = HAL_GetTick();
 4603              		.loc 1 2052 17 is_stmt 1 discriminator 2
 4604 007c FFF7FEFF 		bl	HAL_GetTick
 4605 0080 0300     		movs	r3, r0
 4606 0082 3B61     		str	r3, [r7, #16]
2053:Drivers/STM32F0xx_HAL_Driver/Src/stm32f0xx_hal_i2c.c **** 
2054:Drivers/STM32F0xx_HAL_Driver/Src/stm32f0xx_hal_i2c.c ****     hi2c->State       = HAL_I2C_STATE_BUSY_TX;
 4607              		.loc 1 2054 23 discriminator 2
 4608 0084 FB68     		ldr	r3, [r7, #12]
 4609 0086 4122     		movs	r2, #65
 4610 0088 2121     		movs	r1, #33
 4611 008a 9954     		strb	r1, [r3, r2]
2055:Drivers/STM32F0xx_HAL_Driver/Src/stm32f0xx_hal_i2c.c ****     hi2c->Mode        = HAL_I2C_MODE_MEM;
 4612              		.loc 1 2055 23 discriminator 2
 4613 008c FB68     		ldr	r3, [r7, #12]
 4614 008e 4222     		movs	r2, #66
 4615 0090 4021     		movs	r1, #64
 4616 0092 9954     		strb	r1, [r3, r2]
2056:Drivers/STM32F0xx_HAL_Driver/Src/stm32f0xx_hal_i2c.c ****     hi2c->ErrorCode   = HAL_I2C_ERROR_NONE;
 4617              		.loc 1 2056 23 discriminator 2
 4618 0094 FB68     		ldr	r3, [r7, #12]
 4619 0096 0022     		movs	r2, #0
 4620 0098 5A64     		str	r2, [r3, #68]
2057:Drivers/STM32F0xx_HAL_Driver/Src/stm32f0xx_hal_i2c.c **** 
2058:Drivers/STM32F0xx_HAL_Driver/Src/stm32f0xx_hal_i2c.c ****     /* Prepare transfer parameters */
2059:Drivers/STM32F0xx_HAL_Driver/Src/stm32f0xx_hal_i2c.c ****     hi2c->pBuffPtr    = pData;
 4621              		.loc 1 2059 23 discriminator 2
 4622 009a FB68     		ldr	r3, [r7, #12]
 4623 009c BA6A     		ldr	r2, [r7, #40]
 4624 009e 5A62     		str	r2, [r3, #36]
2060:Drivers/STM32F0xx_HAL_Driver/Src/stm32f0xx_hal_i2c.c ****     hi2c->XferCount   = Size;
 4625              		.loc 1 2060 23 discriminator 2
 4626 00a0 FB68     		ldr	r3, [r7, #12]
 4627 00a2 2C22     		movs	r2, #44
 4628 00a4 BA18     		adds	r2, r7, r2
 4629 00a6 1288     		ldrh	r2, [r2]
 4630 00a8 5A85     		strh	r2, [r3, #42]
2061:Drivers/STM32F0xx_HAL_Driver/Src/stm32f0xx_hal_i2c.c ****     hi2c->XferOptions = I2C_NO_OPTION_FRAME;
 4631              		.loc 1 2061 23 discriminator 2
 4632 00aa FB68     		ldr	r3, [r7, #12]
 4633 00ac 2B4A     		ldr	r2, .L206
 4634 00ae DA62     		str	r2, [r3, #44]
2062:Drivers/STM32F0xx_HAL_Driver/Src/stm32f0xx_hal_i2c.c ****     hi2c->XferISR     = I2C_Master_ISR_IT;
 4635              		.loc 1 2062 23 discriminator 2
 4636 00b0 FB68     		ldr	r3, [r7, #12]
ARM GAS  C:\Users\ADMINI~1\AppData\Local\Temp\cc3zYV2m.s 			page 118


 4637 00b2 2B4A     		ldr	r2, .L206+4
 4638 00b4 5A63     		str	r2, [r3, #52]
2063:Drivers/STM32F0xx_HAL_Driver/Src/stm32f0xx_hal_i2c.c **** 
2064:Drivers/STM32F0xx_HAL_Driver/Src/stm32f0xx_hal_i2c.c ****     if (hi2c->XferCount > MAX_NBYTE_SIZE)
 4639              		.loc 1 2064 13 discriminator 2
 4640 00b6 FB68     		ldr	r3, [r7, #12]
 4641 00b8 5B8D     		ldrh	r3, [r3, #42]
 4642 00ba 9BB2     		uxth	r3, r3
 4643              		.loc 1 2064 8 discriminator 2
 4644 00bc FF2B     		cmp	r3, #255
 4645 00be 06D9     		bls	.L202
2065:Drivers/STM32F0xx_HAL_Driver/Src/stm32f0xx_hal_i2c.c ****     {
2066:Drivers/STM32F0xx_HAL_Driver/Src/stm32f0xx_hal_i2c.c ****       hi2c->XferSize = MAX_NBYTE_SIZE;
 4646              		.loc 1 2066 22
 4647 00c0 FB68     		ldr	r3, [r7, #12]
 4648 00c2 FF22     		movs	r2, #255
 4649 00c4 1A85     		strh	r2, [r3, #40]
2067:Drivers/STM32F0xx_HAL_Driver/Src/stm32f0xx_hal_i2c.c ****       xfermode = I2C_RELOAD_MODE;
 4650              		.loc 1 2067 16
 4651 00c6 8023     		movs	r3, #128
 4652 00c8 5B04     		lsls	r3, r3, #17
 4653 00ca 7B61     		str	r3, [r7, #20]
 4654 00cc 07E0     		b	.L203
 4655              	.L202:
2068:Drivers/STM32F0xx_HAL_Driver/Src/stm32f0xx_hal_i2c.c ****     }
2069:Drivers/STM32F0xx_HAL_Driver/Src/stm32f0xx_hal_i2c.c ****     else
2070:Drivers/STM32F0xx_HAL_Driver/Src/stm32f0xx_hal_i2c.c ****     {
2071:Drivers/STM32F0xx_HAL_Driver/Src/stm32f0xx_hal_i2c.c ****       hi2c->XferSize = hi2c->XferCount;
 4656              		.loc 1 2071 28
 4657 00ce FB68     		ldr	r3, [r7, #12]
 4658 00d0 5B8D     		ldrh	r3, [r3, #42]
 4659 00d2 9AB2     		uxth	r2, r3
 4660              		.loc 1 2071 22
 4661 00d4 FB68     		ldr	r3, [r7, #12]
 4662 00d6 1A85     		strh	r2, [r3, #40]
2072:Drivers/STM32F0xx_HAL_Driver/Src/stm32f0xx_hal_i2c.c ****       xfermode = I2C_AUTOEND_MODE;
 4663              		.loc 1 2072 16
 4664 00d8 8023     		movs	r3, #128
 4665 00da 9B04     		lsls	r3, r3, #18
 4666 00dc 7B61     		str	r3, [r7, #20]
 4667              	.L203:
2073:Drivers/STM32F0xx_HAL_Driver/Src/stm32f0xx_hal_i2c.c ****     }
2074:Drivers/STM32F0xx_HAL_Driver/Src/stm32f0xx_hal_i2c.c **** 
2075:Drivers/STM32F0xx_HAL_Driver/Src/stm32f0xx_hal_i2c.c ****     /* Send Slave Address and Memory Address */
2076:Drivers/STM32F0xx_HAL_Driver/Src/stm32f0xx_hal_i2c.c ****     if (I2C_RequestMemoryWrite(hi2c, DevAddress, MemAddress, MemAddSize, I2C_TIMEOUT_FLAG, tickstar
 4668              		.loc 1 2076 9
 4669 00de BB1D     		adds	r3, r7, #6
 4670 00e0 1C88     		ldrh	r4, [r3]
 4671 00e2 0823     		movs	r3, #8
 4672 00e4 FB18     		adds	r3, r7, r3
 4673 00e6 1A88     		ldrh	r2, [r3]
 4674 00e8 0A23     		movs	r3, #10
 4675 00ea FB18     		adds	r3, r7, r3
 4676 00ec 1988     		ldrh	r1, [r3]
 4677 00ee F868     		ldr	r0, [r7, #12]
 4678 00f0 3B69     		ldr	r3, [r7, #16]
 4679 00f2 0193     		str	r3, [sp, #4]
ARM GAS  C:\Users\ADMINI~1\AppData\Local\Temp\cc3zYV2m.s 			page 119


 4680 00f4 1923     		movs	r3, #25
 4681 00f6 0093     		str	r3, [sp]
 4682 00f8 2300     		movs	r3, r4
 4683 00fa FFF7FEFF 		bl	I2C_RequestMemoryWrite
 4684 00fe 031E     		subs	r3, r0, #0
 4685              		.loc 1 2076 8
 4686 0100 0FD0     		beq	.L204
2077:Drivers/STM32F0xx_HAL_Driver/Src/stm32f0xx_hal_i2c.c ****     {
2078:Drivers/STM32F0xx_HAL_Driver/Src/stm32f0xx_hal_i2c.c ****       if (hi2c->ErrorCode == HAL_I2C_ERROR_AF)
 4687              		.loc 1 2078 15
 4688 0102 FB68     		ldr	r3, [r7, #12]
 4689 0104 5B6C     		ldr	r3, [r3, #68]
 4690              		.loc 1 2078 10
 4691 0106 042B     		cmp	r3, #4
 4692 0108 05D1     		bne	.L205
2079:Drivers/STM32F0xx_HAL_Driver/Src/stm32f0xx_hal_i2c.c ****       {
2080:Drivers/STM32F0xx_HAL_Driver/Src/stm32f0xx_hal_i2c.c ****         /* Process Unlocked */
2081:Drivers/STM32F0xx_HAL_Driver/Src/stm32f0xx_hal_i2c.c ****         __HAL_UNLOCK(hi2c);
 4693              		.loc 1 2081 9
 4694 010a FB68     		ldr	r3, [r7, #12]
 4695 010c 4022     		movs	r2, #64
 4696 010e 0021     		movs	r1, #0
 4697 0110 9954     		strb	r1, [r3, r2]
2082:Drivers/STM32F0xx_HAL_Driver/Src/stm32f0xx_hal_i2c.c ****         return HAL_ERROR;
 4698              		.loc 1 2082 16
 4699 0112 0123     		movs	r3, #1
 4700 0114 1EE0     		b	.L199
 4701              	.L205:
2083:Drivers/STM32F0xx_HAL_Driver/Src/stm32f0xx_hal_i2c.c ****       }
2084:Drivers/STM32F0xx_HAL_Driver/Src/stm32f0xx_hal_i2c.c ****       else
2085:Drivers/STM32F0xx_HAL_Driver/Src/stm32f0xx_hal_i2c.c ****       {
2086:Drivers/STM32F0xx_HAL_Driver/Src/stm32f0xx_hal_i2c.c ****         /* Process Unlocked */
2087:Drivers/STM32F0xx_HAL_Driver/Src/stm32f0xx_hal_i2c.c ****         __HAL_UNLOCK(hi2c);
 4702              		.loc 1 2087 9
 4703 0116 FB68     		ldr	r3, [r7, #12]
 4704 0118 4022     		movs	r2, #64
 4705 011a 0021     		movs	r1, #0
 4706 011c 9954     		strb	r1, [r3, r2]
2088:Drivers/STM32F0xx_HAL_Driver/Src/stm32f0xx_hal_i2c.c ****         return HAL_TIMEOUT;
 4707              		.loc 1 2088 16
 4708 011e 0323     		movs	r3, #3
 4709 0120 18E0     		b	.L199
 4710              	.L204:
2089:Drivers/STM32F0xx_HAL_Driver/Src/stm32f0xx_hal_i2c.c ****       }
2090:Drivers/STM32F0xx_HAL_Driver/Src/stm32f0xx_hal_i2c.c ****     }
2091:Drivers/STM32F0xx_HAL_Driver/Src/stm32f0xx_hal_i2c.c **** 
2092:Drivers/STM32F0xx_HAL_Driver/Src/stm32f0xx_hal_i2c.c ****     /* Set NBYTES to write and reload if hi2c->XferCount > MAX_NBYTE_SIZE and generate RESTART */
2093:Drivers/STM32F0xx_HAL_Driver/Src/stm32f0xx_hal_i2c.c ****     I2C_TransferConfig(hi2c, DevAddress, hi2c->XferSize, xfermode, I2C_NO_STARTSTOP);
 4711              		.loc 1 2093 46
 4712 0122 FB68     		ldr	r3, [r7, #12]
 4713 0124 1B8D     		ldrh	r3, [r3, #40]
 4714              		.loc 1 2093 5
 4715 0126 DAB2     		uxtb	r2, r3
 4716 0128 7C69     		ldr	r4, [r7, #20]
 4717 012a 0A23     		movs	r3, #10
 4718 012c FB18     		adds	r3, r7, r3
 4719 012e 1988     		ldrh	r1, [r3]
ARM GAS  C:\Users\ADMINI~1\AppData\Local\Temp\cc3zYV2m.s 			page 120


 4720 0130 F868     		ldr	r0, [r7, #12]
 4721 0132 0023     		movs	r3, #0
 4722 0134 0093     		str	r3, [sp]
 4723 0136 2300     		movs	r3, r4
 4724 0138 FFF7FEFF 		bl	I2C_TransferConfig
2094:Drivers/STM32F0xx_HAL_Driver/Src/stm32f0xx_hal_i2c.c **** 
2095:Drivers/STM32F0xx_HAL_Driver/Src/stm32f0xx_hal_i2c.c ****     /* Process Unlocked */
2096:Drivers/STM32F0xx_HAL_Driver/Src/stm32f0xx_hal_i2c.c ****     __HAL_UNLOCK(hi2c);
 4725              		.loc 1 2096 5
 4726 013c FB68     		ldr	r3, [r7, #12]
 4727 013e 4022     		movs	r2, #64
 4728 0140 0021     		movs	r1, #0
 4729 0142 9954     		strb	r1, [r3, r2]
2097:Drivers/STM32F0xx_HAL_Driver/Src/stm32f0xx_hal_i2c.c **** 
2098:Drivers/STM32F0xx_HAL_Driver/Src/stm32f0xx_hal_i2c.c ****     /* Note : The I2C interrupts must be enabled after unlocking current process
2099:Drivers/STM32F0xx_HAL_Driver/Src/stm32f0xx_hal_i2c.c ****               to avoid the risk of I2C interrupt handle execution before current
2100:Drivers/STM32F0xx_HAL_Driver/Src/stm32f0xx_hal_i2c.c ****               process unlock */
2101:Drivers/STM32F0xx_HAL_Driver/Src/stm32f0xx_hal_i2c.c **** 
2102:Drivers/STM32F0xx_HAL_Driver/Src/stm32f0xx_hal_i2c.c ****     /* Enable ERR, TC, STOP, NACK, TXI interrupt */
2103:Drivers/STM32F0xx_HAL_Driver/Src/stm32f0xx_hal_i2c.c ****     /* possible to enable all of these */
2104:Drivers/STM32F0xx_HAL_Driver/Src/stm32f0xx_hal_i2c.c ****     /* I2C_IT_ERRI | I2C_IT_TCI| I2C_IT_STOPI| I2C_IT_NACKI | I2C_IT_ADDRI | I2C_IT_RXI | I2C_IT_TX
2105:Drivers/STM32F0xx_HAL_Driver/Src/stm32f0xx_hal_i2c.c ****     I2C_Enable_IRQ(hi2c, I2C_XFER_TX_IT);
 4730              		.loc 1 2105 5
 4731 0144 FB68     		ldr	r3, [r7, #12]
 4732 0146 0121     		movs	r1, #1
 4733 0148 1800     		movs	r0, r3
 4734 014a FFF7FEFF 		bl	I2C_Enable_IRQ
2106:Drivers/STM32F0xx_HAL_Driver/Src/stm32f0xx_hal_i2c.c **** 
2107:Drivers/STM32F0xx_HAL_Driver/Src/stm32f0xx_hal_i2c.c ****     return HAL_OK;
 4735              		.loc 1 2107 12
 4736 014e 0023     		movs	r3, #0
 4737 0150 00E0     		b	.L199
 4738              	.L196:
2108:Drivers/STM32F0xx_HAL_Driver/Src/stm32f0xx_hal_i2c.c ****   }
2109:Drivers/STM32F0xx_HAL_Driver/Src/stm32f0xx_hal_i2c.c ****   else
2110:Drivers/STM32F0xx_HAL_Driver/Src/stm32f0xx_hal_i2c.c ****   {
2111:Drivers/STM32F0xx_HAL_Driver/Src/stm32f0xx_hal_i2c.c ****     return HAL_BUSY;
 4739              		.loc 1 2111 12
 4740 0152 0223     		movs	r3, #2
 4741              	.L199:
2112:Drivers/STM32F0xx_HAL_Driver/Src/stm32f0xx_hal_i2c.c ****   }
2113:Drivers/STM32F0xx_HAL_Driver/Src/stm32f0xx_hal_i2c.c **** }
 4742              		.loc 1 2113 1
 4743 0154 1800     		movs	r0, r3
 4744 0156 BD46     		mov	sp, r7
 4745 0158 07B0     		add	sp, sp, #28
 4746              		@ sp needed
 4747 015a 90BD     		pop	{r4, r7, pc}
 4748              	.L207:
 4749              		.align	2
 4750              	.L206:
 4751 015c 0000FFFF 		.word	-65536
 4752 0160 00000000 		.word	I2C_Master_ISR_IT
 4753              		.cfi_endproc
 4754              	.LFE55:
 4756              		.section	.text.HAL_I2C_Mem_Read_IT,"ax",%progbits
 4757              		.align	1
ARM GAS  C:\Users\ADMINI~1\AppData\Local\Temp\cc3zYV2m.s 			page 121


 4758              		.global	HAL_I2C_Mem_Read_IT
 4759              		.syntax unified
 4760              		.code	16
 4761              		.thumb_func
 4762              		.fpu softvfp
 4764              	HAL_I2C_Mem_Read_IT:
 4765              	.LFB56:
2114:Drivers/STM32F0xx_HAL_Driver/Src/stm32f0xx_hal_i2c.c **** 
2115:Drivers/STM32F0xx_HAL_Driver/Src/stm32f0xx_hal_i2c.c **** /**
2116:Drivers/STM32F0xx_HAL_Driver/Src/stm32f0xx_hal_i2c.c ****   * @brief  Read an amount of data in non-blocking mode with Interrupt from a specific memory addre
2117:Drivers/STM32F0xx_HAL_Driver/Src/stm32f0xx_hal_i2c.c ****   * @param  hi2c Pointer to a I2C_HandleTypeDef structure that contains
2118:Drivers/STM32F0xx_HAL_Driver/Src/stm32f0xx_hal_i2c.c ****   *                the configuration information for the specified I2C.
2119:Drivers/STM32F0xx_HAL_Driver/Src/stm32f0xx_hal_i2c.c ****   * @param  DevAddress Target device address: The device 7 bits address value
2120:Drivers/STM32F0xx_HAL_Driver/Src/stm32f0xx_hal_i2c.c ****   *         in datasheet must be shift at right before call interface
2121:Drivers/STM32F0xx_HAL_Driver/Src/stm32f0xx_hal_i2c.c ****   * @param  MemAddress Internal memory address
2122:Drivers/STM32F0xx_HAL_Driver/Src/stm32f0xx_hal_i2c.c ****   * @param  MemAddSize Size of internal memory address
2123:Drivers/STM32F0xx_HAL_Driver/Src/stm32f0xx_hal_i2c.c ****   * @param  pData Pointer to data buffer
2124:Drivers/STM32F0xx_HAL_Driver/Src/stm32f0xx_hal_i2c.c ****   * @param  Size Amount of data to be sent
2125:Drivers/STM32F0xx_HAL_Driver/Src/stm32f0xx_hal_i2c.c ****   * @retval HAL status
2126:Drivers/STM32F0xx_HAL_Driver/Src/stm32f0xx_hal_i2c.c ****   */
2127:Drivers/STM32F0xx_HAL_Driver/Src/stm32f0xx_hal_i2c.c **** HAL_StatusTypeDef HAL_I2C_Mem_Read_IT(I2C_HandleTypeDef *hi2c, uint16_t DevAddress, uint16_t MemAdd
2128:Drivers/STM32F0xx_HAL_Driver/Src/stm32f0xx_hal_i2c.c **** {
 4766              		.loc 1 2128 1
 4767              		.cfi_startproc
 4768              		@ args = 8, pretend = 0, frame = 24
 4769              		@ frame_needed = 1, uses_anonymous_args = 0
 4770 0000 90B5     		push	{r4, r7, lr}
 4771              	.LCFI57:
 4772              		.cfi_def_cfa_offset 12
 4773              		.cfi_offset 4, -12
 4774              		.cfi_offset 7, -8
 4775              		.cfi_offset 14, -4
 4776 0002 89B0     		sub	sp, sp, #36
 4777              	.LCFI58:
 4778              		.cfi_def_cfa_offset 48
 4779 0004 02AF     		add	r7, sp, #8
 4780              	.LCFI59:
 4781              		.cfi_def_cfa 7, 40
 4782 0006 F860     		str	r0, [r7, #12]
 4783 0008 0C00     		movs	r4, r1
 4784 000a 1000     		movs	r0, r2
 4785 000c 1900     		movs	r1, r3
 4786 000e 0A23     		movs	r3, #10
 4787 0010 FB18     		adds	r3, r7, r3
 4788 0012 221C     		adds	r2, r4, #0
 4789 0014 1A80     		strh	r2, [r3]
 4790 0016 0823     		movs	r3, #8
 4791 0018 FB18     		adds	r3, r7, r3
 4792 001a 021C     		adds	r2, r0, #0
 4793 001c 1A80     		strh	r2, [r3]
 4794 001e BB1D     		adds	r3, r7, #6
 4795 0020 0A1C     		adds	r2, r1, #0
 4796 0022 1A80     		strh	r2, [r3]
2129:Drivers/STM32F0xx_HAL_Driver/Src/stm32f0xx_hal_i2c.c ****   uint32_t tickstart = 0U;
 4797              		.loc 1 2129 12
 4798 0024 0023     		movs	r3, #0
 4799 0026 3B61     		str	r3, [r7, #16]
ARM GAS  C:\Users\ADMINI~1\AppData\Local\Temp\cc3zYV2m.s 			page 122


2130:Drivers/STM32F0xx_HAL_Driver/Src/stm32f0xx_hal_i2c.c ****   uint32_t xfermode = 0U;
 4800              		.loc 1 2130 12
 4801 0028 0023     		movs	r3, #0
 4802 002a 7B61     		str	r3, [r7, #20]
2131:Drivers/STM32F0xx_HAL_Driver/Src/stm32f0xx_hal_i2c.c **** 
2132:Drivers/STM32F0xx_HAL_Driver/Src/stm32f0xx_hal_i2c.c ****   /* Check the parameters */
2133:Drivers/STM32F0xx_HAL_Driver/Src/stm32f0xx_hal_i2c.c ****   assert_param(IS_I2C_MEMADD_SIZE(MemAddSize));
2134:Drivers/STM32F0xx_HAL_Driver/Src/stm32f0xx_hal_i2c.c **** 
2135:Drivers/STM32F0xx_HAL_Driver/Src/stm32f0xx_hal_i2c.c ****   if (hi2c->State == HAL_I2C_STATE_READY)
 4803              		.loc 1 2135 11
 4804 002c FB68     		ldr	r3, [r7, #12]
 4805 002e 4122     		movs	r2, #65
 4806 0030 9B5C     		ldrb	r3, [r3, r2]
 4807 0032 DBB2     		uxtb	r3, r3
 4808              		.loc 1 2135 6
 4809 0034 202B     		cmp	r3, #32
 4810 0036 00D0     		beq	.LCB4031
 4811 0038 8CE0     		b	.L209	@long jump
 4812              	.LCB4031:
2136:Drivers/STM32F0xx_HAL_Driver/Src/stm32f0xx_hal_i2c.c ****   {
2137:Drivers/STM32F0xx_HAL_Driver/Src/stm32f0xx_hal_i2c.c ****     if ((pData == NULL) || (Size == 0U))
 4813              		.loc 1 2137 8
 4814 003a BB6A     		ldr	r3, [r7, #40]
 4815 003c 002B     		cmp	r3, #0
 4816 003e 04D0     		beq	.L210
 4817              		.loc 1 2137 25 discriminator 1
 4818 0040 2C23     		movs	r3, #44
 4819 0042 FB18     		adds	r3, r7, r3
 4820 0044 1B88     		ldrh	r3, [r3]
 4821 0046 002B     		cmp	r3, #0
 4822 0048 01D1     		bne	.L211
 4823              	.L210:
2138:Drivers/STM32F0xx_HAL_Driver/Src/stm32f0xx_hal_i2c.c ****     {
2139:Drivers/STM32F0xx_HAL_Driver/Src/stm32f0xx_hal_i2c.c ****       return  HAL_ERROR;
 4824              		.loc 1 2139 15
 4825 004a 0123     		movs	r3, #1
 4826 004c 83E0     		b	.L212
 4827              	.L211:
2140:Drivers/STM32F0xx_HAL_Driver/Src/stm32f0xx_hal_i2c.c ****     }
2141:Drivers/STM32F0xx_HAL_Driver/Src/stm32f0xx_hal_i2c.c **** 
2142:Drivers/STM32F0xx_HAL_Driver/Src/stm32f0xx_hal_i2c.c ****     if (__HAL_I2C_GET_FLAG(hi2c, I2C_FLAG_BUSY) == SET)
 4828              		.loc 1 2142 9
 4829 004e FB68     		ldr	r3, [r7, #12]
 4830 0050 1B68     		ldr	r3, [r3]
 4831 0052 9A69     		ldr	r2, [r3, #24]
 4832 0054 8023     		movs	r3, #128
 4833 0056 1B02     		lsls	r3, r3, #8
 4834 0058 1A40     		ands	r2, r3
 4835              		.loc 1 2142 8
 4836 005a 8023     		movs	r3, #128
 4837 005c 1B02     		lsls	r3, r3, #8
 4838 005e 9A42     		cmp	r2, r3
 4839 0060 01D1     		bne	.L213
2143:Drivers/STM32F0xx_HAL_Driver/Src/stm32f0xx_hal_i2c.c ****     {
2144:Drivers/STM32F0xx_HAL_Driver/Src/stm32f0xx_hal_i2c.c ****       return HAL_BUSY;
 4840              		.loc 1 2144 14
 4841 0062 0223     		movs	r3, #2
ARM GAS  C:\Users\ADMINI~1\AppData\Local\Temp\cc3zYV2m.s 			page 123


 4842 0064 77E0     		b	.L212
 4843              	.L213:
2145:Drivers/STM32F0xx_HAL_Driver/Src/stm32f0xx_hal_i2c.c ****     }
2146:Drivers/STM32F0xx_HAL_Driver/Src/stm32f0xx_hal_i2c.c **** 
2147:Drivers/STM32F0xx_HAL_Driver/Src/stm32f0xx_hal_i2c.c ****     /* Process Locked */
2148:Drivers/STM32F0xx_HAL_Driver/Src/stm32f0xx_hal_i2c.c ****     __HAL_LOCK(hi2c);
 4844              		.loc 1 2148 5
 4845 0066 FB68     		ldr	r3, [r7, #12]
 4846 0068 4022     		movs	r2, #64
 4847 006a 9B5C     		ldrb	r3, [r3, r2]
 4848 006c 012B     		cmp	r3, #1
 4849 006e 01D1     		bne	.L214
 4850              		.loc 1 2148 5 is_stmt 0 discriminator 1
 4851 0070 0223     		movs	r3, #2
 4852 0072 70E0     		b	.L212
 4853              	.L214:
 4854              		.loc 1 2148 5 discriminator 2
 4855 0074 FB68     		ldr	r3, [r7, #12]
 4856 0076 4022     		movs	r2, #64
 4857 0078 0121     		movs	r1, #1
 4858 007a 9954     		strb	r1, [r3, r2]
2149:Drivers/STM32F0xx_HAL_Driver/Src/stm32f0xx_hal_i2c.c **** 
2150:Drivers/STM32F0xx_HAL_Driver/Src/stm32f0xx_hal_i2c.c ****     /* Init tickstart for timeout management*/
2151:Drivers/STM32F0xx_HAL_Driver/Src/stm32f0xx_hal_i2c.c ****     tickstart = HAL_GetTick();
 4859              		.loc 1 2151 17 is_stmt 1 discriminator 2
 4860 007c FFF7FEFF 		bl	HAL_GetTick
 4861 0080 0300     		movs	r3, r0
 4862 0082 3B61     		str	r3, [r7, #16]
2152:Drivers/STM32F0xx_HAL_Driver/Src/stm32f0xx_hal_i2c.c **** 
2153:Drivers/STM32F0xx_HAL_Driver/Src/stm32f0xx_hal_i2c.c ****     hi2c->State       = HAL_I2C_STATE_BUSY_RX;
 4863              		.loc 1 2153 23 discriminator 2
 4864 0084 FB68     		ldr	r3, [r7, #12]
 4865 0086 4122     		movs	r2, #65
 4866 0088 2221     		movs	r1, #34
 4867 008a 9954     		strb	r1, [r3, r2]
2154:Drivers/STM32F0xx_HAL_Driver/Src/stm32f0xx_hal_i2c.c ****     hi2c->Mode        = HAL_I2C_MODE_MEM;
 4868              		.loc 1 2154 23 discriminator 2
 4869 008c FB68     		ldr	r3, [r7, #12]
 4870 008e 4222     		movs	r2, #66
 4871 0090 4021     		movs	r1, #64
 4872 0092 9954     		strb	r1, [r3, r2]
2155:Drivers/STM32F0xx_HAL_Driver/Src/stm32f0xx_hal_i2c.c ****     hi2c->ErrorCode   = HAL_I2C_ERROR_NONE;
 4873              		.loc 1 2155 23 discriminator 2
 4874 0094 FB68     		ldr	r3, [r7, #12]
 4875 0096 0022     		movs	r2, #0
 4876 0098 5A64     		str	r2, [r3, #68]
2156:Drivers/STM32F0xx_HAL_Driver/Src/stm32f0xx_hal_i2c.c **** 
2157:Drivers/STM32F0xx_HAL_Driver/Src/stm32f0xx_hal_i2c.c ****     /* Prepare transfer parameters */
2158:Drivers/STM32F0xx_HAL_Driver/Src/stm32f0xx_hal_i2c.c ****     hi2c->pBuffPtr    = pData;
 4877              		.loc 1 2158 23 discriminator 2
 4878 009a FB68     		ldr	r3, [r7, #12]
 4879 009c BA6A     		ldr	r2, [r7, #40]
 4880 009e 5A62     		str	r2, [r3, #36]
2159:Drivers/STM32F0xx_HAL_Driver/Src/stm32f0xx_hal_i2c.c ****     hi2c->XferCount   = Size;
 4881              		.loc 1 2159 23 discriminator 2
 4882 00a0 FB68     		ldr	r3, [r7, #12]
 4883 00a2 2C22     		movs	r2, #44
ARM GAS  C:\Users\ADMINI~1\AppData\Local\Temp\cc3zYV2m.s 			page 124


 4884 00a4 BA18     		adds	r2, r7, r2
 4885 00a6 1288     		ldrh	r2, [r2]
 4886 00a8 5A85     		strh	r2, [r3, #42]
2160:Drivers/STM32F0xx_HAL_Driver/Src/stm32f0xx_hal_i2c.c ****     hi2c->XferOptions = I2C_NO_OPTION_FRAME;
 4887              		.loc 1 2160 23 discriminator 2
 4888 00aa FB68     		ldr	r3, [r7, #12]
 4889 00ac 2C4A     		ldr	r2, .L219
 4890 00ae DA62     		str	r2, [r3, #44]
2161:Drivers/STM32F0xx_HAL_Driver/Src/stm32f0xx_hal_i2c.c ****     hi2c->XferISR     = I2C_Master_ISR_IT;
 4891              		.loc 1 2161 23 discriminator 2
 4892 00b0 FB68     		ldr	r3, [r7, #12]
 4893 00b2 2C4A     		ldr	r2, .L219+4
 4894 00b4 5A63     		str	r2, [r3, #52]
2162:Drivers/STM32F0xx_HAL_Driver/Src/stm32f0xx_hal_i2c.c **** 
2163:Drivers/STM32F0xx_HAL_Driver/Src/stm32f0xx_hal_i2c.c ****     if (hi2c->XferCount > MAX_NBYTE_SIZE)
 4895              		.loc 1 2163 13 discriminator 2
 4896 00b6 FB68     		ldr	r3, [r7, #12]
 4897 00b8 5B8D     		ldrh	r3, [r3, #42]
 4898 00ba 9BB2     		uxth	r3, r3
 4899              		.loc 1 2163 8 discriminator 2
 4900 00bc FF2B     		cmp	r3, #255
 4901 00be 06D9     		bls	.L215
2164:Drivers/STM32F0xx_HAL_Driver/Src/stm32f0xx_hal_i2c.c ****     {
2165:Drivers/STM32F0xx_HAL_Driver/Src/stm32f0xx_hal_i2c.c ****       hi2c->XferSize = MAX_NBYTE_SIZE;
 4902              		.loc 1 2165 22
 4903 00c0 FB68     		ldr	r3, [r7, #12]
 4904 00c2 FF22     		movs	r2, #255
 4905 00c4 1A85     		strh	r2, [r3, #40]
2166:Drivers/STM32F0xx_HAL_Driver/Src/stm32f0xx_hal_i2c.c ****       xfermode = I2C_RELOAD_MODE;
 4906              		.loc 1 2166 16
 4907 00c6 8023     		movs	r3, #128
 4908 00c8 5B04     		lsls	r3, r3, #17
 4909 00ca 7B61     		str	r3, [r7, #20]
 4910 00cc 07E0     		b	.L216
 4911              	.L215:
2167:Drivers/STM32F0xx_HAL_Driver/Src/stm32f0xx_hal_i2c.c ****     }
2168:Drivers/STM32F0xx_HAL_Driver/Src/stm32f0xx_hal_i2c.c ****     else
2169:Drivers/STM32F0xx_HAL_Driver/Src/stm32f0xx_hal_i2c.c ****     {
2170:Drivers/STM32F0xx_HAL_Driver/Src/stm32f0xx_hal_i2c.c ****       hi2c->XferSize = hi2c->XferCount;
 4912              		.loc 1 2170 28
 4913 00ce FB68     		ldr	r3, [r7, #12]
 4914 00d0 5B8D     		ldrh	r3, [r3, #42]
 4915 00d2 9AB2     		uxth	r2, r3
 4916              		.loc 1 2170 22
 4917 00d4 FB68     		ldr	r3, [r7, #12]
 4918 00d6 1A85     		strh	r2, [r3, #40]
2171:Drivers/STM32F0xx_HAL_Driver/Src/stm32f0xx_hal_i2c.c ****       xfermode = I2C_AUTOEND_MODE;
 4919              		.loc 1 2171 16
 4920 00d8 8023     		movs	r3, #128
 4921 00da 9B04     		lsls	r3, r3, #18
 4922 00dc 7B61     		str	r3, [r7, #20]
 4923              	.L216:
2172:Drivers/STM32F0xx_HAL_Driver/Src/stm32f0xx_hal_i2c.c ****     }
2173:Drivers/STM32F0xx_HAL_Driver/Src/stm32f0xx_hal_i2c.c **** 
2174:Drivers/STM32F0xx_HAL_Driver/Src/stm32f0xx_hal_i2c.c ****     /* Send Slave Address and Memory Address */
2175:Drivers/STM32F0xx_HAL_Driver/Src/stm32f0xx_hal_i2c.c ****     if (I2C_RequestMemoryRead(hi2c, DevAddress, MemAddress, MemAddSize, I2C_TIMEOUT_FLAG, tickstart
 4924              		.loc 1 2175 9
ARM GAS  C:\Users\ADMINI~1\AppData\Local\Temp\cc3zYV2m.s 			page 125


 4925 00de BB1D     		adds	r3, r7, #6
 4926 00e0 1C88     		ldrh	r4, [r3]
 4927 00e2 0823     		movs	r3, #8
 4928 00e4 FB18     		adds	r3, r7, r3
 4929 00e6 1A88     		ldrh	r2, [r3]
 4930 00e8 0A23     		movs	r3, #10
 4931 00ea FB18     		adds	r3, r7, r3
 4932 00ec 1988     		ldrh	r1, [r3]
 4933 00ee F868     		ldr	r0, [r7, #12]
 4934 00f0 3B69     		ldr	r3, [r7, #16]
 4935 00f2 0193     		str	r3, [sp, #4]
 4936 00f4 1923     		movs	r3, #25
 4937 00f6 0093     		str	r3, [sp]
 4938 00f8 2300     		movs	r3, r4
 4939 00fa FFF7FEFF 		bl	I2C_RequestMemoryRead
 4940 00fe 031E     		subs	r3, r0, #0
 4941              		.loc 1 2175 8
 4942 0100 0FD0     		beq	.L217
2176:Drivers/STM32F0xx_HAL_Driver/Src/stm32f0xx_hal_i2c.c ****     {
2177:Drivers/STM32F0xx_HAL_Driver/Src/stm32f0xx_hal_i2c.c ****       if (hi2c->ErrorCode == HAL_I2C_ERROR_AF)
 4943              		.loc 1 2177 15
 4944 0102 FB68     		ldr	r3, [r7, #12]
 4945 0104 5B6C     		ldr	r3, [r3, #68]
 4946              		.loc 1 2177 10
 4947 0106 042B     		cmp	r3, #4
 4948 0108 05D1     		bne	.L218
2178:Drivers/STM32F0xx_HAL_Driver/Src/stm32f0xx_hal_i2c.c ****       {
2179:Drivers/STM32F0xx_HAL_Driver/Src/stm32f0xx_hal_i2c.c ****         /* Process Unlocked */
2180:Drivers/STM32F0xx_HAL_Driver/Src/stm32f0xx_hal_i2c.c ****         __HAL_UNLOCK(hi2c);
 4949              		.loc 1 2180 9
 4950 010a FB68     		ldr	r3, [r7, #12]
 4951 010c 4022     		movs	r2, #64
 4952 010e 0021     		movs	r1, #0
 4953 0110 9954     		strb	r1, [r3, r2]
2181:Drivers/STM32F0xx_HAL_Driver/Src/stm32f0xx_hal_i2c.c ****         return HAL_ERROR;
 4954              		.loc 1 2181 16
 4955 0112 0123     		movs	r3, #1
 4956 0114 1FE0     		b	.L212
 4957              	.L218:
2182:Drivers/STM32F0xx_HAL_Driver/Src/stm32f0xx_hal_i2c.c ****       }
2183:Drivers/STM32F0xx_HAL_Driver/Src/stm32f0xx_hal_i2c.c ****       else
2184:Drivers/STM32F0xx_HAL_Driver/Src/stm32f0xx_hal_i2c.c ****       {
2185:Drivers/STM32F0xx_HAL_Driver/Src/stm32f0xx_hal_i2c.c ****         /* Process Unlocked */
2186:Drivers/STM32F0xx_HAL_Driver/Src/stm32f0xx_hal_i2c.c ****         __HAL_UNLOCK(hi2c);
 4958              		.loc 1 2186 9
 4959 0116 FB68     		ldr	r3, [r7, #12]
 4960 0118 4022     		movs	r2, #64
 4961 011a 0021     		movs	r1, #0
 4962 011c 9954     		strb	r1, [r3, r2]
2187:Drivers/STM32F0xx_HAL_Driver/Src/stm32f0xx_hal_i2c.c ****         return HAL_TIMEOUT;
 4963              		.loc 1 2187 16
 4964 011e 0323     		movs	r3, #3
 4965 0120 19E0     		b	.L212
 4966              	.L217:
2188:Drivers/STM32F0xx_HAL_Driver/Src/stm32f0xx_hal_i2c.c ****       }
2189:Drivers/STM32F0xx_HAL_Driver/Src/stm32f0xx_hal_i2c.c ****     }
2190:Drivers/STM32F0xx_HAL_Driver/Src/stm32f0xx_hal_i2c.c **** 
ARM GAS  C:\Users\ADMINI~1\AppData\Local\Temp\cc3zYV2m.s 			page 126


2191:Drivers/STM32F0xx_HAL_Driver/Src/stm32f0xx_hal_i2c.c ****     /* Set NBYTES to write and reload if hi2c->XferCount > MAX_NBYTE_SIZE and generate RESTART */
2192:Drivers/STM32F0xx_HAL_Driver/Src/stm32f0xx_hal_i2c.c ****     I2C_TransferConfig(hi2c, DevAddress, hi2c->XferSize, xfermode, I2C_GENERATE_START_READ);
 4967              		.loc 1 2192 46
 4968 0122 FB68     		ldr	r3, [r7, #12]
 4969 0124 1B8D     		ldrh	r3, [r3, #40]
 4970              		.loc 1 2192 5
 4971 0126 DAB2     		uxtb	r2, r3
 4972 0128 7C69     		ldr	r4, [r7, #20]
 4973 012a 0A23     		movs	r3, #10
 4974 012c FB18     		adds	r3, r7, r3
 4975 012e 1988     		ldrh	r1, [r3]
 4976 0130 F868     		ldr	r0, [r7, #12]
 4977 0132 9023     		movs	r3, #144
 4978 0134 9B01     		lsls	r3, r3, #6
 4979 0136 0093     		str	r3, [sp]
 4980 0138 2300     		movs	r3, r4
 4981 013a FFF7FEFF 		bl	I2C_TransferConfig
2193:Drivers/STM32F0xx_HAL_Driver/Src/stm32f0xx_hal_i2c.c **** 
2194:Drivers/STM32F0xx_HAL_Driver/Src/stm32f0xx_hal_i2c.c ****     /* Process Unlocked */
2195:Drivers/STM32F0xx_HAL_Driver/Src/stm32f0xx_hal_i2c.c ****     __HAL_UNLOCK(hi2c);
 4982              		.loc 1 2195 5
 4983 013e FB68     		ldr	r3, [r7, #12]
 4984 0140 4022     		movs	r2, #64
 4985 0142 0021     		movs	r1, #0
 4986 0144 9954     		strb	r1, [r3, r2]
2196:Drivers/STM32F0xx_HAL_Driver/Src/stm32f0xx_hal_i2c.c **** 
2197:Drivers/STM32F0xx_HAL_Driver/Src/stm32f0xx_hal_i2c.c ****     /* Note : The I2C interrupts must be enabled after unlocking current process
2198:Drivers/STM32F0xx_HAL_Driver/Src/stm32f0xx_hal_i2c.c ****               to avoid the risk of I2C interrupt handle execution before current
2199:Drivers/STM32F0xx_HAL_Driver/Src/stm32f0xx_hal_i2c.c ****               process unlock */
2200:Drivers/STM32F0xx_HAL_Driver/Src/stm32f0xx_hal_i2c.c **** 
2201:Drivers/STM32F0xx_HAL_Driver/Src/stm32f0xx_hal_i2c.c ****     /* Enable ERR, TC, STOP, NACK, RXI interrupt */
2202:Drivers/STM32F0xx_HAL_Driver/Src/stm32f0xx_hal_i2c.c ****     /* possible to enable all of these */
2203:Drivers/STM32F0xx_HAL_Driver/Src/stm32f0xx_hal_i2c.c ****     /* I2C_IT_ERRI | I2C_IT_TCI| I2C_IT_STOPI| I2C_IT_NACKI | I2C_IT_ADDRI | I2C_IT_RXI | I2C_IT_TX
2204:Drivers/STM32F0xx_HAL_Driver/Src/stm32f0xx_hal_i2c.c ****     I2C_Enable_IRQ(hi2c, I2C_XFER_RX_IT);
 4987              		.loc 1 2204 5
 4988 0146 FB68     		ldr	r3, [r7, #12]
 4989 0148 0221     		movs	r1, #2
 4990 014a 1800     		movs	r0, r3
 4991 014c FFF7FEFF 		bl	I2C_Enable_IRQ
2205:Drivers/STM32F0xx_HAL_Driver/Src/stm32f0xx_hal_i2c.c **** 
2206:Drivers/STM32F0xx_HAL_Driver/Src/stm32f0xx_hal_i2c.c ****     return HAL_OK;
 4992              		.loc 1 2206 12
 4993 0150 0023     		movs	r3, #0
 4994 0152 00E0     		b	.L212
 4995              	.L209:
2207:Drivers/STM32F0xx_HAL_Driver/Src/stm32f0xx_hal_i2c.c ****   }
2208:Drivers/STM32F0xx_HAL_Driver/Src/stm32f0xx_hal_i2c.c ****   else
2209:Drivers/STM32F0xx_HAL_Driver/Src/stm32f0xx_hal_i2c.c ****   {
2210:Drivers/STM32F0xx_HAL_Driver/Src/stm32f0xx_hal_i2c.c ****     return HAL_BUSY;
 4996              		.loc 1 2210 12
 4997 0154 0223     		movs	r3, #2
 4998              	.L212:
2211:Drivers/STM32F0xx_HAL_Driver/Src/stm32f0xx_hal_i2c.c ****   }
2212:Drivers/STM32F0xx_HAL_Driver/Src/stm32f0xx_hal_i2c.c **** }
 4999              		.loc 1 2212 1
 5000 0156 1800     		movs	r0, r3
 5001 0158 BD46     		mov	sp, r7
ARM GAS  C:\Users\ADMINI~1\AppData\Local\Temp\cc3zYV2m.s 			page 127


 5002 015a 07B0     		add	sp, sp, #28
 5003              		@ sp needed
 5004 015c 90BD     		pop	{r4, r7, pc}
 5005              	.L220:
 5006 015e C046     		.align	2
 5007              	.L219:
 5008 0160 0000FFFF 		.word	-65536
 5009 0164 00000000 		.word	I2C_Master_ISR_IT
 5010              		.cfi_endproc
 5011              	.LFE56:
 5013              		.section	.text.HAL_I2C_Mem_Write_DMA,"ax",%progbits
 5014              		.align	1
 5015              		.global	HAL_I2C_Mem_Write_DMA
 5016              		.syntax unified
 5017              		.code	16
 5018              		.thumb_func
 5019              		.fpu softvfp
 5021              	HAL_I2C_Mem_Write_DMA:
 5022              	.LFB57:
2213:Drivers/STM32F0xx_HAL_Driver/Src/stm32f0xx_hal_i2c.c **** /**
2214:Drivers/STM32F0xx_HAL_Driver/Src/stm32f0xx_hal_i2c.c ****   * @brief  Write an amount of data in non-blocking mode with DMA to a specific memory address
2215:Drivers/STM32F0xx_HAL_Driver/Src/stm32f0xx_hal_i2c.c ****   * @param  hi2c Pointer to a I2C_HandleTypeDef structure that contains
2216:Drivers/STM32F0xx_HAL_Driver/Src/stm32f0xx_hal_i2c.c ****   *                the configuration information for the specified I2C.
2217:Drivers/STM32F0xx_HAL_Driver/Src/stm32f0xx_hal_i2c.c ****   * @param  DevAddress Target device address: The device 7 bits address value
2218:Drivers/STM32F0xx_HAL_Driver/Src/stm32f0xx_hal_i2c.c ****   *         in datasheet must be shift at right before call interface
2219:Drivers/STM32F0xx_HAL_Driver/Src/stm32f0xx_hal_i2c.c ****   * @param  MemAddress Internal memory address
2220:Drivers/STM32F0xx_HAL_Driver/Src/stm32f0xx_hal_i2c.c ****   * @param  MemAddSize Size of internal memory address
2221:Drivers/STM32F0xx_HAL_Driver/Src/stm32f0xx_hal_i2c.c ****   * @param  pData Pointer to data buffer
2222:Drivers/STM32F0xx_HAL_Driver/Src/stm32f0xx_hal_i2c.c ****   * @param  Size Amount of data to be sent
2223:Drivers/STM32F0xx_HAL_Driver/Src/stm32f0xx_hal_i2c.c ****   * @retval HAL status
2224:Drivers/STM32F0xx_HAL_Driver/Src/stm32f0xx_hal_i2c.c ****   */
2225:Drivers/STM32F0xx_HAL_Driver/Src/stm32f0xx_hal_i2c.c **** HAL_StatusTypeDef HAL_I2C_Mem_Write_DMA(I2C_HandleTypeDef *hi2c, uint16_t DevAddress, uint16_t MemA
2226:Drivers/STM32F0xx_HAL_Driver/Src/stm32f0xx_hal_i2c.c **** {
 5023              		.loc 1 2226 1
 5024              		.cfi_startproc
 5025              		@ args = 8, pretend = 0, frame = 24
 5026              		@ frame_needed = 1, uses_anonymous_args = 0
 5027 0000 90B5     		push	{r4, r7, lr}
 5028              	.LCFI60:
 5029              		.cfi_def_cfa_offset 12
 5030              		.cfi_offset 4, -12
 5031              		.cfi_offset 7, -8
 5032              		.cfi_offset 14, -4
 5033 0002 89B0     		sub	sp, sp, #36
 5034              	.LCFI61:
 5035              		.cfi_def_cfa_offset 48
 5036 0004 02AF     		add	r7, sp, #8
 5037              	.LCFI62:
 5038              		.cfi_def_cfa 7, 40
 5039 0006 F860     		str	r0, [r7, #12]
 5040 0008 0C00     		movs	r4, r1
 5041 000a 1000     		movs	r0, r2
 5042 000c 1900     		movs	r1, r3
 5043 000e 0A23     		movs	r3, #10
 5044 0010 FB18     		adds	r3, r7, r3
 5045 0012 221C     		adds	r2, r4, #0
 5046 0014 1A80     		strh	r2, [r3]
ARM GAS  C:\Users\ADMINI~1\AppData\Local\Temp\cc3zYV2m.s 			page 128


 5047 0016 0823     		movs	r3, #8
 5048 0018 FB18     		adds	r3, r7, r3
 5049 001a 021C     		adds	r2, r0, #0
 5050 001c 1A80     		strh	r2, [r3]
 5051 001e BB1D     		adds	r3, r7, #6
 5052 0020 0A1C     		adds	r2, r1, #0
 5053 0022 1A80     		strh	r2, [r3]
2227:Drivers/STM32F0xx_HAL_Driver/Src/stm32f0xx_hal_i2c.c ****   uint32_t tickstart = 0U;
 5054              		.loc 1 2227 12
 5055 0024 0023     		movs	r3, #0
 5056 0026 3B61     		str	r3, [r7, #16]
2228:Drivers/STM32F0xx_HAL_Driver/Src/stm32f0xx_hal_i2c.c ****   uint32_t xfermode = 0U;
 5057              		.loc 1 2228 12
 5058 0028 0023     		movs	r3, #0
 5059 002a 7B61     		str	r3, [r7, #20]
2229:Drivers/STM32F0xx_HAL_Driver/Src/stm32f0xx_hal_i2c.c **** 
2230:Drivers/STM32F0xx_HAL_Driver/Src/stm32f0xx_hal_i2c.c ****   /* Check the parameters */
2231:Drivers/STM32F0xx_HAL_Driver/Src/stm32f0xx_hal_i2c.c ****   assert_param(IS_I2C_MEMADD_SIZE(MemAddSize));
2232:Drivers/STM32F0xx_HAL_Driver/Src/stm32f0xx_hal_i2c.c **** 
2233:Drivers/STM32F0xx_HAL_Driver/Src/stm32f0xx_hal_i2c.c ****   if (hi2c->State == HAL_I2C_STATE_READY)
 5060              		.loc 1 2233 11
 5061 002c FB68     		ldr	r3, [r7, #12]
 5062 002e 4122     		movs	r2, #65
 5063 0030 9B5C     		ldrb	r3, [r3, r2]
 5064 0032 DBB2     		uxtb	r3, r3
 5065              		.loc 1 2233 6
 5066 0034 202B     		cmp	r3, #32
 5067 0036 00D0     		beq	.LCB4256
 5068 0038 B8E0     		b	.L222	@long jump
 5069              	.LCB4256:
2234:Drivers/STM32F0xx_HAL_Driver/Src/stm32f0xx_hal_i2c.c ****   {
2235:Drivers/STM32F0xx_HAL_Driver/Src/stm32f0xx_hal_i2c.c ****     if ((pData == NULL) || (Size == 0U))
 5070              		.loc 1 2235 8
 5071 003a BB6A     		ldr	r3, [r7, #40]
 5072 003c 002B     		cmp	r3, #0
 5073 003e 04D0     		beq	.L223
 5074              		.loc 1 2235 25 discriminator 1
 5075 0040 2C23     		movs	r3, #44
 5076 0042 FB18     		adds	r3, r7, r3
 5077 0044 1B88     		ldrh	r3, [r3]
 5078 0046 002B     		cmp	r3, #0
 5079 0048 01D1     		bne	.L224
 5080              	.L223:
2236:Drivers/STM32F0xx_HAL_Driver/Src/stm32f0xx_hal_i2c.c ****     {
2237:Drivers/STM32F0xx_HAL_Driver/Src/stm32f0xx_hal_i2c.c ****       return  HAL_ERROR;
 5081              		.loc 1 2237 15
 5082 004a 0123     		movs	r3, #1
 5083 004c AFE0     		b	.L225
 5084              	.L224:
2238:Drivers/STM32F0xx_HAL_Driver/Src/stm32f0xx_hal_i2c.c ****     }
2239:Drivers/STM32F0xx_HAL_Driver/Src/stm32f0xx_hal_i2c.c **** 
2240:Drivers/STM32F0xx_HAL_Driver/Src/stm32f0xx_hal_i2c.c ****     if (__HAL_I2C_GET_FLAG(hi2c, I2C_FLAG_BUSY) == SET)
 5085              		.loc 1 2240 9
 5086 004e FB68     		ldr	r3, [r7, #12]
 5087 0050 1B68     		ldr	r3, [r3]
 5088 0052 9A69     		ldr	r2, [r3, #24]
 5089 0054 8023     		movs	r3, #128
ARM GAS  C:\Users\ADMINI~1\AppData\Local\Temp\cc3zYV2m.s 			page 129


 5090 0056 1B02     		lsls	r3, r3, #8
 5091 0058 1A40     		ands	r2, r3
 5092              		.loc 1 2240 8
 5093 005a 8023     		movs	r3, #128
 5094 005c 1B02     		lsls	r3, r3, #8
 5095 005e 9A42     		cmp	r2, r3
 5096 0060 01D1     		bne	.L226
2241:Drivers/STM32F0xx_HAL_Driver/Src/stm32f0xx_hal_i2c.c ****     {
2242:Drivers/STM32F0xx_HAL_Driver/Src/stm32f0xx_hal_i2c.c ****       return HAL_BUSY;
 5097              		.loc 1 2242 14
 5098 0062 0223     		movs	r3, #2
 5099 0064 A3E0     		b	.L225
 5100              	.L226:
2243:Drivers/STM32F0xx_HAL_Driver/Src/stm32f0xx_hal_i2c.c ****     }
2244:Drivers/STM32F0xx_HAL_Driver/Src/stm32f0xx_hal_i2c.c **** 
2245:Drivers/STM32F0xx_HAL_Driver/Src/stm32f0xx_hal_i2c.c ****     /* Process Locked */
2246:Drivers/STM32F0xx_HAL_Driver/Src/stm32f0xx_hal_i2c.c ****     __HAL_LOCK(hi2c);
 5101              		.loc 1 2246 5
 5102 0066 FB68     		ldr	r3, [r7, #12]
 5103 0068 4022     		movs	r2, #64
 5104 006a 9B5C     		ldrb	r3, [r3, r2]
 5105 006c 012B     		cmp	r3, #1
 5106 006e 01D1     		bne	.L227
 5107              		.loc 1 2246 5 is_stmt 0 discriminator 1
 5108 0070 0223     		movs	r3, #2
 5109 0072 9CE0     		b	.L225
 5110              	.L227:
 5111              		.loc 1 2246 5 discriminator 2
 5112 0074 FB68     		ldr	r3, [r7, #12]
 5113 0076 4022     		movs	r2, #64
 5114 0078 0121     		movs	r1, #1
 5115 007a 9954     		strb	r1, [r3, r2]
2247:Drivers/STM32F0xx_HAL_Driver/Src/stm32f0xx_hal_i2c.c **** 
2248:Drivers/STM32F0xx_HAL_Driver/Src/stm32f0xx_hal_i2c.c ****     /* Init tickstart for timeout management*/
2249:Drivers/STM32F0xx_HAL_Driver/Src/stm32f0xx_hal_i2c.c ****     tickstart = HAL_GetTick();
 5116              		.loc 1 2249 17 is_stmt 1 discriminator 2
 5117 007c FFF7FEFF 		bl	HAL_GetTick
 5118 0080 0300     		movs	r3, r0
 5119 0082 3B61     		str	r3, [r7, #16]
2250:Drivers/STM32F0xx_HAL_Driver/Src/stm32f0xx_hal_i2c.c **** 
2251:Drivers/STM32F0xx_HAL_Driver/Src/stm32f0xx_hal_i2c.c ****     hi2c->State       = HAL_I2C_STATE_BUSY_TX;
 5120              		.loc 1 2251 23 discriminator 2
 5121 0084 FB68     		ldr	r3, [r7, #12]
 5122 0086 4122     		movs	r2, #65
 5123 0088 2121     		movs	r1, #33
 5124 008a 9954     		strb	r1, [r3, r2]
2252:Drivers/STM32F0xx_HAL_Driver/Src/stm32f0xx_hal_i2c.c ****     hi2c->Mode        = HAL_I2C_MODE_MEM;
 5125              		.loc 1 2252 23 discriminator 2
 5126 008c FB68     		ldr	r3, [r7, #12]
 5127 008e 4222     		movs	r2, #66
 5128 0090 4021     		movs	r1, #64
 5129 0092 9954     		strb	r1, [r3, r2]
2253:Drivers/STM32F0xx_HAL_Driver/Src/stm32f0xx_hal_i2c.c ****     hi2c->ErrorCode   = HAL_I2C_ERROR_NONE;
 5130              		.loc 1 2253 23 discriminator 2
 5131 0094 FB68     		ldr	r3, [r7, #12]
 5132 0096 0022     		movs	r2, #0
 5133 0098 5A64     		str	r2, [r3, #68]
ARM GAS  C:\Users\ADMINI~1\AppData\Local\Temp\cc3zYV2m.s 			page 130


2254:Drivers/STM32F0xx_HAL_Driver/Src/stm32f0xx_hal_i2c.c **** 
2255:Drivers/STM32F0xx_HAL_Driver/Src/stm32f0xx_hal_i2c.c ****     /* Prepare transfer parameters */
2256:Drivers/STM32F0xx_HAL_Driver/Src/stm32f0xx_hal_i2c.c ****     hi2c->pBuffPtr    = pData;
 5134              		.loc 1 2256 23 discriminator 2
 5135 009a FB68     		ldr	r3, [r7, #12]
 5136 009c BA6A     		ldr	r2, [r7, #40]
 5137 009e 5A62     		str	r2, [r3, #36]
2257:Drivers/STM32F0xx_HAL_Driver/Src/stm32f0xx_hal_i2c.c ****     hi2c->XferCount   = Size;
 5138              		.loc 1 2257 23 discriminator 2
 5139 00a0 FB68     		ldr	r3, [r7, #12]
 5140 00a2 2C22     		movs	r2, #44
 5141 00a4 BA18     		adds	r2, r7, r2
 5142 00a6 1288     		ldrh	r2, [r2]
 5143 00a8 5A85     		strh	r2, [r3, #42]
2258:Drivers/STM32F0xx_HAL_Driver/Src/stm32f0xx_hal_i2c.c ****     hi2c->XferOptions = I2C_NO_OPTION_FRAME;
 5144              		.loc 1 2258 23 discriminator 2
 5145 00aa FB68     		ldr	r3, [r7, #12]
 5146 00ac 424A     		ldr	r2, .L232
 5147 00ae DA62     		str	r2, [r3, #44]
2259:Drivers/STM32F0xx_HAL_Driver/Src/stm32f0xx_hal_i2c.c ****     hi2c->XferISR     = I2C_Master_ISR_DMA;
 5148              		.loc 1 2259 23 discriminator 2
 5149 00b0 FB68     		ldr	r3, [r7, #12]
 5150 00b2 424A     		ldr	r2, .L232+4
 5151 00b4 5A63     		str	r2, [r3, #52]
2260:Drivers/STM32F0xx_HAL_Driver/Src/stm32f0xx_hal_i2c.c **** 
2261:Drivers/STM32F0xx_HAL_Driver/Src/stm32f0xx_hal_i2c.c ****     if (hi2c->XferCount > MAX_NBYTE_SIZE)
 5152              		.loc 1 2261 13 discriminator 2
 5153 00b6 FB68     		ldr	r3, [r7, #12]
 5154 00b8 5B8D     		ldrh	r3, [r3, #42]
 5155 00ba 9BB2     		uxth	r3, r3
 5156              		.loc 1 2261 8 discriminator 2
 5157 00bc FF2B     		cmp	r3, #255
 5158 00be 06D9     		bls	.L228
2262:Drivers/STM32F0xx_HAL_Driver/Src/stm32f0xx_hal_i2c.c ****     {
2263:Drivers/STM32F0xx_HAL_Driver/Src/stm32f0xx_hal_i2c.c ****       hi2c->XferSize = MAX_NBYTE_SIZE;
 5159              		.loc 1 2263 22
 5160 00c0 FB68     		ldr	r3, [r7, #12]
 5161 00c2 FF22     		movs	r2, #255
 5162 00c4 1A85     		strh	r2, [r3, #40]
2264:Drivers/STM32F0xx_HAL_Driver/Src/stm32f0xx_hal_i2c.c ****       xfermode = I2C_RELOAD_MODE;
 5163              		.loc 1 2264 16
 5164 00c6 8023     		movs	r3, #128
 5165 00c8 5B04     		lsls	r3, r3, #17
 5166 00ca 7B61     		str	r3, [r7, #20]
 5167 00cc 07E0     		b	.L229
 5168              	.L228:
2265:Drivers/STM32F0xx_HAL_Driver/Src/stm32f0xx_hal_i2c.c ****     }
2266:Drivers/STM32F0xx_HAL_Driver/Src/stm32f0xx_hal_i2c.c ****     else
2267:Drivers/STM32F0xx_HAL_Driver/Src/stm32f0xx_hal_i2c.c ****     {
2268:Drivers/STM32F0xx_HAL_Driver/Src/stm32f0xx_hal_i2c.c ****       hi2c->XferSize = hi2c->XferCount;
 5169              		.loc 1 2268 28
 5170 00ce FB68     		ldr	r3, [r7, #12]
 5171 00d0 5B8D     		ldrh	r3, [r3, #42]
 5172 00d2 9AB2     		uxth	r2, r3
 5173              		.loc 1 2268 22
 5174 00d4 FB68     		ldr	r3, [r7, #12]
 5175 00d6 1A85     		strh	r2, [r3, #40]
ARM GAS  C:\Users\ADMINI~1\AppData\Local\Temp\cc3zYV2m.s 			page 131


2269:Drivers/STM32F0xx_HAL_Driver/Src/stm32f0xx_hal_i2c.c ****       xfermode = I2C_AUTOEND_MODE;
 5176              		.loc 1 2269 16
 5177 00d8 8023     		movs	r3, #128
 5178 00da 9B04     		lsls	r3, r3, #18
 5179 00dc 7B61     		str	r3, [r7, #20]
 5180              	.L229:
2270:Drivers/STM32F0xx_HAL_Driver/Src/stm32f0xx_hal_i2c.c ****     }
2271:Drivers/STM32F0xx_HAL_Driver/Src/stm32f0xx_hal_i2c.c **** 
2272:Drivers/STM32F0xx_HAL_Driver/Src/stm32f0xx_hal_i2c.c ****     /* Send Slave Address and Memory Address */
2273:Drivers/STM32F0xx_HAL_Driver/Src/stm32f0xx_hal_i2c.c ****     if (I2C_RequestMemoryWrite(hi2c, DevAddress, MemAddress, MemAddSize, I2C_TIMEOUT_FLAG, tickstar
 5181              		.loc 1 2273 9
 5182 00de BB1D     		adds	r3, r7, #6
 5183 00e0 1C88     		ldrh	r4, [r3]
 5184 00e2 0823     		movs	r3, #8
 5185 00e4 FB18     		adds	r3, r7, r3
 5186 00e6 1A88     		ldrh	r2, [r3]
 5187 00e8 0A23     		movs	r3, #10
 5188 00ea FB18     		adds	r3, r7, r3
 5189 00ec 1988     		ldrh	r1, [r3]
 5190 00ee F868     		ldr	r0, [r7, #12]
 5191 00f0 3B69     		ldr	r3, [r7, #16]
 5192 00f2 0193     		str	r3, [sp, #4]
 5193 00f4 1923     		movs	r3, #25
 5194 00f6 0093     		str	r3, [sp]
 5195 00f8 2300     		movs	r3, r4
 5196 00fa FFF7FEFF 		bl	I2C_RequestMemoryWrite
 5197 00fe 031E     		subs	r3, r0, #0
 5198              		.loc 1 2273 8
 5199 0100 0FD0     		beq	.L230
2274:Drivers/STM32F0xx_HAL_Driver/Src/stm32f0xx_hal_i2c.c ****     {
2275:Drivers/STM32F0xx_HAL_Driver/Src/stm32f0xx_hal_i2c.c ****       if (hi2c->ErrorCode == HAL_I2C_ERROR_AF)
 5200              		.loc 1 2275 15
 5201 0102 FB68     		ldr	r3, [r7, #12]
 5202 0104 5B6C     		ldr	r3, [r3, #68]
 5203              		.loc 1 2275 10
 5204 0106 042B     		cmp	r3, #4
 5205 0108 05D1     		bne	.L231
2276:Drivers/STM32F0xx_HAL_Driver/Src/stm32f0xx_hal_i2c.c ****       {
2277:Drivers/STM32F0xx_HAL_Driver/Src/stm32f0xx_hal_i2c.c ****         /* Process Unlocked */
2278:Drivers/STM32F0xx_HAL_Driver/Src/stm32f0xx_hal_i2c.c ****         __HAL_UNLOCK(hi2c);
 5206              		.loc 1 2278 9
 5207 010a FB68     		ldr	r3, [r7, #12]
 5208 010c 4022     		movs	r2, #64
 5209 010e 0021     		movs	r1, #0
 5210 0110 9954     		strb	r1, [r3, r2]
2279:Drivers/STM32F0xx_HAL_Driver/Src/stm32f0xx_hal_i2c.c ****         return HAL_ERROR;
 5211              		.loc 1 2279 16
 5212 0112 0123     		movs	r3, #1
 5213 0114 4BE0     		b	.L225
 5214              	.L231:
2280:Drivers/STM32F0xx_HAL_Driver/Src/stm32f0xx_hal_i2c.c ****       }
2281:Drivers/STM32F0xx_HAL_Driver/Src/stm32f0xx_hal_i2c.c ****       else
2282:Drivers/STM32F0xx_HAL_Driver/Src/stm32f0xx_hal_i2c.c ****       {
2283:Drivers/STM32F0xx_HAL_Driver/Src/stm32f0xx_hal_i2c.c ****         /* Process Unlocked */
2284:Drivers/STM32F0xx_HAL_Driver/Src/stm32f0xx_hal_i2c.c ****         __HAL_UNLOCK(hi2c);
 5215              		.loc 1 2284 9
 5216 0116 FB68     		ldr	r3, [r7, #12]
ARM GAS  C:\Users\ADMINI~1\AppData\Local\Temp\cc3zYV2m.s 			page 132


 5217 0118 4022     		movs	r2, #64
 5218 011a 0021     		movs	r1, #0
 5219 011c 9954     		strb	r1, [r3, r2]
2285:Drivers/STM32F0xx_HAL_Driver/Src/stm32f0xx_hal_i2c.c ****         return HAL_TIMEOUT;
 5220              		.loc 1 2285 16
 5221 011e 0323     		movs	r3, #3
 5222 0120 45E0     		b	.L225
 5223              	.L230:
2286:Drivers/STM32F0xx_HAL_Driver/Src/stm32f0xx_hal_i2c.c ****       }
2287:Drivers/STM32F0xx_HAL_Driver/Src/stm32f0xx_hal_i2c.c ****     }
2288:Drivers/STM32F0xx_HAL_Driver/Src/stm32f0xx_hal_i2c.c **** 
2289:Drivers/STM32F0xx_HAL_Driver/Src/stm32f0xx_hal_i2c.c ****     /* Set the I2C DMA transfer complete callback */
2290:Drivers/STM32F0xx_HAL_Driver/Src/stm32f0xx_hal_i2c.c ****     hi2c->hdmatx->XferCpltCallback = I2C_DMAMasterTransmitCplt;
 5224              		.loc 1 2290 9
 5225 0122 FB68     		ldr	r3, [r7, #12]
 5226 0124 9B6B     		ldr	r3, [r3, #56]
 5227              		.loc 1 2290 36
 5228 0126 264A     		ldr	r2, .L232+8
 5229 0128 9A62     		str	r2, [r3, #40]
2291:Drivers/STM32F0xx_HAL_Driver/Src/stm32f0xx_hal_i2c.c **** 
2292:Drivers/STM32F0xx_HAL_Driver/Src/stm32f0xx_hal_i2c.c ****     /* Set the DMA error callback */
2293:Drivers/STM32F0xx_HAL_Driver/Src/stm32f0xx_hal_i2c.c ****     hi2c->hdmatx->XferErrorCallback = I2C_DMAError;
 5230              		.loc 1 2293 9
 5231 012a FB68     		ldr	r3, [r7, #12]
 5232 012c 9B6B     		ldr	r3, [r3, #56]
 5233              		.loc 1 2293 37
 5234 012e 254A     		ldr	r2, .L232+12
 5235 0130 1A63     		str	r2, [r3, #48]
2294:Drivers/STM32F0xx_HAL_Driver/Src/stm32f0xx_hal_i2c.c **** 
2295:Drivers/STM32F0xx_HAL_Driver/Src/stm32f0xx_hal_i2c.c ****     /* Set the unused DMA callbacks to NULL */
2296:Drivers/STM32F0xx_HAL_Driver/Src/stm32f0xx_hal_i2c.c ****     hi2c->hdmatx->XferHalfCpltCallback = NULL;
 5236              		.loc 1 2296 9
 5237 0132 FB68     		ldr	r3, [r7, #12]
 5238 0134 9B6B     		ldr	r3, [r3, #56]
 5239              		.loc 1 2296 40
 5240 0136 0022     		movs	r2, #0
 5241 0138 DA62     		str	r2, [r3, #44]
2297:Drivers/STM32F0xx_HAL_Driver/Src/stm32f0xx_hal_i2c.c ****     hi2c->hdmatx->XferAbortCallback = NULL;
 5242              		.loc 1 2297 9
 5243 013a FB68     		ldr	r3, [r7, #12]
 5244 013c 9B6B     		ldr	r3, [r3, #56]
 5245              		.loc 1 2297 37
 5246 013e 0022     		movs	r2, #0
 5247 0140 5A63     		str	r2, [r3, #52]
2298:Drivers/STM32F0xx_HAL_Driver/Src/stm32f0xx_hal_i2c.c **** 
2299:Drivers/STM32F0xx_HAL_Driver/Src/stm32f0xx_hal_i2c.c ****     /* Enable the DMA channel */
2300:Drivers/STM32F0xx_HAL_Driver/Src/stm32f0xx_hal_i2c.c ****     HAL_DMA_Start_IT(hi2c->hdmatx, (uint32_t)pData, (uint32_t)&hi2c->Instance->TXDR, hi2c->XferSize
 5248              		.loc 1 2300 5
 5249 0142 FB68     		ldr	r3, [r7, #12]
 5250 0144 986B     		ldr	r0, [r3, #56]
 5251 0146 B96A     		ldr	r1, [r7, #40]
 5252              		.loc 1 2300 68
 5253 0148 FB68     		ldr	r3, [r7, #12]
 5254 014a 1B68     		ldr	r3, [r3]
 5255              		.loc 1 2300 63
 5256 014c 2833     		adds	r3, r3, #40
 5257              		.loc 1 2300 5
ARM GAS  C:\Users\ADMINI~1\AppData\Local\Temp\cc3zYV2m.s 			page 133


 5258 014e 1A00     		movs	r2, r3
 5259              		.loc 1 2300 90
 5260 0150 FB68     		ldr	r3, [r7, #12]
 5261 0152 1B8D     		ldrh	r3, [r3, #40]
 5262              		.loc 1 2300 5
 5263 0154 FFF7FEFF 		bl	HAL_DMA_Start_IT
2301:Drivers/STM32F0xx_HAL_Driver/Src/stm32f0xx_hal_i2c.c **** 
2302:Drivers/STM32F0xx_HAL_Driver/Src/stm32f0xx_hal_i2c.c ****     /* Send Slave Address */
2303:Drivers/STM32F0xx_HAL_Driver/Src/stm32f0xx_hal_i2c.c ****     /* Set NBYTES to write and reload if hi2c->XferCount > MAX_NBYTE_SIZE and generate RESTART */
2304:Drivers/STM32F0xx_HAL_Driver/Src/stm32f0xx_hal_i2c.c ****     I2C_TransferConfig(hi2c, DevAddress, hi2c->XferSize, xfermode, I2C_NO_STARTSTOP);
 5264              		.loc 1 2304 46
 5265 0158 FB68     		ldr	r3, [r7, #12]
 5266 015a 1B8D     		ldrh	r3, [r3, #40]
 5267              		.loc 1 2304 5
 5268 015c DAB2     		uxtb	r2, r3
 5269 015e 7C69     		ldr	r4, [r7, #20]
 5270 0160 0A23     		movs	r3, #10
 5271 0162 FB18     		adds	r3, r7, r3
 5272 0164 1988     		ldrh	r1, [r3]
 5273 0166 F868     		ldr	r0, [r7, #12]
 5274 0168 0023     		movs	r3, #0
 5275 016a 0093     		str	r3, [sp]
 5276 016c 2300     		movs	r3, r4
 5277 016e FFF7FEFF 		bl	I2C_TransferConfig
2305:Drivers/STM32F0xx_HAL_Driver/Src/stm32f0xx_hal_i2c.c **** 
2306:Drivers/STM32F0xx_HAL_Driver/Src/stm32f0xx_hal_i2c.c ****     /* Update XferCount value */
2307:Drivers/STM32F0xx_HAL_Driver/Src/stm32f0xx_hal_i2c.c ****     hi2c->XferCount -= hi2c->XferSize;
 5278              		.loc 1 2307 21
 5279 0172 FB68     		ldr	r3, [r7, #12]
 5280 0174 5B8D     		ldrh	r3, [r3, #42]
 5281 0176 9AB2     		uxth	r2, r3
 5282              		.loc 1 2307 28
 5283 0178 FB68     		ldr	r3, [r7, #12]
 5284 017a 1B8D     		ldrh	r3, [r3, #40]
 5285              		.loc 1 2307 21
 5286 017c D31A     		subs	r3, r2, r3
 5287 017e 9AB2     		uxth	r2, r3
 5288 0180 FB68     		ldr	r3, [r7, #12]
 5289 0182 5A85     		strh	r2, [r3, #42]
2308:Drivers/STM32F0xx_HAL_Driver/Src/stm32f0xx_hal_i2c.c **** 
2309:Drivers/STM32F0xx_HAL_Driver/Src/stm32f0xx_hal_i2c.c ****     /* Process Unlocked */
2310:Drivers/STM32F0xx_HAL_Driver/Src/stm32f0xx_hal_i2c.c ****     __HAL_UNLOCK(hi2c);
 5290              		.loc 1 2310 5
 5291 0184 FB68     		ldr	r3, [r7, #12]
 5292 0186 4022     		movs	r2, #64
 5293 0188 0021     		movs	r1, #0
 5294 018a 9954     		strb	r1, [r3, r2]
2311:Drivers/STM32F0xx_HAL_Driver/Src/stm32f0xx_hal_i2c.c **** 
2312:Drivers/STM32F0xx_HAL_Driver/Src/stm32f0xx_hal_i2c.c ****     /* Note : The I2C interrupts must be enabled after unlocking current process
2313:Drivers/STM32F0xx_HAL_Driver/Src/stm32f0xx_hal_i2c.c ****               to avoid the risk of I2C interrupt handle execution before current
2314:Drivers/STM32F0xx_HAL_Driver/Src/stm32f0xx_hal_i2c.c ****               process unlock */
2315:Drivers/STM32F0xx_HAL_Driver/Src/stm32f0xx_hal_i2c.c ****     /* Enable ERR and NACK interrupts */
2316:Drivers/STM32F0xx_HAL_Driver/Src/stm32f0xx_hal_i2c.c ****     I2C_Enable_IRQ(hi2c, I2C_XFER_ERROR_IT);
 5295              		.loc 1 2316 5
 5296 018c FB68     		ldr	r3, [r7, #12]
 5297 018e 1121     		movs	r1, #17
 5298 0190 1800     		movs	r0, r3
ARM GAS  C:\Users\ADMINI~1\AppData\Local\Temp\cc3zYV2m.s 			page 134


 5299 0192 FFF7FEFF 		bl	I2C_Enable_IRQ
2317:Drivers/STM32F0xx_HAL_Driver/Src/stm32f0xx_hal_i2c.c **** 
2318:Drivers/STM32F0xx_HAL_Driver/Src/stm32f0xx_hal_i2c.c ****     /* Enable DMA Request */
2319:Drivers/STM32F0xx_HAL_Driver/Src/stm32f0xx_hal_i2c.c ****     hi2c->Instance->CR1 |= I2C_CR1_TXDMAEN;
 5300              		.loc 1 2319 9
 5301 0196 FB68     		ldr	r3, [r7, #12]
 5302 0198 1B68     		ldr	r3, [r3]
 5303              		.loc 1 2319 25
 5304 019a 1A68     		ldr	r2, [r3]
 5305              		.loc 1 2319 9
 5306 019c FB68     		ldr	r3, [r7, #12]
 5307 019e 1B68     		ldr	r3, [r3]
 5308              		.loc 1 2319 25
 5309 01a0 8021     		movs	r1, #128
 5310 01a2 C901     		lsls	r1, r1, #7
 5311 01a4 0A43     		orrs	r2, r1
 5312 01a6 1A60     		str	r2, [r3]
2320:Drivers/STM32F0xx_HAL_Driver/Src/stm32f0xx_hal_i2c.c **** 
2321:Drivers/STM32F0xx_HAL_Driver/Src/stm32f0xx_hal_i2c.c ****     return HAL_OK;
 5313              		.loc 1 2321 12
 5314 01a8 0023     		movs	r3, #0
 5315 01aa 00E0     		b	.L225
 5316              	.L222:
2322:Drivers/STM32F0xx_HAL_Driver/Src/stm32f0xx_hal_i2c.c ****   }
2323:Drivers/STM32F0xx_HAL_Driver/Src/stm32f0xx_hal_i2c.c ****   else
2324:Drivers/STM32F0xx_HAL_Driver/Src/stm32f0xx_hal_i2c.c ****   {
2325:Drivers/STM32F0xx_HAL_Driver/Src/stm32f0xx_hal_i2c.c ****     return HAL_BUSY;
 5317              		.loc 1 2325 12
 5318 01ac 0223     		movs	r3, #2
 5319              	.L225:
2326:Drivers/STM32F0xx_HAL_Driver/Src/stm32f0xx_hal_i2c.c ****   }
2327:Drivers/STM32F0xx_HAL_Driver/Src/stm32f0xx_hal_i2c.c **** }
 5320              		.loc 1 2327 1
 5321 01ae 1800     		movs	r0, r3
 5322 01b0 BD46     		mov	sp, r7
 5323 01b2 07B0     		add	sp, sp, #28
 5324              		@ sp needed
 5325 01b4 90BD     		pop	{r4, r7, pc}
 5326              	.L233:
 5327 01b6 C046     		.align	2
 5328              	.L232:
 5329 01b8 0000FFFF 		.word	-65536
 5330 01bc 00000000 		.word	I2C_Master_ISR_DMA
 5331 01c0 00000000 		.word	I2C_DMAMasterTransmitCplt
 5332 01c4 00000000 		.word	I2C_DMAError
 5333              		.cfi_endproc
 5334              	.LFE57:
 5336              		.section	.text.HAL_I2C_Mem_Read_DMA,"ax",%progbits
 5337              		.align	1
 5338              		.global	HAL_I2C_Mem_Read_DMA
 5339              		.syntax unified
 5340              		.code	16
 5341              		.thumb_func
 5342              		.fpu softvfp
 5344              	HAL_I2C_Mem_Read_DMA:
 5345              	.LFB58:
2328:Drivers/STM32F0xx_HAL_Driver/Src/stm32f0xx_hal_i2c.c **** 
ARM GAS  C:\Users\ADMINI~1\AppData\Local\Temp\cc3zYV2m.s 			page 135


2329:Drivers/STM32F0xx_HAL_Driver/Src/stm32f0xx_hal_i2c.c **** /**
2330:Drivers/STM32F0xx_HAL_Driver/Src/stm32f0xx_hal_i2c.c ****   * @brief  Reads an amount of data in non-blocking mode with DMA from a specific memory address.
2331:Drivers/STM32F0xx_HAL_Driver/Src/stm32f0xx_hal_i2c.c ****   * @param  hi2c Pointer to a I2C_HandleTypeDef structure that contains
2332:Drivers/STM32F0xx_HAL_Driver/Src/stm32f0xx_hal_i2c.c ****   *                the configuration information for the specified I2C.
2333:Drivers/STM32F0xx_HAL_Driver/Src/stm32f0xx_hal_i2c.c ****   * @param  DevAddress Target device address: The device 7 bits address value
2334:Drivers/STM32F0xx_HAL_Driver/Src/stm32f0xx_hal_i2c.c ****   *         in datasheet must be shift at right before call interface
2335:Drivers/STM32F0xx_HAL_Driver/Src/stm32f0xx_hal_i2c.c ****   * @param  MemAddress Internal memory address
2336:Drivers/STM32F0xx_HAL_Driver/Src/stm32f0xx_hal_i2c.c ****   * @param  MemAddSize Size of internal memory address
2337:Drivers/STM32F0xx_HAL_Driver/Src/stm32f0xx_hal_i2c.c ****   * @param  pData Pointer to data buffer
2338:Drivers/STM32F0xx_HAL_Driver/Src/stm32f0xx_hal_i2c.c ****   * @param  Size Amount of data to be read
2339:Drivers/STM32F0xx_HAL_Driver/Src/stm32f0xx_hal_i2c.c ****   * @retval HAL status
2340:Drivers/STM32F0xx_HAL_Driver/Src/stm32f0xx_hal_i2c.c ****   */
2341:Drivers/STM32F0xx_HAL_Driver/Src/stm32f0xx_hal_i2c.c **** HAL_StatusTypeDef HAL_I2C_Mem_Read_DMA(I2C_HandleTypeDef *hi2c, uint16_t DevAddress, uint16_t MemAd
2342:Drivers/STM32F0xx_HAL_Driver/Src/stm32f0xx_hal_i2c.c **** {
 5346              		.loc 1 2342 1
 5347              		.cfi_startproc
 5348              		@ args = 8, pretend = 0, frame = 24
 5349              		@ frame_needed = 1, uses_anonymous_args = 0
 5350 0000 90B5     		push	{r4, r7, lr}
 5351              	.LCFI63:
 5352              		.cfi_def_cfa_offset 12
 5353              		.cfi_offset 4, -12
 5354              		.cfi_offset 7, -8
 5355              		.cfi_offset 14, -4
 5356 0002 89B0     		sub	sp, sp, #36
 5357              	.LCFI64:
 5358              		.cfi_def_cfa_offset 48
 5359 0004 02AF     		add	r7, sp, #8
 5360              	.LCFI65:
 5361              		.cfi_def_cfa 7, 40
 5362 0006 F860     		str	r0, [r7, #12]
 5363 0008 0C00     		movs	r4, r1
 5364 000a 1000     		movs	r0, r2
 5365 000c 1900     		movs	r1, r3
 5366 000e 0A23     		movs	r3, #10
 5367 0010 FB18     		adds	r3, r7, r3
 5368 0012 221C     		adds	r2, r4, #0
 5369 0014 1A80     		strh	r2, [r3]
 5370 0016 0823     		movs	r3, #8
 5371 0018 FB18     		adds	r3, r7, r3
 5372 001a 021C     		adds	r2, r0, #0
 5373 001c 1A80     		strh	r2, [r3]
 5374 001e BB1D     		adds	r3, r7, #6
 5375 0020 0A1C     		adds	r2, r1, #0
 5376 0022 1A80     		strh	r2, [r3]
2343:Drivers/STM32F0xx_HAL_Driver/Src/stm32f0xx_hal_i2c.c ****   uint32_t tickstart = 0U;
 5377              		.loc 1 2343 12
 5378 0024 0023     		movs	r3, #0
 5379 0026 3B61     		str	r3, [r7, #16]
2344:Drivers/STM32F0xx_HAL_Driver/Src/stm32f0xx_hal_i2c.c ****   uint32_t xfermode = 0U;
 5380              		.loc 1 2344 12
 5381 0028 0023     		movs	r3, #0
 5382 002a 7B61     		str	r3, [r7, #20]
2345:Drivers/STM32F0xx_HAL_Driver/Src/stm32f0xx_hal_i2c.c **** 
2346:Drivers/STM32F0xx_HAL_Driver/Src/stm32f0xx_hal_i2c.c ****   /* Check the parameters */
2347:Drivers/STM32F0xx_HAL_Driver/Src/stm32f0xx_hal_i2c.c ****   assert_param(IS_I2C_MEMADD_SIZE(MemAddSize));
2348:Drivers/STM32F0xx_HAL_Driver/Src/stm32f0xx_hal_i2c.c **** 
ARM GAS  C:\Users\ADMINI~1\AppData\Local\Temp\cc3zYV2m.s 			page 136


2349:Drivers/STM32F0xx_HAL_Driver/Src/stm32f0xx_hal_i2c.c ****   if (hi2c->State == HAL_I2C_STATE_READY)
 5383              		.loc 1 2349 11
 5384 002c FB68     		ldr	r3, [r7, #12]
 5385 002e 4122     		movs	r2, #65
 5386 0030 9B5C     		ldrb	r3, [r3, r2]
 5387 0032 DBB2     		uxtb	r3, r3
 5388              		.loc 1 2349 6
 5389 0034 202B     		cmp	r3, #32
 5390 0036 00D0     		beq	.LCB4526
 5391 0038 B9E0     		b	.L235	@long jump
 5392              	.LCB4526:
2350:Drivers/STM32F0xx_HAL_Driver/Src/stm32f0xx_hal_i2c.c ****   {
2351:Drivers/STM32F0xx_HAL_Driver/Src/stm32f0xx_hal_i2c.c ****     if ((pData == NULL) || (Size == 0U))
 5393              		.loc 1 2351 8
 5394 003a BB6A     		ldr	r3, [r7, #40]
 5395 003c 002B     		cmp	r3, #0
 5396 003e 04D0     		beq	.L236
 5397              		.loc 1 2351 25 discriminator 1
 5398 0040 2C23     		movs	r3, #44
 5399 0042 FB18     		adds	r3, r7, r3
 5400 0044 1B88     		ldrh	r3, [r3]
 5401 0046 002B     		cmp	r3, #0
 5402 0048 01D1     		bne	.L237
 5403              	.L236:
2352:Drivers/STM32F0xx_HAL_Driver/Src/stm32f0xx_hal_i2c.c ****     {
2353:Drivers/STM32F0xx_HAL_Driver/Src/stm32f0xx_hal_i2c.c ****       return  HAL_ERROR;
 5404              		.loc 1 2353 15
 5405 004a 0123     		movs	r3, #1
 5406 004c B0E0     		b	.L238
 5407              	.L237:
2354:Drivers/STM32F0xx_HAL_Driver/Src/stm32f0xx_hal_i2c.c ****     }
2355:Drivers/STM32F0xx_HAL_Driver/Src/stm32f0xx_hal_i2c.c **** 
2356:Drivers/STM32F0xx_HAL_Driver/Src/stm32f0xx_hal_i2c.c ****     if (__HAL_I2C_GET_FLAG(hi2c, I2C_FLAG_BUSY) == SET)
 5408              		.loc 1 2356 9
 5409 004e FB68     		ldr	r3, [r7, #12]
 5410 0050 1B68     		ldr	r3, [r3]
 5411 0052 9A69     		ldr	r2, [r3, #24]
 5412 0054 8023     		movs	r3, #128
 5413 0056 1B02     		lsls	r3, r3, #8
 5414 0058 1A40     		ands	r2, r3
 5415              		.loc 1 2356 8
 5416 005a 8023     		movs	r3, #128
 5417 005c 1B02     		lsls	r3, r3, #8
 5418 005e 9A42     		cmp	r2, r3
 5419 0060 01D1     		bne	.L239
2357:Drivers/STM32F0xx_HAL_Driver/Src/stm32f0xx_hal_i2c.c ****     {
2358:Drivers/STM32F0xx_HAL_Driver/Src/stm32f0xx_hal_i2c.c ****       return HAL_BUSY;
 5420              		.loc 1 2358 14
 5421 0062 0223     		movs	r3, #2
 5422 0064 A4E0     		b	.L238
 5423              	.L239:
2359:Drivers/STM32F0xx_HAL_Driver/Src/stm32f0xx_hal_i2c.c ****     }
2360:Drivers/STM32F0xx_HAL_Driver/Src/stm32f0xx_hal_i2c.c **** 
2361:Drivers/STM32F0xx_HAL_Driver/Src/stm32f0xx_hal_i2c.c ****     /* Process Locked */
2362:Drivers/STM32F0xx_HAL_Driver/Src/stm32f0xx_hal_i2c.c ****     __HAL_LOCK(hi2c);
 5424              		.loc 1 2362 5
 5425 0066 FB68     		ldr	r3, [r7, #12]
ARM GAS  C:\Users\ADMINI~1\AppData\Local\Temp\cc3zYV2m.s 			page 137


 5426 0068 4022     		movs	r2, #64
 5427 006a 9B5C     		ldrb	r3, [r3, r2]
 5428 006c 012B     		cmp	r3, #1
 5429 006e 01D1     		bne	.L240
 5430              		.loc 1 2362 5 is_stmt 0 discriminator 1
 5431 0070 0223     		movs	r3, #2
 5432 0072 9DE0     		b	.L238
 5433              	.L240:
 5434              		.loc 1 2362 5 discriminator 2
 5435 0074 FB68     		ldr	r3, [r7, #12]
 5436 0076 4022     		movs	r2, #64
 5437 0078 0121     		movs	r1, #1
 5438 007a 9954     		strb	r1, [r3, r2]
2363:Drivers/STM32F0xx_HAL_Driver/Src/stm32f0xx_hal_i2c.c **** 
2364:Drivers/STM32F0xx_HAL_Driver/Src/stm32f0xx_hal_i2c.c ****     /* Init tickstart for timeout management*/
2365:Drivers/STM32F0xx_HAL_Driver/Src/stm32f0xx_hal_i2c.c ****     tickstart = HAL_GetTick();
 5439              		.loc 1 2365 17 is_stmt 1 discriminator 2
 5440 007c FFF7FEFF 		bl	HAL_GetTick
 5441 0080 0300     		movs	r3, r0
 5442 0082 3B61     		str	r3, [r7, #16]
2366:Drivers/STM32F0xx_HAL_Driver/Src/stm32f0xx_hal_i2c.c **** 
2367:Drivers/STM32F0xx_HAL_Driver/Src/stm32f0xx_hal_i2c.c ****     hi2c->State       = HAL_I2C_STATE_BUSY_RX;
 5443              		.loc 1 2367 23 discriminator 2
 5444 0084 FB68     		ldr	r3, [r7, #12]
 5445 0086 4122     		movs	r2, #65
 5446 0088 2221     		movs	r1, #34
 5447 008a 9954     		strb	r1, [r3, r2]
2368:Drivers/STM32F0xx_HAL_Driver/Src/stm32f0xx_hal_i2c.c ****     hi2c->Mode        = HAL_I2C_MODE_MEM;
 5448              		.loc 1 2368 23 discriminator 2
 5449 008c FB68     		ldr	r3, [r7, #12]
 5450 008e 4222     		movs	r2, #66
 5451 0090 4021     		movs	r1, #64
 5452 0092 9954     		strb	r1, [r3, r2]
2369:Drivers/STM32F0xx_HAL_Driver/Src/stm32f0xx_hal_i2c.c ****     hi2c->ErrorCode   = HAL_I2C_ERROR_NONE;
 5453              		.loc 1 2369 23 discriminator 2
 5454 0094 FB68     		ldr	r3, [r7, #12]
 5455 0096 0022     		movs	r2, #0
 5456 0098 5A64     		str	r2, [r3, #68]
2370:Drivers/STM32F0xx_HAL_Driver/Src/stm32f0xx_hal_i2c.c **** 
2371:Drivers/STM32F0xx_HAL_Driver/Src/stm32f0xx_hal_i2c.c ****     /* Prepare transfer parameters */
2372:Drivers/STM32F0xx_HAL_Driver/Src/stm32f0xx_hal_i2c.c ****     hi2c->pBuffPtr    = pData;
 5457              		.loc 1 2372 23 discriminator 2
 5458 009a FB68     		ldr	r3, [r7, #12]
 5459 009c BA6A     		ldr	r2, [r7, #40]
 5460 009e 5A62     		str	r2, [r3, #36]
2373:Drivers/STM32F0xx_HAL_Driver/Src/stm32f0xx_hal_i2c.c ****     hi2c->XferCount   = Size;
 5461              		.loc 1 2373 23 discriminator 2
 5462 00a0 FB68     		ldr	r3, [r7, #12]
 5463 00a2 2C22     		movs	r2, #44
 5464 00a4 BA18     		adds	r2, r7, r2
 5465 00a6 1288     		ldrh	r2, [r2]
 5466 00a8 5A85     		strh	r2, [r3, #42]
2374:Drivers/STM32F0xx_HAL_Driver/Src/stm32f0xx_hal_i2c.c ****     hi2c->XferOptions = I2C_NO_OPTION_FRAME;
 5467              		.loc 1 2374 23 discriminator 2
 5468 00aa FB68     		ldr	r3, [r7, #12]
 5469 00ac 424A     		ldr	r2, .L245
 5470 00ae DA62     		str	r2, [r3, #44]
ARM GAS  C:\Users\ADMINI~1\AppData\Local\Temp\cc3zYV2m.s 			page 138


2375:Drivers/STM32F0xx_HAL_Driver/Src/stm32f0xx_hal_i2c.c ****     hi2c->XferISR     = I2C_Master_ISR_DMA;
 5471              		.loc 1 2375 23 discriminator 2
 5472 00b0 FB68     		ldr	r3, [r7, #12]
 5473 00b2 424A     		ldr	r2, .L245+4
 5474 00b4 5A63     		str	r2, [r3, #52]
2376:Drivers/STM32F0xx_HAL_Driver/Src/stm32f0xx_hal_i2c.c **** 
2377:Drivers/STM32F0xx_HAL_Driver/Src/stm32f0xx_hal_i2c.c ****     if (hi2c->XferCount > MAX_NBYTE_SIZE)
 5475              		.loc 1 2377 13 discriminator 2
 5476 00b6 FB68     		ldr	r3, [r7, #12]
 5477 00b8 5B8D     		ldrh	r3, [r3, #42]
 5478 00ba 9BB2     		uxth	r3, r3
 5479              		.loc 1 2377 8 discriminator 2
 5480 00bc FF2B     		cmp	r3, #255
 5481 00be 06D9     		bls	.L241
2378:Drivers/STM32F0xx_HAL_Driver/Src/stm32f0xx_hal_i2c.c ****     {
2379:Drivers/STM32F0xx_HAL_Driver/Src/stm32f0xx_hal_i2c.c ****       hi2c->XferSize = MAX_NBYTE_SIZE;
 5482              		.loc 1 2379 22
 5483 00c0 FB68     		ldr	r3, [r7, #12]
 5484 00c2 FF22     		movs	r2, #255
 5485 00c4 1A85     		strh	r2, [r3, #40]
2380:Drivers/STM32F0xx_HAL_Driver/Src/stm32f0xx_hal_i2c.c ****       xfermode = I2C_RELOAD_MODE;
 5486              		.loc 1 2380 16
 5487 00c6 8023     		movs	r3, #128
 5488 00c8 5B04     		lsls	r3, r3, #17
 5489 00ca 7B61     		str	r3, [r7, #20]
 5490 00cc 07E0     		b	.L242
 5491              	.L241:
2381:Drivers/STM32F0xx_HAL_Driver/Src/stm32f0xx_hal_i2c.c ****     }
2382:Drivers/STM32F0xx_HAL_Driver/Src/stm32f0xx_hal_i2c.c ****     else
2383:Drivers/STM32F0xx_HAL_Driver/Src/stm32f0xx_hal_i2c.c ****     {
2384:Drivers/STM32F0xx_HAL_Driver/Src/stm32f0xx_hal_i2c.c ****       hi2c->XferSize = hi2c->XferCount;
 5492              		.loc 1 2384 28
 5493 00ce FB68     		ldr	r3, [r7, #12]
 5494 00d0 5B8D     		ldrh	r3, [r3, #42]
 5495 00d2 9AB2     		uxth	r2, r3
 5496              		.loc 1 2384 22
 5497 00d4 FB68     		ldr	r3, [r7, #12]
 5498 00d6 1A85     		strh	r2, [r3, #40]
2385:Drivers/STM32F0xx_HAL_Driver/Src/stm32f0xx_hal_i2c.c ****       xfermode = I2C_AUTOEND_MODE;
 5499              		.loc 1 2385 16
 5500 00d8 8023     		movs	r3, #128
 5501 00da 9B04     		lsls	r3, r3, #18
 5502 00dc 7B61     		str	r3, [r7, #20]
 5503              	.L242:
2386:Drivers/STM32F0xx_HAL_Driver/Src/stm32f0xx_hal_i2c.c ****     }
2387:Drivers/STM32F0xx_HAL_Driver/Src/stm32f0xx_hal_i2c.c **** 
2388:Drivers/STM32F0xx_HAL_Driver/Src/stm32f0xx_hal_i2c.c ****     /* Send Slave Address and Memory Address */
2389:Drivers/STM32F0xx_HAL_Driver/Src/stm32f0xx_hal_i2c.c ****     if (I2C_RequestMemoryRead(hi2c, DevAddress, MemAddress, MemAddSize, I2C_TIMEOUT_FLAG, tickstart
 5504              		.loc 1 2389 9
 5505 00de BB1D     		adds	r3, r7, #6
 5506 00e0 1C88     		ldrh	r4, [r3]
 5507 00e2 0823     		movs	r3, #8
 5508 00e4 FB18     		adds	r3, r7, r3
 5509 00e6 1A88     		ldrh	r2, [r3]
 5510 00e8 0A23     		movs	r3, #10
 5511 00ea FB18     		adds	r3, r7, r3
 5512 00ec 1988     		ldrh	r1, [r3]
ARM GAS  C:\Users\ADMINI~1\AppData\Local\Temp\cc3zYV2m.s 			page 139


 5513 00ee F868     		ldr	r0, [r7, #12]
 5514 00f0 3B69     		ldr	r3, [r7, #16]
 5515 00f2 0193     		str	r3, [sp, #4]
 5516 00f4 1923     		movs	r3, #25
 5517 00f6 0093     		str	r3, [sp]
 5518 00f8 2300     		movs	r3, r4
 5519 00fa FFF7FEFF 		bl	I2C_RequestMemoryRead
 5520 00fe 031E     		subs	r3, r0, #0
 5521              		.loc 1 2389 8
 5522 0100 0FD0     		beq	.L243
2390:Drivers/STM32F0xx_HAL_Driver/Src/stm32f0xx_hal_i2c.c ****     {
2391:Drivers/STM32F0xx_HAL_Driver/Src/stm32f0xx_hal_i2c.c ****       if (hi2c->ErrorCode == HAL_I2C_ERROR_AF)
 5523              		.loc 1 2391 15
 5524 0102 FB68     		ldr	r3, [r7, #12]
 5525 0104 5B6C     		ldr	r3, [r3, #68]
 5526              		.loc 1 2391 10
 5527 0106 042B     		cmp	r3, #4
 5528 0108 05D1     		bne	.L244
2392:Drivers/STM32F0xx_HAL_Driver/Src/stm32f0xx_hal_i2c.c ****       {
2393:Drivers/STM32F0xx_HAL_Driver/Src/stm32f0xx_hal_i2c.c ****         /* Process Unlocked */
2394:Drivers/STM32F0xx_HAL_Driver/Src/stm32f0xx_hal_i2c.c ****         __HAL_UNLOCK(hi2c);
 5529              		.loc 1 2394 9
 5530 010a FB68     		ldr	r3, [r7, #12]
 5531 010c 4022     		movs	r2, #64
 5532 010e 0021     		movs	r1, #0
 5533 0110 9954     		strb	r1, [r3, r2]
2395:Drivers/STM32F0xx_HAL_Driver/Src/stm32f0xx_hal_i2c.c ****         return HAL_ERROR;
 5534              		.loc 1 2395 16
 5535 0112 0123     		movs	r3, #1
 5536 0114 4CE0     		b	.L238
 5537              	.L244:
2396:Drivers/STM32F0xx_HAL_Driver/Src/stm32f0xx_hal_i2c.c ****       }
2397:Drivers/STM32F0xx_HAL_Driver/Src/stm32f0xx_hal_i2c.c ****       else
2398:Drivers/STM32F0xx_HAL_Driver/Src/stm32f0xx_hal_i2c.c ****       {
2399:Drivers/STM32F0xx_HAL_Driver/Src/stm32f0xx_hal_i2c.c ****         /* Process Unlocked */
2400:Drivers/STM32F0xx_HAL_Driver/Src/stm32f0xx_hal_i2c.c ****         __HAL_UNLOCK(hi2c);
 5538              		.loc 1 2400 9
 5539 0116 FB68     		ldr	r3, [r7, #12]
 5540 0118 4022     		movs	r2, #64
 5541 011a 0021     		movs	r1, #0
 5542 011c 9954     		strb	r1, [r3, r2]
2401:Drivers/STM32F0xx_HAL_Driver/Src/stm32f0xx_hal_i2c.c ****         return HAL_TIMEOUT;
 5543              		.loc 1 2401 16
 5544 011e 0323     		movs	r3, #3
 5545 0120 46E0     		b	.L238
 5546              	.L243:
2402:Drivers/STM32F0xx_HAL_Driver/Src/stm32f0xx_hal_i2c.c ****       }
2403:Drivers/STM32F0xx_HAL_Driver/Src/stm32f0xx_hal_i2c.c ****     }
2404:Drivers/STM32F0xx_HAL_Driver/Src/stm32f0xx_hal_i2c.c **** 
2405:Drivers/STM32F0xx_HAL_Driver/Src/stm32f0xx_hal_i2c.c ****     /* Set the I2C DMA transfer complete callback */
2406:Drivers/STM32F0xx_HAL_Driver/Src/stm32f0xx_hal_i2c.c ****     hi2c->hdmarx->XferCpltCallback = I2C_DMAMasterReceiveCplt;
 5547              		.loc 1 2406 9
 5548 0122 FB68     		ldr	r3, [r7, #12]
 5549 0124 DB6B     		ldr	r3, [r3, #60]
 5550              		.loc 1 2406 36
 5551 0126 264A     		ldr	r2, .L245+8
 5552 0128 9A62     		str	r2, [r3, #40]
ARM GAS  C:\Users\ADMINI~1\AppData\Local\Temp\cc3zYV2m.s 			page 140


2407:Drivers/STM32F0xx_HAL_Driver/Src/stm32f0xx_hal_i2c.c **** 
2408:Drivers/STM32F0xx_HAL_Driver/Src/stm32f0xx_hal_i2c.c ****     /* Set the DMA error callback */
2409:Drivers/STM32F0xx_HAL_Driver/Src/stm32f0xx_hal_i2c.c ****     hi2c->hdmarx->XferErrorCallback = I2C_DMAError;
 5553              		.loc 1 2409 9
 5554 012a FB68     		ldr	r3, [r7, #12]
 5555 012c DB6B     		ldr	r3, [r3, #60]
 5556              		.loc 1 2409 37
 5557 012e 254A     		ldr	r2, .L245+12
 5558 0130 1A63     		str	r2, [r3, #48]
2410:Drivers/STM32F0xx_HAL_Driver/Src/stm32f0xx_hal_i2c.c **** 
2411:Drivers/STM32F0xx_HAL_Driver/Src/stm32f0xx_hal_i2c.c ****     /* Set the unused DMA callbacks to NULL */
2412:Drivers/STM32F0xx_HAL_Driver/Src/stm32f0xx_hal_i2c.c ****     hi2c->hdmarx->XferHalfCpltCallback = NULL;
 5559              		.loc 1 2412 9
 5560 0132 FB68     		ldr	r3, [r7, #12]
 5561 0134 DB6B     		ldr	r3, [r3, #60]
 5562              		.loc 1 2412 40
 5563 0136 0022     		movs	r2, #0
 5564 0138 DA62     		str	r2, [r3, #44]
2413:Drivers/STM32F0xx_HAL_Driver/Src/stm32f0xx_hal_i2c.c ****     hi2c->hdmarx->XferAbortCallback = NULL;
 5565              		.loc 1 2413 9
 5566 013a FB68     		ldr	r3, [r7, #12]
 5567 013c DB6B     		ldr	r3, [r3, #60]
 5568              		.loc 1 2413 37
 5569 013e 0022     		movs	r2, #0
 5570 0140 5A63     		str	r2, [r3, #52]
2414:Drivers/STM32F0xx_HAL_Driver/Src/stm32f0xx_hal_i2c.c **** 
2415:Drivers/STM32F0xx_HAL_Driver/Src/stm32f0xx_hal_i2c.c ****     /* Enable the DMA channel */
2416:Drivers/STM32F0xx_HAL_Driver/Src/stm32f0xx_hal_i2c.c ****     HAL_DMA_Start_IT(hi2c->hdmarx, (uint32_t)&hi2c->Instance->RXDR, (uint32_t)pData, hi2c->XferSize
 5571              		.loc 1 2416 5
 5572 0142 FB68     		ldr	r3, [r7, #12]
 5573 0144 D86B     		ldr	r0, [r3, #60]
 5574              		.loc 1 2416 51
 5575 0146 FB68     		ldr	r3, [r7, #12]
 5576 0148 1B68     		ldr	r3, [r3]
 5577              		.loc 1 2416 46
 5578 014a 2433     		adds	r3, r3, #36
 5579              		.loc 1 2416 5
 5580 014c 1900     		movs	r1, r3
 5581 014e BA6A     		ldr	r2, [r7, #40]
 5582              		.loc 1 2416 90
 5583 0150 FB68     		ldr	r3, [r7, #12]
 5584 0152 1B8D     		ldrh	r3, [r3, #40]
 5585              		.loc 1 2416 5
 5586 0154 FFF7FEFF 		bl	HAL_DMA_Start_IT
2417:Drivers/STM32F0xx_HAL_Driver/Src/stm32f0xx_hal_i2c.c **** 
2418:Drivers/STM32F0xx_HAL_Driver/Src/stm32f0xx_hal_i2c.c ****     /* Set NBYTES to write and reload if hi2c->XferCount > MAX_NBYTE_SIZE and generate RESTART */
2419:Drivers/STM32F0xx_HAL_Driver/Src/stm32f0xx_hal_i2c.c ****     I2C_TransferConfig(hi2c, DevAddress, hi2c->XferSize, xfermode, I2C_GENERATE_START_READ);
 5587              		.loc 1 2419 46
 5588 0158 FB68     		ldr	r3, [r7, #12]
 5589 015a 1B8D     		ldrh	r3, [r3, #40]
 5590              		.loc 1 2419 5
 5591 015c DAB2     		uxtb	r2, r3
 5592 015e 7C69     		ldr	r4, [r7, #20]
 5593 0160 0A23     		movs	r3, #10
 5594 0162 FB18     		adds	r3, r7, r3
 5595 0164 1988     		ldrh	r1, [r3]
 5596 0166 F868     		ldr	r0, [r7, #12]
ARM GAS  C:\Users\ADMINI~1\AppData\Local\Temp\cc3zYV2m.s 			page 141


 5597 0168 9023     		movs	r3, #144
 5598 016a 9B01     		lsls	r3, r3, #6
 5599 016c 0093     		str	r3, [sp]
 5600 016e 2300     		movs	r3, r4
 5601 0170 FFF7FEFF 		bl	I2C_TransferConfig
2420:Drivers/STM32F0xx_HAL_Driver/Src/stm32f0xx_hal_i2c.c **** 
2421:Drivers/STM32F0xx_HAL_Driver/Src/stm32f0xx_hal_i2c.c ****     /* Update XferCount value */
2422:Drivers/STM32F0xx_HAL_Driver/Src/stm32f0xx_hal_i2c.c ****     hi2c->XferCount -= hi2c->XferSize;
 5602              		.loc 1 2422 21
 5603 0174 FB68     		ldr	r3, [r7, #12]
 5604 0176 5B8D     		ldrh	r3, [r3, #42]
 5605 0178 9AB2     		uxth	r2, r3
 5606              		.loc 1 2422 28
 5607 017a FB68     		ldr	r3, [r7, #12]
 5608 017c 1B8D     		ldrh	r3, [r3, #40]
 5609              		.loc 1 2422 21
 5610 017e D31A     		subs	r3, r2, r3
 5611 0180 9AB2     		uxth	r2, r3
 5612 0182 FB68     		ldr	r3, [r7, #12]
 5613 0184 5A85     		strh	r2, [r3, #42]
2423:Drivers/STM32F0xx_HAL_Driver/Src/stm32f0xx_hal_i2c.c **** 
2424:Drivers/STM32F0xx_HAL_Driver/Src/stm32f0xx_hal_i2c.c ****     /* Process Unlocked */
2425:Drivers/STM32F0xx_HAL_Driver/Src/stm32f0xx_hal_i2c.c ****     __HAL_UNLOCK(hi2c);
 5614              		.loc 1 2425 5
 5615 0186 FB68     		ldr	r3, [r7, #12]
 5616 0188 4022     		movs	r2, #64
 5617 018a 0021     		movs	r1, #0
 5618 018c 9954     		strb	r1, [r3, r2]
2426:Drivers/STM32F0xx_HAL_Driver/Src/stm32f0xx_hal_i2c.c **** 
2427:Drivers/STM32F0xx_HAL_Driver/Src/stm32f0xx_hal_i2c.c ****     /* Enable DMA Request */
2428:Drivers/STM32F0xx_HAL_Driver/Src/stm32f0xx_hal_i2c.c ****     hi2c->Instance->CR1 |= I2C_CR1_RXDMAEN;
 5619              		.loc 1 2428 9
 5620 018e FB68     		ldr	r3, [r7, #12]
 5621 0190 1B68     		ldr	r3, [r3]
 5622              		.loc 1 2428 25
 5623 0192 1A68     		ldr	r2, [r3]
 5624              		.loc 1 2428 9
 5625 0194 FB68     		ldr	r3, [r7, #12]
 5626 0196 1B68     		ldr	r3, [r3]
 5627              		.loc 1 2428 25
 5628 0198 8021     		movs	r1, #128
 5629 019a 0902     		lsls	r1, r1, #8
 5630 019c 0A43     		orrs	r2, r1
 5631 019e 1A60     		str	r2, [r3]
2429:Drivers/STM32F0xx_HAL_Driver/Src/stm32f0xx_hal_i2c.c **** 
2430:Drivers/STM32F0xx_HAL_Driver/Src/stm32f0xx_hal_i2c.c ****     /* Note : The I2C interrupts must be enabled after unlocking current process
2431:Drivers/STM32F0xx_HAL_Driver/Src/stm32f0xx_hal_i2c.c ****               to avoid the risk of I2C interrupt handle execution before current
2432:Drivers/STM32F0xx_HAL_Driver/Src/stm32f0xx_hal_i2c.c ****               process unlock */
2433:Drivers/STM32F0xx_HAL_Driver/Src/stm32f0xx_hal_i2c.c ****     /* Enable ERR and NACK interrupts */
2434:Drivers/STM32F0xx_HAL_Driver/Src/stm32f0xx_hal_i2c.c ****     I2C_Enable_IRQ(hi2c, I2C_XFER_ERROR_IT);
 5632              		.loc 1 2434 5
 5633 01a0 FB68     		ldr	r3, [r7, #12]
 5634 01a2 1121     		movs	r1, #17
 5635 01a4 1800     		movs	r0, r3
 5636 01a6 FFF7FEFF 		bl	I2C_Enable_IRQ
2435:Drivers/STM32F0xx_HAL_Driver/Src/stm32f0xx_hal_i2c.c **** 
2436:Drivers/STM32F0xx_HAL_Driver/Src/stm32f0xx_hal_i2c.c ****     return HAL_OK;
ARM GAS  C:\Users\ADMINI~1\AppData\Local\Temp\cc3zYV2m.s 			page 142


 5637              		.loc 1 2436 12
 5638 01aa 0023     		movs	r3, #0
 5639 01ac 00E0     		b	.L238
 5640              	.L235:
2437:Drivers/STM32F0xx_HAL_Driver/Src/stm32f0xx_hal_i2c.c ****   }
2438:Drivers/STM32F0xx_HAL_Driver/Src/stm32f0xx_hal_i2c.c ****   else
2439:Drivers/STM32F0xx_HAL_Driver/Src/stm32f0xx_hal_i2c.c ****   {
2440:Drivers/STM32F0xx_HAL_Driver/Src/stm32f0xx_hal_i2c.c ****     return HAL_BUSY;
 5641              		.loc 1 2440 12
 5642 01ae 0223     		movs	r3, #2
 5643              	.L238:
2441:Drivers/STM32F0xx_HAL_Driver/Src/stm32f0xx_hal_i2c.c ****   }
2442:Drivers/STM32F0xx_HAL_Driver/Src/stm32f0xx_hal_i2c.c **** }
 5644              		.loc 1 2442 1
 5645 01b0 1800     		movs	r0, r3
 5646 01b2 BD46     		mov	sp, r7
 5647 01b4 07B0     		add	sp, sp, #28
 5648              		@ sp needed
 5649 01b6 90BD     		pop	{r4, r7, pc}
 5650              	.L246:
 5651              		.align	2
 5652              	.L245:
 5653 01b8 0000FFFF 		.word	-65536
 5654 01bc 00000000 		.word	I2C_Master_ISR_DMA
 5655 01c0 00000000 		.word	I2C_DMAMasterReceiveCplt
 5656 01c4 00000000 		.word	I2C_DMAError
 5657              		.cfi_endproc
 5658              	.LFE58:
 5660              		.section	.text.HAL_I2C_IsDeviceReady,"ax",%progbits
 5661              		.align	1
 5662              		.global	HAL_I2C_IsDeviceReady
 5663              		.syntax unified
 5664              		.code	16
 5665              		.thumb_func
 5666              		.fpu softvfp
 5668              	HAL_I2C_IsDeviceReady:
 5669              	.LFB59:
2443:Drivers/STM32F0xx_HAL_Driver/Src/stm32f0xx_hal_i2c.c **** 
2444:Drivers/STM32F0xx_HAL_Driver/Src/stm32f0xx_hal_i2c.c **** /**
2445:Drivers/STM32F0xx_HAL_Driver/Src/stm32f0xx_hal_i2c.c ****   * @brief  Checks if target device is ready for communication.
2446:Drivers/STM32F0xx_HAL_Driver/Src/stm32f0xx_hal_i2c.c ****   * @note   This function is used with Memory devices
2447:Drivers/STM32F0xx_HAL_Driver/Src/stm32f0xx_hal_i2c.c ****   * @param  hi2c Pointer to a I2C_HandleTypeDef structure that contains
2448:Drivers/STM32F0xx_HAL_Driver/Src/stm32f0xx_hal_i2c.c ****   *                the configuration information for the specified I2C.
2449:Drivers/STM32F0xx_HAL_Driver/Src/stm32f0xx_hal_i2c.c ****   * @param  DevAddress Target device address: The device 7 bits address value
2450:Drivers/STM32F0xx_HAL_Driver/Src/stm32f0xx_hal_i2c.c ****   *         in datasheet must be shift at right before call interface
2451:Drivers/STM32F0xx_HAL_Driver/Src/stm32f0xx_hal_i2c.c ****   * @param  Trials Number of trials
2452:Drivers/STM32F0xx_HAL_Driver/Src/stm32f0xx_hal_i2c.c ****   * @param  Timeout Timeout duration
2453:Drivers/STM32F0xx_HAL_Driver/Src/stm32f0xx_hal_i2c.c ****   * @retval HAL status
2454:Drivers/STM32F0xx_HAL_Driver/Src/stm32f0xx_hal_i2c.c ****   */
2455:Drivers/STM32F0xx_HAL_Driver/Src/stm32f0xx_hal_i2c.c **** HAL_StatusTypeDef HAL_I2C_IsDeviceReady(I2C_HandleTypeDef *hi2c, uint16_t DevAddress, uint32_t Tria
2456:Drivers/STM32F0xx_HAL_Driver/Src/stm32f0xx_hal_i2c.c **** {
 5670              		.loc 1 2456 1
 5671              		.cfi_startproc
 5672              		@ args = 0, pretend = 0, frame = 24
 5673              		@ frame_needed = 1, uses_anonymous_args = 0
 5674 0000 80B5     		push	{r7, lr}
 5675              	.LCFI66:
ARM GAS  C:\Users\ADMINI~1\AppData\Local\Temp\cc3zYV2m.s 			page 143


 5676              		.cfi_def_cfa_offset 8
 5677              		.cfi_offset 7, -8
 5678              		.cfi_offset 14, -4
 5679 0002 88B0     		sub	sp, sp, #32
 5680              	.LCFI67:
 5681              		.cfi_def_cfa_offset 40
 5682 0004 02AF     		add	r7, sp, #8
 5683              	.LCFI68:
 5684              		.cfi_def_cfa 7, 32
 5685 0006 F860     		str	r0, [r7, #12]
 5686 0008 7A60     		str	r2, [r7, #4]
 5687 000a 3B60     		str	r3, [r7]
 5688 000c 0A23     		movs	r3, #10
 5689 000e FB18     		adds	r3, r7, r3
 5690 0010 0A1C     		adds	r2, r1, #0
 5691 0012 1A80     		strh	r2, [r3]
2457:Drivers/STM32F0xx_HAL_Driver/Src/stm32f0xx_hal_i2c.c ****   uint32_t tickstart = 0U;
 5692              		.loc 1 2457 12
 5693 0014 0023     		movs	r3, #0
 5694 0016 7B61     		str	r3, [r7, #20]
2458:Drivers/STM32F0xx_HAL_Driver/Src/stm32f0xx_hal_i2c.c **** 
2459:Drivers/STM32F0xx_HAL_Driver/Src/stm32f0xx_hal_i2c.c ****   __IO uint32_t I2C_Trials = 0U;
 5695              		.loc 1 2459 17
 5696 0018 0023     		movs	r3, #0
 5697 001a 3B61     		str	r3, [r7, #16]
2460:Drivers/STM32F0xx_HAL_Driver/Src/stm32f0xx_hal_i2c.c **** 
2461:Drivers/STM32F0xx_HAL_Driver/Src/stm32f0xx_hal_i2c.c ****   if (hi2c->State == HAL_I2C_STATE_READY)
 5698              		.loc 1 2461 11
 5699 001c FB68     		ldr	r3, [r7, #12]
 5700 001e 4122     		movs	r2, #65
 5701 0020 9B5C     		ldrb	r3, [r3, r2]
 5702 0022 DBB2     		uxtb	r3, r3
 5703              		.loc 1 2461 6
 5704 0024 202B     		cmp	r3, #32
 5705 0026 00D0     		beq	.LCB4788
 5706 0028 CBE0     		b	.L248	@long jump
 5707              	.LCB4788:
2462:Drivers/STM32F0xx_HAL_Driver/Src/stm32f0xx_hal_i2c.c ****   {
2463:Drivers/STM32F0xx_HAL_Driver/Src/stm32f0xx_hal_i2c.c ****     if (__HAL_I2C_GET_FLAG(hi2c, I2C_FLAG_BUSY) == SET)
 5708              		.loc 1 2463 9
 5709 002a FB68     		ldr	r3, [r7, #12]
 5710 002c 1B68     		ldr	r3, [r3]
 5711 002e 9A69     		ldr	r2, [r3, #24]
 5712 0030 8023     		movs	r3, #128
 5713 0032 1B02     		lsls	r3, r3, #8
 5714 0034 1A40     		ands	r2, r3
 5715              		.loc 1 2463 8
 5716 0036 8023     		movs	r3, #128
 5717 0038 1B02     		lsls	r3, r3, #8
 5718 003a 9A42     		cmp	r2, r3
 5719 003c 01D1     		bne	.L249
2464:Drivers/STM32F0xx_HAL_Driver/Src/stm32f0xx_hal_i2c.c ****     {
2465:Drivers/STM32F0xx_HAL_Driver/Src/stm32f0xx_hal_i2c.c ****       return HAL_BUSY;
 5720              		.loc 1 2465 14
 5721 003e 0223     		movs	r3, #2
 5722 0040 C0E0     		b	.L250
 5723              	.L249:
ARM GAS  C:\Users\ADMINI~1\AppData\Local\Temp\cc3zYV2m.s 			page 144


2466:Drivers/STM32F0xx_HAL_Driver/Src/stm32f0xx_hal_i2c.c ****     }
2467:Drivers/STM32F0xx_HAL_Driver/Src/stm32f0xx_hal_i2c.c **** 
2468:Drivers/STM32F0xx_HAL_Driver/Src/stm32f0xx_hal_i2c.c ****     /* Process Locked */
2469:Drivers/STM32F0xx_HAL_Driver/Src/stm32f0xx_hal_i2c.c ****     __HAL_LOCK(hi2c);
 5724              		.loc 1 2469 5
 5725 0042 FB68     		ldr	r3, [r7, #12]
 5726 0044 4022     		movs	r2, #64
 5727 0046 9B5C     		ldrb	r3, [r3, r2]
 5728 0048 012B     		cmp	r3, #1
 5729 004a 01D1     		bne	.L251
 5730              		.loc 1 2469 5 is_stmt 0 discriminator 1
 5731 004c 0223     		movs	r3, #2
 5732 004e B9E0     		b	.L250
 5733              	.L251:
 5734              		.loc 1 2469 5 discriminator 2
 5735 0050 FB68     		ldr	r3, [r7, #12]
 5736 0052 4022     		movs	r2, #64
 5737 0054 0121     		movs	r1, #1
 5738 0056 9954     		strb	r1, [r3, r2]
2470:Drivers/STM32F0xx_HAL_Driver/Src/stm32f0xx_hal_i2c.c **** 
2471:Drivers/STM32F0xx_HAL_Driver/Src/stm32f0xx_hal_i2c.c ****     hi2c->State = HAL_I2C_STATE_BUSY;
 5739              		.loc 1 2471 17 is_stmt 1 discriminator 2
 5740 0058 FB68     		ldr	r3, [r7, #12]
 5741 005a 4122     		movs	r2, #65
 5742 005c 2421     		movs	r1, #36
 5743 005e 9954     		strb	r1, [r3, r2]
2472:Drivers/STM32F0xx_HAL_Driver/Src/stm32f0xx_hal_i2c.c ****     hi2c->ErrorCode = HAL_I2C_ERROR_NONE;
 5744              		.loc 1 2472 21 discriminator 2
 5745 0060 FB68     		ldr	r3, [r7, #12]
 5746 0062 0022     		movs	r2, #0
 5747 0064 5A64     		str	r2, [r3, #68]
 5748              	.L263:
2473:Drivers/STM32F0xx_HAL_Driver/Src/stm32f0xx_hal_i2c.c **** 
2474:Drivers/STM32F0xx_HAL_Driver/Src/stm32f0xx_hal_i2c.c ****     do
2475:Drivers/STM32F0xx_HAL_Driver/Src/stm32f0xx_hal_i2c.c ****     {
2476:Drivers/STM32F0xx_HAL_Driver/Src/stm32f0xx_hal_i2c.c ****       /* Generate Start */
2477:Drivers/STM32F0xx_HAL_Driver/Src/stm32f0xx_hal_i2c.c ****       hi2c->Instance->CR2 = I2C_GENERATE_START(hi2c->Init.AddressingMode, DevAddress);
 5749              		.loc 1 2477 29
 5750 0066 FB68     		ldr	r3, [r7, #12]
 5751 0068 DB68     		ldr	r3, [r3, #12]
 5752 006a 012B     		cmp	r3, #1
 5753 006c 07D1     		bne	.L252
 5754              		.loc 1 2477 29 is_stmt 0 discriminator 1
 5755 006e 0A23     		movs	r3, #10
 5756 0070 FB18     		adds	r3, r7, r3
 5757 0072 1B88     		ldrh	r3, [r3]
 5758 0074 9B05     		lsls	r3, r3, #22
 5759 0076 9B0D     		lsrs	r3, r3, #22
 5760 0078 544A     		ldr	r2, .L264
 5761 007a 1A43     		orrs	r2, r3
 5762 007c 07E0     		b	.L253
 5763              	.L252:
 5764              		.loc 1 2477 29 discriminator 2
 5765 007e 0A23     		movs	r3, #10
 5766 0080 FB18     		adds	r3, r7, r3
 5767 0082 1B88     		ldrh	r3, [r3]
 5768 0084 9B05     		lsls	r3, r3, #22
ARM GAS  C:\Users\ADMINI~1\AppData\Local\Temp\cc3zYV2m.s 			page 145


 5769 0086 9B0D     		lsrs	r3, r3, #22
 5770 0088 A022     		movs	r2, #160
 5771 008a 9201     		lsls	r2, r2, #6
 5772 008c 1A43     		orrs	r2, r3
 5773              	.L253:
 5774              		.loc 1 2477 11 is_stmt 1 discriminator 4
 5775 008e FB68     		ldr	r3, [r7, #12]
 5776 0090 1B68     		ldr	r3, [r3]
 5777              		.loc 1 2477 27 discriminator 4
 5778 0092 5A60     		str	r2, [r3, #4]
2478:Drivers/STM32F0xx_HAL_Driver/Src/stm32f0xx_hal_i2c.c **** 
2479:Drivers/STM32F0xx_HAL_Driver/Src/stm32f0xx_hal_i2c.c ****       /* No need to Check TC flag, with AUTOEND mode the stop is automatically generated */
2480:Drivers/STM32F0xx_HAL_Driver/Src/stm32f0xx_hal_i2c.c ****       /* Wait until STOPF flag is set or a NACK flag is set*/
2481:Drivers/STM32F0xx_HAL_Driver/Src/stm32f0xx_hal_i2c.c ****       tickstart = HAL_GetTick();
 5779              		.loc 1 2481 19 discriminator 4
 5780 0094 FFF7FEFF 		bl	HAL_GetTick
 5781 0098 0300     		movs	r3, r0
 5782 009a 7B61     		str	r3, [r7, #20]
2482:Drivers/STM32F0xx_HAL_Driver/Src/stm32f0xx_hal_i2c.c ****       while ((__HAL_I2C_GET_FLAG(hi2c, I2C_FLAG_STOPF) == RESET) && (__HAL_I2C_GET_FLAG(hi2c, I2C_F
 5783              		.loc 1 2482 13 discriminator 4
 5784 009c 17E0     		b	.L254
 5785              	.L257:
2483:Drivers/STM32F0xx_HAL_Driver/Src/stm32f0xx_hal_i2c.c ****       {
2484:Drivers/STM32F0xx_HAL_Driver/Src/stm32f0xx_hal_i2c.c ****         if (Timeout != HAL_MAX_DELAY)
 5786              		.loc 1 2484 12
 5787 009e 3B68     		ldr	r3, [r7]
 5788 00a0 0133     		adds	r3, r3, #1
 5789 00a2 14D0     		beq	.L254
2485:Drivers/STM32F0xx_HAL_Driver/Src/stm32f0xx_hal_i2c.c ****         {
2486:Drivers/STM32F0xx_HAL_Driver/Src/stm32f0xx_hal_i2c.c ****           if ((Timeout == 0U) || ((HAL_GetTick() - tickstart) > Timeout))
 5790              		.loc 1 2486 14
 5791 00a4 3B68     		ldr	r3, [r7]
 5792 00a6 002B     		cmp	r3, #0
 5793 00a8 07D0     		beq	.L255
 5794              		.loc 1 2486 36 discriminator 1
 5795 00aa FFF7FEFF 		bl	HAL_GetTick
 5796 00ae 0200     		movs	r2, r0
 5797              		.loc 1 2486 50 discriminator 1
 5798 00b0 7B69     		ldr	r3, [r7, #20]
 5799 00b2 D31A     		subs	r3, r2, r3
 5800              		.loc 1 2486 31 discriminator 1
 5801 00b4 3A68     		ldr	r2, [r7]
 5802 00b6 9A42     		cmp	r2, r3
 5803 00b8 09D2     		bcs	.L254
 5804              	.L255:
2487:Drivers/STM32F0xx_HAL_Driver/Src/stm32f0xx_hal_i2c.c ****           {
2488:Drivers/STM32F0xx_HAL_Driver/Src/stm32f0xx_hal_i2c.c ****             /* Device is ready */
2489:Drivers/STM32F0xx_HAL_Driver/Src/stm32f0xx_hal_i2c.c ****             hi2c->State = HAL_I2C_STATE_READY;
 5805              		.loc 1 2489 25
 5806 00ba FB68     		ldr	r3, [r7, #12]
 5807 00bc 4122     		movs	r2, #65
 5808 00be 2021     		movs	r1, #32
 5809 00c0 9954     		strb	r1, [r3, r2]
2490:Drivers/STM32F0xx_HAL_Driver/Src/stm32f0xx_hal_i2c.c ****             /* Process Unlocked */
2491:Drivers/STM32F0xx_HAL_Driver/Src/stm32f0xx_hal_i2c.c ****             __HAL_UNLOCK(hi2c);
 5810              		.loc 1 2491 13
 5811 00c2 FB68     		ldr	r3, [r7, #12]
ARM GAS  C:\Users\ADMINI~1\AppData\Local\Temp\cc3zYV2m.s 			page 146


 5812 00c4 4022     		movs	r2, #64
 5813 00c6 0021     		movs	r1, #0
 5814 00c8 9954     		strb	r1, [r3, r2]
2492:Drivers/STM32F0xx_HAL_Driver/Src/stm32f0xx_hal_i2c.c ****             return HAL_TIMEOUT;
 5815              		.loc 1 2492 20
 5816 00ca 0323     		movs	r3, #3
 5817 00cc 7AE0     		b	.L250
 5818              	.L254:
2482:Drivers/STM32F0xx_HAL_Driver/Src/stm32f0xx_hal_i2c.c ****       {
 5819              		.loc 1 2482 15
 5820 00ce FB68     		ldr	r3, [r7, #12]
 5821 00d0 1B68     		ldr	r3, [r3]
 5822 00d2 9B69     		ldr	r3, [r3, #24]
 5823 00d4 2022     		movs	r2, #32
 5824 00d6 1340     		ands	r3, r2
2482:Drivers/STM32F0xx_HAL_Driver/Src/stm32f0xx_hal_i2c.c ****       {
 5825              		.loc 1 2482 13
 5826 00d8 202B     		cmp	r3, #32
 5827 00da 0CD0     		beq	.L256
2482:Drivers/STM32F0xx_HAL_Driver/Src/stm32f0xx_hal_i2c.c ****       {
 5828              		.loc 1 2482 70 discriminator 1
 5829 00dc FB68     		ldr	r3, [r7, #12]
 5830 00de 1B68     		ldr	r3, [r3]
 5831 00e0 9B69     		ldr	r3, [r3, #24]
 5832 00e2 1022     		movs	r2, #16
 5833 00e4 1340     		ands	r3, r2
2482:Drivers/STM32F0xx_HAL_Driver/Src/stm32f0xx_hal_i2c.c ****       {
 5834              		.loc 1 2482 66 discriminator 1
 5835 00e6 102B     		cmp	r3, #16
 5836 00e8 05D0     		beq	.L256
2482:Drivers/STM32F0xx_HAL_Driver/Src/stm32f0xx_hal_i2c.c ****       {
 5837              		.loc 1 2482 126 discriminator 2
 5838 00ea FB68     		ldr	r3, [r7, #12]
 5839 00ec 4122     		movs	r2, #65
 5840 00ee 9B5C     		ldrb	r3, [r3, r2]
 5841 00f0 DBB2     		uxtb	r3, r3
2482:Drivers/STM32F0xx_HAL_Driver/Src/stm32f0xx_hal_i2c.c ****       {
 5842              		.loc 1 2482 118 discriminator 2
 5843 00f2 A02B     		cmp	r3, #160
 5844 00f4 D3D1     		bne	.L257
 5845              	.L256:
2493:Drivers/STM32F0xx_HAL_Driver/Src/stm32f0xx_hal_i2c.c ****           }
2494:Drivers/STM32F0xx_HAL_Driver/Src/stm32f0xx_hal_i2c.c ****         }
2495:Drivers/STM32F0xx_HAL_Driver/Src/stm32f0xx_hal_i2c.c ****       }
2496:Drivers/STM32F0xx_HAL_Driver/Src/stm32f0xx_hal_i2c.c **** 
2497:Drivers/STM32F0xx_HAL_Driver/Src/stm32f0xx_hal_i2c.c ****       /* Check if the NACKF flag has not been set */
2498:Drivers/STM32F0xx_HAL_Driver/Src/stm32f0xx_hal_i2c.c ****       if (__HAL_I2C_GET_FLAG(hi2c, I2C_FLAG_AF) == RESET)
 5846              		.loc 1 2498 11
 5847 00f6 FB68     		ldr	r3, [r7, #12]
 5848 00f8 1B68     		ldr	r3, [r3]
 5849 00fa 9B69     		ldr	r3, [r3, #24]
 5850 00fc 1022     		movs	r2, #16
 5851 00fe 1340     		ands	r3, r2
 5852              		.loc 1 2498 10
 5853 0100 102B     		cmp	r3, #16
 5854 0102 1AD0     		beq	.L258
2499:Drivers/STM32F0xx_HAL_Driver/Src/stm32f0xx_hal_i2c.c ****       {
ARM GAS  C:\Users\ADMINI~1\AppData\Local\Temp\cc3zYV2m.s 			page 147


2500:Drivers/STM32F0xx_HAL_Driver/Src/stm32f0xx_hal_i2c.c ****         /* Wait until STOPF flag is reset */
2501:Drivers/STM32F0xx_HAL_Driver/Src/stm32f0xx_hal_i2c.c ****         if (I2C_WaitOnFlagUntilTimeout(hi2c, I2C_FLAG_STOPF, RESET, Timeout, tickstart) != HAL_OK)
 5855              		.loc 1 2501 13
 5856 0104 3A68     		ldr	r2, [r7]
 5857 0106 F868     		ldr	r0, [r7, #12]
 5858 0108 7B69     		ldr	r3, [r7, #20]
 5859 010a 0093     		str	r3, [sp]
 5860 010c 1300     		movs	r3, r2
 5861 010e 0022     		movs	r2, #0
 5862 0110 2021     		movs	r1, #32
 5863 0112 FFF7FEFF 		bl	I2C_WaitOnFlagUntilTimeout
 5864 0116 031E     		subs	r3, r0, #0
 5865              		.loc 1 2501 12
 5866 0118 01D0     		beq	.L259
2502:Drivers/STM32F0xx_HAL_Driver/Src/stm32f0xx_hal_i2c.c ****         {
2503:Drivers/STM32F0xx_HAL_Driver/Src/stm32f0xx_hal_i2c.c ****           return HAL_TIMEOUT;
 5867              		.loc 1 2503 18
 5868 011a 0323     		movs	r3, #3
 5869 011c 52E0     		b	.L250
 5870              	.L259:
2504:Drivers/STM32F0xx_HAL_Driver/Src/stm32f0xx_hal_i2c.c ****         }
2505:Drivers/STM32F0xx_HAL_Driver/Src/stm32f0xx_hal_i2c.c **** 
2506:Drivers/STM32F0xx_HAL_Driver/Src/stm32f0xx_hal_i2c.c ****         /* Clear STOP Flag */
2507:Drivers/STM32F0xx_HAL_Driver/Src/stm32f0xx_hal_i2c.c ****         __HAL_I2C_CLEAR_FLAG(hi2c, I2C_FLAG_STOPF);
 5871              		.loc 1 2507 9
 5872 011e FB68     		ldr	r3, [r7, #12]
 5873 0120 1B68     		ldr	r3, [r3]
 5874 0122 2022     		movs	r2, #32
 5875 0124 DA61     		str	r2, [r3, #28]
2508:Drivers/STM32F0xx_HAL_Driver/Src/stm32f0xx_hal_i2c.c **** 
2509:Drivers/STM32F0xx_HAL_Driver/Src/stm32f0xx_hal_i2c.c ****         /* Device is ready */
2510:Drivers/STM32F0xx_HAL_Driver/Src/stm32f0xx_hal_i2c.c ****         hi2c->State = HAL_I2C_STATE_READY;
 5876              		.loc 1 2510 21
 5877 0126 FB68     		ldr	r3, [r7, #12]
 5878 0128 4122     		movs	r2, #65
 5879 012a 2021     		movs	r1, #32
 5880 012c 9954     		strb	r1, [r3, r2]
2511:Drivers/STM32F0xx_HAL_Driver/Src/stm32f0xx_hal_i2c.c **** 
2512:Drivers/STM32F0xx_HAL_Driver/Src/stm32f0xx_hal_i2c.c ****         /* Process Unlocked */
2513:Drivers/STM32F0xx_HAL_Driver/Src/stm32f0xx_hal_i2c.c ****         __HAL_UNLOCK(hi2c);
 5881              		.loc 1 2513 9
 5882 012e FB68     		ldr	r3, [r7, #12]
 5883 0130 4022     		movs	r2, #64
 5884 0132 0021     		movs	r1, #0
 5885 0134 9954     		strb	r1, [r3, r2]
2514:Drivers/STM32F0xx_HAL_Driver/Src/stm32f0xx_hal_i2c.c **** 
2515:Drivers/STM32F0xx_HAL_Driver/Src/stm32f0xx_hal_i2c.c ****         return HAL_OK;
 5886              		.loc 1 2515 16
 5887 0136 0023     		movs	r3, #0
 5888 0138 44E0     		b	.L250
 5889              	.L258:
2516:Drivers/STM32F0xx_HAL_Driver/Src/stm32f0xx_hal_i2c.c ****       }
2517:Drivers/STM32F0xx_HAL_Driver/Src/stm32f0xx_hal_i2c.c ****       else
2518:Drivers/STM32F0xx_HAL_Driver/Src/stm32f0xx_hal_i2c.c ****       {
2519:Drivers/STM32F0xx_HAL_Driver/Src/stm32f0xx_hal_i2c.c ****         /* Wait until STOPF flag is reset */
2520:Drivers/STM32F0xx_HAL_Driver/Src/stm32f0xx_hal_i2c.c ****         if (I2C_WaitOnFlagUntilTimeout(hi2c, I2C_FLAG_STOPF, RESET, Timeout, tickstart) != HAL_OK)
 5890              		.loc 1 2520 13
ARM GAS  C:\Users\ADMINI~1\AppData\Local\Temp\cc3zYV2m.s 			page 148


 5891 013a 3A68     		ldr	r2, [r7]
 5892 013c F868     		ldr	r0, [r7, #12]
 5893 013e 7B69     		ldr	r3, [r7, #20]
 5894 0140 0093     		str	r3, [sp]
 5895 0142 1300     		movs	r3, r2
 5896 0144 0022     		movs	r2, #0
 5897 0146 2021     		movs	r1, #32
 5898 0148 FFF7FEFF 		bl	I2C_WaitOnFlagUntilTimeout
 5899 014c 031E     		subs	r3, r0, #0
 5900              		.loc 1 2520 12
 5901 014e 01D0     		beq	.L260
2521:Drivers/STM32F0xx_HAL_Driver/Src/stm32f0xx_hal_i2c.c ****         {
2522:Drivers/STM32F0xx_HAL_Driver/Src/stm32f0xx_hal_i2c.c ****           return HAL_TIMEOUT;
 5902              		.loc 1 2522 18
 5903 0150 0323     		movs	r3, #3
 5904 0152 37E0     		b	.L250
 5905              	.L260:
2523:Drivers/STM32F0xx_HAL_Driver/Src/stm32f0xx_hal_i2c.c ****         }
2524:Drivers/STM32F0xx_HAL_Driver/Src/stm32f0xx_hal_i2c.c **** 
2525:Drivers/STM32F0xx_HAL_Driver/Src/stm32f0xx_hal_i2c.c ****         /* Clear NACK Flag */
2526:Drivers/STM32F0xx_HAL_Driver/Src/stm32f0xx_hal_i2c.c ****         __HAL_I2C_CLEAR_FLAG(hi2c, I2C_FLAG_AF);
 5906              		.loc 1 2526 9
 5907 0154 FB68     		ldr	r3, [r7, #12]
 5908 0156 1B68     		ldr	r3, [r3]
 5909 0158 1022     		movs	r2, #16
 5910 015a DA61     		str	r2, [r3, #28]
2527:Drivers/STM32F0xx_HAL_Driver/Src/stm32f0xx_hal_i2c.c **** 
2528:Drivers/STM32F0xx_HAL_Driver/Src/stm32f0xx_hal_i2c.c ****         /* Clear STOP Flag, auto generated with autoend*/
2529:Drivers/STM32F0xx_HAL_Driver/Src/stm32f0xx_hal_i2c.c ****         __HAL_I2C_CLEAR_FLAG(hi2c, I2C_FLAG_STOPF);
 5911              		.loc 1 2529 9
 5912 015c FB68     		ldr	r3, [r7, #12]
 5913 015e 1B68     		ldr	r3, [r3]
 5914 0160 2022     		movs	r2, #32
 5915 0162 DA61     		str	r2, [r3, #28]
2530:Drivers/STM32F0xx_HAL_Driver/Src/stm32f0xx_hal_i2c.c ****       }
2531:Drivers/STM32F0xx_HAL_Driver/Src/stm32f0xx_hal_i2c.c **** 
2532:Drivers/STM32F0xx_HAL_Driver/Src/stm32f0xx_hal_i2c.c ****       /* Check if the maximum allowed number of trials has been reached */
2533:Drivers/STM32F0xx_HAL_Driver/Src/stm32f0xx_hal_i2c.c ****       if (I2C_Trials++ == Trials)
 5916              		.loc 1 2533 21
 5917 0164 3B69     		ldr	r3, [r7, #16]
 5918 0166 5A1C     		adds	r2, r3, #1
 5919 0168 3A61     		str	r2, [r7, #16]
 5920              		.loc 1 2533 10
 5921 016a 7A68     		ldr	r2, [r7, #4]
 5922 016c 9A42     		cmp	r2, r3
 5923 016e 19D1     		bne	.L261
2534:Drivers/STM32F0xx_HAL_Driver/Src/stm32f0xx_hal_i2c.c ****       {
2535:Drivers/STM32F0xx_HAL_Driver/Src/stm32f0xx_hal_i2c.c ****         /* Generate Stop */
2536:Drivers/STM32F0xx_HAL_Driver/Src/stm32f0xx_hal_i2c.c ****         hi2c->Instance->CR2 |= I2C_CR2_STOP;
 5924              		.loc 1 2536 13
 5925 0170 FB68     		ldr	r3, [r7, #12]
 5926 0172 1B68     		ldr	r3, [r3]
 5927              		.loc 1 2536 29
 5928 0174 5A68     		ldr	r2, [r3, #4]
 5929              		.loc 1 2536 13
 5930 0176 FB68     		ldr	r3, [r7, #12]
 5931 0178 1B68     		ldr	r3, [r3]
ARM GAS  C:\Users\ADMINI~1\AppData\Local\Temp\cc3zYV2m.s 			page 149


 5932              		.loc 1 2536 29
 5933 017a 8021     		movs	r1, #128
 5934 017c C901     		lsls	r1, r1, #7
 5935 017e 0A43     		orrs	r2, r1
 5936 0180 5A60     		str	r2, [r3, #4]
2537:Drivers/STM32F0xx_HAL_Driver/Src/stm32f0xx_hal_i2c.c **** 
2538:Drivers/STM32F0xx_HAL_Driver/Src/stm32f0xx_hal_i2c.c ****         /* Wait until STOPF flag is reset */
2539:Drivers/STM32F0xx_HAL_Driver/Src/stm32f0xx_hal_i2c.c ****         if (I2C_WaitOnFlagUntilTimeout(hi2c, I2C_FLAG_STOPF, RESET, Timeout, tickstart) != HAL_OK)
 5937              		.loc 1 2539 13
 5938 0182 3A68     		ldr	r2, [r7]
 5939 0184 F868     		ldr	r0, [r7, #12]
 5940 0186 7B69     		ldr	r3, [r7, #20]
 5941 0188 0093     		str	r3, [sp]
 5942 018a 1300     		movs	r3, r2
 5943 018c 0022     		movs	r2, #0
 5944 018e 2021     		movs	r1, #32
 5945 0190 FFF7FEFF 		bl	I2C_WaitOnFlagUntilTimeout
 5946 0194 031E     		subs	r3, r0, #0
 5947              		.loc 1 2539 12
 5948 0196 01D0     		beq	.L262
2540:Drivers/STM32F0xx_HAL_Driver/Src/stm32f0xx_hal_i2c.c ****         {
2541:Drivers/STM32F0xx_HAL_Driver/Src/stm32f0xx_hal_i2c.c ****           return HAL_TIMEOUT;
 5949              		.loc 1 2541 18
 5950 0198 0323     		movs	r3, #3
 5951 019a 13E0     		b	.L250
 5952              	.L262:
2542:Drivers/STM32F0xx_HAL_Driver/Src/stm32f0xx_hal_i2c.c ****         }
2543:Drivers/STM32F0xx_HAL_Driver/Src/stm32f0xx_hal_i2c.c **** 
2544:Drivers/STM32F0xx_HAL_Driver/Src/stm32f0xx_hal_i2c.c ****         /* Clear STOP Flag */
2545:Drivers/STM32F0xx_HAL_Driver/Src/stm32f0xx_hal_i2c.c ****         __HAL_I2C_CLEAR_FLAG(hi2c, I2C_FLAG_STOPF);
 5953              		.loc 1 2545 9
 5954 019c FB68     		ldr	r3, [r7, #12]
 5955 019e 1B68     		ldr	r3, [r3]
 5956 01a0 2022     		movs	r2, #32
 5957 01a2 DA61     		str	r2, [r3, #28]
 5958              	.L261:
2546:Drivers/STM32F0xx_HAL_Driver/Src/stm32f0xx_hal_i2c.c ****       }
2547:Drivers/STM32F0xx_HAL_Driver/Src/stm32f0xx_hal_i2c.c ****     }
2548:Drivers/STM32F0xx_HAL_Driver/Src/stm32f0xx_hal_i2c.c ****     while (I2C_Trials < Trials);
 5959              		.loc 1 2548 23
 5960 01a4 3B69     		ldr	r3, [r7, #16]
 5961              		.loc 1 2548 5
 5962 01a6 7A68     		ldr	r2, [r7, #4]
 5963 01a8 9A42     		cmp	r2, r3
 5964 01aa 00D9     		bls	.LCB5014
 5965 01ac 5BE7     		b	.L263	@long jump
 5966              	.LCB5014:
2549:Drivers/STM32F0xx_HAL_Driver/Src/stm32f0xx_hal_i2c.c **** 
2550:Drivers/STM32F0xx_HAL_Driver/Src/stm32f0xx_hal_i2c.c ****     hi2c->State = HAL_I2C_STATE_READY;
 5967              		.loc 1 2550 17
 5968 01ae FB68     		ldr	r3, [r7, #12]
 5969 01b0 4122     		movs	r2, #65
 5970 01b2 2021     		movs	r1, #32
 5971 01b4 9954     		strb	r1, [r3, r2]
2551:Drivers/STM32F0xx_HAL_Driver/Src/stm32f0xx_hal_i2c.c **** 
2552:Drivers/STM32F0xx_HAL_Driver/Src/stm32f0xx_hal_i2c.c ****     /* Process Unlocked */
2553:Drivers/STM32F0xx_HAL_Driver/Src/stm32f0xx_hal_i2c.c ****     __HAL_UNLOCK(hi2c);
ARM GAS  C:\Users\ADMINI~1\AppData\Local\Temp\cc3zYV2m.s 			page 150


 5972              		.loc 1 2553 5
 5973 01b6 FB68     		ldr	r3, [r7, #12]
 5974 01b8 4022     		movs	r2, #64
 5975 01ba 0021     		movs	r1, #0
 5976 01bc 9954     		strb	r1, [r3, r2]
2554:Drivers/STM32F0xx_HAL_Driver/Src/stm32f0xx_hal_i2c.c **** 
2555:Drivers/STM32F0xx_HAL_Driver/Src/stm32f0xx_hal_i2c.c ****     return HAL_TIMEOUT;
 5977              		.loc 1 2555 12
 5978 01be 0323     		movs	r3, #3
 5979 01c0 00E0     		b	.L250
 5980              	.L248:
2556:Drivers/STM32F0xx_HAL_Driver/Src/stm32f0xx_hal_i2c.c ****   }
2557:Drivers/STM32F0xx_HAL_Driver/Src/stm32f0xx_hal_i2c.c ****   else
2558:Drivers/STM32F0xx_HAL_Driver/Src/stm32f0xx_hal_i2c.c ****   {
2559:Drivers/STM32F0xx_HAL_Driver/Src/stm32f0xx_hal_i2c.c ****     return HAL_BUSY;
 5981              		.loc 1 2559 12
 5982 01c2 0223     		movs	r3, #2
 5983              	.L250:
2560:Drivers/STM32F0xx_HAL_Driver/Src/stm32f0xx_hal_i2c.c ****   }
2561:Drivers/STM32F0xx_HAL_Driver/Src/stm32f0xx_hal_i2c.c **** }
 5984              		.loc 1 2561 1
 5985 01c4 1800     		movs	r0, r3
 5986 01c6 BD46     		mov	sp, r7
 5987 01c8 06B0     		add	sp, sp, #24
 5988              		@ sp needed
 5989 01ca 80BD     		pop	{r7, pc}
 5990              	.L265:
 5991              		.align	2
 5992              	.L264:
 5993 01cc 00200002 		.word	33562624
 5994              		.cfi_endproc
 5995              	.LFE59:
 5997              		.section	.text.HAL_I2C_Master_Sequential_Transmit_IT,"ax",%progbits
 5998              		.align	1
 5999              		.global	HAL_I2C_Master_Sequential_Transmit_IT
 6000              		.syntax unified
 6001              		.code	16
 6002              		.thumb_func
 6003              		.fpu softvfp
 6005              	HAL_I2C_Master_Sequential_Transmit_IT:
 6006              	.LFB60:
2562:Drivers/STM32F0xx_HAL_Driver/Src/stm32f0xx_hal_i2c.c **** 
2563:Drivers/STM32F0xx_HAL_Driver/Src/stm32f0xx_hal_i2c.c **** /**
2564:Drivers/STM32F0xx_HAL_Driver/Src/stm32f0xx_hal_i2c.c ****   * @brief  Sequential transmit in master I2C mode an amount of data in non-blocking mode with Inte
2565:Drivers/STM32F0xx_HAL_Driver/Src/stm32f0xx_hal_i2c.c ****   * @note   This interface allow to manage repeated start condition when a direction change during 
2566:Drivers/STM32F0xx_HAL_Driver/Src/stm32f0xx_hal_i2c.c ****   * @param  hi2c Pointer to a I2C_HandleTypeDef structure that contains
2567:Drivers/STM32F0xx_HAL_Driver/Src/stm32f0xx_hal_i2c.c ****   *                the configuration information for the specified I2C.
2568:Drivers/STM32F0xx_HAL_Driver/Src/stm32f0xx_hal_i2c.c ****   * @param  DevAddress Target device address: The device 7 bits address value
2569:Drivers/STM32F0xx_HAL_Driver/Src/stm32f0xx_hal_i2c.c ****   *         in datasheet must be shift at right before call interface
2570:Drivers/STM32F0xx_HAL_Driver/Src/stm32f0xx_hal_i2c.c ****   * @param  pData Pointer to data buffer
2571:Drivers/STM32F0xx_HAL_Driver/Src/stm32f0xx_hal_i2c.c ****   * @param  Size Amount of data to be sent
2572:Drivers/STM32F0xx_HAL_Driver/Src/stm32f0xx_hal_i2c.c ****   * @param  XferOptions Options of Transfer, value of @ref I2C_XFEROPTIONS
2573:Drivers/STM32F0xx_HAL_Driver/Src/stm32f0xx_hal_i2c.c ****   * @retval HAL status
2574:Drivers/STM32F0xx_HAL_Driver/Src/stm32f0xx_hal_i2c.c ****   */
2575:Drivers/STM32F0xx_HAL_Driver/Src/stm32f0xx_hal_i2c.c **** HAL_StatusTypeDef HAL_I2C_Master_Sequential_Transmit_IT(I2C_HandleTypeDef *hi2c, uint16_t DevAddres
2576:Drivers/STM32F0xx_HAL_Driver/Src/stm32f0xx_hal_i2c.c **** {
 6007              		.loc 1 2576 1
ARM GAS  C:\Users\ADMINI~1\AppData\Local\Temp\cc3zYV2m.s 			page 151


 6008              		.cfi_startproc
 6009              		@ args = 4, pretend = 0, frame = 24
 6010              		@ frame_needed = 1, uses_anonymous_args = 0
 6011 0000 90B5     		push	{r4, r7, lr}
 6012              	.LCFI69:
 6013              		.cfi_def_cfa_offset 12
 6014              		.cfi_offset 4, -12
 6015              		.cfi_offset 7, -8
 6016              		.cfi_offset 14, -4
 6017 0002 89B0     		sub	sp, sp, #36
 6018              	.LCFI70:
 6019              		.cfi_def_cfa_offset 48
 6020 0004 02AF     		add	r7, sp, #8
 6021              	.LCFI71:
 6022              		.cfi_def_cfa 7, 40
 6023 0006 F860     		str	r0, [r7, #12]
 6024 0008 0800     		movs	r0, r1
 6025 000a 7A60     		str	r2, [r7, #4]
 6026 000c 1900     		movs	r1, r3
 6027 000e 0A23     		movs	r3, #10
 6028 0010 FB18     		adds	r3, r7, r3
 6029 0012 021C     		adds	r2, r0, #0
 6030 0014 1A80     		strh	r2, [r3]
 6031 0016 0823     		movs	r3, #8
 6032 0018 FB18     		adds	r3, r7, r3
 6033 001a 0A1C     		adds	r2, r1, #0
 6034 001c 1A80     		strh	r2, [r3]
2577:Drivers/STM32F0xx_HAL_Driver/Src/stm32f0xx_hal_i2c.c ****   uint32_t xfermode = 0U;
 6035              		.loc 1 2577 12
 6036 001e 0023     		movs	r3, #0
 6037 0020 7B61     		str	r3, [r7, #20]
2578:Drivers/STM32F0xx_HAL_Driver/Src/stm32f0xx_hal_i2c.c ****   uint32_t xferrequest = I2C_GENERATE_START_WRITE;
 6038              		.loc 1 2578 12
 6039 0022 8023     		movs	r3, #128
 6040 0024 9B01     		lsls	r3, r3, #6
 6041 0026 3B61     		str	r3, [r7, #16]
2579:Drivers/STM32F0xx_HAL_Driver/Src/stm32f0xx_hal_i2c.c **** 
2580:Drivers/STM32F0xx_HAL_Driver/Src/stm32f0xx_hal_i2c.c ****   /* Check the parameters */
2581:Drivers/STM32F0xx_HAL_Driver/Src/stm32f0xx_hal_i2c.c ****   assert_param(IS_I2C_TRANSFER_OPTIONS_REQUEST(XferOptions));
2582:Drivers/STM32F0xx_HAL_Driver/Src/stm32f0xx_hal_i2c.c **** 
2583:Drivers/STM32F0xx_HAL_Driver/Src/stm32f0xx_hal_i2c.c ****   if (hi2c->State == HAL_I2C_STATE_READY)
 6042              		.loc 1 2583 11
 6043 0028 FB68     		ldr	r3, [r7, #12]
 6044 002a 4122     		movs	r2, #65
 6045 002c 9B5C     		ldrb	r3, [r3, r2]
 6046 002e DBB2     		uxtb	r3, r3
 6047              		.loc 1 2583 6
 6048 0030 202B     		cmp	r3, #32
 6049 0032 55D1     		bne	.L267
2584:Drivers/STM32F0xx_HAL_Driver/Src/stm32f0xx_hal_i2c.c ****   {
2585:Drivers/STM32F0xx_HAL_Driver/Src/stm32f0xx_hal_i2c.c ****     /* Process Locked */
2586:Drivers/STM32F0xx_HAL_Driver/Src/stm32f0xx_hal_i2c.c ****     __HAL_LOCK(hi2c);
 6050              		.loc 1 2586 5
 6051 0034 FB68     		ldr	r3, [r7, #12]
 6052 0036 4022     		movs	r2, #64
 6053 0038 9B5C     		ldrb	r3, [r3, r2]
 6054 003a 012B     		cmp	r3, #1
ARM GAS  C:\Users\ADMINI~1\AppData\Local\Temp\cc3zYV2m.s 			page 152


 6055 003c 01D1     		bne	.L268
 6056              		.loc 1 2586 5 is_stmt 0 discriminator 1
 6057 003e 0223     		movs	r3, #2
 6058 0040 4FE0     		b	.L269
 6059              	.L268:
 6060              		.loc 1 2586 5 discriminator 2
 6061 0042 FB68     		ldr	r3, [r7, #12]
 6062 0044 4022     		movs	r2, #64
 6063 0046 0121     		movs	r1, #1
 6064 0048 9954     		strb	r1, [r3, r2]
2587:Drivers/STM32F0xx_HAL_Driver/Src/stm32f0xx_hal_i2c.c **** 
2588:Drivers/STM32F0xx_HAL_Driver/Src/stm32f0xx_hal_i2c.c ****     hi2c->State     = HAL_I2C_STATE_BUSY_TX;
 6065              		.loc 1 2588 21 is_stmt 1 discriminator 2
 6066 004a FB68     		ldr	r3, [r7, #12]
 6067 004c 4122     		movs	r2, #65
 6068 004e 2121     		movs	r1, #33
 6069 0050 9954     		strb	r1, [r3, r2]
2589:Drivers/STM32F0xx_HAL_Driver/Src/stm32f0xx_hal_i2c.c ****     hi2c->Mode      = HAL_I2C_MODE_MASTER;
 6070              		.loc 1 2589 21 discriminator 2
 6071 0052 FB68     		ldr	r3, [r7, #12]
 6072 0054 4222     		movs	r2, #66
 6073 0056 1021     		movs	r1, #16
 6074 0058 9954     		strb	r1, [r3, r2]
2590:Drivers/STM32F0xx_HAL_Driver/Src/stm32f0xx_hal_i2c.c ****     hi2c->ErrorCode = HAL_I2C_ERROR_NONE;
 6075              		.loc 1 2590 21 discriminator 2
 6076 005a FB68     		ldr	r3, [r7, #12]
 6077 005c 0022     		movs	r2, #0
 6078 005e 5A64     		str	r2, [r3, #68]
2591:Drivers/STM32F0xx_HAL_Driver/Src/stm32f0xx_hal_i2c.c **** 
2592:Drivers/STM32F0xx_HAL_Driver/Src/stm32f0xx_hal_i2c.c ****     /* Prepare transfer parameters */
2593:Drivers/STM32F0xx_HAL_Driver/Src/stm32f0xx_hal_i2c.c ****     hi2c->pBuffPtr    = pData;
 6079              		.loc 1 2593 23 discriminator 2
 6080 0060 FB68     		ldr	r3, [r7, #12]
 6081 0062 7A68     		ldr	r2, [r7, #4]
 6082 0064 5A62     		str	r2, [r3, #36]
2594:Drivers/STM32F0xx_HAL_Driver/Src/stm32f0xx_hal_i2c.c ****     hi2c->XferCount   = Size;
 6083              		.loc 1 2594 23 discriminator 2
 6084 0066 FB68     		ldr	r3, [r7, #12]
 6085 0068 0822     		movs	r2, #8
 6086 006a BA18     		adds	r2, r7, r2
 6087 006c 1288     		ldrh	r2, [r2]
 6088 006e 5A85     		strh	r2, [r3, #42]
2595:Drivers/STM32F0xx_HAL_Driver/Src/stm32f0xx_hal_i2c.c ****     hi2c->XferOptions = XferOptions;
 6089              		.loc 1 2595 23 discriminator 2
 6090 0070 FB68     		ldr	r3, [r7, #12]
 6091 0072 BA6A     		ldr	r2, [r7, #40]
 6092 0074 DA62     		str	r2, [r3, #44]
2596:Drivers/STM32F0xx_HAL_Driver/Src/stm32f0xx_hal_i2c.c ****     hi2c->XferISR     = I2C_Master_ISR_IT;
 6093              		.loc 1 2596 23 discriminator 2
 6094 0076 FB68     		ldr	r3, [r7, #12]
 6095 0078 1C4A     		ldr	r2, .L273
 6096 007a 5A63     		str	r2, [r3, #52]
2597:Drivers/STM32F0xx_HAL_Driver/Src/stm32f0xx_hal_i2c.c **** 
2598:Drivers/STM32F0xx_HAL_Driver/Src/stm32f0xx_hal_i2c.c ****     /* If size > MAX_NBYTE_SIZE, use reload mode */
2599:Drivers/STM32F0xx_HAL_Driver/Src/stm32f0xx_hal_i2c.c ****     if (hi2c->XferCount > MAX_NBYTE_SIZE)
 6097              		.loc 1 2599 13 discriminator 2
 6098 007c FB68     		ldr	r3, [r7, #12]
ARM GAS  C:\Users\ADMINI~1\AppData\Local\Temp\cc3zYV2m.s 			page 153


 6099 007e 5B8D     		ldrh	r3, [r3, #42]
 6100 0080 9BB2     		uxth	r3, r3
 6101              		.loc 1 2599 8 discriminator 2
 6102 0082 FF2B     		cmp	r3, #255
 6103 0084 06D9     		bls	.L270
2600:Drivers/STM32F0xx_HAL_Driver/Src/stm32f0xx_hal_i2c.c ****     {
2601:Drivers/STM32F0xx_HAL_Driver/Src/stm32f0xx_hal_i2c.c ****       hi2c->XferSize = MAX_NBYTE_SIZE;
 6104              		.loc 1 2601 22
 6105 0086 FB68     		ldr	r3, [r7, #12]
 6106 0088 FF22     		movs	r2, #255
 6107 008a 1A85     		strh	r2, [r3, #40]
2602:Drivers/STM32F0xx_HAL_Driver/Src/stm32f0xx_hal_i2c.c ****       xfermode = I2C_RELOAD_MODE;
 6108              		.loc 1 2602 16
 6109 008c 8023     		movs	r3, #128
 6110 008e 5B04     		lsls	r3, r3, #17
 6111 0090 7B61     		str	r3, [r7, #20]
 6112 0092 07E0     		b	.L271
 6113              	.L270:
2603:Drivers/STM32F0xx_HAL_Driver/Src/stm32f0xx_hal_i2c.c ****     }
2604:Drivers/STM32F0xx_HAL_Driver/Src/stm32f0xx_hal_i2c.c ****     else
2605:Drivers/STM32F0xx_HAL_Driver/Src/stm32f0xx_hal_i2c.c ****     {
2606:Drivers/STM32F0xx_HAL_Driver/Src/stm32f0xx_hal_i2c.c ****       hi2c->XferSize = hi2c->XferCount;
 6114              		.loc 1 2606 28
 6115 0094 FB68     		ldr	r3, [r7, #12]
 6116 0096 5B8D     		ldrh	r3, [r3, #42]
 6117 0098 9AB2     		uxth	r2, r3
 6118              		.loc 1 2606 22
 6119 009a FB68     		ldr	r3, [r7, #12]
 6120 009c 1A85     		strh	r2, [r3, #40]
2607:Drivers/STM32F0xx_HAL_Driver/Src/stm32f0xx_hal_i2c.c ****       xfermode = hi2c->XferOptions;
 6121              		.loc 1 2607 16
 6122 009e FB68     		ldr	r3, [r7, #12]
 6123 00a0 DB6A     		ldr	r3, [r3, #44]
 6124 00a2 7B61     		str	r3, [r7, #20]
 6125              	.L271:
2608:Drivers/STM32F0xx_HAL_Driver/Src/stm32f0xx_hal_i2c.c ****     }
2609:Drivers/STM32F0xx_HAL_Driver/Src/stm32f0xx_hal_i2c.c **** 
2610:Drivers/STM32F0xx_HAL_Driver/Src/stm32f0xx_hal_i2c.c ****     /* If transfer direction not change, do not generate Restart Condition */
2611:Drivers/STM32F0xx_HAL_Driver/Src/stm32f0xx_hal_i2c.c ****     /* Mean Previous state is same as current state */
2612:Drivers/STM32F0xx_HAL_Driver/Src/stm32f0xx_hal_i2c.c ****     if (hi2c->PreviousState == I2C_STATE_MASTER_BUSY_TX)
 6126              		.loc 1 2612 13
 6127 00a4 FB68     		ldr	r3, [r7, #12]
 6128 00a6 1B6B     		ldr	r3, [r3, #48]
 6129              		.loc 1 2612 8
 6130 00a8 112B     		cmp	r3, #17
 6131 00aa 01D1     		bne	.L272
2613:Drivers/STM32F0xx_HAL_Driver/Src/stm32f0xx_hal_i2c.c ****     {
2614:Drivers/STM32F0xx_HAL_Driver/Src/stm32f0xx_hal_i2c.c ****       xferrequest = I2C_NO_STARTSTOP;
 6132              		.loc 1 2614 19
 6133 00ac 0023     		movs	r3, #0
 6134 00ae 3B61     		str	r3, [r7, #16]
 6135              	.L272:
2615:Drivers/STM32F0xx_HAL_Driver/Src/stm32f0xx_hal_i2c.c ****     }
2616:Drivers/STM32F0xx_HAL_Driver/Src/stm32f0xx_hal_i2c.c **** 
2617:Drivers/STM32F0xx_HAL_Driver/Src/stm32f0xx_hal_i2c.c ****     /* Send Slave Address and set NBYTES to write */
2618:Drivers/STM32F0xx_HAL_Driver/Src/stm32f0xx_hal_i2c.c ****     I2C_TransferConfig(hi2c, DevAddress, hi2c->XferSize, xfermode, xferrequest);
 6136              		.loc 1 2618 46
ARM GAS  C:\Users\ADMINI~1\AppData\Local\Temp\cc3zYV2m.s 			page 154


 6137 00b0 FB68     		ldr	r3, [r7, #12]
 6138 00b2 1B8D     		ldrh	r3, [r3, #40]
 6139              		.loc 1 2618 5
 6140 00b4 DAB2     		uxtb	r2, r3
 6141 00b6 7C69     		ldr	r4, [r7, #20]
 6142 00b8 0A23     		movs	r3, #10
 6143 00ba FB18     		adds	r3, r7, r3
 6144 00bc 1988     		ldrh	r1, [r3]
 6145 00be F868     		ldr	r0, [r7, #12]
 6146 00c0 3B69     		ldr	r3, [r7, #16]
 6147 00c2 0093     		str	r3, [sp]
 6148 00c4 2300     		movs	r3, r4
 6149 00c6 FFF7FEFF 		bl	I2C_TransferConfig
2619:Drivers/STM32F0xx_HAL_Driver/Src/stm32f0xx_hal_i2c.c **** 
2620:Drivers/STM32F0xx_HAL_Driver/Src/stm32f0xx_hal_i2c.c ****     /* Process Unlocked */
2621:Drivers/STM32F0xx_HAL_Driver/Src/stm32f0xx_hal_i2c.c ****     __HAL_UNLOCK(hi2c);
 6150              		.loc 1 2621 5
 6151 00ca FB68     		ldr	r3, [r7, #12]
 6152 00cc 4022     		movs	r2, #64
 6153 00ce 0021     		movs	r1, #0
 6154 00d0 9954     		strb	r1, [r3, r2]
2622:Drivers/STM32F0xx_HAL_Driver/Src/stm32f0xx_hal_i2c.c **** 
2623:Drivers/STM32F0xx_HAL_Driver/Src/stm32f0xx_hal_i2c.c ****     /* Note : The I2C interrupts must be enabled after unlocking current process
2624:Drivers/STM32F0xx_HAL_Driver/Src/stm32f0xx_hal_i2c.c ****               to avoid the risk of I2C interrupt handle execution before current
2625:Drivers/STM32F0xx_HAL_Driver/Src/stm32f0xx_hal_i2c.c ****               process unlock */
2626:Drivers/STM32F0xx_HAL_Driver/Src/stm32f0xx_hal_i2c.c ****     I2C_Enable_IRQ(hi2c, I2C_XFER_TX_IT);
 6155              		.loc 1 2626 5
 6156 00d2 FB68     		ldr	r3, [r7, #12]
 6157 00d4 0121     		movs	r1, #1
 6158 00d6 1800     		movs	r0, r3
 6159 00d8 FFF7FEFF 		bl	I2C_Enable_IRQ
2627:Drivers/STM32F0xx_HAL_Driver/Src/stm32f0xx_hal_i2c.c **** 
2628:Drivers/STM32F0xx_HAL_Driver/Src/stm32f0xx_hal_i2c.c ****     return HAL_OK;
 6160              		.loc 1 2628 12
 6161 00dc 0023     		movs	r3, #0
 6162 00de 00E0     		b	.L269
 6163              	.L267:
2629:Drivers/STM32F0xx_HAL_Driver/Src/stm32f0xx_hal_i2c.c ****   }
2630:Drivers/STM32F0xx_HAL_Driver/Src/stm32f0xx_hal_i2c.c ****   else
2631:Drivers/STM32F0xx_HAL_Driver/Src/stm32f0xx_hal_i2c.c ****   {
2632:Drivers/STM32F0xx_HAL_Driver/Src/stm32f0xx_hal_i2c.c ****     return HAL_BUSY;
 6164              		.loc 1 2632 12
 6165 00e0 0223     		movs	r3, #2
 6166              	.L269:
2633:Drivers/STM32F0xx_HAL_Driver/Src/stm32f0xx_hal_i2c.c ****   }
2634:Drivers/STM32F0xx_HAL_Driver/Src/stm32f0xx_hal_i2c.c **** }
 6167              		.loc 1 2634 1
 6168 00e2 1800     		movs	r0, r3
 6169 00e4 BD46     		mov	sp, r7
 6170 00e6 07B0     		add	sp, sp, #28
 6171              		@ sp needed
 6172 00e8 90BD     		pop	{r4, r7, pc}
 6173              	.L274:
 6174 00ea C046     		.align	2
 6175              	.L273:
 6176 00ec 00000000 		.word	I2C_Master_ISR_IT
 6177              		.cfi_endproc
ARM GAS  C:\Users\ADMINI~1\AppData\Local\Temp\cc3zYV2m.s 			page 155


 6178              	.LFE60:
 6180              		.section	.text.HAL_I2C_Master_Sequential_Receive_IT,"ax",%progbits
 6181              		.align	1
 6182              		.global	HAL_I2C_Master_Sequential_Receive_IT
 6183              		.syntax unified
 6184              		.code	16
 6185              		.thumb_func
 6186              		.fpu softvfp
 6188              	HAL_I2C_Master_Sequential_Receive_IT:
 6189              	.LFB61:
2635:Drivers/STM32F0xx_HAL_Driver/Src/stm32f0xx_hal_i2c.c **** 
2636:Drivers/STM32F0xx_HAL_Driver/Src/stm32f0xx_hal_i2c.c **** /**
2637:Drivers/STM32F0xx_HAL_Driver/Src/stm32f0xx_hal_i2c.c ****   * @brief  Sequential receive in master I2C mode an amount of data in non-blocking mode with Inter
2638:Drivers/STM32F0xx_HAL_Driver/Src/stm32f0xx_hal_i2c.c ****   * @note   This interface allow to manage repeated start condition when a direction change during 
2639:Drivers/STM32F0xx_HAL_Driver/Src/stm32f0xx_hal_i2c.c ****   * @param  hi2c Pointer to a I2C_HandleTypeDef structure that contains
2640:Drivers/STM32F0xx_HAL_Driver/Src/stm32f0xx_hal_i2c.c ****   *                the configuration information for the specified I2C.
2641:Drivers/STM32F0xx_HAL_Driver/Src/stm32f0xx_hal_i2c.c ****   * @param  DevAddress Target device address: The device 7 bits address value
2642:Drivers/STM32F0xx_HAL_Driver/Src/stm32f0xx_hal_i2c.c ****   *         in datasheet must be shift at right before call interface
2643:Drivers/STM32F0xx_HAL_Driver/Src/stm32f0xx_hal_i2c.c ****   * @param  pData Pointer to data buffer
2644:Drivers/STM32F0xx_HAL_Driver/Src/stm32f0xx_hal_i2c.c ****   * @param  Size Amount of data to be sent
2645:Drivers/STM32F0xx_HAL_Driver/Src/stm32f0xx_hal_i2c.c ****   * @param  XferOptions Options of Transfer, value of @ref I2C_XFEROPTIONS
2646:Drivers/STM32F0xx_HAL_Driver/Src/stm32f0xx_hal_i2c.c ****   * @retval HAL status
2647:Drivers/STM32F0xx_HAL_Driver/Src/stm32f0xx_hal_i2c.c ****   */
2648:Drivers/STM32F0xx_HAL_Driver/Src/stm32f0xx_hal_i2c.c **** HAL_StatusTypeDef HAL_I2C_Master_Sequential_Receive_IT(I2C_HandleTypeDef *hi2c, uint16_t DevAddress
2649:Drivers/STM32F0xx_HAL_Driver/Src/stm32f0xx_hal_i2c.c **** {
 6190              		.loc 1 2649 1
 6191              		.cfi_startproc
 6192              		@ args = 4, pretend = 0, frame = 24
 6193              		@ frame_needed = 1, uses_anonymous_args = 0
 6194 0000 90B5     		push	{r4, r7, lr}
 6195              	.LCFI72:
 6196              		.cfi_def_cfa_offset 12
 6197              		.cfi_offset 4, -12
 6198              		.cfi_offset 7, -8
 6199              		.cfi_offset 14, -4
 6200 0002 89B0     		sub	sp, sp, #36
 6201              	.LCFI73:
 6202              		.cfi_def_cfa_offset 48
 6203 0004 02AF     		add	r7, sp, #8
 6204              	.LCFI74:
 6205              		.cfi_def_cfa 7, 40
 6206 0006 F860     		str	r0, [r7, #12]
 6207 0008 0800     		movs	r0, r1
 6208 000a 7A60     		str	r2, [r7, #4]
 6209 000c 1900     		movs	r1, r3
 6210 000e 0A23     		movs	r3, #10
 6211 0010 FB18     		adds	r3, r7, r3
 6212 0012 021C     		adds	r2, r0, #0
 6213 0014 1A80     		strh	r2, [r3]
 6214 0016 0823     		movs	r3, #8
 6215 0018 FB18     		adds	r3, r7, r3
 6216 001a 0A1C     		adds	r2, r1, #0
 6217 001c 1A80     		strh	r2, [r3]
2650:Drivers/STM32F0xx_HAL_Driver/Src/stm32f0xx_hal_i2c.c ****   uint32_t xfermode = 0U;
 6218              		.loc 1 2650 12
 6219 001e 0023     		movs	r3, #0
 6220 0020 7B61     		str	r3, [r7, #20]
ARM GAS  C:\Users\ADMINI~1\AppData\Local\Temp\cc3zYV2m.s 			page 156


2651:Drivers/STM32F0xx_HAL_Driver/Src/stm32f0xx_hal_i2c.c ****   uint32_t xferrequest = I2C_GENERATE_START_READ;
 6221              		.loc 1 2651 12
 6222 0022 9023     		movs	r3, #144
 6223 0024 9B01     		lsls	r3, r3, #6
 6224 0026 3B61     		str	r3, [r7, #16]
2652:Drivers/STM32F0xx_HAL_Driver/Src/stm32f0xx_hal_i2c.c **** 
2653:Drivers/STM32F0xx_HAL_Driver/Src/stm32f0xx_hal_i2c.c ****   /* Check the parameters */
2654:Drivers/STM32F0xx_HAL_Driver/Src/stm32f0xx_hal_i2c.c ****   assert_param(IS_I2C_TRANSFER_OPTIONS_REQUEST(XferOptions));
2655:Drivers/STM32F0xx_HAL_Driver/Src/stm32f0xx_hal_i2c.c **** 
2656:Drivers/STM32F0xx_HAL_Driver/Src/stm32f0xx_hal_i2c.c ****   if (hi2c->State == HAL_I2C_STATE_READY)
 6225              		.loc 1 2656 11
 6226 0028 FB68     		ldr	r3, [r7, #12]
 6227 002a 4122     		movs	r2, #65
 6228 002c 9B5C     		ldrb	r3, [r3, r2]
 6229 002e DBB2     		uxtb	r3, r3
 6230              		.loc 1 2656 6
 6231 0030 202B     		cmp	r3, #32
 6232 0032 55D1     		bne	.L276
2657:Drivers/STM32F0xx_HAL_Driver/Src/stm32f0xx_hal_i2c.c ****   {
2658:Drivers/STM32F0xx_HAL_Driver/Src/stm32f0xx_hal_i2c.c ****     /* Process Locked */
2659:Drivers/STM32F0xx_HAL_Driver/Src/stm32f0xx_hal_i2c.c ****     __HAL_LOCK(hi2c);
 6233              		.loc 1 2659 5
 6234 0034 FB68     		ldr	r3, [r7, #12]
 6235 0036 4022     		movs	r2, #64
 6236 0038 9B5C     		ldrb	r3, [r3, r2]
 6237 003a 012B     		cmp	r3, #1
 6238 003c 01D1     		bne	.L277
 6239              		.loc 1 2659 5 is_stmt 0 discriminator 1
 6240 003e 0223     		movs	r3, #2
 6241 0040 4FE0     		b	.L278
 6242              	.L277:
 6243              		.loc 1 2659 5 discriminator 2
 6244 0042 FB68     		ldr	r3, [r7, #12]
 6245 0044 4022     		movs	r2, #64
 6246 0046 0121     		movs	r1, #1
 6247 0048 9954     		strb	r1, [r3, r2]
2660:Drivers/STM32F0xx_HAL_Driver/Src/stm32f0xx_hal_i2c.c **** 
2661:Drivers/STM32F0xx_HAL_Driver/Src/stm32f0xx_hal_i2c.c ****     hi2c->State     = HAL_I2C_STATE_BUSY_RX;
 6248              		.loc 1 2661 21 is_stmt 1 discriminator 2
 6249 004a FB68     		ldr	r3, [r7, #12]
 6250 004c 4122     		movs	r2, #65
 6251 004e 2221     		movs	r1, #34
 6252 0050 9954     		strb	r1, [r3, r2]
2662:Drivers/STM32F0xx_HAL_Driver/Src/stm32f0xx_hal_i2c.c ****     hi2c->Mode      = HAL_I2C_MODE_MASTER;
 6253              		.loc 1 2662 21 discriminator 2
 6254 0052 FB68     		ldr	r3, [r7, #12]
 6255 0054 4222     		movs	r2, #66
 6256 0056 1021     		movs	r1, #16
 6257 0058 9954     		strb	r1, [r3, r2]
2663:Drivers/STM32F0xx_HAL_Driver/Src/stm32f0xx_hal_i2c.c ****     hi2c->ErrorCode = HAL_I2C_ERROR_NONE;
 6258              		.loc 1 2663 21 discriminator 2
 6259 005a FB68     		ldr	r3, [r7, #12]
 6260 005c 0022     		movs	r2, #0
 6261 005e 5A64     		str	r2, [r3, #68]
2664:Drivers/STM32F0xx_HAL_Driver/Src/stm32f0xx_hal_i2c.c **** 
2665:Drivers/STM32F0xx_HAL_Driver/Src/stm32f0xx_hal_i2c.c ****     /* Prepare transfer parameters */
2666:Drivers/STM32F0xx_HAL_Driver/Src/stm32f0xx_hal_i2c.c ****     hi2c->pBuffPtr    = pData;
ARM GAS  C:\Users\ADMINI~1\AppData\Local\Temp\cc3zYV2m.s 			page 157


 6262              		.loc 1 2666 23 discriminator 2
 6263 0060 FB68     		ldr	r3, [r7, #12]
 6264 0062 7A68     		ldr	r2, [r7, #4]
 6265 0064 5A62     		str	r2, [r3, #36]
2667:Drivers/STM32F0xx_HAL_Driver/Src/stm32f0xx_hal_i2c.c ****     hi2c->XferCount   = Size;
 6266              		.loc 1 2667 23 discriminator 2
 6267 0066 FB68     		ldr	r3, [r7, #12]
 6268 0068 0822     		movs	r2, #8
 6269 006a BA18     		adds	r2, r7, r2
 6270 006c 1288     		ldrh	r2, [r2]
 6271 006e 5A85     		strh	r2, [r3, #42]
2668:Drivers/STM32F0xx_HAL_Driver/Src/stm32f0xx_hal_i2c.c ****     hi2c->XferOptions = XferOptions;
 6272              		.loc 1 2668 23 discriminator 2
 6273 0070 FB68     		ldr	r3, [r7, #12]
 6274 0072 BA6A     		ldr	r2, [r7, #40]
 6275 0074 DA62     		str	r2, [r3, #44]
2669:Drivers/STM32F0xx_HAL_Driver/Src/stm32f0xx_hal_i2c.c ****     hi2c->XferISR     = I2C_Master_ISR_IT;
 6276              		.loc 1 2669 23 discriminator 2
 6277 0076 FB68     		ldr	r3, [r7, #12]
 6278 0078 1C4A     		ldr	r2, .L282
 6279 007a 5A63     		str	r2, [r3, #52]
2670:Drivers/STM32F0xx_HAL_Driver/Src/stm32f0xx_hal_i2c.c **** 
2671:Drivers/STM32F0xx_HAL_Driver/Src/stm32f0xx_hal_i2c.c ****     /* If hi2c->XferCount > MAX_NBYTE_SIZE, use reload mode */
2672:Drivers/STM32F0xx_HAL_Driver/Src/stm32f0xx_hal_i2c.c ****     if (hi2c->XferCount > MAX_NBYTE_SIZE)
 6280              		.loc 1 2672 13 discriminator 2
 6281 007c FB68     		ldr	r3, [r7, #12]
 6282 007e 5B8D     		ldrh	r3, [r3, #42]
 6283 0080 9BB2     		uxth	r3, r3
 6284              		.loc 1 2672 8 discriminator 2
 6285 0082 FF2B     		cmp	r3, #255
 6286 0084 06D9     		bls	.L279
2673:Drivers/STM32F0xx_HAL_Driver/Src/stm32f0xx_hal_i2c.c ****     {
2674:Drivers/STM32F0xx_HAL_Driver/Src/stm32f0xx_hal_i2c.c ****       hi2c->XferSize = MAX_NBYTE_SIZE;
 6287              		.loc 1 2674 22
 6288 0086 FB68     		ldr	r3, [r7, #12]
 6289 0088 FF22     		movs	r2, #255
 6290 008a 1A85     		strh	r2, [r3, #40]
2675:Drivers/STM32F0xx_HAL_Driver/Src/stm32f0xx_hal_i2c.c ****       xfermode = I2C_RELOAD_MODE;
 6291              		.loc 1 2675 16
 6292 008c 8023     		movs	r3, #128
 6293 008e 5B04     		lsls	r3, r3, #17
 6294 0090 7B61     		str	r3, [r7, #20]
 6295 0092 07E0     		b	.L280
 6296              	.L279:
2676:Drivers/STM32F0xx_HAL_Driver/Src/stm32f0xx_hal_i2c.c ****     }
2677:Drivers/STM32F0xx_HAL_Driver/Src/stm32f0xx_hal_i2c.c ****     else
2678:Drivers/STM32F0xx_HAL_Driver/Src/stm32f0xx_hal_i2c.c ****     {
2679:Drivers/STM32F0xx_HAL_Driver/Src/stm32f0xx_hal_i2c.c ****       hi2c->XferSize = hi2c->XferCount;
 6297              		.loc 1 2679 28
 6298 0094 FB68     		ldr	r3, [r7, #12]
 6299 0096 5B8D     		ldrh	r3, [r3, #42]
 6300 0098 9AB2     		uxth	r2, r3
 6301              		.loc 1 2679 22
 6302 009a FB68     		ldr	r3, [r7, #12]
 6303 009c 1A85     		strh	r2, [r3, #40]
2680:Drivers/STM32F0xx_HAL_Driver/Src/stm32f0xx_hal_i2c.c ****       xfermode = hi2c->XferOptions;
 6304              		.loc 1 2680 16
ARM GAS  C:\Users\ADMINI~1\AppData\Local\Temp\cc3zYV2m.s 			page 158


 6305 009e FB68     		ldr	r3, [r7, #12]
 6306 00a0 DB6A     		ldr	r3, [r3, #44]
 6307 00a2 7B61     		str	r3, [r7, #20]
 6308              	.L280:
2681:Drivers/STM32F0xx_HAL_Driver/Src/stm32f0xx_hal_i2c.c ****     }
2682:Drivers/STM32F0xx_HAL_Driver/Src/stm32f0xx_hal_i2c.c **** 
2683:Drivers/STM32F0xx_HAL_Driver/Src/stm32f0xx_hal_i2c.c ****     /* If transfer direction not change, do not generate Restart Condition */
2684:Drivers/STM32F0xx_HAL_Driver/Src/stm32f0xx_hal_i2c.c ****     /* Mean Previous state is same as current state */
2685:Drivers/STM32F0xx_HAL_Driver/Src/stm32f0xx_hal_i2c.c ****     if (hi2c->PreviousState == I2C_STATE_MASTER_BUSY_RX)
 6309              		.loc 1 2685 13
 6310 00a4 FB68     		ldr	r3, [r7, #12]
 6311 00a6 1B6B     		ldr	r3, [r3, #48]
 6312              		.loc 1 2685 8
 6313 00a8 122B     		cmp	r3, #18
 6314 00aa 01D1     		bne	.L281
2686:Drivers/STM32F0xx_HAL_Driver/Src/stm32f0xx_hal_i2c.c ****     {
2687:Drivers/STM32F0xx_HAL_Driver/Src/stm32f0xx_hal_i2c.c ****       xferrequest = I2C_NO_STARTSTOP;
 6315              		.loc 1 2687 19
 6316 00ac 0023     		movs	r3, #0
 6317 00ae 3B61     		str	r3, [r7, #16]
 6318              	.L281:
2688:Drivers/STM32F0xx_HAL_Driver/Src/stm32f0xx_hal_i2c.c ****     }
2689:Drivers/STM32F0xx_HAL_Driver/Src/stm32f0xx_hal_i2c.c **** 
2690:Drivers/STM32F0xx_HAL_Driver/Src/stm32f0xx_hal_i2c.c ****     /* Send Slave Address and set NBYTES to read */
2691:Drivers/STM32F0xx_HAL_Driver/Src/stm32f0xx_hal_i2c.c ****     I2C_TransferConfig(hi2c, DevAddress, hi2c->XferSize, xfermode, xferrequest);
 6319              		.loc 1 2691 46
 6320 00b0 FB68     		ldr	r3, [r7, #12]
 6321 00b2 1B8D     		ldrh	r3, [r3, #40]
 6322              		.loc 1 2691 5
 6323 00b4 DAB2     		uxtb	r2, r3
 6324 00b6 7C69     		ldr	r4, [r7, #20]
 6325 00b8 0A23     		movs	r3, #10
 6326 00ba FB18     		adds	r3, r7, r3
 6327 00bc 1988     		ldrh	r1, [r3]
 6328 00be F868     		ldr	r0, [r7, #12]
 6329 00c0 3B69     		ldr	r3, [r7, #16]
 6330 00c2 0093     		str	r3, [sp]
 6331 00c4 2300     		movs	r3, r4
 6332 00c6 FFF7FEFF 		bl	I2C_TransferConfig
2692:Drivers/STM32F0xx_HAL_Driver/Src/stm32f0xx_hal_i2c.c **** 
2693:Drivers/STM32F0xx_HAL_Driver/Src/stm32f0xx_hal_i2c.c ****     /* Process Unlocked */
2694:Drivers/STM32F0xx_HAL_Driver/Src/stm32f0xx_hal_i2c.c ****     __HAL_UNLOCK(hi2c);
 6333              		.loc 1 2694 5
 6334 00ca FB68     		ldr	r3, [r7, #12]
 6335 00cc 4022     		movs	r2, #64
 6336 00ce 0021     		movs	r1, #0
 6337 00d0 9954     		strb	r1, [r3, r2]
2695:Drivers/STM32F0xx_HAL_Driver/Src/stm32f0xx_hal_i2c.c **** 
2696:Drivers/STM32F0xx_HAL_Driver/Src/stm32f0xx_hal_i2c.c ****     /* Note : The I2C interrupts must be enabled after unlocking current process
2697:Drivers/STM32F0xx_HAL_Driver/Src/stm32f0xx_hal_i2c.c ****               to avoid the risk of I2C interrupt handle execution before current
2698:Drivers/STM32F0xx_HAL_Driver/Src/stm32f0xx_hal_i2c.c ****               process unlock */
2699:Drivers/STM32F0xx_HAL_Driver/Src/stm32f0xx_hal_i2c.c ****     I2C_Enable_IRQ(hi2c, I2C_XFER_RX_IT);
 6338              		.loc 1 2699 5
 6339 00d2 FB68     		ldr	r3, [r7, #12]
 6340 00d4 0221     		movs	r1, #2
 6341 00d6 1800     		movs	r0, r3
 6342 00d8 FFF7FEFF 		bl	I2C_Enable_IRQ
ARM GAS  C:\Users\ADMINI~1\AppData\Local\Temp\cc3zYV2m.s 			page 159


2700:Drivers/STM32F0xx_HAL_Driver/Src/stm32f0xx_hal_i2c.c **** 
2701:Drivers/STM32F0xx_HAL_Driver/Src/stm32f0xx_hal_i2c.c ****     return HAL_OK;
 6343              		.loc 1 2701 12
 6344 00dc 0023     		movs	r3, #0
 6345 00de 00E0     		b	.L278
 6346              	.L276:
2702:Drivers/STM32F0xx_HAL_Driver/Src/stm32f0xx_hal_i2c.c ****   }
2703:Drivers/STM32F0xx_HAL_Driver/Src/stm32f0xx_hal_i2c.c ****   else
2704:Drivers/STM32F0xx_HAL_Driver/Src/stm32f0xx_hal_i2c.c ****   {
2705:Drivers/STM32F0xx_HAL_Driver/Src/stm32f0xx_hal_i2c.c ****     return HAL_BUSY;
 6347              		.loc 1 2705 12
 6348 00e0 0223     		movs	r3, #2
 6349              	.L278:
2706:Drivers/STM32F0xx_HAL_Driver/Src/stm32f0xx_hal_i2c.c ****   }
2707:Drivers/STM32F0xx_HAL_Driver/Src/stm32f0xx_hal_i2c.c **** }
 6350              		.loc 1 2707 1
 6351 00e2 1800     		movs	r0, r3
 6352 00e4 BD46     		mov	sp, r7
 6353 00e6 07B0     		add	sp, sp, #28
 6354              		@ sp needed
 6355 00e8 90BD     		pop	{r4, r7, pc}
 6356              	.L283:
 6357 00ea C046     		.align	2
 6358              	.L282:
 6359 00ec 00000000 		.word	I2C_Master_ISR_IT
 6360              		.cfi_endproc
 6361              	.LFE61:
 6363              		.section	.text.HAL_I2C_Slave_Sequential_Transmit_IT,"ax",%progbits
 6364              		.align	1
 6365              		.global	HAL_I2C_Slave_Sequential_Transmit_IT
 6366              		.syntax unified
 6367              		.code	16
 6368              		.thumb_func
 6369              		.fpu softvfp
 6371              	HAL_I2C_Slave_Sequential_Transmit_IT:
 6372              	.LFB62:
2708:Drivers/STM32F0xx_HAL_Driver/Src/stm32f0xx_hal_i2c.c **** 
2709:Drivers/STM32F0xx_HAL_Driver/Src/stm32f0xx_hal_i2c.c **** /**
2710:Drivers/STM32F0xx_HAL_Driver/Src/stm32f0xx_hal_i2c.c ****   * @brief  Sequential transmit in slave/device I2C mode an amount of data in non-blocking mode wit
2711:Drivers/STM32F0xx_HAL_Driver/Src/stm32f0xx_hal_i2c.c ****   * @note   This interface allow to manage repeated start condition when a direction change during 
2712:Drivers/STM32F0xx_HAL_Driver/Src/stm32f0xx_hal_i2c.c ****   * @param  hi2c Pointer to a I2C_HandleTypeDef structure that contains
2713:Drivers/STM32F0xx_HAL_Driver/Src/stm32f0xx_hal_i2c.c ****   *                the configuration information for the specified I2C.
2714:Drivers/STM32F0xx_HAL_Driver/Src/stm32f0xx_hal_i2c.c ****   * @param  pData Pointer to data buffer
2715:Drivers/STM32F0xx_HAL_Driver/Src/stm32f0xx_hal_i2c.c ****   * @param  Size Amount of data to be sent
2716:Drivers/STM32F0xx_HAL_Driver/Src/stm32f0xx_hal_i2c.c ****   * @param  XferOptions Options of Transfer, value of @ref I2C_XFEROPTIONS
2717:Drivers/STM32F0xx_HAL_Driver/Src/stm32f0xx_hal_i2c.c ****   * @retval HAL status
2718:Drivers/STM32F0xx_HAL_Driver/Src/stm32f0xx_hal_i2c.c ****   */
2719:Drivers/STM32F0xx_HAL_Driver/Src/stm32f0xx_hal_i2c.c **** HAL_StatusTypeDef HAL_I2C_Slave_Sequential_Transmit_IT(I2C_HandleTypeDef *hi2c, uint8_t *pData, uin
2720:Drivers/STM32F0xx_HAL_Driver/Src/stm32f0xx_hal_i2c.c **** {
 6373              		.loc 1 2720 1
 6374              		.cfi_startproc
 6375              		@ args = 0, pretend = 0, frame = 16
 6376              		@ frame_needed = 1, uses_anonymous_args = 0
 6377 0000 80B5     		push	{r7, lr}
 6378              	.LCFI75:
 6379              		.cfi_def_cfa_offset 8
 6380              		.cfi_offset 7, -8
ARM GAS  C:\Users\ADMINI~1\AppData\Local\Temp\cc3zYV2m.s 			page 160


 6381              		.cfi_offset 14, -4
 6382 0002 84B0     		sub	sp, sp, #16
 6383              	.LCFI76:
 6384              		.cfi_def_cfa_offset 24
 6385 0004 00AF     		add	r7, sp, #0
 6386              	.LCFI77:
 6387              		.cfi_def_cfa_register 7
 6388 0006 F860     		str	r0, [r7, #12]
 6389 0008 B960     		str	r1, [r7, #8]
 6390 000a 3B60     		str	r3, [r7]
 6391 000c BB1D     		adds	r3, r7, #6
 6392 000e 1A80     		strh	r2, [r3]
2721:Drivers/STM32F0xx_HAL_Driver/Src/stm32f0xx_hal_i2c.c ****   /* Check the parameters */
2722:Drivers/STM32F0xx_HAL_Driver/Src/stm32f0xx_hal_i2c.c ****   assert_param(IS_I2C_TRANSFER_OPTIONS_REQUEST(XferOptions));
2723:Drivers/STM32F0xx_HAL_Driver/Src/stm32f0xx_hal_i2c.c **** 
2724:Drivers/STM32F0xx_HAL_Driver/Src/stm32f0xx_hal_i2c.c ****   if ((hi2c->State & HAL_I2C_STATE_LISTEN) == HAL_I2C_STATE_LISTEN)
 6393              		.loc 1 2724 12
 6394 0010 FB68     		ldr	r3, [r7, #12]
 6395 0012 4122     		movs	r2, #65
 6396 0014 9B5C     		ldrb	r3, [r3, r2]
 6397 0016 DBB2     		uxtb	r3, r3
 6398              		.loc 1 2724 20
 6399 0018 1A00     		movs	r2, r3
 6400 001a 2823     		movs	r3, #40
 6401 001c 1340     		ands	r3, r2
 6402              		.loc 1 2724 6
 6403 001e 282B     		cmp	r3, #40
 6404 0020 5FD1     		bne	.L285
2725:Drivers/STM32F0xx_HAL_Driver/Src/stm32f0xx_hal_i2c.c ****   {
2726:Drivers/STM32F0xx_HAL_Driver/Src/stm32f0xx_hal_i2c.c ****     if ((pData == NULL) || (Size == 0U))
 6405              		.loc 1 2726 8
 6406 0022 BB68     		ldr	r3, [r7, #8]
 6407 0024 002B     		cmp	r3, #0
 6408 0026 03D0     		beq	.L286
 6409              		.loc 1 2726 25 discriminator 1
 6410 0028 BB1D     		adds	r3, r7, #6
 6411 002a 1B88     		ldrh	r3, [r3]
 6412 002c 002B     		cmp	r3, #0
 6413 002e 01D1     		bne	.L287
 6414              	.L286:
2727:Drivers/STM32F0xx_HAL_Driver/Src/stm32f0xx_hal_i2c.c ****     {
2728:Drivers/STM32F0xx_HAL_Driver/Src/stm32f0xx_hal_i2c.c ****       return  HAL_ERROR;
 6415              		.loc 1 2728 15
 6416 0030 0123     		movs	r3, #1
 6417 0032 57E0     		b	.L288
 6418              	.L287:
2729:Drivers/STM32F0xx_HAL_Driver/Src/stm32f0xx_hal_i2c.c ****     }
2730:Drivers/STM32F0xx_HAL_Driver/Src/stm32f0xx_hal_i2c.c **** 
2731:Drivers/STM32F0xx_HAL_Driver/Src/stm32f0xx_hal_i2c.c ****     /* Disable Interrupts, to prevent preemption during treatment in case of multicall */
2732:Drivers/STM32F0xx_HAL_Driver/Src/stm32f0xx_hal_i2c.c ****     I2C_Disable_IRQ(hi2c, I2C_XFER_LISTEN_IT | I2C_XFER_TX_IT);
 6419              		.loc 1 2732 5
 6420 0034 FB68     		ldr	r3, [r7, #12]
 6421 0036 0521     		movs	r1, #5
 6422 0038 1800     		movs	r0, r3
 6423 003a FFF7FEFF 		bl	I2C_Disable_IRQ
2733:Drivers/STM32F0xx_HAL_Driver/Src/stm32f0xx_hal_i2c.c **** 
2734:Drivers/STM32F0xx_HAL_Driver/Src/stm32f0xx_hal_i2c.c ****     /* Process Locked */
ARM GAS  C:\Users\ADMINI~1\AppData\Local\Temp\cc3zYV2m.s 			page 161


2735:Drivers/STM32F0xx_HAL_Driver/Src/stm32f0xx_hal_i2c.c ****     __HAL_LOCK(hi2c);
 6424              		.loc 1 2735 5
 6425 003e FB68     		ldr	r3, [r7, #12]
 6426 0040 4022     		movs	r2, #64
 6427 0042 9B5C     		ldrb	r3, [r3, r2]
 6428 0044 012B     		cmp	r3, #1
 6429 0046 01D1     		bne	.L289
 6430              		.loc 1 2735 5 is_stmt 0 discriminator 1
 6431 0048 0223     		movs	r3, #2
 6432 004a 4BE0     		b	.L288
 6433              	.L289:
 6434              		.loc 1 2735 5 discriminator 2
 6435 004c FB68     		ldr	r3, [r7, #12]
 6436 004e 4022     		movs	r2, #64
 6437 0050 0121     		movs	r1, #1
 6438 0052 9954     		strb	r1, [r3, r2]
2736:Drivers/STM32F0xx_HAL_Driver/Src/stm32f0xx_hal_i2c.c **** 
2737:Drivers/STM32F0xx_HAL_Driver/Src/stm32f0xx_hal_i2c.c ****     /* I2C cannot manage full duplex exchange so disable previous IT enabled if any */
2738:Drivers/STM32F0xx_HAL_Driver/Src/stm32f0xx_hal_i2c.c ****     /* and then toggle the HAL slave RX state to TX state */
2739:Drivers/STM32F0xx_HAL_Driver/Src/stm32f0xx_hal_i2c.c ****     if (hi2c->State == HAL_I2C_STATE_BUSY_RX_LISTEN)
 6439              		.loc 1 2739 13 is_stmt 1 discriminator 2
 6440 0054 FB68     		ldr	r3, [r7, #12]
 6441 0056 4122     		movs	r2, #65
 6442 0058 9B5C     		ldrb	r3, [r3, r2]
 6443 005a DBB2     		uxtb	r3, r3
 6444              		.loc 1 2739 8 discriminator 2
 6445 005c 2A2B     		cmp	r3, #42
 6446 005e 04D1     		bne	.L290
2740:Drivers/STM32F0xx_HAL_Driver/Src/stm32f0xx_hal_i2c.c ****     {
2741:Drivers/STM32F0xx_HAL_Driver/Src/stm32f0xx_hal_i2c.c ****       /* Disable associated Interrupts */
2742:Drivers/STM32F0xx_HAL_Driver/Src/stm32f0xx_hal_i2c.c ****       I2C_Disable_IRQ(hi2c, I2C_XFER_RX_IT);
 6447              		.loc 1 2742 7
 6448 0060 FB68     		ldr	r3, [r7, #12]
 6449 0062 0221     		movs	r1, #2
 6450 0064 1800     		movs	r0, r3
 6451 0066 FFF7FEFF 		bl	I2C_Disable_IRQ
 6452              	.L290:
2743:Drivers/STM32F0xx_HAL_Driver/Src/stm32f0xx_hal_i2c.c ****     }
2744:Drivers/STM32F0xx_HAL_Driver/Src/stm32f0xx_hal_i2c.c **** 
2745:Drivers/STM32F0xx_HAL_Driver/Src/stm32f0xx_hal_i2c.c ****     hi2c->State     = HAL_I2C_STATE_BUSY_TX_LISTEN;
 6453              		.loc 1 2745 21
 6454 006a FB68     		ldr	r3, [r7, #12]
 6455 006c 4122     		movs	r2, #65
 6456 006e 2921     		movs	r1, #41
 6457 0070 9954     		strb	r1, [r3, r2]
2746:Drivers/STM32F0xx_HAL_Driver/Src/stm32f0xx_hal_i2c.c ****     hi2c->Mode      = HAL_I2C_MODE_SLAVE;
 6458              		.loc 1 2746 21
 6459 0072 FB68     		ldr	r3, [r7, #12]
 6460 0074 4222     		movs	r2, #66
 6461 0076 2021     		movs	r1, #32
 6462 0078 9954     		strb	r1, [r3, r2]
2747:Drivers/STM32F0xx_HAL_Driver/Src/stm32f0xx_hal_i2c.c ****     hi2c->ErrorCode = HAL_I2C_ERROR_NONE;
 6463              		.loc 1 2747 21
 6464 007a FB68     		ldr	r3, [r7, #12]
 6465 007c 0022     		movs	r2, #0
 6466 007e 5A64     		str	r2, [r3, #68]
2748:Drivers/STM32F0xx_HAL_Driver/Src/stm32f0xx_hal_i2c.c **** 
ARM GAS  C:\Users\ADMINI~1\AppData\Local\Temp\cc3zYV2m.s 			page 162


2749:Drivers/STM32F0xx_HAL_Driver/Src/stm32f0xx_hal_i2c.c ****     /* Enable Address Acknowledge */
2750:Drivers/STM32F0xx_HAL_Driver/Src/stm32f0xx_hal_i2c.c ****     hi2c->Instance->CR2 &= ~I2C_CR2_NACK;
 6467              		.loc 1 2750 9
 6468 0080 FB68     		ldr	r3, [r7, #12]
 6469 0082 1B68     		ldr	r3, [r3]
 6470              		.loc 1 2750 25
 6471 0084 5A68     		ldr	r2, [r3, #4]
 6472              		.loc 1 2750 9
 6473 0086 FB68     		ldr	r3, [r7, #12]
 6474 0088 1B68     		ldr	r3, [r3]
 6475              		.loc 1 2750 25
 6476 008a 1849     		ldr	r1, .L292
 6477 008c 0A40     		ands	r2, r1
 6478 008e 5A60     		str	r2, [r3, #4]
2751:Drivers/STM32F0xx_HAL_Driver/Src/stm32f0xx_hal_i2c.c **** 
2752:Drivers/STM32F0xx_HAL_Driver/Src/stm32f0xx_hal_i2c.c ****     /* Prepare transfer parameters */
2753:Drivers/STM32F0xx_HAL_Driver/Src/stm32f0xx_hal_i2c.c ****     hi2c->pBuffPtr    = pData;
 6479              		.loc 1 2753 23
 6480 0090 FB68     		ldr	r3, [r7, #12]
 6481 0092 BA68     		ldr	r2, [r7, #8]
 6482 0094 5A62     		str	r2, [r3, #36]
2754:Drivers/STM32F0xx_HAL_Driver/Src/stm32f0xx_hal_i2c.c ****     hi2c->XferCount   = Size;
 6483              		.loc 1 2754 23
 6484 0096 FB68     		ldr	r3, [r7, #12]
 6485 0098 BA1D     		adds	r2, r7, #6
 6486 009a 1288     		ldrh	r2, [r2]
 6487 009c 5A85     		strh	r2, [r3, #42]
2755:Drivers/STM32F0xx_HAL_Driver/Src/stm32f0xx_hal_i2c.c ****     hi2c->XferSize    = hi2c->XferCount;
 6488              		.loc 1 2755 29
 6489 009e FB68     		ldr	r3, [r7, #12]
 6490 00a0 5B8D     		ldrh	r3, [r3, #42]
 6491 00a2 9AB2     		uxth	r2, r3
 6492              		.loc 1 2755 23
 6493 00a4 FB68     		ldr	r3, [r7, #12]
 6494 00a6 1A85     		strh	r2, [r3, #40]
2756:Drivers/STM32F0xx_HAL_Driver/Src/stm32f0xx_hal_i2c.c ****     hi2c->XferOptions = XferOptions;
 6495              		.loc 1 2756 23
 6496 00a8 FB68     		ldr	r3, [r7, #12]
 6497 00aa 3A68     		ldr	r2, [r7]
 6498 00ac DA62     		str	r2, [r3, #44]
2757:Drivers/STM32F0xx_HAL_Driver/Src/stm32f0xx_hal_i2c.c ****     hi2c->XferISR     = I2C_Slave_ISR_IT;
 6499              		.loc 1 2757 23
 6500 00ae FB68     		ldr	r3, [r7, #12]
 6501 00b0 0F4A     		ldr	r2, .L292+4
 6502 00b2 5A63     		str	r2, [r3, #52]
2758:Drivers/STM32F0xx_HAL_Driver/Src/stm32f0xx_hal_i2c.c **** 
2759:Drivers/STM32F0xx_HAL_Driver/Src/stm32f0xx_hal_i2c.c ****     if (I2C_GET_DIR(hi2c) == I2C_DIRECTION_RECEIVE)
 6503              		.loc 1 2759 9
 6504 00b4 FB68     		ldr	r3, [r7, #12]
 6505 00b6 1B68     		ldr	r3, [r3]
 6506 00b8 9B69     		ldr	r3, [r3, #24]
 6507 00ba 1B0C     		lsrs	r3, r3, #16
 6508 00bc 0122     		movs	r2, #1
 6509 00be 1340     		ands	r3, r2
 6510              		.loc 1 2759 8
 6511 00c0 012B     		cmp	r3, #1
 6512 00c2 03D1     		bne	.L291
ARM GAS  C:\Users\ADMINI~1\AppData\Local\Temp\cc3zYV2m.s 			page 163


2760:Drivers/STM32F0xx_HAL_Driver/Src/stm32f0xx_hal_i2c.c ****     {
2761:Drivers/STM32F0xx_HAL_Driver/Src/stm32f0xx_hal_i2c.c ****       /* Clear ADDR flag after prepare the transfer parameters */
2762:Drivers/STM32F0xx_HAL_Driver/Src/stm32f0xx_hal_i2c.c ****       /* This action will generate an acknowledge to the Master */
2763:Drivers/STM32F0xx_HAL_Driver/Src/stm32f0xx_hal_i2c.c ****       __HAL_I2C_CLEAR_FLAG(hi2c, I2C_FLAG_ADDR);
 6513              		.loc 1 2763 7
 6514 00c4 FB68     		ldr	r3, [r7, #12]
 6515 00c6 1B68     		ldr	r3, [r3]
 6516 00c8 0822     		movs	r2, #8
 6517 00ca DA61     		str	r2, [r3, #28]
 6518              	.L291:
2764:Drivers/STM32F0xx_HAL_Driver/Src/stm32f0xx_hal_i2c.c ****     }
2765:Drivers/STM32F0xx_HAL_Driver/Src/stm32f0xx_hal_i2c.c **** 
2766:Drivers/STM32F0xx_HAL_Driver/Src/stm32f0xx_hal_i2c.c ****     /* Process Unlocked */
2767:Drivers/STM32F0xx_HAL_Driver/Src/stm32f0xx_hal_i2c.c ****     __HAL_UNLOCK(hi2c);
 6519              		.loc 1 2767 5
 6520 00cc FB68     		ldr	r3, [r7, #12]
 6521 00ce 4022     		movs	r2, #64
 6522 00d0 0021     		movs	r1, #0
 6523 00d2 9954     		strb	r1, [r3, r2]
2768:Drivers/STM32F0xx_HAL_Driver/Src/stm32f0xx_hal_i2c.c **** 
2769:Drivers/STM32F0xx_HAL_Driver/Src/stm32f0xx_hal_i2c.c ****     /* Note : The I2C interrupts must be enabled after unlocking current process
2770:Drivers/STM32F0xx_HAL_Driver/Src/stm32f0xx_hal_i2c.c ****     to avoid the risk of I2C interrupt handle execution before current
2771:Drivers/STM32F0xx_HAL_Driver/Src/stm32f0xx_hal_i2c.c ****     process unlock */
2772:Drivers/STM32F0xx_HAL_Driver/Src/stm32f0xx_hal_i2c.c ****     /* REnable ADDR interrupt */
2773:Drivers/STM32F0xx_HAL_Driver/Src/stm32f0xx_hal_i2c.c ****     I2C_Enable_IRQ(hi2c, I2C_XFER_TX_IT | I2C_XFER_LISTEN_IT);
 6524              		.loc 1 2773 5
 6525 00d4 FB68     		ldr	r3, [r7, #12]
 6526 00d6 0521     		movs	r1, #5
 6527 00d8 1800     		movs	r0, r3
 6528 00da FFF7FEFF 		bl	I2C_Enable_IRQ
2774:Drivers/STM32F0xx_HAL_Driver/Src/stm32f0xx_hal_i2c.c **** 
2775:Drivers/STM32F0xx_HAL_Driver/Src/stm32f0xx_hal_i2c.c ****     return HAL_OK;
 6529              		.loc 1 2775 12
 6530 00de 0023     		movs	r3, #0
 6531 00e0 00E0     		b	.L288
 6532              	.L285:
2776:Drivers/STM32F0xx_HAL_Driver/Src/stm32f0xx_hal_i2c.c ****   }
2777:Drivers/STM32F0xx_HAL_Driver/Src/stm32f0xx_hal_i2c.c ****   else
2778:Drivers/STM32F0xx_HAL_Driver/Src/stm32f0xx_hal_i2c.c ****   {
2779:Drivers/STM32F0xx_HAL_Driver/Src/stm32f0xx_hal_i2c.c ****     return HAL_ERROR;
 6533              		.loc 1 2779 12
 6534 00e2 0123     		movs	r3, #1
 6535              	.L288:
2780:Drivers/STM32F0xx_HAL_Driver/Src/stm32f0xx_hal_i2c.c ****   }
2781:Drivers/STM32F0xx_HAL_Driver/Src/stm32f0xx_hal_i2c.c **** }
 6536              		.loc 1 2781 1
 6537 00e4 1800     		movs	r0, r3
 6538 00e6 BD46     		mov	sp, r7
 6539 00e8 04B0     		add	sp, sp, #16
 6540              		@ sp needed
 6541 00ea 80BD     		pop	{r7, pc}
 6542              	.L293:
 6543              		.align	2
 6544              	.L292:
 6545 00ec FF7FFFFF 		.word	-32769
 6546 00f0 00000000 		.word	I2C_Slave_ISR_IT
 6547              		.cfi_endproc
ARM GAS  C:\Users\ADMINI~1\AppData\Local\Temp\cc3zYV2m.s 			page 164


 6548              	.LFE62:
 6550              		.section	.text.HAL_I2C_Slave_Sequential_Receive_IT,"ax",%progbits
 6551              		.align	1
 6552              		.global	HAL_I2C_Slave_Sequential_Receive_IT
 6553              		.syntax unified
 6554              		.code	16
 6555              		.thumb_func
 6556              		.fpu softvfp
 6558              	HAL_I2C_Slave_Sequential_Receive_IT:
 6559              	.LFB63:
2782:Drivers/STM32F0xx_HAL_Driver/Src/stm32f0xx_hal_i2c.c **** 
2783:Drivers/STM32F0xx_HAL_Driver/Src/stm32f0xx_hal_i2c.c **** /**
2784:Drivers/STM32F0xx_HAL_Driver/Src/stm32f0xx_hal_i2c.c ****   * @brief  Sequential receive in slave/device I2C mode an amount of data in non-blocking mode with
2785:Drivers/STM32F0xx_HAL_Driver/Src/stm32f0xx_hal_i2c.c ****   * @note   This interface allow to manage repeated start condition when a direction change during 
2786:Drivers/STM32F0xx_HAL_Driver/Src/stm32f0xx_hal_i2c.c ****   * @param  hi2c Pointer to a I2C_HandleTypeDef structure that contains
2787:Drivers/STM32F0xx_HAL_Driver/Src/stm32f0xx_hal_i2c.c ****   *                the configuration information for the specified I2C.
2788:Drivers/STM32F0xx_HAL_Driver/Src/stm32f0xx_hal_i2c.c ****   * @param  pData Pointer to data buffer
2789:Drivers/STM32F0xx_HAL_Driver/Src/stm32f0xx_hal_i2c.c ****   * @param  Size Amount of data to be sent
2790:Drivers/STM32F0xx_HAL_Driver/Src/stm32f0xx_hal_i2c.c ****   * @param  XferOptions Options of Transfer, value of @ref I2C_XFEROPTIONS
2791:Drivers/STM32F0xx_HAL_Driver/Src/stm32f0xx_hal_i2c.c ****   * @retval HAL status
2792:Drivers/STM32F0xx_HAL_Driver/Src/stm32f0xx_hal_i2c.c ****   */
2793:Drivers/STM32F0xx_HAL_Driver/Src/stm32f0xx_hal_i2c.c **** HAL_StatusTypeDef HAL_I2C_Slave_Sequential_Receive_IT(I2C_HandleTypeDef *hi2c, uint8_t *pData, uint
2794:Drivers/STM32F0xx_HAL_Driver/Src/stm32f0xx_hal_i2c.c **** {
 6560              		.loc 1 2794 1
 6561              		.cfi_startproc
 6562              		@ args = 0, pretend = 0, frame = 16
 6563              		@ frame_needed = 1, uses_anonymous_args = 0
 6564 0000 80B5     		push	{r7, lr}
 6565              	.LCFI78:
 6566              		.cfi_def_cfa_offset 8
 6567              		.cfi_offset 7, -8
 6568              		.cfi_offset 14, -4
 6569 0002 84B0     		sub	sp, sp, #16
 6570              	.LCFI79:
 6571              		.cfi_def_cfa_offset 24
 6572 0004 00AF     		add	r7, sp, #0
 6573              	.LCFI80:
 6574              		.cfi_def_cfa_register 7
 6575 0006 F860     		str	r0, [r7, #12]
 6576 0008 B960     		str	r1, [r7, #8]
 6577 000a 3B60     		str	r3, [r7]
 6578 000c BB1D     		adds	r3, r7, #6
 6579 000e 1A80     		strh	r2, [r3]
2795:Drivers/STM32F0xx_HAL_Driver/Src/stm32f0xx_hal_i2c.c ****   /* Check the parameters */
2796:Drivers/STM32F0xx_HAL_Driver/Src/stm32f0xx_hal_i2c.c ****   assert_param(IS_I2C_TRANSFER_OPTIONS_REQUEST(XferOptions));
2797:Drivers/STM32F0xx_HAL_Driver/Src/stm32f0xx_hal_i2c.c **** 
2798:Drivers/STM32F0xx_HAL_Driver/Src/stm32f0xx_hal_i2c.c ****   if ((hi2c->State & HAL_I2C_STATE_LISTEN) == HAL_I2C_STATE_LISTEN)
 6580              		.loc 1 2798 12
 6581 0010 FB68     		ldr	r3, [r7, #12]
 6582 0012 4122     		movs	r2, #65
 6583 0014 9B5C     		ldrb	r3, [r3, r2]
 6584 0016 DBB2     		uxtb	r3, r3
 6585              		.loc 1 2798 20
 6586 0018 1A00     		movs	r2, r3
 6587 001a 2823     		movs	r3, #40
 6588 001c 1340     		ands	r3, r2
 6589              		.loc 1 2798 6
ARM GAS  C:\Users\ADMINI~1\AppData\Local\Temp\cc3zYV2m.s 			page 165


 6590 001e 282B     		cmp	r3, #40
 6591 0020 5ED1     		bne	.L295
2799:Drivers/STM32F0xx_HAL_Driver/Src/stm32f0xx_hal_i2c.c ****   {
2800:Drivers/STM32F0xx_HAL_Driver/Src/stm32f0xx_hal_i2c.c ****     if ((pData == NULL) || (Size == 0U))
 6592              		.loc 1 2800 8
 6593 0022 BB68     		ldr	r3, [r7, #8]
 6594 0024 002B     		cmp	r3, #0
 6595 0026 03D0     		beq	.L296
 6596              		.loc 1 2800 25 discriminator 1
 6597 0028 BB1D     		adds	r3, r7, #6
 6598 002a 1B88     		ldrh	r3, [r3]
 6599 002c 002B     		cmp	r3, #0
 6600 002e 01D1     		bne	.L297
 6601              	.L296:
2801:Drivers/STM32F0xx_HAL_Driver/Src/stm32f0xx_hal_i2c.c ****     {
2802:Drivers/STM32F0xx_HAL_Driver/Src/stm32f0xx_hal_i2c.c ****       return  HAL_ERROR;
 6602              		.loc 1 2802 15
 6603 0030 0123     		movs	r3, #1
 6604 0032 56E0     		b	.L298
 6605              	.L297:
2803:Drivers/STM32F0xx_HAL_Driver/Src/stm32f0xx_hal_i2c.c ****     }
2804:Drivers/STM32F0xx_HAL_Driver/Src/stm32f0xx_hal_i2c.c **** 
2805:Drivers/STM32F0xx_HAL_Driver/Src/stm32f0xx_hal_i2c.c ****     /* Disable Interrupts, to prevent preemption during treatment in case of multicall */
2806:Drivers/STM32F0xx_HAL_Driver/Src/stm32f0xx_hal_i2c.c ****     I2C_Disable_IRQ(hi2c, I2C_XFER_LISTEN_IT | I2C_XFER_RX_IT);
 6606              		.loc 1 2806 5
 6607 0034 FB68     		ldr	r3, [r7, #12]
 6608 0036 0621     		movs	r1, #6
 6609 0038 1800     		movs	r0, r3
 6610 003a FFF7FEFF 		bl	I2C_Disable_IRQ
2807:Drivers/STM32F0xx_HAL_Driver/Src/stm32f0xx_hal_i2c.c **** 
2808:Drivers/STM32F0xx_HAL_Driver/Src/stm32f0xx_hal_i2c.c ****     /* Process Locked */
2809:Drivers/STM32F0xx_HAL_Driver/Src/stm32f0xx_hal_i2c.c ****     __HAL_LOCK(hi2c);
 6611              		.loc 1 2809 5
 6612 003e FB68     		ldr	r3, [r7, #12]
 6613 0040 4022     		movs	r2, #64
 6614 0042 9B5C     		ldrb	r3, [r3, r2]
 6615 0044 012B     		cmp	r3, #1
 6616 0046 01D1     		bne	.L299
 6617              		.loc 1 2809 5 is_stmt 0 discriminator 1
 6618 0048 0223     		movs	r3, #2
 6619 004a 4AE0     		b	.L298
 6620              	.L299:
 6621              		.loc 1 2809 5 discriminator 2
 6622 004c FB68     		ldr	r3, [r7, #12]
 6623 004e 4022     		movs	r2, #64
 6624 0050 0121     		movs	r1, #1
 6625 0052 9954     		strb	r1, [r3, r2]
2810:Drivers/STM32F0xx_HAL_Driver/Src/stm32f0xx_hal_i2c.c **** 
2811:Drivers/STM32F0xx_HAL_Driver/Src/stm32f0xx_hal_i2c.c ****     /* I2C cannot manage full duplex exchange so disable previous IT enabled if any */
2812:Drivers/STM32F0xx_HAL_Driver/Src/stm32f0xx_hal_i2c.c ****     /* and then toggle the HAL slave TX state to RX state */
2813:Drivers/STM32F0xx_HAL_Driver/Src/stm32f0xx_hal_i2c.c ****     if (hi2c->State == HAL_I2C_STATE_BUSY_TX_LISTEN)
 6626              		.loc 1 2813 13 is_stmt 1 discriminator 2
 6627 0054 FB68     		ldr	r3, [r7, #12]
 6628 0056 4122     		movs	r2, #65
 6629 0058 9B5C     		ldrb	r3, [r3, r2]
 6630 005a DBB2     		uxtb	r3, r3
 6631              		.loc 1 2813 8 discriminator 2
ARM GAS  C:\Users\ADMINI~1\AppData\Local\Temp\cc3zYV2m.s 			page 166


 6632 005c 292B     		cmp	r3, #41
 6633 005e 04D1     		bne	.L300
2814:Drivers/STM32F0xx_HAL_Driver/Src/stm32f0xx_hal_i2c.c ****     {
2815:Drivers/STM32F0xx_HAL_Driver/Src/stm32f0xx_hal_i2c.c ****       /* Disable associated Interrupts */
2816:Drivers/STM32F0xx_HAL_Driver/Src/stm32f0xx_hal_i2c.c ****       I2C_Disable_IRQ(hi2c, I2C_XFER_TX_IT);
 6634              		.loc 1 2816 7
 6635 0060 FB68     		ldr	r3, [r7, #12]
 6636 0062 0121     		movs	r1, #1
 6637 0064 1800     		movs	r0, r3
 6638 0066 FFF7FEFF 		bl	I2C_Disable_IRQ
 6639              	.L300:
2817:Drivers/STM32F0xx_HAL_Driver/Src/stm32f0xx_hal_i2c.c ****     }
2818:Drivers/STM32F0xx_HAL_Driver/Src/stm32f0xx_hal_i2c.c **** 
2819:Drivers/STM32F0xx_HAL_Driver/Src/stm32f0xx_hal_i2c.c ****     hi2c->State     = HAL_I2C_STATE_BUSY_RX_LISTEN;
 6640              		.loc 1 2819 21
 6641 006a FB68     		ldr	r3, [r7, #12]
 6642 006c 4122     		movs	r2, #65
 6643 006e 2A21     		movs	r1, #42
 6644 0070 9954     		strb	r1, [r3, r2]
2820:Drivers/STM32F0xx_HAL_Driver/Src/stm32f0xx_hal_i2c.c ****     hi2c->Mode      = HAL_I2C_MODE_SLAVE;
 6645              		.loc 1 2820 21
 6646 0072 FB68     		ldr	r3, [r7, #12]
 6647 0074 4222     		movs	r2, #66
 6648 0076 2021     		movs	r1, #32
 6649 0078 9954     		strb	r1, [r3, r2]
2821:Drivers/STM32F0xx_HAL_Driver/Src/stm32f0xx_hal_i2c.c ****     hi2c->ErrorCode = HAL_I2C_ERROR_NONE;
 6650              		.loc 1 2821 21
 6651 007a FB68     		ldr	r3, [r7, #12]
 6652 007c 0022     		movs	r2, #0
 6653 007e 5A64     		str	r2, [r3, #68]
2822:Drivers/STM32F0xx_HAL_Driver/Src/stm32f0xx_hal_i2c.c **** 
2823:Drivers/STM32F0xx_HAL_Driver/Src/stm32f0xx_hal_i2c.c ****     /* Enable Address Acknowledge */
2824:Drivers/STM32F0xx_HAL_Driver/Src/stm32f0xx_hal_i2c.c ****     hi2c->Instance->CR2 &= ~I2C_CR2_NACK;
 6654              		.loc 1 2824 9
 6655 0080 FB68     		ldr	r3, [r7, #12]
 6656 0082 1B68     		ldr	r3, [r3]
 6657              		.loc 1 2824 25
 6658 0084 5A68     		ldr	r2, [r3, #4]
 6659              		.loc 1 2824 9
 6660 0086 FB68     		ldr	r3, [r7, #12]
 6661 0088 1B68     		ldr	r3, [r3]
 6662              		.loc 1 2824 25
 6663 008a 1849     		ldr	r1, .L302
 6664 008c 0A40     		ands	r2, r1
 6665 008e 5A60     		str	r2, [r3, #4]
2825:Drivers/STM32F0xx_HAL_Driver/Src/stm32f0xx_hal_i2c.c **** 
2826:Drivers/STM32F0xx_HAL_Driver/Src/stm32f0xx_hal_i2c.c ****     /* Prepare transfer parameters */
2827:Drivers/STM32F0xx_HAL_Driver/Src/stm32f0xx_hal_i2c.c ****     hi2c->pBuffPtr    = pData;
 6666              		.loc 1 2827 23
 6667 0090 FB68     		ldr	r3, [r7, #12]
 6668 0092 BA68     		ldr	r2, [r7, #8]
 6669 0094 5A62     		str	r2, [r3, #36]
2828:Drivers/STM32F0xx_HAL_Driver/Src/stm32f0xx_hal_i2c.c ****     hi2c->XferCount   = Size;
 6670              		.loc 1 2828 23
 6671 0096 FB68     		ldr	r3, [r7, #12]
 6672 0098 BA1D     		adds	r2, r7, #6
 6673 009a 1288     		ldrh	r2, [r2]
ARM GAS  C:\Users\ADMINI~1\AppData\Local\Temp\cc3zYV2m.s 			page 167


 6674 009c 5A85     		strh	r2, [r3, #42]
2829:Drivers/STM32F0xx_HAL_Driver/Src/stm32f0xx_hal_i2c.c ****     hi2c->XferSize    = hi2c->XferCount;
 6675              		.loc 1 2829 29
 6676 009e FB68     		ldr	r3, [r7, #12]
 6677 00a0 5B8D     		ldrh	r3, [r3, #42]
 6678 00a2 9AB2     		uxth	r2, r3
 6679              		.loc 1 2829 23
 6680 00a4 FB68     		ldr	r3, [r7, #12]
 6681 00a6 1A85     		strh	r2, [r3, #40]
2830:Drivers/STM32F0xx_HAL_Driver/Src/stm32f0xx_hal_i2c.c ****     hi2c->XferOptions = XferOptions;
 6682              		.loc 1 2830 23
 6683 00a8 FB68     		ldr	r3, [r7, #12]
 6684 00aa 3A68     		ldr	r2, [r7]
 6685 00ac DA62     		str	r2, [r3, #44]
2831:Drivers/STM32F0xx_HAL_Driver/Src/stm32f0xx_hal_i2c.c ****     hi2c->XferISR     = I2C_Slave_ISR_IT;
 6686              		.loc 1 2831 23
 6687 00ae FB68     		ldr	r3, [r7, #12]
 6688 00b0 0F4A     		ldr	r2, .L302+4
 6689 00b2 5A63     		str	r2, [r3, #52]
2832:Drivers/STM32F0xx_HAL_Driver/Src/stm32f0xx_hal_i2c.c **** 
2833:Drivers/STM32F0xx_HAL_Driver/Src/stm32f0xx_hal_i2c.c ****     if (I2C_GET_DIR(hi2c) == I2C_DIRECTION_TRANSMIT)
 6690              		.loc 1 2833 9
 6691 00b4 FB68     		ldr	r3, [r7, #12]
 6692 00b6 1B68     		ldr	r3, [r3]
 6693 00b8 9A69     		ldr	r2, [r3, #24]
 6694              		.loc 1 2833 27
 6695 00ba 8023     		movs	r3, #128
 6696 00bc 5B02     		lsls	r3, r3, #9
 6697 00be 1340     		ands	r3, r2
 6698              		.loc 1 2833 8
 6699 00c0 03D1     		bne	.L301
2834:Drivers/STM32F0xx_HAL_Driver/Src/stm32f0xx_hal_i2c.c ****     {
2835:Drivers/STM32F0xx_HAL_Driver/Src/stm32f0xx_hal_i2c.c ****       /* Clear ADDR flag after prepare the transfer parameters */
2836:Drivers/STM32F0xx_HAL_Driver/Src/stm32f0xx_hal_i2c.c ****       /* This action will generate an acknowledge to the Master */
2837:Drivers/STM32F0xx_HAL_Driver/Src/stm32f0xx_hal_i2c.c ****       __HAL_I2C_CLEAR_FLAG(hi2c, I2C_FLAG_ADDR);
 6700              		.loc 1 2837 7
 6701 00c2 FB68     		ldr	r3, [r7, #12]
 6702 00c4 1B68     		ldr	r3, [r3]
 6703 00c6 0822     		movs	r2, #8
 6704 00c8 DA61     		str	r2, [r3, #28]
 6705              	.L301:
2838:Drivers/STM32F0xx_HAL_Driver/Src/stm32f0xx_hal_i2c.c ****     }
2839:Drivers/STM32F0xx_HAL_Driver/Src/stm32f0xx_hal_i2c.c **** 
2840:Drivers/STM32F0xx_HAL_Driver/Src/stm32f0xx_hal_i2c.c ****     /* Process Unlocked */
2841:Drivers/STM32F0xx_HAL_Driver/Src/stm32f0xx_hal_i2c.c ****     __HAL_UNLOCK(hi2c);
 6706              		.loc 1 2841 5
 6707 00ca FB68     		ldr	r3, [r7, #12]
 6708 00cc 4022     		movs	r2, #64
 6709 00ce 0021     		movs	r1, #0
 6710 00d0 9954     		strb	r1, [r3, r2]
2842:Drivers/STM32F0xx_HAL_Driver/Src/stm32f0xx_hal_i2c.c **** 
2843:Drivers/STM32F0xx_HAL_Driver/Src/stm32f0xx_hal_i2c.c ****     /* Note : The I2C interrupts must be enabled after unlocking current process
2844:Drivers/STM32F0xx_HAL_Driver/Src/stm32f0xx_hal_i2c.c ****     to avoid the risk of I2C interrupt handle execution before current
2845:Drivers/STM32F0xx_HAL_Driver/Src/stm32f0xx_hal_i2c.c ****     process unlock */
2846:Drivers/STM32F0xx_HAL_Driver/Src/stm32f0xx_hal_i2c.c ****     /* REnable ADDR interrupt */
2847:Drivers/STM32F0xx_HAL_Driver/Src/stm32f0xx_hal_i2c.c ****     I2C_Enable_IRQ(hi2c, I2C_XFER_RX_IT | I2C_XFER_LISTEN_IT);
 6711              		.loc 1 2847 5
ARM GAS  C:\Users\ADMINI~1\AppData\Local\Temp\cc3zYV2m.s 			page 168


 6712 00d2 FB68     		ldr	r3, [r7, #12]
 6713 00d4 0621     		movs	r1, #6
 6714 00d6 1800     		movs	r0, r3
 6715 00d8 FFF7FEFF 		bl	I2C_Enable_IRQ
2848:Drivers/STM32F0xx_HAL_Driver/Src/stm32f0xx_hal_i2c.c **** 
2849:Drivers/STM32F0xx_HAL_Driver/Src/stm32f0xx_hal_i2c.c ****     return HAL_OK;
 6716              		.loc 1 2849 12
 6717 00dc 0023     		movs	r3, #0
 6718 00de 00E0     		b	.L298
 6719              	.L295:
2850:Drivers/STM32F0xx_HAL_Driver/Src/stm32f0xx_hal_i2c.c ****   }
2851:Drivers/STM32F0xx_HAL_Driver/Src/stm32f0xx_hal_i2c.c ****   else
2852:Drivers/STM32F0xx_HAL_Driver/Src/stm32f0xx_hal_i2c.c ****   {
2853:Drivers/STM32F0xx_HAL_Driver/Src/stm32f0xx_hal_i2c.c ****     return HAL_ERROR;
 6720              		.loc 1 2853 12
 6721 00e0 0123     		movs	r3, #1
 6722              	.L298:
2854:Drivers/STM32F0xx_HAL_Driver/Src/stm32f0xx_hal_i2c.c ****   }
2855:Drivers/STM32F0xx_HAL_Driver/Src/stm32f0xx_hal_i2c.c **** }
 6723              		.loc 1 2855 1
 6724 00e2 1800     		movs	r0, r3
 6725 00e4 BD46     		mov	sp, r7
 6726 00e6 04B0     		add	sp, sp, #16
 6727              		@ sp needed
 6728 00e8 80BD     		pop	{r7, pc}
 6729              	.L303:
 6730 00ea C046     		.align	2
 6731              	.L302:
 6732 00ec FF7FFFFF 		.word	-32769
 6733 00f0 00000000 		.word	I2C_Slave_ISR_IT
 6734              		.cfi_endproc
 6735              	.LFE63:
 6737              		.section	.text.HAL_I2C_EnableListen_IT,"ax",%progbits
 6738              		.align	1
 6739              		.global	HAL_I2C_EnableListen_IT
 6740              		.syntax unified
 6741              		.code	16
 6742              		.thumb_func
 6743              		.fpu softvfp
 6745              	HAL_I2C_EnableListen_IT:
 6746              	.LFB64:
2856:Drivers/STM32F0xx_HAL_Driver/Src/stm32f0xx_hal_i2c.c **** 
2857:Drivers/STM32F0xx_HAL_Driver/Src/stm32f0xx_hal_i2c.c **** /**
2858:Drivers/STM32F0xx_HAL_Driver/Src/stm32f0xx_hal_i2c.c ****   * @brief  Enable the Address listen mode with Interrupt.
2859:Drivers/STM32F0xx_HAL_Driver/Src/stm32f0xx_hal_i2c.c ****   * @param  hi2c Pointer to a I2C_HandleTypeDef structure that contains
2860:Drivers/STM32F0xx_HAL_Driver/Src/stm32f0xx_hal_i2c.c ****   *                the configuration information for the specified I2C.
2861:Drivers/STM32F0xx_HAL_Driver/Src/stm32f0xx_hal_i2c.c ****   * @retval HAL status
2862:Drivers/STM32F0xx_HAL_Driver/Src/stm32f0xx_hal_i2c.c ****   */
2863:Drivers/STM32F0xx_HAL_Driver/Src/stm32f0xx_hal_i2c.c **** HAL_StatusTypeDef HAL_I2C_EnableListen_IT(I2C_HandleTypeDef *hi2c)
2864:Drivers/STM32F0xx_HAL_Driver/Src/stm32f0xx_hal_i2c.c **** {
 6747              		.loc 1 2864 1
 6748              		.cfi_startproc
 6749              		@ args = 0, pretend = 0, frame = 8
 6750              		@ frame_needed = 1, uses_anonymous_args = 0
 6751 0000 80B5     		push	{r7, lr}
 6752              	.LCFI81:
 6753              		.cfi_def_cfa_offset 8
ARM GAS  C:\Users\ADMINI~1\AppData\Local\Temp\cc3zYV2m.s 			page 169


 6754              		.cfi_offset 7, -8
 6755              		.cfi_offset 14, -4
 6756 0002 82B0     		sub	sp, sp, #8
 6757              	.LCFI82:
 6758              		.cfi_def_cfa_offset 16
 6759 0004 00AF     		add	r7, sp, #0
 6760              	.LCFI83:
 6761              		.cfi_def_cfa_register 7
 6762 0006 7860     		str	r0, [r7, #4]
2865:Drivers/STM32F0xx_HAL_Driver/Src/stm32f0xx_hal_i2c.c ****   if (hi2c->State == HAL_I2C_STATE_READY)
 6763              		.loc 1 2865 11
 6764 0008 7B68     		ldr	r3, [r7, #4]
 6765 000a 4122     		movs	r2, #65
 6766 000c 9B5C     		ldrb	r3, [r3, r2]
 6767 000e DBB2     		uxtb	r3, r3
 6768              		.loc 1 2865 6
 6769 0010 202B     		cmp	r3, #32
 6770 0012 0DD1     		bne	.L305
2866:Drivers/STM32F0xx_HAL_Driver/Src/stm32f0xx_hal_i2c.c ****   {
2867:Drivers/STM32F0xx_HAL_Driver/Src/stm32f0xx_hal_i2c.c ****     hi2c->State = HAL_I2C_STATE_LISTEN;
 6771              		.loc 1 2867 17
 6772 0014 7B68     		ldr	r3, [r7, #4]
 6773 0016 4122     		movs	r2, #65
 6774 0018 2821     		movs	r1, #40
 6775 001a 9954     		strb	r1, [r3, r2]
2868:Drivers/STM32F0xx_HAL_Driver/Src/stm32f0xx_hal_i2c.c ****     hi2c->XferISR = I2C_Slave_ISR_IT;
 6776              		.loc 1 2868 19
 6777 001c 7B68     		ldr	r3, [r7, #4]
 6778 001e 074A     		ldr	r2, .L307
 6779 0020 5A63     		str	r2, [r3, #52]
2869:Drivers/STM32F0xx_HAL_Driver/Src/stm32f0xx_hal_i2c.c **** 
2870:Drivers/STM32F0xx_HAL_Driver/Src/stm32f0xx_hal_i2c.c ****     /* Enable the Address Match interrupt */
2871:Drivers/STM32F0xx_HAL_Driver/Src/stm32f0xx_hal_i2c.c ****     I2C_Enable_IRQ(hi2c, I2C_XFER_LISTEN_IT);
 6780              		.loc 1 2871 5
 6781 0022 7B68     		ldr	r3, [r7, #4]
 6782 0024 0421     		movs	r1, #4
 6783 0026 1800     		movs	r0, r3
 6784 0028 FFF7FEFF 		bl	I2C_Enable_IRQ
2872:Drivers/STM32F0xx_HAL_Driver/Src/stm32f0xx_hal_i2c.c **** 
2873:Drivers/STM32F0xx_HAL_Driver/Src/stm32f0xx_hal_i2c.c ****     return HAL_OK;
 6785              		.loc 1 2873 12
 6786 002c 0023     		movs	r3, #0
 6787 002e 00E0     		b	.L306
 6788              	.L305:
2874:Drivers/STM32F0xx_HAL_Driver/Src/stm32f0xx_hal_i2c.c ****   }
2875:Drivers/STM32F0xx_HAL_Driver/Src/stm32f0xx_hal_i2c.c ****   else
2876:Drivers/STM32F0xx_HAL_Driver/Src/stm32f0xx_hal_i2c.c ****   {
2877:Drivers/STM32F0xx_HAL_Driver/Src/stm32f0xx_hal_i2c.c ****     return HAL_BUSY;
 6789              		.loc 1 2877 12
 6790 0030 0223     		movs	r3, #2
 6791              	.L306:
2878:Drivers/STM32F0xx_HAL_Driver/Src/stm32f0xx_hal_i2c.c ****   }
2879:Drivers/STM32F0xx_HAL_Driver/Src/stm32f0xx_hal_i2c.c **** }
 6792              		.loc 1 2879 1
 6793 0032 1800     		movs	r0, r3
 6794 0034 BD46     		mov	sp, r7
 6795 0036 02B0     		add	sp, sp, #8
ARM GAS  C:\Users\ADMINI~1\AppData\Local\Temp\cc3zYV2m.s 			page 170


 6796              		@ sp needed
 6797 0038 80BD     		pop	{r7, pc}
 6798              	.L308:
 6799 003a C046     		.align	2
 6800              	.L307:
 6801 003c 00000000 		.word	I2C_Slave_ISR_IT
 6802              		.cfi_endproc
 6803              	.LFE64:
 6805              		.section	.text.HAL_I2C_DisableListen_IT,"ax",%progbits
 6806              		.align	1
 6807              		.global	HAL_I2C_DisableListen_IT
 6808              		.syntax unified
 6809              		.code	16
 6810              		.thumb_func
 6811              		.fpu softvfp
 6813              	HAL_I2C_DisableListen_IT:
 6814              	.LFB65:
2880:Drivers/STM32F0xx_HAL_Driver/Src/stm32f0xx_hal_i2c.c **** 
2881:Drivers/STM32F0xx_HAL_Driver/Src/stm32f0xx_hal_i2c.c **** /**
2882:Drivers/STM32F0xx_HAL_Driver/Src/stm32f0xx_hal_i2c.c ****   * @brief  Disable the Address listen mode with Interrupt.
2883:Drivers/STM32F0xx_HAL_Driver/Src/stm32f0xx_hal_i2c.c ****   * @param  hi2c Pointer to a I2C_HandleTypeDef structure that contains
2884:Drivers/STM32F0xx_HAL_Driver/Src/stm32f0xx_hal_i2c.c ****   *                the configuration information for the specified I2C
2885:Drivers/STM32F0xx_HAL_Driver/Src/stm32f0xx_hal_i2c.c ****   * @retval HAL status
2886:Drivers/STM32F0xx_HAL_Driver/Src/stm32f0xx_hal_i2c.c ****   */
2887:Drivers/STM32F0xx_HAL_Driver/Src/stm32f0xx_hal_i2c.c **** HAL_StatusTypeDef HAL_I2C_DisableListen_IT(I2C_HandleTypeDef *hi2c)
2888:Drivers/STM32F0xx_HAL_Driver/Src/stm32f0xx_hal_i2c.c **** {
 6815              		.loc 1 2888 1
 6816              		.cfi_startproc
 6817              		@ args = 0, pretend = 0, frame = 16
 6818              		@ frame_needed = 1, uses_anonymous_args = 0
 6819 0000 80B5     		push	{r7, lr}
 6820              	.LCFI84:
 6821              		.cfi_def_cfa_offset 8
 6822              		.cfi_offset 7, -8
 6823              		.cfi_offset 14, -4
 6824 0002 84B0     		sub	sp, sp, #16
 6825              	.LCFI85:
 6826              		.cfi_def_cfa_offset 24
 6827 0004 00AF     		add	r7, sp, #0
 6828              	.LCFI86:
 6829              		.cfi_def_cfa_register 7
 6830 0006 7860     		str	r0, [r7, #4]
2889:Drivers/STM32F0xx_HAL_Driver/Src/stm32f0xx_hal_i2c.c ****   /* Declaration of tmp to prevent undefined behavior of volatile usage */
2890:Drivers/STM32F0xx_HAL_Driver/Src/stm32f0xx_hal_i2c.c ****   uint32_t tmp;
2891:Drivers/STM32F0xx_HAL_Driver/Src/stm32f0xx_hal_i2c.c **** 
2892:Drivers/STM32F0xx_HAL_Driver/Src/stm32f0xx_hal_i2c.c ****   /* Disable Address listen mode only if a transfer is not ongoing */
2893:Drivers/STM32F0xx_HAL_Driver/Src/stm32f0xx_hal_i2c.c ****   if (hi2c->State == HAL_I2C_STATE_LISTEN)
 6831              		.loc 1 2893 11
 6832 0008 7B68     		ldr	r3, [r7, #4]
 6833 000a 4122     		movs	r2, #65
 6834 000c 9B5C     		ldrb	r3, [r3, r2]
 6835 000e DBB2     		uxtb	r3, r3
 6836              		.loc 1 2893 6
 6837 0010 282B     		cmp	r3, #40
 6838 0012 22D1     		bne	.L310
2894:Drivers/STM32F0xx_HAL_Driver/Src/stm32f0xx_hal_i2c.c ****   {
2895:Drivers/STM32F0xx_HAL_Driver/Src/stm32f0xx_hal_i2c.c ****     tmp = (uint32_t)(hi2c->State) & I2C_STATE_MSK;
ARM GAS  C:\Users\ADMINI~1\AppData\Local\Temp\cc3zYV2m.s 			page 171


 6839              		.loc 1 2895 26
 6840 0014 7B68     		ldr	r3, [r7, #4]
 6841 0016 4122     		movs	r2, #65
 6842 0018 9B5C     		ldrb	r3, [r3, r2]
 6843 001a DBB2     		uxtb	r3, r3
 6844              		.loc 1 2895 35
 6845 001c 1A00     		movs	r2, r3
 6846              		.loc 1 2895 9
 6847 001e 0323     		movs	r3, #3
 6848 0020 1340     		ands	r3, r2
 6849 0022 FB60     		str	r3, [r7, #12]
2896:Drivers/STM32F0xx_HAL_Driver/Src/stm32f0xx_hal_i2c.c ****     hi2c->PreviousState = tmp | (uint32_t)(hi2c->Mode);
 6850              		.loc 1 2896 48
 6851 0024 7B68     		ldr	r3, [r7, #4]
 6852 0026 4222     		movs	r2, #66
 6853 0028 9B5C     		ldrb	r3, [r3, r2]
 6854 002a DBB2     		uxtb	r3, r3
 6855              		.loc 1 2896 33
 6856 002c 1A00     		movs	r2, r3
 6857              		.loc 1 2896 31
 6858 002e FB68     		ldr	r3, [r7, #12]
 6859 0030 1A43     		orrs	r2, r3
 6860              		.loc 1 2896 25
 6861 0032 7B68     		ldr	r3, [r7, #4]
 6862 0034 1A63     		str	r2, [r3, #48]
2897:Drivers/STM32F0xx_HAL_Driver/Src/stm32f0xx_hal_i2c.c ****     hi2c->State = HAL_I2C_STATE_READY;
 6863              		.loc 1 2897 17
 6864 0036 7B68     		ldr	r3, [r7, #4]
 6865 0038 4122     		movs	r2, #65
 6866 003a 2021     		movs	r1, #32
 6867 003c 9954     		strb	r1, [r3, r2]
2898:Drivers/STM32F0xx_HAL_Driver/Src/stm32f0xx_hal_i2c.c ****     hi2c->Mode = HAL_I2C_MODE_NONE;
 6868              		.loc 1 2898 16
 6869 003e 7B68     		ldr	r3, [r7, #4]
 6870 0040 4222     		movs	r2, #66
 6871 0042 0021     		movs	r1, #0
 6872 0044 9954     		strb	r1, [r3, r2]
2899:Drivers/STM32F0xx_HAL_Driver/Src/stm32f0xx_hal_i2c.c ****     hi2c->XferISR = NULL;
 6873              		.loc 1 2899 19
 6874 0046 7B68     		ldr	r3, [r7, #4]
 6875 0048 0022     		movs	r2, #0
 6876 004a 5A63     		str	r2, [r3, #52]
2900:Drivers/STM32F0xx_HAL_Driver/Src/stm32f0xx_hal_i2c.c **** 
2901:Drivers/STM32F0xx_HAL_Driver/Src/stm32f0xx_hal_i2c.c ****     /* Disable the Address Match interrupt */
2902:Drivers/STM32F0xx_HAL_Driver/Src/stm32f0xx_hal_i2c.c ****     I2C_Disable_IRQ(hi2c, I2C_XFER_LISTEN_IT);
 6877              		.loc 1 2902 5
 6878 004c 7B68     		ldr	r3, [r7, #4]
 6879 004e 0421     		movs	r1, #4
 6880 0050 1800     		movs	r0, r3
 6881 0052 FFF7FEFF 		bl	I2C_Disable_IRQ
2903:Drivers/STM32F0xx_HAL_Driver/Src/stm32f0xx_hal_i2c.c **** 
2904:Drivers/STM32F0xx_HAL_Driver/Src/stm32f0xx_hal_i2c.c ****     return HAL_OK;
 6882              		.loc 1 2904 12
 6883 0056 0023     		movs	r3, #0
 6884 0058 00E0     		b	.L311
 6885              	.L310:
2905:Drivers/STM32F0xx_HAL_Driver/Src/stm32f0xx_hal_i2c.c ****   }
ARM GAS  C:\Users\ADMINI~1\AppData\Local\Temp\cc3zYV2m.s 			page 172


2906:Drivers/STM32F0xx_HAL_Driver/Src/stm32f0xx_hal_i2c.c ****   else
2907:Drivers/STM32F0xx_HAL_Driver/Src/stm32f0xx_hal_i2c.c ****   {
2908:Drivers/STM32F0xx_HAL_Driver/Src/stm32f0xx_hal_i2c.c ****     return HAL_BUSY;
 6886              		.loc 1 2908 12
 6887 005a 0223     		movs	r3, #2
 6888              	.L311:
2909:Drivers/STM32F0xx_HAL_Driver/Src/stm32f0xx_hal_i2c.c ****   }
2910:Drivers/STM32F0xx_HAL_Driver/Src/stm32f0xx_hal_i2c.c **** }
 6889              		.loc 1 2910 1
 6890 005c 1800     		movs	r0, r3
 6891 005e BD46     		mov	sp, r7
 6892 0060 04B0     		add	sp, sp, #16
 6893              		@ sp needed
 6894 0062 80BD     		pop	{r7, pc}
 6895              		.cfi_endproc
 6896              	.LFE65:
 6898              		.section	.text.HAL_I2C_Master_Abort_IT,"ax",%progbits
 6899              		.align	1
 6900              		.global	HAL_I2C_Master_Abort_IT
 6901              		.syntax unified
 6902              		.code	16
 6903              		.thumb_func
 6904              		.fpu softvfp
 6906              	HAL_I2C_Master_Abort_IT:
 6907              	.LFB66:
2911:Drivers/STM32F0xx_HAL_Driver/Src/stm32f0xx_hal_i2c.c **** 
2912:Drivers/STM32F0xx_HAL_Driver/Src/stm32f0xx_hal_i2c.c **** /**
2913:Drivers/STM32F0xx_HAL_Driver/Src/stm32f0xx_hal_i2c.c ****   * @brief  Abort a master I2C IT or DMA process communication with Interrupt.
2914:Drivers/STM32F0xx_HAL_Driver/Src/stm32f0xx_hal_i2c.c ****   * @param  hi2c Pointer to a I2C_HandleTypeDef structure that contains
2915:Drivers/STM32F0xx_HAL_Driver/Src/stm32f0xx_hal_i2c.c ****   *                the configuration information for the specified I2C.
2916:Drivers/STM32F0xx_HAL_Driver/Src/stm32f0xx_hal_i2c.c ****   * @param  DevAddress Target device address: The device 7 bits address value
2917:Drivers/STM32F0xx_HAL_Driver/Src/stm32f0xx_hal_i2c.c ****   *         in datasheet must be shift at right before call interface
2918:Drivers/STM32F0xx_HAL_Driver/Src/stm32f0xx_hal_i2c.c ****   * @retval HAL status
2919:Drivers/STM32F0xx_HAL_Driver/Src/stm32f0xx_hal_i2c.c ****   */
2920:Drivers/STM32F0xx_HAL_Driver/Src/stm32f0xx_hal_i2c.c **** HAL_StatusTypeDef HAL_I2C_Master_Abort_IT(I2C_HandleTypeDef *hi2c, uint16_t DevAddress)
2921:Drivers/STM32F0xx_HAL_Driver/Src/stm32f0xx_hal_i2c.c **** {
 6908              		.loc 1 2921 1
 6909              		.cfi_startproc
 6910              		@ args = 0, pretend = 0, frame = 8
 6911              		@ frame_needed = 1, uses_anonymous_args = 0
 6912 0000 80B5     		push	{r7, lr}
 6913              	.LCFI87:
 6914              		.cfi_def_cfa_offset 8
 6915              		.cfi_offset 7, -8
 6916              		.cfi_offset 14, -4
 6917 0002 84B0     		sub	sp, sp, #16
 6918              	.LCFI88:
 6919              		.cfi_def_cfa_offset 24
 6920 0004 02AF     		add	r7, sp, #8
 6921              	.LCFI89:
 6922              		.cfi_def_cfa 7, 16
 6923 0006 7860     		str	r0, [r7, #4]
 6924 0008 0A00     		movs	r2, r1
 6925 000a BB1C     		adds	r3, r7, #2
 6926 000c 1A80     		strh	r2, [r3]
2922:Drivers/STM32F0xx_HAL_Driver/Src/stm32f0xx_hal_i2c.c ****   if (hi2c->Mode == HAL_I2C_MODE_MASTER)
 6927              		.loc 1 2922 11
ARM GAS  C:\Users\ADMINI~1\AppData\Local\Temp\cc3zYV2m.s 			page 173


 6928 000e 7B68     		ldr	r3, [r7, #4]
 6929 0010 4222     		movs	r2, #66
 6930 0012 9B5C     		ldrb	r3, [r3, r2]
 6931 0014 DBB2     		uxtb	r3, r3
 6932              		.loc 1 2922 6
 6933 0016 102B     		cmp	r3, #16
 6934 0018 2FD1     		bne	.L313
2923:Drivers/STM32F0xx_HAL_Driver/Src/stm32f0xx_hal_i2c.c ****   {
2924:Drivers/STM32F0xx_HAL_Driver/Src/stm32f0xx_hal_i2c.c ****     /* Process Locked */
2925:Drivers/STM32F0xx_HAL_Driver/Src/stm32f0xx_hal_i2c.c ****     __HAL_LOCK(hi2c);
 6935              		.loc 1 2925 5
 6936 001a 7B68     		ldr	r3, [r7, #4]
 6937 001c 4022     		movs	r2, #64
 6938 001e 9B5C     		ldrb	r3, [r3, r2]
 6939 0020 012B     		cmp	r3, #1
 6940 0022 01D1     		bne	.L314
 6941              		.loc 1 2925 5 is_stmt 0 discriminator 1
 6942 0024 0223     		movs	r3, #2
 6943 0026 29E0     		b	.L315
 6944              	.L314:
 6945              		.loc 1 2925 5 discriminator 2
 6946 0028 7B68     		ldr	r3, [r7, #4]
 6947 002a 4022     		movs	r2, #64
 6948 002c 0121     		movs	r1, #1
 6949 002e 9954     		strb	r1, [r3, r2]
2926:Drivers/STM32F0xx_HAL_Driver/Src/stm32f0xx_hal_i2c.c **** 
2927:Drivers/STM32F0xx_HAL_Driver/Src/stm32f0xx_hal_i2c.c ****     /* Disable Interrupts */
2928:Drivers/STM32F0xx_HAL_Driver/Src/stm32f0xx_hal_i2c.c ****     I2C_Disable_IRQ(hi2c, I2C_XFER_RX_IT);
 6950              		.loc 1 2928 5 is_stmt 1 discriminator 2
 6951 0030 7B68     		ldr	r3, [r7, #4]
 6952 0032 0221     		movs	r1, #2
 6953 0034 1800     		movs	r0, r3
 6954 0036 FFF7FEFF 		bl	I2C_Disable_IRQ
2929:Drivers/STM32F0xx_HAL_Driver/Src/stm32f0xx_hal_i2c.c ****     I2C_Disable_IRQ(hi2c, I2C_XFER_TX_IT);
 6955              		.loc 1 2929 5 discriminator 2
 6956 003a 7B68     		ldr	r3, [r7, #4]
 6957 003c 0121     		movs	r1, #1
 6958 003e 1800     		movs	r0, r3
 6959 0040 FFF7FEFF 		bl	I2C_Disable_IRQ
2930:Drivers/STM32F0xx_HAL_Driver/Src/stm32f0xx_hal_i2c.c **** 
2931:Drivers/STM32F0xx_HAL_Driver/Src/stm32f0xx_hal_i2c.c ****     /* Set State at HAL_I2C_STATE_ABORT */
2932:Drivers/STM32F0xx_HAL_Driver/Src/stm32f0xx_hal_i2c.c ****     hi2c->State = HAL_I2C_STATE_ABORT;
 6960              		.loc 1 2932 17 discriminator 2
 6961 0044 7B68     		ldr	r3, [r7, #4]
 6962 0046 4122     		movs	r2, #65
 6963 0048 6021     		movs	r1, #96
 6964 004a 9954     		strb	r1, [r3, r2]
2933:Drivers/STM32F0xx_HAL_Driver/Src/stm32f0xx_hal_i2c.c **** 
2934:Drivers/STM32F0xx_HAL_Driver/Src/stm32f0xx_hal_i2c.c ****     /* Set NBYTES to 1 to generate a dummy read on I2C peripheral */
2935:Drivers/STM32F0xx_HAL_Driver/Src/stm32f0xx_hal_i2c.c ****     /* Set AUTOEND mode, this will generate a NACK then STOP condition to abort the current transfe
2936:Drivers/STM32F0xx_HAL_Driver/Src/stm32f0xx_hal_i2c.c ****     I2C_TransferConfig(hi2c, DevAddress, 1, I2C_AUTOEND_MODE, I2C_GENERATE_STOP);
 6965              		.loc 1 2936 5 discriminator 2
 6966 004c 8023     		movs	r3, #128
 6967 004e 9A04     		lsls	r2, r3, #18
 6968 0050 BB1C     		adds	r3, r7, #2
 6969 0052 1988     		ldrh	r1, [r3]
 6970 0054 7868     		ldr	r0, [r7, #4]
ARM GAS  C:\Users\ADMINI~1\AppData\Local\Temp\cc3zYV2m.s 			page 174


 6971 0056 8023     		movs	r3, #128
 6972 0058 DB01     		lsls	r3, r3, #7
 6973 005a 0093     		str	r3, [sp]
 6974 005c 1300     		movs	r3, r2
 6975 005e 0122     		movs	r2, #1
 6976 0060 FFF7FEFF 		bl	I2C_TransferConfig
2937:Drivers/STM32F0xx_HAL_Driver/Src/stm32f0xx_hal_i2c.c **** 
2938:Drivers/STM32F0xx_HAL_Driver/Src/stm32f0xx_hal_i2c.c ****     /* Process Unlocked */
2939:Drivers/STM32F0xx_HAL_Driver/Src/stm32f0xx_hal_i2c.c ****     __HAL_UNLOCK(hi2c);
 6977              		.loc 1 2939 5 discriminator 2
 6978 0064 7B68     		ldr	r3, [r7, #4]
 6979 0066 4022     		movs	r2, #64
 6980 0068 0021     		movs	r1, #0
 6981 006a 9954     		strb	r1, [r3, r2]
2940:Drivers/STM32F0xx_HAL_Driver/Src/stm32f0xx_hal_i2c.c **** 
2941:Drivers/STM32F0xx_HAL_Driver/Src/stm32f0xx_hal_i2c.c ****     /* Note : The I2C interrupts must be enabled after unlocking current process
2942:Drivers/STM32F0xx_HAL_Driver/Src/stm32f0xx_hal_i2c.c ****               to avoid the risk of I2C interrupt handle execution before current
2943:Drivers/STM32F0xx_HAL_Driver/Src/stm32f0xx_hal_i2c.c ****               process unlock */
2944:Drivers/STM32F0xx_HAL_Driver/Src/stm32f0xx_hal_i2c.c ****     I2C_Enable_IRQ(hi2c, I2C_XFER_CPLT_IT);
 6982              		.loc 1 2944 5 discriminator 2
 6983 006c 7B68     		ldr	r3, [r7, #4]
 6984 006e 1221     		movs	r1, #18
 6985 0070 1800     		movs	r0, r3
 6986 0072 FFF7FEFF 		bl	I2C_Enable_IRQ
2945:Drivers/STM32F0xx_HAL_Driver/Src/stm32f0xx_hal_i2c.c **** 
2946:Drivers/STM32F0xx_HAL_Driver/Src/stm32f0xx_hal_i2c.c ****     return HAL_OK;
 6987              		.loc 1 2946 12 discriminator 2
 6988 0076 0023     		movs	r3, #0
 6989 0078 00E0     		b	.L315
 6990              	.L313:
2947:Drivers/STM32F0xx_HAL_Driver/Src/stm32f0xx_hal_i2c.c ****   }
2948:Drivers/STM32F0xx_HAL_Driver/Src/stm32f0xx_hal_i2c.c ****   else
2949:Drivers/STM32F0xx_HAL_Driver/Src/stm32f0xx_hal_i2c.c ****   {
2950:Drivers/STM32F0xx_HAL_Driver/Src/stm32f0xx_hal_i2c.c ****     /* Wrong usage of abort function */
2951:Drivers/STM32F0xx_HAL_Driver/Src/stm32f0xx_hal_i2c.c ****     /* This function should be used only in case of abort monitored by master device */
2952:Drivers/STM32F0xx_HAL_Driver/Src/stm32f0xx_hal_i2c.c ****     return HAL_ERROR;
 6991              		.loc 1 2952 12
 6992 007a 0123     		movs	r3, #1
 6993              	.L315:
2953:Drivers/STM32F0xx_HAL_Driver/Src/stm32f0xx_hal_i2c.c ****   }
2954:Drivers/STM32F0xx_HAL_Driver/Src/stm32f0xx_hal_i2c.c **** }
 6994              		.loc 1 2954 1
 6995 007c 1800     		movs	r0, r3
 6996 007e BD46     		mov	sp, r7
 6997 0080 02B0     		add	sp, sp, #8
 6998              		@ sp needed
 6999 0082 80BD     		pop	{r7, pc}
 7000              		.cfi_endproc
 7001              	.LFE66:
 7003              		.section	.text.HAL_I2C_EV_IRQHandler,"ax",%progbits
 7004              		.align	1
 7005              		.global	HAL_I2C_EV_IRQHandler
 7006              		.syntax unified
 7007              		.code	16
 7008              		.thumb_func
 7009              		.fpu softvfp
 7011              	HAL_I2C_EV_IRQHandler:
ARM GAS  C:\Users\ADMINI~1\AppData\Local\Temp\cc3zYV2m.s 			page 175


 7012              	.LFB67:
2955:Drivers/STM32F0xx_HAL_Driver/Src/stm32f0xx_hal_i2c.c **** 
2956:Drivers/STM32F0xx_HAL_Driver/Src/stm32f0xx_hal_i2c.c **** /**
2957:Drivers/STM32F0xx_HAL_Driver/Src/stm32f0xx_hal_i2c.c ****   * @}
2958:Drivers/STM32F0xx_HAL_Driver/Src/stm32f0xx_hal_i2c.c ****   */
2959:Drivers/STM32F0xx_HAL_Driver/Src/stm32f0xx_hal_i2c.c **** 
2960:Drivers/STM32F0xx_HAL_Driver/Src/stm32f0xx_hal_i2c.c **** /** @defgroup I2C_IRQ_Handler_and_Callbacks IRQ Handler and Callbacks
2961:Drivers/STM32F0xx_HAL_Driver/Src/stm32f0xx_hal_i2c.c ****  * @{
2962:Drivers/STM32F0xx_HAL_Driver/Src/stm32f0xx_hal_i2c.c ****  */
2963:Drivers/STM32F0xx_HAL_Driver/Src/stm32f0xx_hal_i2c.c **** 
2964:Drivers/STM32F0xx_HAL_Driver/Src/stm32f0xx_hal_i2c.c **** /**
2965:Drivers/STM32F0xx_HAL_Driver/Src/stm32f0xx_hal_i2c.c ****   * @brief  This function handles I2C event interrupt request.
2966:Drivers/STM32F0xx_HAL_Driver/Src/stm32f0xx_hal_i2c.c ****   * @param  hi2c Pointer to a I2C_HandleTypeDef structure that contains
2967:Drivers/STM32F0xx_HAL_Driver/Src/stm32f0xx_hal_i2c.c ****   *                the configuration information for the specified I2C.
2968:Drivers/STM32F0xx_HAL_Driver/Src/stm32f0xx_hal_i2c.c ****   * @retval None
2969:Drivers/STM32F0xx_HAL_Driver/Src/stm32f0xx_hal_i2c.c ****   */
2970:Drivers/STM32F0xx_HAL_Driver/Src/stm32f0xx_hal_i2c.c **** void HAL_I2C_EV_IRQHandler(I2C_HandleTypeDef *hi2c)
2971:Drivers/STM32F0xx_HAL_Driver/Src/stm32f0xx_hal_i2c.c **** {
 7013              		.loc 1 2971 1
 7014              		.cfi_startproc
 7015              		@ args = 0, pretend = 0, frame = 16
 7016              		@ frame_needed = 1, uses_anonymous_args = 0
 7017 0000 80B5     		push	{r7, lr}
 7018              	.LCFI90:
 7019              		.cfi_def_cfa_offset 8
 7020              		.cfi_offset 7, -8
 7021              		.cfi_offset 14, -4
 7022 0002 84B0     		sub	sp, sp, #16
 7023              	.LCFI91:
 7024              		.cfi_def_cfa_offset 24
 7025 0004 00AF     		add	r7, sp, #0
 7026              	.LCFI92:
 7027              		.cfi_def_cfa_register 7
 7028 0006 7860     		str	r0, [r7, #4]
2972:Drivers/STM32F0xx_HAL_Driver/Src/stm32f0xx_hal_i2c.c ****   /* Get current IT Flags and IT sources value */
2973:Drivers/STM32F0xx_HAL_Driver/Src/stm32f0xx_hal_i2c.c ****   uint32_t itflags   = READ_REG(hi2c->Instance->ISR);
 7029              		.loc 1 2973 24
 7030 0008 7B68     		ldr	r3, [r7, #4]
 7031 000a 1B68     		ldr	r3, [r3]
 7032              		.loc 1 2973 12
 7033 000c 9B69     		ldr	r3, [r3, #24]
 7034 000e FB60     		str	r3, [r7, #12]
2974:Drivers/STM32F0xx_HAL_Driver/Src/stm32f0xx_hal_i2c.c ****   uint32_t itsources = READ_REG(hi2c->Instance->CR1);
 7035              		.loc 1 2974 24
 7036 0010 7B68     		ldr	r3, [r7, #4]
 7037 0012 1B68     		ldr	r3, [r3]
 7038              		.loc 1 2974 12
 7039 0014 1B68     		ldr	r3, [r3]
 7040 0016 BB60     		str	r3, [r7, #8]
2975:Drivers/STM32F0xx_HAL_Driver/Src/stm32f0xx_hal_i2c.c **** 
2976:Drivers/STM32F0xx_HAL_Driver/Src/stm32f0xx_hal_i2c.c ****   /* I2C events treatment -------------------------------------*/
2977:Drivers/STM32F0xx_HAL_Driver/Src/stm32f0xx_hal_i2c.c ****   if (hi2c->XferISR != NULL)
 7041              		.loc 1 2977 11
 7042 0018 7B68     		ldr	r3, [r7, #4]
 7043 001a 5B6B     		ldr	r3, [r3, #52]
 7044              		.loc 1 2977 6
 7045 001c 002B     		cmp	r3, #0
ARM GAS  C:\Users\ADMINI~1\AppData\Local\Temp\cc3zYV2m.s 			page 176


 7046 001e 05D0     		beq	.L318
2978:Drivers/STM32F0xx_HAL_Driver/Src/stm32f0xx_hal_i2c.c ****   {
2979:Drivers/STM32F0xx_HAL_Driver/Src/stm32f0xx_hal_i2c.c ****     hi2c->XferISR(hi2c, itflags, itsources);
 7047              		.loc 1 2979 9
 7048 0020 7B68     		ldr	r3, [r7, #4]
 7049 0022 5B6B     		ldr	r3, [r3, #52]
 7050              		.loc 1 2979 5
 7051 0024 BA68     		ldr	r2, [r7, #8]
 7052 0026 F968     		ldr	r1, [r7, #12]
 7053 0028 7868     		ldr	r0, [r7, #4]
 7054 002a 9847     		blx	r3
 7055              	.LVL0:
 7056              	.L318:
2980:Drivers/STM32F0xx_HAL_Driver/Src/stm32f0xx_hal_i2c.c ****   }
2981:Drivers/STM32F0xx_HAL_Driver/Src/stm32f0xx_hal_i2c.c **** }
 7057              		.loc 1 2981 1
 7058 002c C046     		nop
 7059 002e BD46     		mov	sp, r7
 7060 0030 04B0     		add	sp, sp, #16
 7061              		@ sp needed
 7062 0032 80BD     		pop	{r7, pc}
 7063              		.cfi_endproc
 7064              	.LFE67:
 7066              		.section	.text.HAL_I2C_ER_IRQHandler,"ax",%progbits
 7067              		.align	1
 7068              		.global	HAL_I2C_ER_IRQHandler
 7069              		.syntax unified
 7070              		.code	16
 7071              		.thumb_func
 7072              		.fpu softvfp
 7074              	HAL_I2C_ER_IRQHandler:
 7075              	.LFB68:
2982:Drivers/STM32F0xx_HAL_Driver/Src/stm32f0xx_hal_i2c.c **** 
2983:Drivers/STM32F0xx_HAL_Driver/Src/stm32f0xx_hal_i2c.c **** /**
2984:Drivers/STM32F0xx_HAL_Driver/Src/stm32f0xx_hal_i2c.c ****   * @brief  This function handles I2C error interrupt request.
2985:Drivers/STM32F0xx_HAL_Driver/Src/stm32f0xx_hal_i2c.c ****   * @param  hi2c Pointer to a I2C_HandleTypeDef structure that contains
2986:Drivers/STM32F0xx_HAL_Driver/Src/stm32f0xx_hal_i2c.c ****   *                the configuration information for the specified I2C.
2987:Drivers/STM32F0xx_HAL_Driver/Src/stm32f0xx_hal_i2c.c ****   * @retval None
2988:Drivers/STM32F0xx_HAL_Driver/Src/stm32f0xx_hal_i2c.c ****   */
2989:Drivers/STM32F0xx_HAL_Driver/Src/stm32f0xx_hal_i2c.c **** void HAL_I2C_ER_IRQHandler(I2C_HandleTypeDef *hi2c)
2990:Drivers/STM32F0xx_HAL_Driver/Src/stm32f0xx_hal_i2c.c **** {
 7076              		.loc 1 2990 1
 7077              		.cfi_startproc
 7078              		@ args = 0, pretend = 0, frame = 16
 7079              		@ frame_needed = 1, uses_anonymous_args = 0
 7080 0000 80B5     		push	{r7, lr}
 7081              	.LCFI93:
 7082              		.cfi_def_cfa_offset 8
 7083              		.cfi_offset 7, -8
 7084              		.cfi_offset 14, -4
 7085 0002 84B0     		sub	sp, sp, #16
 7086              	.LCFI94:
 7087              		.cfi_def_cfa_offset 24
 7088 0004 00AF     		add	r7, sp, #0
 7089              	.LCFI95:
 7090              		.cfi_def_cfa_register 7
 7091 0006 7860     		str	r0, [r7, #4]
ARM GAS  C:\Users\ADMINI~1\AppData\Local\Temp\cc3zYV2m.s 			page 177


2991:Drivers/STM32F0xx_HAL_Driver/Src/stm32f0xx_hal_i2c.c ****   uint32_t itflags   = READ_REG(hi2c->Instance->ISR);
 7092              		.loc 1 2991 24
 7093 0008 7B68     		ldr	r3, [r7, #4]
 7094 000a 1B68     		ldr	r3, [r3]
 7095              		.loc 1 2991 12
 7096 000c 9B69     		ldr	r3, [r3, #24]
 7097 000e FB60     		str	r3, [r7, #12]
2992:Drivers/STM32F0xx_HAL_Driver/Src/stm32f0xx_hal_i2c.c ****   uint32_t itsources = READ_REG(hi2c->Instance->CR1);
 7098              		.loc 1 2992 24
 7099 0010 7B68     		ldr	r3, [r7, #4]
 7100 0012 1B68     		ldr	r3, [r3]
 7101              		.loc 1 2992 12
 7102 0014 1B68     		ldr	r3, [r3]
 7103 0016 BB60     		str	r3, [r7, #8]
2993:Drivers/STM32F0xx_HAL_Driver/Src/stm32f0xx_hal_i2c.c **** 
2994:Drivers/STM32F0xx_HAL_Driver/Src/stm32f0xx_hal_i2c.c ****   /* I2C Bus error interrupt occurred ------------------------------------*/
2995:Drivers/STM32F0xx_HAL_Driver/Src/stm32f0xx_hal_i2c.c ****   if (((itflags & I2C_FLAG_BERR) != RESET) && ((itsources & I2C_IT_ERRI) != RESET))
 7104              		.loc 1 2995 17
 7105 0018 FA68     		ldr	r2, [r7, #12]
 7106 001a 8023     		movs	r3, #128
 7107 001c 5B00     		lsls	r3, r3, #1
 7108 001e 1340     		ands	r3, r2
 7109              		.loc 1 2995 6
 7110 0020 0ED0     		beq	.L320
 7111              		.loc 1 2995 59 discriminator 1
 7112 0022 BB68     		ldr	r3, [r7, #8]
 7113 0024 8022     		movs	r2, #128
 7114 0026 1340     		ands	r3, r2
 7115              		.loc 1 2995 44 discriminator 1
 7116 0028 0AD0     		beq	.L320
2996:Drivers/STM32F0xx_HAL_Driver/Src/stm32f0xx_hal_i2c.c ****   {
2997:Drivers/STM32F0xx_HAL_Driver/Src/stm32f0xx_hal_i2c.c ****     hi2c->ErrorCode |= HAL_I2C_ERROR_BERR;
 7117              		.loc 1 2997 21
 7118 002a 7B68     		ldr	r3, [r7, #4]
 7119 002c 5B6C     		ldr	r3, [r3, #68]
 7120 002e 0122     		movs	r2, #1
 7121 0030 1A43     		orrs	r2, r3
 7122 0032 7B68     		ldr	r3, [r7, #4]
 7123 0034 5A64     		str	r2, [r3, #68]
2998:Drivers/STM32F0xx_HAL_Driver/Src/stm32f0xx_hal_i2c.c **** 
2999:Drivers/STM32F0xx_HAL_Driver/Src/stm32f0xx_hal_i2c.c ****     /* Clear BERR flag */
3000:Drivers/STM32F0xx_HAL_Driver/Src/stm32f0xx_hal_i2c.c ****     __HAL_I2C_CLEAR_FLAG(hi2c, I2C_FLAG_BERR);
 7124              		.loc 1 3000 5
 7125 0036 7B68     		ldr	r3, [r7, #4]
 7126 0038 1B68     		ldr	r3, [r3]
 7127 003a 8022     		movs	r2, #128
 7128 003c 5200     		lsls	r2, r2, #1
 7129 003e DA61     		str	r2, [r3, #28]
 7130              	.L320:
3001:Drivers/STM32F0xx_HAL_Driver/Src/stm32f0xx_hal_i2c.c ****   }
3002:Drivers/STM32F0xx_HAL_Driver/Src/stm32f0xx_hal_i2c.c **** 
3003:Drivers/STM32F0xx_HAL_Driver/Src/stm32f0xx_hal_i2c.c ****   /* I2C Over-Run/Under-Run interrupt occurred ----------------------------------------*/
3004:Drivers/STM32F0xx_HAL_Driver/Src/stm32f0xx_hal_i2c.c ****   if (((itflags & I2C_FLAG_OVR) != RESET) && ((itsources & I2C_IT_ERRI) != RESET))
 7131              		.loc 1 3004 17
 7132 0040 FA68     		ldr	r2, [r7, #12]
 7133 0042 8023     		movs	r3, #128
 7134 0044 DB00     		lsls	r3, r3, #3
ARM GAS  C:\Users\ADMINI~1\AppData\Local\Temp\cc3zYV2m.s 			page 178


 7135 0046 1340     		ands	r3, r2
 7136              		.loc 1 3004 6
 7137 0048 0ED0     		beq	.L321
 7138              		.loc 1 3004 58 discriminator 1
 7139 004a BB68     		ldr	r3, [r7, #8]
 7140 004c 8022     		movs	r2, #128
 7141 004e 1340     		ands	r3, r2
 7142              		.loc 1 3004 43 discriminator 1
 7143 0050 0AD0     		beq	.L321
3005:Drivers/STM32F0xx_HAL_Driver/Src/stm32f0xx_hal_i2c.c ****   {
3006:Drivers/STM32F0xx_HAL_Driver/Src/stm32f0xx_hal_i2c.c ****     hi2c->ErrorCode |= HAL_I2C_ERROR_OVR;
 7144              		.loc 1 3006 21
 7145 0052 7B68     		ldr	r3, [r7, #4]
 7146 0054 5B6C     		ldr	r3, [r3, #68]
 7147 0056 0822     		movs	r2, #8
 7148 0058 1A43     		orrs	r2, r3
 7149 005a 7B68     		ldr	r3, [r7, #4]
 7150 005c 5A64     		str	r2, [r3, #68]
3007:Drivers/STM32F0xx_HAL_Driver/Src/stm32f0xx_hal_i2c.c **** 
3008:Drivers/STM32F0xx_HAL_Driver/Src/stm32f0xx_hal_i2c.c ****     /* Clear OVR flag */
3009:Drivers/STM32F0xx_HAL_Driver/Src/stm32f0xx_hal_i2c.c ****     __HAL_I2C_CLEAR_FLAG(hi2c, I2C_FLAG_OVR);
 7151              		.loc 1 3009 5
 7152 005e 7B68     		ldr	r3, [r7, #4]
 7153 0060 1B68     		ldr	r3, [r3]
 7154 0062 8022     		movs	r2, #128
 7155 0064 D200     		lsls	r2, r2, #3
 7156 0066 DA61     		str	r2, [r3, #28]
 7157              	.L321:
3010:Drivers/STM32F0xx_HAL_Driver/Src/stm32f0xx_hal_i2c.c ****   }
3011:Drivers/STM32F0xx_HAL_Driver/Src/stm32f0xx_hal_i2c.c **** 
3012:Drivers/STM32F0xx_HAL_Driver/Src/stm32f0xx_hal_i2c.c ****   /* I2C Arbitration Loss error interrupt occurred -------------------------------------*/
3013:Drivers/STM32F0xx_HAL_Driver/Src/stm32f0xx_hal_i2c.c ****   if (((itflags & I2C_FLAG_ARLO) != RESET) && ((itsources & I2C_IT_ERRI) != RESET))
 7158              		.loc 1 3013 17
 7159 0068 FA68     		ldr	r2, [r7, #12]
 7160 006a 8023     		movs	r3, #128
 7161 006c 9B00     		lsls	r3, r3, #2
 7162 006e 1340     		ands	r3, r2
 7163              		.loc 1 3013 6
 7164 0070 0ED0     		beq	.L322
 7165              		.loc 1 3013 59 discriminator 1
 7166 0072 BB68     		ldr	r3, [r7, #8]
 7167 0074 8022     		movs	r2, #128
 7168 0076 1340     		ands	r3, r2
 7169              		.loc 1 3013 44 discriminator 1
 7170 0078 0AD0     		beq	.L322
3014:Drivers/STM32F0xx_HAL_Driver/Src/stm32f0xx_hal_i2c.c ****   {
3015:Drivers/STM32F0xx_HAL_Driver/Src/stm32f0xx_hal_i2c.c ****     hi2c->ErrorCode |= HAL_I2C_ERROR_ARLO;
 7171              		.loc 1 3015 21
 7172 007a 7B68     		ldr	r3, [r7, #4]
 7173 007c 5B6C     		ldr	r3, [r3, #68]
 7174 007e 0222     		movs	r2, #2
 7175 0080 1A43     		orrs	r2, r3
 7176 0082 7B68     		ldr	r3, [r7, #4]
 7177 0084 5A64     		str	r2, [r3, #68]
3016:Drivers/STM32F0xx_HAL_Driver/Src/stm32f0xx_hal_i2c.c **** 
3017:Drivers/STM32F0xx_HAL_Driver/Src/stm32f0xx_hal_i2c.c ****     /* Clear ARLO flag */
3018:Drivers/STM32F0xx_HAL_Driver/Src/stm32f0xx_hal_i2c.c ****     __HAL_I2C_CLEAR_FLAG(hi2c, I2C_FLAG_ARLO);
ARM GAS  C:\Users\ADMINI~1\AppData\Local\Temp\cc3zYV2m.s 			page 179


 7178              		.loc 1 3018 5
 7179 0086 7B68     		ldr	r3, [r7, #4]
 7180 0088 1B68     		ldr	r3, [r3]
 7181 008a 8022     		movs	r2, #128
 7182 008c 9200     		lsls	r2, r2, #2
 7183 008e DA61     		str	r2, [r3, #28]
 7184              	.L322:
3019:Drivers/STM32F0xx_HAL_Driver/Src/stm32f0xx_hal_i2c.c ****   }
3020:Drivers/STM32F0xx_HAL_Driver/Src/stm32f0xx_hal_i2c.c **** 
3021:Drivers/STM32F0xx_HAL_Driver/Src/stm32f0xx_hal_i2c.c ****   /* Call the Error Callback in case of Error detected */
3022:Drivers/STM32F0xx_HAL_Driver/Src/stm32f0xx_hal_i2c.c ****   if ((hi2c->ErrorCode & (HAL_I2C_ERROR_BERR | HAL_I2C_ERROR_OVR | HAL_I2C_ERROR_ARLO)) !=  HAL_I2C
 7185              		.loc 1 3022 12
 7186 0090 7B68     		ldr	r3, [r7, #4]
 7187 0092 5B6C     		ldr	r3, [r3, #68]
 7188              		.loc 1 3022 24
 7189 0094 0B22     		movs	r2, #11
 7190 0096 1340     		ands	r3, r2
 7191              		.loc 1 3022 6
 7192 0098 06D0     		beq	.L324
3023:Drivers/STM32F0xx_HAL_Driver/Src/stm32f0xx_hal_i2c.c ****   {
3024:Drivers/STM32F0xx_HAL_Driver/Src/stm32f0xx_hal_i2c.c ****     I2C_ITError(hi2c, hi2c->ErrorCode);
 7193              		.loc 1 3024 5
 7194 009a 7B68     		ldr	r3, [r7, #4]
 7195 009c 5A6C     		ldr	r2, [r3, #68]
 7196 009e 7B68     		ldr	r3, [r7, #4]
 7197 00a0 1100     		movs	r1, r2
 7198 00a2 1800     		movs	r0, r3
 7199 00a4 FFF7FEFF 		bl	I2C_ITError
 7200              	.L324:
3025:Drivers/STM32F0xx_HAL_Driver/Src/stm32f0xx_hal_i2c.c ****   }
3026:Drivers/STM32F0xx_HAL_Driver/Src/stm32f0xx_hal_i2c.c **** }
 7201              		.loc 1 3026 1
 7202 00a8 C046     		nop
 7203 00aa BD46     		mov	sp, r7
 7204 00ac 04B0     		add	sp, sp, #16
 7205              		@ sp needed
 7206 00ae 80BD     		pop	{r7, pc}
 7207              		.cfi_endproc
 7208              	.LFE68:
 7210              		.section	.text.HAL_I2C_MasterTxCpltCallback,"ax",%progbits
 7211              		.align	1
 7212              		.weak	HAL_I2C_MasterTxCpltCallback
 7213              		.syntax unified
 7214              		.code	16
 7215              		.thumb_func
 7216              		.fpu softvfp
 7218              	HAL_I2C_MasterTxCpltCallback:
 7219              	.LFB69:
3027:Drivers/STM32F0xx_HAL_Driver/Src/stm32f0xx_hal_i2c.c **** 
3028:Drivers/STM32F0xx_HAL_Driver/Src/stm32f0xx_hal_i2c.c **** /**
3029:Drivers/STM32F0xx_HAL_Driver/Src/stm32f0xx_hal_i2c.c ****   * @brief  Master Tx Transfer completed callback.
3030:Drivers/STM32F0xx_HAL_Driver/Src/stm32f0xx_hal_i2c.c ****   * @param  hi2c Pointer to a I2C_HandleTypeDef structure that contains
3031:Drivers/STM32F0xx_HAL_Driver/Src/stm32f0xx_hal_i2c.c ****   *                the configuration information for the specified I2C.
3032:Drivers/STM32F0xx_HAL_Driver/Src/stm32f0xx_hal_i2c.c ****   * @retval None
3033:Drivers/STM32F0xx_HAL_Driver/Src/stm32f0xx_hal_i2c.c ****   */
3034:Drivers/STM32F0xx_HAL_Driver/Src/stm32f0xx_hal_i2c.c **** __weak void HAL_I2C_MasterTxCpltCallback(I2C_HandleTypeDef *hi2c)
3035:Drivers/STM32F0xx_HAL_Driver/Src/stm32f0xx_hal_i2c.c **** {
ARM GAS  C:\Users\ADMINI~1\AppData\Local\Temp\cc3zYV2m.s 			page 180


 7220              		.loc 1 3035 1
 7221              		.cfi_startproc
 7222              		@ args = 0, pretend = 0, frame = 8
 7223              		@ frame_needed = 1, uses_anonymous_args = 0
 7224 0000 80B5     		push	{r7, lr}
 7225              	.LCFI96:
 7226              		.cfi_def_cfa_offset 8
 7227              		.cfi_offset 7, -8
 7228              		.cfi_offset 14, -4
 7229 0002 82B0     		sub	sp, sp, #8
 7230              	.LCFI97:
 7231              		.cfi_def_cfa_offset 16
 7232 0004 00AF     		add	r7, sp, #0
 7233              	.LCFI98:
 7234              		.cfi_def_cfa_register 7
 7235 0006 7860     		str	r0, [r7, #4]
3036:Drivers/STM32F0xx_HAL_Driver/Src/stm32f0xx_hal_i2c.c ****   /* Prevent unused argument(s) compilation warning */
3037:Drivers/STM32F0xx_HAL_Driver/Src/stm32f0xx_hal_i2c.c ****   UNUSED(hi2c);
3038:Drivers/STM32F0xx_HAL_Driver/Src/stm32f0xx_hal_i2c.c **** 
3039:Drivers/STM32F0xx_HAL_Driver/Src/stm32f0xx_hal_i2c.c ****   /* NOTE : This function should not be modified, when the callback is needed,
3040:Drivers/STM32F0xx_HAL_Driver/Src/stm32f0xx_hal_i2c.c ****             the HAL_I2C_MasterTxCpltCallback could be implemented in the user file
3041:Drivers/STM32F0xx_HAL_Driver/Src/stm32f0xx_hal_i2c.c ****    */
3042:Drivers/STM32F0xx_HAL_Driver/Src/stm32f0xx_hal_i2c.c **** }
 7236              		.loc 1 3042 1
 7237 0008 C046     		nop
 7238 000a BD46     		mov	sp, r7
 7239 000c 02B0     		add	sp, sp, #8
 7240              		@ sp needed
 7241 000e 80BD     		pop	{r7, pc}
 7242              		.cfi_endproc
 7243              	.LFE69:
 7245              		.section	.text.HAL_I2C_MasterRxCpltCallback,"ax",%progbits
 7246              		.align	1
 7247              		.weak	HAL_I2C_MasterRxCpltCallback
 7248              		.syntax unified
 7249              		.code	16
 7250              		.thumb_func
 7251              		.fpu softvfp
 7253              	HAL_I2C_MasterRxCpltCallback:
 7254              	.LFB70:
3043:Drivers/STM32F0xx_HAL_Driver/Src/stm32f0xx_hal_i2c.c **** 
3044:Drivers/STM32F0xx_HAL_Driver/Src/stm32f0xx_hal_i2c.c **** /**
3045:Drivers/STM32F0xx_HAL_Driver/Src/stm32f0xx_hal_i2c.c ****   * @brief  Master Rx Transfer completed callback.
3046:Drivers/STM32F0xx_HAL_Driver/Src/stm32f0xx_hal_i2c.c ****   * @param  hi2c Pointer to a I2C_HandleTypeDef structure that contains
3047:Drivers/STM32F0xx_HAL_Driver/Src/stm32f0xx_hal_i2c.c ****   *                the configuration information for the specified I2C.
3048:Drivers/STM32F0xx_HAL_Driver/Src/stm32f0xx_hal_i2c.c ****   * @retval None
3049:Drivers/STM32F0xx_HAL_Driver/Src/stm32f0xx_hal_i2c.c ****   */
3050:Drivers/STM32F0xx_HAL_Driver/Src/stm32f0xx_hal_i2c.c **** __weak void HAL_I2C_MasterRxCpltCallback(I2C_HandleTypeDef *hi2c)
3051:Drivers/STM32F0xx_HAL_Driver/Src/stm32f0xx_hal_i2c.c **** {
 7255              		.loc 1 3051 1
 7256              		.cfi_startproc
 7257              		@ args = 0, pretend = 0, frame = 8
 7258              		@ frame_needed = 1, uses_anonymous_args = 0
 7259 0000 80B5     		push	{r7, lr}
 7260              	.LCFI99:
 7261              		.cfi_def_cfa_offset 8
 7262              		.cfi_offset 7, -8
ARM GAS  C:\Users\ADMINI~1\AppData\Local\Temp\cc3zYV2m.s 			page 181


 7263              		.cfi_offset 14, -4
 7264 0002 82B0     		sub	sp, sp, #8
 7265              	.LCFI100:
 7266              		.cfi_def_cfa_offset 16
 7267 0004 00AF     		add	r7, sp, #0
 7268              	.LCFI101:
 7269              		.cfi_def_cfa_register 7
 7270 0006 7860     		str	r0, [r7, #4]
3052:Drivers/STM32F0xx_HAL_Driver/Src/stm32f0xx_hal_i2c.c ****   /* Prevent unused argument(s) compilation warning */
3053:Drivers/STM32F0xx_HAL_Driver/Src/stm32f0xx_hal_i2c.c ****   UNUSED(hi2c);
3054:Drivers/STM32F0xx_HAL_Driver/Src/stm32f0xx_hal_i2c.c **** 
3055:Drivers/STM32F0xx_HAL_Driver/Src/stm32f0xx_hal_i2c.c ****   /* NOTE : This function should not be modified, when the callback is needed,
3056:Drivers/STM32F0xx_HAL_Driver/Src/stm32f0xx_hal_i2c.c ****             the HAL_I2C_MasterRxCpltCallback could be implemented in the user file
3057:Drivers/STM32F0xx_HAL_Driver/Src/stm32f0xx_hal_i2c.c ****    */
3058:Drivers/STM32F0xx_HAL_Driver/Src/stm32f0xx_hal_i2c.c **** }
 7271              		.loc 1 3058 1
 7272 0008 C046     		nop
 7273 000a BD46     		mov	sp, r7
 7274 000c 02B0     		add	sp, sp, #8
 7275              		@ sp needed
 7276 000e 80BD     		pop	{r7, pc}
 7277              		.cfi_endproc
 7278              	.LFE70:
 7280              		.section	.text.HAL_I2C_SlaveTxCpltCallback,"ax",%progbits
 7281              		.align	1
 7282              		.weak	HAL_I2C_SlaveTxCpltCallback
 7283              		.syntax unified
 7284              		.code	16
 7285              		.thumb_func
 7286              		.fpu softvfp
 7288              	HAL_I2C_SlaveTxCpltCallback:
 7289              	.LFB71:
3059:Drivers/STM32F0xx_HAL_Driver/Src/stm32f0xx_hal_i2c.c **** 
3060:Drivers/STM32F0xx_HAL_Driver/Src/stm32f0xx_hal_i2c.c **** /** @brief  Slave Tx Transfer completed callback.
3061:Drivers/STM32F0xx_HAL_Driver/Src/stm32f0xx_hal_i2c.c ****   * @param  hi2c Pointer to a I2C_HandleTypeDef structure that contains
3062:Drivers/STM32F0xx_HAL_Driver/Src/stm32f0xx_hal_i2c.c ****   *                the configuration information for the specified I2C.
3063:Drivers/STM32F0xx_HAL_Driver/Src/stm32f0xx_hal_i2c.c ****   * @retval None
3064:Drivers/STM32F0xx_HAL_Driver/Src/stm32f0xx_hal_i2c.c ****   */
3065:Drivers/STM32F0xx_HAL_Driver/Src/stm32f0xx_hal_i2c.c **** __weak void HAL_I2C_SlaveTxCpltCallback(I2C_HandleTypeDef *hi2c)
3066:Drivers/STM32F0xx_HAL_Driver/Src/stm32f0xx_hal_i2c.c **** {
 7290              		.loc 1 3066 1
 7291              		.cfi_startproc
 7292              		@ args = 0, pretend = 0, frame = 8
 7293              		@ frame_needed = 1, uses_anonymous_args = 0
 7294 0000 80B5     		push	{r7, lr}
 7295              	.LCFI102:
 7296              		.cfi_def_cfa_offset 8
 7297              		.cfi_offset 7, -8
 7298              		.cfi_offset 14, -4
 7299 0002 82B0     		sub	sp, sp, #8
 7300              	.LCFI103:
 7301              		.cfi_def_cfa_offset 16
 7302 0004 00AF     		add	r7, sp, #0
 7303              	.LCFI104:
 7304              		.cfi_def_cfa_register 7
 7305 0006 7860     		str	r0, [r7, #4]
3067:Drivers/STM32F0xx_HAL_Driver/Src/stm32f0xx_hal_i2c.c ****   /* Prevent unused argument(s) compilation warning */
ARM GAS  C:\Users\ADMINI~1\AppData\Local\Temp\cc3zYV2m.s 			page 182


3068:Drivers/STM32F0xx_HAL_Driver/Src/stm32f0xx_hal_i2c.c ****   UNUSED(hi2c);
3069:Drivers/STM32F0xx_HAL_Driver/Src/stm32f0xx_hal_i2c.c **** 
3070:Drivers/STM32F0xx_HAL_Driver/Src/stm32f0xx_hal_i2c.c ****   /* NOTE : This function should not be modified, when the callback is needed,
3071:Drivers/STM32F0xx_HAL_Driver/Src/stm32f0xx_hal_i2c.c ****             the HAL_I2C_SlaveTxCpltCallback could be implemented in the user file
3072:Drivers/STM32F0xx_HAL_Driver/Src/stm32f0xx_hal_i2c.c ****    */
3073:Drivers/STM32F0xx_HAL_Driver/Src/stm32f0xx_hal_i2c.c **** }
 7306              		.loc 1 3073 1
 7307 0008 C046     		nop
 7308 000a BD46     		mov	sp, r7
 7309 000c 02B0     		add	sp, sp, #8
 7310              		@ sp needed
 7311 000e 80BD     		pop	{r7, pc}
 7312              		.cfi_endproc
 7313              	.LFE71:
 7315              		.section	.text.HAL_I2C_SlaveRxCpltCallback,"ax",%progbits
 7316              		.align	1
 7317              		.weak	HAL_I2C_SlaveRxCpltCallback
 7318              		.syntax unified
 7319              		.code	16
 7320              		.thumb_func
 7321              		.fpu softvfp
 7323              	HAL_I2C_SlaveRxCpltCallback:
 7324              	.LFB72:
3074:Drivers/STM32F0xx_HAL_Driver/Src/stm32f0xx_hal_i2c.c **** 
3075:Drivers/STM32F0xx_HAL_Driver/Src/stm32f0xx_hal_i2c.c **** /**
3076:Drivers/STM32F0xx_HAL_Driver/Src/stm32f0xx_hal_i2c.c ****   * @brief  Slave Rx Transfer completed callback.
3077:Drivers/STM32F0xx_HAL_Driver/Src/stm32f0xx_hal_i2c.c ****   * @param  hi2c Pointer to a I2C_HandleTypeDef structure that contains
3078:Drivers/STM32F0xx_HAL_Driver/Src/stm32f0xx_hal_i2c.c ****   *                the configuration information for the specified I2C.
3079:Drivers/STM32F0xx_HAL_Driver/Src/stm32f0xx_hal_i2c.c ****   * @retval None
3080:Drivers/STM32F0xx_HAL_Driver/Src/stm32f0xx_hal_i2c.c ****   */
3081:Drivers/STM32F0xx_HAL_Driver/Src/stm32f0xx_hal_i2c.c **** __weak void HAL_I2C_SlaveRxCpltCallback(I2C_HandleTypeDef *hi2c)
3082:Drivers/STM32F0xx_HAL_Driver/Src/stm32f0xx_hal_i2c.c **** {
 7325              		.loc 1 3082 1
 7326              		.cfi_startproc
 7327              		@ args = 0, pretend = 0, frame = 8
 7328              		@ frame_needed = 1, uses_anonymous_args = 0
 7329 0000 80B5     		push	{r7, lr}
 7330              	.LCFI105:
 7331              		.cfi_def_cfa_offset 8
 7332              		.cfi_offset 7, -8
 7333              		.cfi_offset 14, -4
 7334 0002 82B0     		sub	sp, sp, #8
 7335              	.LCFI106:
 7336              		.cfi_def_cfa_offset 16
 7337 0004 00AF     		add	r7, sp, #0
 7338              	.LCFI107:
 7339              		.cfi_def_cfa_register 7
 7340 0006 7860     		str	r0, [r7, #4]
3083:Drivers/STM32F0xx_HAL_Driver/Src/stm32f0xx_hal_i2c.c ****   /* Prevent unused argument(s) compilation warning */
3084:Drivers/STM32F0xx_HAL_Driver/Src/stm32f0xx_hal_i2c.c ****   UNUSED(hi2c);
3085:Drivers/STM32F0xx_HAL_Driver/Src/stm32f0xx_hal_i2c.c **** 
3086:Drivers/STM32F0xx_HAL_Driver/Src/stm32f0xx_hal_i2c.c ****   /* NOTE : This function should not be modified, when the callback is needed,
3087:Drivers/STM32F0xx_HAL_Driver/Src/stm32f0xx_hal_i2c.c ****             the HAL_I2C_SlaveRxCpltCallback could be implemented in the user file
3088:Drivers/STM32F0xx_HAL_Driver/Src/stm32f0xx_hal_i2c.c ****    */
3089:Drivers/STM32F0xx_HAL_Driver/Src/stm32f0xx_hal_i2c.c **** }
 7341              		.loc 1 3089 1
 7342 0008 C046     		nop
ARM GAS  C:\Users\ADMINI~1\AppData\Local\Temp\cc3zYV2m.s 			page 183


 7343 000a BD46     		mov	sp, r7
 7344 000c 02B0     		add	sp, sp, #8
 7345              		@ sp needed
 7346 000e 80BD     		pop	{r7, pc}
 7347              		.cfi_endproc
 7348              	.LFE72:
 7350              		.section	.text.HAL_I2C_AddrCallback,"ax",%progbits
 7351              		.align	1
 7352              		.weak	HAL_I2C_AddrCallback
 7353              		.syntax unified
 7354              		.code	16
 7355              		.thumb_func
 7356              		.fpu softvfp
 7358              	HAL_I2C_AddrCallback:
 7359              	.LFB73:
3090:Drivers/STM32F0xx_HAL_Driver/Src/stm32f0xx_hal_i2c.c **** 
3091:Drivers/STM32F0xx_HAL_Driver/Src/stm32f0xx_hal_i2c.c **** /**
3092:Drivers/STM32F0xx_HAL_Driver/Src/stm32f0xx_hal_i2c.c ****   * @brief  Slave Address Match callback.
3093:Drivers/STM32F0xx_HAL_Driver/Src/stm32f0xx_hal_i2c.c ****   * @param  hi2c Pointer to a I2C_HandleTypeDef structure that contains
3094:Drivers/STM32F0xx_HAL_Driver/Src/stm32f0xx_hal_i2c.c ****   *                the configuration information for the specified I2C.
3095:Drivers/STM32F0xx_HAL_Driver/Src/stm32f0xx_hal_i2c.c ****   * @param  TransferDirection Master request Transfer Direction (Write/Read), value of @ref I2C_XFE
3096:Drivers/STM32F0xx_HAL_Driver/Src/stm32f0xx_hal_i2c.c ****   * @param  AddrMatchCode Address Match Code
3097:Drivers/STM32F0xx_HAL_Driver/Src/stm32f0xx_hal_i2c.c ****   * @retval None
3098:Drivers/STM32F0xx_HAL_Driver/Src/stm32f0xx_hal_i2c.c ****   */
3099:Drivers/STM32F0xx_HAL_Driver/Src/stm32f0xx_hal_i2c.c **** __weak void HAL_I2C_AddrCallback(I2C_HandleTypeDef *hi2c, uint8_t TransferDirection, uint16_t AddrM
3100:Drivers/STM32F0xx_HAL_Driver/Src/stm32f0xx_hal_i2c.c **** {
 7360              		.loc 1 3100 1
 7361              		.cfi_startproc
 7362              		@ args = 0, pretend = 0, frame = 8
 7363              		@ frame_needed = 1, uses_anonymous_args = 0
 7364 0000 80B5     		push	{r7, lr}
 7365              	.LCFI108:
 7366              		.cfi_def_cfa_offset 8
 7367              		.cfi_offset 7, -8
 7368              		.cfi_offset 14, -4
 7369 0002 82B0     		sub	sp, sp, #8
 7370              	.LCFI109:
 7371              		.cfi_def_cfa_offset 16
 7372 0004 00AF     		add	r7, sp, #0
 7373              	.LCFI110:
 7374              		.cfi_def_cfa_register 7
 7375 0006 7860     		str	r0, [r7, #4]
 7376 0008 0800     		movs	r0, r1
 7377 000a 1100     		movs	r1, r2
 7378 000c FB1C     		adds	r3, r7, #3
 7379 000e 021C     		adds	r2, r0, #0
 7380 0010 1A70     		strb	r2, [r3]
 7381 0012 3B00     		movs	r3, r7
 7382 0014 0A1C     		adds	r2, r1, #0
 7383 0016 1A80     		strh	r2, [r3]
3101:Drivers/STM32F0xx_HAL_Driver/Src/stm32f0xx_hal_i2c.c ****   /* Prevent unused argument(s) compilation warning */
3102:Drivers/STM32F0xx_HAL_Driver/Src/stm32f0xx_hal_i2c.c ****   UNUSED(hi2c);
3103:Drivers/STM32F0xx_HAL_Driver/Src/stm32f0xx_hal_i2c.c ****   UNUSED(TransferDirection);
3104:Drivers/STM32F0xx_HAL_Driver/Src/stm32f0xx_hal_i2c.c ****   UNUSED(AddrMatchCode);
3105:Drivers/STM32F0xx_HAL_Driver/Src/stm32f0xx_hal_i2c.c **** 
3106:Drivers/STM32F0xx_HAL_Driver/Src/stm32f0xx_hal_i2c.c ****   /* NOTE : This function should not be modified, when the callback is needed,
3107:Drivers/STM32F0xx_HAL_Driver/Src/stm32f0xx_hal_i2c.c ****             the HAL_I2C_AddrCallback() could be implemented in the user file
ARM GAS  C:\Users\ADMINI~1\AppData\Local\Temp\cc3zYV2m.s 			page 184


3108:Drivers/STM32F0xx_HAL_Driver/Src/stm32f0xx_hal_i2c.c ****    */
3109:Drivers/STM32F0xx_HAL_Driver/Src/stm32f0xx_hal_i2c.c **** }
 7384              		.loc 1 3109 1
 7385 0018 C046     		nop
 7386 001a BD46     		mov	sp, r7
 7387 001c 02B0     		add	sp, sp, #8
 7388              		@ sp needed
 7389 001e 80BD     		pop	{r7, pc}
 7390              		.cfi_endproc
 7391              	.LFE73:
 7393              		.section	.text.HAL_I2C_ListenCpltCallback,"ax",%progbits
 7394              		.align	1
 7395              		.weak	HAL_I2C_ListenCpltCallback
 7396              		.syntax unified
 7397              		.code	16
 7398              		.thumb_func
 7399              		.fpu softvfp
 7401              	HAL_I2C_ListenCpltCallback:
 7402              	.LFB74:
3110:Drivers/STM32F0xx_HAL_Driver/Src/stm32f0xx_hal_i2c.c **** 
3111:Drivers/STM32F0xx_HAL_Driver/Src/stm32f0xx_hal_i2c.c **** /**
3112:Drivers/STM32F0xx_HAL_Driver/Src/stm32f0xx_hal_i2c.c ****   * @brief  Listen Complete callback.
3113:Drivers/STM32F0xx_HAL_Driver/Src/stm32f0xx_hal_i2c.c ****   * @param  hi2c Pointer to a I2C_HandleTypeDef structure that contains
3114:Drivers/STM32F0xx_HAL_Driver/Src/stm32f0xx_hal_i2c.c ****   *                the configuration information for the specified I2C.
3115:Drivers/STM32F0xx_HAL_Driver/Src/stm32f0xx_hal_i2c.c ****   * @retval None
3116:Drivers/STM32F0xx_HAL_Driver/Src/stm32f0xx_hal_i2c.c ****   */
3117:Drivers/STM32F0xx_HAL_Driver/Src/stm32f0xx_hal_i2c.c **** __weak void HAL_I2C_ListenCpltCallback(I2C_HandleTypeDef *hi2c)
3118:Drivers/STM32F0xx_HAL_Driver/Src/stm32f0xx_hal_i2c.c **** {
 7403              		.loc 1 3118 1
 7404              		.cfi_startproc
 7405              		@ args = 0, pretend = 0, frame = 8
 7406              		@ frame_needed = 1, uses_anonymous_args = 0
 7407 0000 80B5     		push	{r7, lr}
 7408              	.LCFI111:
 7409              		.cfi_def_cfa_offset 8
 7410              		.cfi_offset 7, -8
 7411              		.cfi_offset 14, -4
 7412 0002 82B0     		sub	sp, sp, #8
 7413              	.LCFI112:
 7414              		.cfi_def_cfa_offset 16
 7415 0004 00AF     		add	r7, sp, #0
 7416              	.LCFI113:
 7417              		.cfi_def_cfa_register 7
 7418 0006 7860     		str	r0, [r7, #4]
3119:Drivers/STM32F0xx_HAL_Driver/Src/stm32f0xx_hal_i2c.c ****   /* Prevent unused argument(s) compilation warning */
3120:Drivers/STM32F0xx_HAL_Driver/Src/stm32f0xx_hal_i2c.c ****   UNUSED(hi2c);
3121:Drivers/STM32F0xx_HAL_Driver/Src/stm32f0xx_hal_i2c.c **** 
3122:Drivers/STM32F0xx_HAL_Driver/Src/stm32f0xx_hal_i2c.c ****   /* NOTE : This function should not be modified, when the callback is needed,
3123:Drivers/STM32F0xx_HAL_Driver/Src/stm32f0xx_hal_i2c.c ****             the HAL_I2C_ListenCpltCallback() could be implemented in the user file
3124:Drivers/STM32F0xx_HAL_Driver/Src/stm32f0xx_hal_i2c.c ****    */
3125:Drivers/STM32F0xx_HAL_Driver/Src/stm32f0xx_hal_i2c.c **** }
 7419              		.loc 1 3125 1
 7420 0008 C046     		nop
 7421 000a BD46     		mov	sp, r7
 7422 000c 02B0     		add	sp, sp, #8
 7423              		@ sp needed
 7424 000e 80BD     		pop	{r7, pc}
ARM GAS  C:\Users\ADMINI~1\AppData\Local\Temp\cc3zYV2m.s 			page 185


 7425              		.cfi_endproc
 7426              	.LFE74:
 7428              		.section	.text.HAL_I2C_MemTxCpltCallback,"ax",%progbits
 7429              		.align	1
 7430              		.weak	HAL_I2C_MemTxCpltCallback
 7431              		.syntax unified
 7432              		.code	16
 7433              		.thumb_func
 7434              		.fpu softvfp
 7436              	HAL_I2C_MemTxCpltCallback:
 7437              	.LFB75:
3126:Drivers/STM32F0xx_HAL_Driver/Src/stm32f0xx_hal_i2c.c **** 
3127:Drivers/STM32F0xx_HAL_Driver/Src/stm32f0xx_hal_i2c.c **** /**
3128:Drivers/STM32F0xx_HAL_Driver/Src/stm32f0xx_hal_i2c.c ****   * @brief  Memory Tx Transfer completed callback.
3129:Drivers/STM32F0xx_HAL_Driver/Src/stm32f0xx_hal_i2c.c ****   * @param  hi2c Pointer to a I2C_HandleTypeDef structure that contains
3130:Drivers/STM32F0xx_HAL_Driver/Src/stm32f0xx_hal_i2c.c ****   *                the configuration information for the specified I2C.
3131:Drivers/STM32F0xx_HAL_Driver/Src/stm32f0xx_hal_i2c.c ****   * @retval None
3132:Drivers/STM32F0xx_HAL_Driver/Src/stm32f0xx_hal_i2c.c ****   */
3133:Drivers/STM32F0xx_HAL_Driver/Src/stm32f0xx_hal_i2c.c **** __weak void HAL_I2C_MemTxCpltCallback(I2C_HandleTypeDef *hi2c)
3134:Drivers/STM32F0xx_HAL_Driver/Src/stm32f0xx_hal_i2c.c **** {
 7438              		.loc 1 3134 1
 7439              		.cfi_startproc
 7440              		@ args = 0, pretend = 0, frame = 8
 7441              		@ frame_needed = 1, uses_anonymous_args = 0
 7442 0000 80B5     		push	{r7, lr}
 7443              	.LCFI114:
 7444              		.cfi_def_cfa_offset 8
 7445              		.cfi_offset 7, -8
 7446              		.cfi_offset 14, -4
 7447 0002 82B0     		sub	sp, sp, #8
 7448              	.LCFI115:
 7449              		.cfi_def_cfa_offset 16
 7450 0004 00AF     		add	r7, sp, #0
 7451              	.LCFI116:
 7452              		.cfi_def_cfa_register 7
 7453 0006 7860     		str	r0, [r7, #4]
3135:Drivers/STM32F0xx_HAL_Driver/Src/stm32f0xx_hal_i2c.c ****   /* Prevent unused argument(s) compilation warning */
3136:Drivers/STM32F0xx_HAL_Driver/Src/stm32f0xx_hal_i2c.c ****   UNUSED(hi2c);
3137:Drivers/STM32F0xx_HAL_Driver/Src/stm32f0xx_hal_i2c.c **** 
3138:Drivers/STM32F0xx_HAL_Driver/Src/stm32f0xx_hal_i2c.c ****   /* NOTE : This function should not be modified, when the callback is needed,
3139:Drivers/STM32F0xx_HAL_Driver/Src/stm32f0xx_hal_i2c.c ****             the HAL_I2C_MemTxCpltCallback could be implemented in the user file
3140:Drivers/STM32F0xx_HAL_Driver/Src/stm32f0xx_hal_i2c.c ****    */
3141:Drivers/STM32F0xx_HAL_Driver/Src/stm32f0xx_hal_i2c.c **** }
 7454              		.loc 1 3141 1
 7455 0008 C046     		nop
 7456 000a BD46     		mov	sp, r7
 7457 000c 02B0     		add	sp, sp, #8
 7458              		@ sp needed
 7459 000e 80BD     		pop	{r7, pc}
 7460              		.cfi_endproc
 7461              	.LFE75:
 7463              		.section	.text.HAL_I2C_MemRxCpltCallback,"ax",%progbits
 7464              		.align	1
 7465              		.weak	HAL_I2C_MemRxCpltCallback
 7466              		.syntax unified
 7467              		.code	16
 7468              		.thumb_func
ARM GAS  C:\Users\ADMINI~1\AppData\Local\Temp\cc3zYV2m.s 			page 186


 7469              		.fpu softvfp
 7471              	HAL_I2C_MemRxCpltCallback:
 7472              	.LFB76:
3142:Drivers/STM32F0xx_HAL_Driver/Src/stm32f0xx_hal_i2c.c **** 
3143:Drivers/STM32F0xx_HAL_Driver/Src/stm32f0xx_hal_i2c.c **** /**
3144:Drivers/STM32F0xx_HAL_Driver/Src/stm32f0xx_hal_i2c.c ****   * @brief  Memory Rx Transfer completed callback.
3145:Drivers/STM32F0xx_HAL_Driver/Src/stm32f0xx_hal_i2c.c ****   * @param  hi2c Pointer to a I2C_HandleTypeDef structure that contains
3146:Drivers/STM32F0xx_HAL_Driver/Src/stm32f0xx_hal_i2c.c ****   *                the configuration information for the specified I2C.
3147:Drivers/STM32F0xx_HAL_Driver/Src/stm32f0xx_hal_i2c.c ****   * @retval None
3148:Drivers/STM32F0xx_HAL_Driver/Src/stm32f0xx_hal_i2c.c ****   */
3149:Drivers/STM32F0xx_HAL_Driver/Src/stm32f0xx_hal_i2c.c **** __weak void HAL_I2C_MemRxCpltCallback(I2C_HandleTypeDef *hi2c)
3150:Drivers/STM32F0xx_HAL_Driver/Src/stm32f0xx_hal_i2c.c **** {
 7473              		.loc 1 3150 1
 7474              		.cfi_startproc
 7475              		@ args = 0, pretend = 0, frame = 8
 7476              		@ frame_needed = 1, uses_anonymous_args = 0
 7477 0000 80B5     		push	{r7, lr}
 7478              	.LCFI117:
 7479              		.cfi_def_cfa_offset 8
 7480              		.cfi_offset 7, -8
 7481              		.cfi_offset 14, -4
 7482 0002 82B0     		sub	sp, sp, #8
 7483              	.LCFI118:
 7484              		.cfi_def_cfa_offset 16
 7485 0004 00AF     		add	r7, sp, #0
 7486              	.LCFI119:
 7487              		.cfi_def_cfa_register 7
 7488 0006 7860     		str	r0, [r7, #4]
3151:Drivers/STM32F0xx_HAL_Driver/Src/stm32f0xx_hal_i2c.c ****   /* Prevent unused argument(s) compilation warning */
3152:Drivers/STM32F0xx_HAL_Driver/Src/stm32f0xx_hal_i2c.c ****   UNUSED(hi2c);
3153:Drivers/STM32F0xx_HAL_Driver/Src/stm32f0xx_hal_i2c.c **** 
3154:Drivers/STM32F0xx_HAL_Driver/Src/stm32f0xx_hal_i2c.c ****   /* NOTE : This function should not be modified, when the callback is needed,
3155:Drivers/STM32F0xx_HAL_Driver/Src/stm32f0xx_hal_i2c.c ****             the HAL_I2C_MemRxCpltCallback could be implemented in the user file
3156:Drivers/STM32F0xx_HAL_Driver/Src/stm32f0xx_hal_i2c.c ****    */
3157:Drivers/STM32F0xx_HAL_Driver/Src/stm32f0xx_hal_i2c.c **** }
 7489              		.loc 1 3157 1
 7490 0008 C046     		nop
 7491 000a BD46     		mov	sp, r7
 7492 000c 02B0     		add	sp, sp, #8
 7493              		@ sp needed
 7494 000e 80BD     		pop	{r7, pc}
 7495              		.cfi_endproc
 7496              	.LFE76:
 7498              		.section	.text.HAL_I2C_ErrorCallback,"ax",%progbits
 7499              		.align	1
 7500              		.weak	HAL_I2C_ErrorCallback
 7501              		.syntax unified
 7502              		.code	16
 7503              		.thumb_func
 7504              		.fpu softvfp
 7506              	HAL_I2C_ErrorCallback:
 7507              	.LFB77:
3158:Drivers/STM32F0xx_HAL_Driver/Src/stm32f0xx_hal_i2c.c **** 
3159:Drivers/STM32F0xx_HAL_Driver/Src/stm32f0xx_hal_i2c.c **** /**
3160:Drivers/STM32F0xx_HAL_Driver/Src/stm32f0xx_hal_i2c.c ****   * @brief  I2C error callback.
3161:Drivers/STM32F0xx_HAL_Driver/Src/stm32f0xx_hal_i2c.c ****   * @param  hi2c Pointer to a I2C_HandleTypeDef structure that contains
3162:Drivers/STM32F0xx_HAL_Driver/Src/stm32f0xx_hal_i2c.c ****   *                the configuration information for the specified I2C.
ARM GAS  C:\Users\ADMINI~1\AppData\Local\Temp\cc3zYV2m.s 			page 187


3163:Drivers/STM32F0xx_HAL_Driver/Src/stm32f0xx_hal_i2c.c ****   * @retval None
3164:Drivers/STM32F0xx_HAL_Driver/Src/stm32f0xx_hal_i2c.c ****   */
3165:Drivers/STM32F0xx_HAL_Driver/Src/stm32f0xx_hal_i2c.c **** __weak void HAL_I2C_ErrorCallback(I2C_HandleTypeDef *hi2c)
3166:Drivers/STM32F0xx_HAL_Driver/Src/stm32f0xx_hal_i2c.c **** {
 7508              		.loc 1 3166 1
 7509              		.cfi_startproc
 7510              		@ args = 0, pretend = 0, frame = 8
 7511              		@ frame_needed = 1, uses_anonymous_args = 0
 7512 0000 80B5     		push	{r7, lr}
 7513              	.LCFI120:
 7514              		.cfi_def_cfa_offset 8
 7515              		.cfi_offset 7, -8
 7516              		.cfi_offset 14, -4
 7517 0002 82B0     		sub	sp, sp, #8
 7518              	.LCFI121:
 7519              		.cfi_def_cfa_offset 16
 7520 0004 00AF     		add	r7, sp, #0
 7521              	.LCFI122:
 7522              		.cfi_def_cfa_register 7
 7523 0006 7860     		str	r0, [r7, #4]
3167:Drivers/STM32F0xx_HAL_Driver/Src/stm32f0xx_hal_i2c.c ****   /* Prevent unused argument(s) compilation warning */
3168:Drivers/STM32F0xx_HAL_Driver/Src/stm32f0xx_hal_i2c.c ****   UNUSED(hi2c);
3169:Drivers/STM32F0xx_HAL_Driver/Src/stm32f0xx_hal_i2c.c **** 
3170:Drivers/STM32F0xx_HAL_Driver/Src/stm32f0xx_hal_i2c.c ****   /* NOTE : This function should not be modified, when the callback is needed,
3171:Drivers/STM32F0xx_HAL_Driver/Src/stm32f0xx_hal_i2c.c ****             the HAL_I2C_ErrorCallback could be implemented in the user file
3172:Drivers/STM32F0xx_HAL_Driver/Src/stm32f0xx_hal_i2c.c ****    */
3173:Drivers/STM32F0xx_HAL_Driver/Src/stm32f0xx_hal_i2c.c **** }
 7524              		.loc 1 3173 1
 7525 0008 C046     		nop
 7526 000a BD46     		mov	sp, r7
 7527 000c 02B0     		add	sp, sp, #8
 7528              		@ sp needed
 7529 000e 80BD     		pop	{r7, pc}
 7530              		.cfi_endproc
 7531              	.LFE77:
 7533              		.section	.text.HAL_I2C_AbortCpltCallback,"ax",%progbits
 7534              		.align	1
 7535              		.weak	HAL_I2C_AbortCpltCallback
 7536              		.syntax unified
 7537              		.code	16
 7538              		.thumb_func
 7539              		.fpu softvfp
 7541              	HAL_I2C_AbortCpltCallback:
 7542              	.LFB78:
3174:Drivers/STM32F0xx_HAL_Driver/Src/stm32f0xx_hal_i2c.c **** 
3175:Drivers/STM32F0xx_HAL_Driver/Src/stm32f0xx_hal_i2c.c **** /**
3176:Drivers/STM32F0xx_HAL_Driver/Src/stm32f0xx_hal_i2c.c ****   * @brief  I2C abort callback.
3177:Drivers/STM32F0xx_HAL_Driver/Src/stm32f0xx_hal_i2c.c ****   * @param  hi2c Pointer to a I2C_HandleTypeDef structure that contains
3178:Drivers/STM32F0xx_HAL_Driver/Src/stm32f0xx_hal_i2c.c ****   *                the configuration information for the specified I2C.
3179:Drivers/STM32F0xx_HAL_Driver/Src/stm32f0xx_hal_i2c.c ****   * @retval None
3180:Drivers/STM32F0xx_HAL_Driver/Src/stm32f0xx_hal_i2c.c ****   */
3181:Drivers/STM32F0xx_HAL_Driver/Src/stm32f0xx_hal_i2c.c **** __weak void HAL_I2C_AbortCpltCallback(I2C_HandleTypeDef *hi2c)
3182:Drivers/STM32F0xx_HAL_Driver/Src/stm32f0xx_hal_i2c.c **** {
 7543              		.loc 1 3182 1
 7544              		.cfi_startproc
 7545              		@ args = 0, pretend = 0, frame = 8
 7546              		@ frame_needed = 1, uses_anonymous_args = 0
ARM GAS  C:\Users\ADMINI~1\AppData\Local\Temp\cc3zYV2m.s 			page 188


 7547 0000 80B5     		push	{r7, lr}
 7548              	.LCFI123:
 7549              		.cfi_def_cfa_offset 8
 7550              		.cfi_offset 7, -8
 7551              		.cfi_offset 14, -4
 7552 0002 82B0     		sub	sp, sp, #8
 7553              	.LCFI124:
 7554              		.cfi_def_cfa_offset 16
 7555 0004 00AF     		add	r7, sp, #0
 7556              	.LCFI125:
 7557              		.cfi_def_cfa_register 7
 7558 0006 7860     		str	r0, [r7, #4]
3183:Drivers/STM32F0xx_HAL_Driver/Src/stm32f0xx_hal_i2c.c ****   /* Prevent unused argument(s) compilation warning */
3184:Drivers/STM32F0xx_HAL_Driver/Src/stm32f0xx_hal_i2c.c ****   UNUSED(hi2c);
3185:Drivers/STM32F0xx_HAL_Driver/Src/stm32f0xx_hal_i2c.c **** 
3186:Drivers/STM32F0xx_HAL_Driver/Src/stm32f0xx_hal_i2c.c ****   /* NOTE : This function should not be modified, when the callback is needed,
3187:Drivers/STM32F0xx_HAL_Driver/Src/stm32f0xx_hal_i2c.c ****             the HAL_I2C_AbortCpltCallback could be implemented in the user file
3188:Drivers/STM32F0xx_HAL_Driver/Src/stm32f0xx_hal_i2c.c ****    */
3189:Drivers/STM32F0xx_HAL_Driver/Src/stm32f0xx_hal_i2c.c **** }
 7559              		.loc 1 3189 1
 7560 0008 C046     		nop
 7561 000a BD46     		mov	sp, r7
 7562 000c 02B0     		add	sp, sp, #8
 7563              		@ sp needed
 7564 000e 80BD     		pop	{r7, pc}
 7565              		.cfi_endproc
 7566              	.LFE78:
 7568              		.section	.text.HAL_I2C_GetState,"ax",%progbits
 7569              		.align	1
 7570              		.global	HAL_I2C_GetState
 7571              		.syntax unified
 7572              		.code	16
 7573              		.thumb_func
 7574              		.fpu softvfp
 7576              	HAL_I2C_GetState:
 7577              	.LFB79:
3190:Drivers/STM32F0xx_HAL_Driver/Src/stm32f0xx_hal_i2c.c **** 
3191:Drivers/STM32F0xx_HAL_Driver/Src/stm32f0xx_hal_i2c.c **** /**
3192:Drivers/STM32F0xx_HAL_Driver/Src/stm32f0xx_hal_i2c.c ****   * @}
3193:Drivers/STM32F0xx_HAL_Driver/Src/stm32f0xx_hal_i2c.c ****   */
3194:Drivers/STM32F0xx_HAL_Driver/Src/stm32f0xx_hal_i2c.c **** 
3195:Drivers/STM32F0xx_HAL_Driver/Src/stm32f0xx_hal_i2c.c **** /** @defgroup I2C_Exported_Functions_Group3 Peripheral State, Mode and Error functions
3196:Drivers/STM32F0xx_HAL_Driver/Src/stm32f0xx_hal_i2c.c ****  *  @brief   Peripheral State, Mode and Error functions
3197:Drivers/STM32F0xx_HAL_Driver/Src/stm32f0xx_hal_i2c.c ****  *
3198:Drivers/STM32F0xx_HAL_Driver/Src/stm32f0xx_hal_i2c.c **** @verbatim
3199:Drivers/STM32F0xx_HAL_Driver/Src/stm32f0xx_hal_i2c.c ****  ===============================================================================
3200:Drivers/STM32F0xx_HAL_Driver/Src/stm32f0xx_hal_i2c.c ****             ##### Peripheral State, Mode and Error functions #####
3201:Drivers/STM32F0xx_HAL_Driver/Src/stm32f0xx_hal_i2c.c ****  ===============================================================================
3202:Drivers/STM32F0xx_HAL_Driver/Src/stm32f0xx_hal_i2c.c ****     [..]
3203:Drivers/STM32F0xx_HAL_Driver/Src/stm32f0xx_hal_i2c.c ****     This subsection permit to get in run-time the status of the peripheral
3204:Drivers/STM32F0xx_HAL_Driver/Src/stm32f0xx_hal_i2c.c ****     and the data flow.
3205:Drivers/STM32F0xx_HAL_Driver/Src/stm32f0xx_hal_i2c.c **** 
3206:Drivers/STM32F0xx_HAL_Driver/Src/stm32f0xx_hal_i2c.c **** @endverbatim
3207:Drivers/STM32F0xx_HAL_Driver/Src/stm32f0xx_hal_i2c.c ****   * @{
3208:Drivers/STM32F0xx_HAL_Driver/Src/stm32f0xx_hal_i2c.c ****   */
3209:Drivers/STM32F0xx_HAL_Driver/Src/stm32f0xx_hal_i2c.c **** 
3210:Drivers/STM32F0xx_HAL_Driver/Src/stm32f0xx_hal_i2c.c **** /**
ARM GAS  C:\Users\ADMINI~1\AppData\Local\Temp\cc3zYV2m.s 			page 189


3211:Drivers/STM32F0xx_HAL_Driver/Src/stm32f0xx_hal_i2c.c ****   * @brief  Return the I2C handle state.
3212:Drivers/STM32F0xx_HAL_Driver/Src/stm32f0xx_hal_i2c.c ****   * @param  hi2c Pointer to a I2C_HandleTypeDef structure that contains
3213:Drivers/STM32F0xx_HAL_Driver/Src/stm32f0xx_hal_i2c.c ****   *                the configuration information for the specified I2C.
3214:Drivers/STM32F0xx_HAL_Driver/Src/stm32f0xx_hal_i2c.c ****   * @retval HAL state
3215:Drivers/STM32F0xx_HAL_Driver/Src/stm32f0xx_hal_i2c.c ****   */
3216:Drivers/STM32F0xx_HAL_Driver/Src/stm32f0xx_hal_i2c.c **** HAL_I2C_StateTypeDef HAL_I2C_GetState(I2C_HandleTypeDef *hi2c)
3217:Drivers/STM32F0xx_HAL_Driver/Src/stm32f0xx_hal_i2c.c **** {
 7578              		.loc 1 3217 1
 7579              		.cfi_startproc
 7580              		@ args = 0, pretend = 0, frame = 8
 7581              		@ frame_needed = 1, uses_anonymous_args = 0
 7582 0000 80B5     		push	{r7, lr}
 7583              	.LCFI126:
 7584              		.cfi_def_cfa_offset 8
 7585              		.cfi_offset 7, -8
 7586              		.cfi_offset 14, -4
 7587 0002 82B0     		sub	sp, sp, #8
 7588              	.LCFI127:
 7589              		.cfi_def_cfa_offset 16
 7590 0004 00AF     		add	r7, sp, #0
 7591              	.LCFI128:
 7592              		.cfi_def_cfa_register 7
 7593 0006 7860     		str	r0, [r7, #4]
3218:Drivers/STM32F0xx_HAL_Driver/Src/stm32f0xx_hal_i2c.c ****   /* Return I2C handle state */
3219:Drivers/STM32F0xx_HAL_Driver/Src/stm32f0xx_hal_i2c.c ****   return hi2c->State;
 7594              		.loc 1 3219 14
 7595 0008 7B68     		ldr	r3, [r7, #4]
 7596 000a 4122     		movs	r2, #65
 7597 000c 9B5C     		ldrb	r3, [r3, r2]
 7598 000e DBB2     		uxtb	r3, r3
3220:Drivers/STM32F0xx_HAL_Driver/Src/stm32f0xx_hal_i2c.c **** }
 7599              		.loc 1 3220 1
 7600 0010 1800     		movs	r0, r3
 7601 0012 BD46     		mov	sp, r7
 7602 0014 02B0     		add	sp, sp, #8
 7603              		@ sp needed
 7604 0016 80BD     		pop	{r7, pc}
 7605              		.cfi_endproc
 7606              	.LFE79:
 7608              		.section	.text.HAL_I2C_GetMode,"ax",%progbits
 7609              		.align	1
 7610              		.global	HAL_I2C_GetMode
 7611              		.syntax unified
 7612              		.code	16
 7613              		.thumb_func
 7614              		.fpu softvfp
 7616              	HAL_I2C_GetMode:
 7617              	.LFB80:
3221:Drivers/STM32F0xx_HAL_Driver/Src/stm32f0xx_hal_i2c.c **** 
3222:Drivers/STM32F0xx_HAL_Driver/Src/stm32f0xx_hal_i2c.c **** /**
3223:Drivers/STM32F0xx_HAL_Driver/Src/stm32f0xx_hal_i2c.c ****   * @brief  Returns the I2C Master, Slave, Memory or no mode.
3224:Drivers/STM32F0xx_HAL_Driver/Src/stm32f0xx_hal_i2c.c ****   * @param  hi2c Pointer to a I2C_HandleTypeDef structure that contains
3225:Drivers/STM32F0xx_HAL_Driver/Src/stm32f0xx_hal_i2c.c ****   *         the configuration information for I2C module
3226:Drivers/STM32F0xx_HAL_Driver/Src/stm32f0xx_hal_i2c.c ****   * @retval HAL mode
3227:Drivers/STM32F0xx_HAL_Driver/Src/stm32f0xx_hal_i2c.c ****   */
3228:Drivers/STM32F0xx_HAL_Driver/Src/stm32f0xx_hal_i2c.c **** HAL_I2C_ModeTypeDef HAL_I2C_GetMode(I2C_HandleTypeDef *hi2c)
3229:Drivers/STM32F0xx_HAL_Driver/Src/stm32f0xx_hal_i2c.c **** {
ARM GAS  C:\Users\ADMINI~1\AppData\Local\Temp\cc3zYV2m.s 			page 190


 7618              		.loc 1 3229 1
 7619              		.cfi_startproc
 7620              		@ args = 0, pretend = 0, frame = 8
 7621              		@ frame_needed = 1, uses_anonymous_args = 0
 7622 0000 80B5     		push	{r7, lr}
 7623              	.LCFI129:
 7624              		.cfi_def_cfa_offset 8
 7625              		.cfi_offset 7, -8
 7626              		.cfi_offset 14, -4
 7627 0002 82B0     		sub	sp, sp, #8
 7628              	.LCFI130:
 7629              		.cfi_def_cfa_offset 16
 7630 0004 00AF     		add	r7, sp, #0
 7631              	.LCFI131:
 7632              		.cfi_def_cfa_register 7
 7633 0006 7860     		str	r0, [r7, #4]
3230:Drivers/STM32F0xx_HAL_Driver/Src/stm32f0xx_hal_i2c.c ****   return hi2c->Mode;
 7634              		.loc 1 3230 14
 7635 0008 7B68     		ldr	r3, [r7, #4]
 7636 000a 4222     		movs	r2, #66
 7637 000c 9B5C     		ldrb	r3, [r3, r2]
 7638 000e DBB2     		uxtb	r3, r3
3231:Drivers/STM32F0xx_HAL_Driver/Src/stm32f0xx_hal_i2c.c **** }
 7639              		.loc 1 3231 1
 7640 0010 1800     		movs	r0, r3
 7641 0012 BD46     		mov	sp, r7
 7642 0014 02B0     		add	sp, sp, #8
 7643              		@ sp needed
 7644 0016 80BD     		pop	{r7, pc}
 7645              		.cfi_endproc
 7646              	.LFE80:
 7648              		.section	.text.HAL_I2C_GetError,"ax",%progbits
 7649              		.align	1
 7650              		.global	HAL_I2C_GetError
 7651              		.syntax unified
 7652              		.code	16
 7653              		.thumb_func
 7654              		.fpu softvfp
 7656              	HAL_I2C_GetError:
 7657              	.LFB81:
3232:Drivers/STM32F0xx_HAL_Driver/Src/stm32f0xx_hal_i2c.c **** 
3233:Drivers/STM32F0xx_HAL_Driver/Src/stm32f0xx_hal_i2c.c **** /**
3234:Drivers/STM32F0xx_HAL_Driver/Src/stm32f0xx_hal_i2c.c **** * @brief  Return the I2C error code.
3235:Drivers/STM32F0xx_HAL_Driver/Src/stm32f0xx_hal_i2c.c ****   * @param  hi2c Pointer to a I2C_HandleTypeDef structure that contains
3236:Drivers/STM32F0xx_HAL_Driver/Src/stm32f0xx_hal_i2c.c ****   *              the configuration information for the specified I2C.
3237:Drivers/STM32F0xx_HAL_Driver/Src/stm32f0xx_hal_i2c.c **** * @retval I2C Error Code
3238:Drivers/STM32F0xx_HAL_Driver/Src/stm32f0xx_hal_i2c.c **** */
3239:Drivers/STM32F0xx_HAL_Driver/Src/stm32f0xx_hal_i2c.c **** uint32_t HAL_I2C_GetError(I2C_HandleTypeDef *hi2c)
3240:Drivers/STM32F0xx_HAL_Driver/Src/stm32f0xx_hal_i2c.c **** {
 7658              		.loc 1 3240 1
 7659              		.cfi_startproc
 7660              		@ args = 0, pretend = 0, frame = 8
 7661              		@ frame_needed = 1, uses_anonymous_args = 0
 7662 0000 80B5     		push	{r7, lr}
 7663              	.LCFI132:
 7664              		.cfi_def_cfa_offset 8
 7665              		.cfi_offset 7, -8
ARM GAS  C:\Users\ADMINI~1\AppData\Local\Temp\cc3zYV2m.s 			page 191


 7666              		.cfi_offset 14, -4
 7667 0002 82B0     		sub	sp, sp, #8
 7668              	.LCFI133:
 7669              		.cfi_def_cfa_offset 16
 7670 0004 00AF     		add	r7, sp, #0
 7671              	.LCFI134:
 7672              		.cfi_def_cfa_register 7
 7673 0006 7860     		str	r0, [r7, #4]
3241:Drivers/STM32F0xx_HAL_Driver/Src/stm32f0xx_hal_i2c.c ****   return hi2c->ErrorCode;
 7674              		.loc 1 3241 14
 7675 0008 7B68     		ldr	r3, [r7, #4]
 7676 000a 5B6C     		ldr	r3, [r3, #68]
3242:Drivers/STM32F0xx_HAL_Driver/Src/stm32f0xx_hal_i2c.c **** }
 7677              		.loc 1 3242 1
 7678 000c 1800     		movs	r0, r3
 7679 000e BD46     		mov	sp, r7
 7680 0010 02B0     		add	sp, sp, #8
 7681              		@ sp needed
 7682 0012 80BD     		pop	{r7, pc}
 7683              		.cfi_endproc
 7684              	.LFE81:
 7686              		.section	.text.I2C_Master_ISR_IT,"ax",%progbits
 7687              		.align	1
 7688              		.syntax unified
 7689              		.code	16
 7690              		.thumb_func
 7691              		.fpu softvfp
 7693              	I2C_Master_ISR_IT:
 7694              	.LFB82:
3243:Drivers/STM32F0xx_HAL_Driver/Src/stm32f0xx_hal_i2c.c **** 
3244:Drivers/STM32F0xx_HAL_Driver/Src/stm32f0xx_hal_i2c.c **** /**
3245:Drivers/STM32F0xx_HAL_Driver/Src/stm32f0xx_hal_i2c.c ****   * @}
3246:Drivers/STM32F0xx_HAL_Driver/Src/stm32f0xx_hal_i2c.c ****   */
3247:Drivers/STM32F0xx_HAL_Driver/Src/stm32f0xx_hal_i2c.c **** 
3248:Drivers/STM32F0xx_HAL_Driver/Src/stm32f0xx_hal_i2c.c **** /**
3249:Drivers/STM32F0xx_HAL_Driver/Src/stm32f0xx_hal_i2c.c ****   * @}
3250:Drivers/STM32F0xx_HAL_Driver/Src/stm32f0xx_hal_i2c.c ****   */
3251:Drivers/STM32F0xx_HAL_Driver/Src/stm32f0xx_hal_i2c.c **** 
3252:Drivers/STM32F0xx_HAL_Driver/Src/stm32f0xx_hal_i2c.c **** /** @addtogroup I2C_Private_Functions
3253:Drivers/STM32F0xx_HAL_Driver/Src/stm32f0xx_hal_i2c.c ****   * @{
3254:Drivers/STM32F0xx_HAL_Driver/Src/stm32f0xx_hal_i2c.c ****   */
3255:Drivers/STM32F0xx_HAL_Driver/Src/stm32f0xx_hal_i2c.c **** 
3256:Drivers/STM32F0xx_HAL_Driver/Src/stm32f0xx_hal_i2c.c **** /**
3257:Drivers/STM32F0xx_HAL_Driver/Src/stm32f0xx_hal_i2c.c ****   * @brief  Interrupt Sub-Routine which handle the Interrupt Flags Master Mode with Interrupt.
3258:Drivers/STM32F0xx_HAL_Driver/Src/stm32f0xx_hal_i2c.c ****   * @param  hi2c Pointer to a I2C_HandleTypeDef structure that contains
3259:Drivers/STM32F0xx_HAL_Driver/Src/stm32f0xx_hal_i2c.c ****   *                the configuration information for the specified I2C.
3260:Drivers/STM32F0xx_HAL_Driver/Src/stm32f0xx_hal_i2c.c ****   * @param  ITFlags Interrupt flags to handle.
3261:Drivers/STM32F0xx_HAL_Driver/Src/stm32f0xx_hal_i2c.c ****   * @param  ITSources Interrupt sources enabled.
3262:Drivers/STM32F0xx_HAL_Driver/Src/stm32f0xx_hal_i2c.c ****   * @retval HAL status
3263:Drivers/STM32F0xx_HAL_Driver/Src/stm32f0xx_hal_i2c.c ****   */
3264:Drivers/STM32F0xx_HAL_Driver/Src/stm32f0xx_hal_i2c.c **** static HAL_StatusTypeDef I2C_Master_ISR_IT(struct __I2C_HandleTypeDef *hi2c, uint32_t ITFlags, uint
3265:Drivers/STM32F0xx_HAL_Driver/Src/stm32f0xx_hal_i2c.c **** {
 7695              		.loc 1 3265 1
 7696              		.cfi_startproc
 7697              		@ args = 0, pretend = 0, frame = 24
 7698              		@ frame_needed = 1, uses_anonymous_args = 0
 7699 0000 90B5     		push	{r4, r7, lr}
ARM GAS  C:\Users\ADMINI~1\AppData\Local\Temp\cc3zYV2m.s 			page 192


 7700              	.LCFI135:
 7701              		.cfi_def_cfa_offset 12
 7702              		.cfi_offset 4, -12
 7703              		.cfi_offset 7, -8
 7704              		.cfi_offset 14, -4
 7705 0002 89B0     		sub	sp, sp, #36
 7706              	.LCFI136:
 7707              		.cfi_def_cfa_offset 48
 7708 0004 02AF     		add	r7, sp, #8
 7709              	.LCFI137:
 7710              		.cfi_def_cfa 7, 40
 7711 0006 F860     		str	r0, [r7, #12]
 7712 0008 B960     		str	r1, [r7, #8]
 7713 000a 7A60     		str	r2, [r7, #4]
3266:Drivers/STM32F0xx_HAL_Driver/Src/stm32f0xx_hal_i2c.c ****   uint16_t devaddress = 0U;
 7714              		.loc 1 3266 12
 7715 000c 1623     		movs	r3, #22
 7716 000e FB18     		adds	r3, r7, r3
 7717 0010 0022     		movs	r2, #0
 7718 0012 1A80     		strh	r2, [r3]
3267:Drivers/STM32F0xx_HAL_Driver/Src/stm32f0xx_hal_i2c.c **** 
3268:Drivers/STM32F0xx_HAL_Driver/Src/stm32f0xx_hal_i2c.c ****   /* Process Locked */
3269:Drivers/STM32F0xx_HAL_Driver/Src/stm32f0xx_hal_i2c.c ****   __HAL_LOCK(hi2c);
 7719              		.loc 1 3269 3
 7720 0014 FB68     		ldr	r3, [r7, #12]
 7721 0016 4022     		movs	r2, #64
 7722 0018 9B5C     		ldrb	r3, [r3, r2]
 7723 001a 012B     		cmp	r3, #1
 7724 001c 01D1     		bne	.L342
 7725              		.loc 1 3269 3 is_stmt 0 discriminator 1
 7726 001e 0223     		movs	r3, #2
 7727 0020 0BE1     		b	.L343
 7728              	.L342:
 7729              		.loc 1 3269 3 discriminator 2
 7730 0022 FB68     		ldr	r3, [r7, #12]
 7731 0024 4022     		movs	r2, #64
 7732 0026 0121     		movs	r1, #1
 7733 0028 9954     		strb	r1, [r3, r2]
3270:Drivers/STM32F0xx_HAL_Driver/Src/stm32f0xx_hal_i2c.c **** 
3271:Drivers/STM32F0xx_HAL_Driver/Src/stm32f0xx_hal_i2c.c ****   if (((ITFlags & I2C_FLAG_AF) != RESET) && ((ITSources & I2C_IT_NACKI) != RESET))
 7734              		.loc 1 3271 17 is_stmt 1 discriminator 2
 7735 002a BB68     		ldr	r3, [r7, #8]
 7736 002c 1022     		movs	r2, #16
 7737 002e 1340     		ands	r3, r2
 7738              		.loc 1 3271 6 discriminator 2
 7739 0030 12D0     		beq	.L344
 7740              		.loc 1 3271 57 discriminator 1
 7741 0032 7B68     		ldr	r3, [r7, #4]
 7742 0034 1022     		movs	r2, #16
 7743 0036 1340     		ands	r3, r2
 7744              		.loc 1 3271 42 discriminator 1
 7745 0038 0ED0     		beq	.L344
3272:Drivers/STM32F0xx_HAL_Driver/Src/stm32f0xx_hal_i2c.c ****   {
3273:Drivers/STM32F0xx_HAL_Driver/Src/stm32f0xx_hal_i2c.c ****     /* Clear NACK Flag */
3274:Drivers/STM32F0xx_HAL_Driver/Src/stm32f0xx_hal_i2c.c ****     __HAL_I2C_CLEAR_FLAG(hi2c, I2C_FLAG_AF);
 7746              		.loc 1 3274 5
 7747 003a FB68     		ldr	r3, [r7, #12]
ARM GAS  C:\Users\ADMINI~1\AppData\Local\Temp\cc3zYV2m.s 			page 193


 7748 003c 1B68     		ldr	r3, [r3]
 7749 003e 1022     		movs	r2, #16
 7750 0040 DA61     		str	r2, [r3, #28]
3275:Drivers/STM32F0xx_HAL_Driver/Src/stm32f0xx_hal_i2c.c **** 
3276:Drivers/STM32F0xx_HAL_Driver/Src/stm32f0xx_hal_i2c.c ****     /* Set corresponding Error Code */
3277:Drivers/STM32F0xx_HAL_Driver/Src/stm32f0xx_hal_i2c.c ****     /* No need to generate STOP, it is automatically done */
3278:Drivers/STM32F0xx_HAL_Driver/Src/stm32f0xx_hal_i2c.c ****     /* Error callback will be send during stop flag treatment */
3279:Drivers/STM32F0xx_HAL_Driver/Src/stm32f0xx_hal_i2c.c ****     hi2c->ErrorCode |= HAL_I2C_ERROR_AF;
 7751              		.loc 1 3279 21
 7752 0042 FB68     		ldr	r3, [r7, #12]
 7753 0044 5B6C     		ldr	r3, [r3, #68]
 7754 0046 0422     		movs	r2, #4
 7755 0048 1A43     		orrs	r2, r3
 7756 004a FB68     		ldr	r3, [r7, #12]
 7757 004c 5A64     		str	r2, [r3, #68]
3280:Drivers/STM32F0xx_HAL_Driver/Src/stm32f0xx_hal_i2c.c **** 
3281:Drivers/STM32F0xx_HAL_Driver/Src/stm32f0xx_hal_i2c.c ****     /* Flush TX register */
3282:Drivers/STM32F0xx_HAL_Driver/Src/stm32f0xx_hal_i2c.c ****     I2C_Flush_TXDR(hi2c);
 7758              		.loc 1 3282 5
 7759 004e FB68     		ldr	r3, [r7, #12]
 7760 0050 1800     		movs	r0, r3
 7761 0052 FFF7FEFF 		bl	I2C_Flush_TXDR
 7762 0056 DDE0     		b	.L345
 7763              	.L344:
3283:Drivers/STM32F0xx_HAL_Driver/Src/stm32f0xx_hal_i2c.c ****   }
3284:Drivers/STM32F0xx_HAL_Driver/Src/stm32f0xx_hal_i2c.c ****   else if (((ITFlags & I2C_FLAG_RXNE) != RESET) && ((ITSources & I2C_IT_RXI) != RESET))
 7764              		.loc 1 3284 22
 7765 0058 BB68     		ldr	r3, [r7, #8]
 7766 005a 0422     		movs	r2, #4
 7767 005c 1340     		ands	r3, r2
 7768              		.loc 1 3284 11
 7769 005e 1BD0     		beq	.L346
 7770              		.loc 1 3284 64 discriminator 1
 7771 0060 7B68     		ldr	r3, [r7, #4]
 7772 0062 0422     		movs	r2, #4
 7773 0064 1340     		ands	r3, r2
 7774              		.loc 1 3284 49 discriminator 1
 7775 0066 17D0     		beq	.L346
3285:Drivers/STM32F0xx_HAL_Driver/Src/stm32f0xx_hal_i2c.c ****   {
3286:Drivers/STM32F0xx_HAL_Driver/Src/stm32f0xx_hal_i2c.c ****     /* Read data from RXDR */
3287:Drivers/STM32F0xx_HAL_Driver/Src/stm32f0xx_hal_i2c.c ****     (*hi2c->pBuffPtr++) = hi2c->Instance->RXDR;
 7776              		.loc 1 3287 31
 7777 0068 FB68     		ldr	r3, [r7, #12]
 7778 006a 1B68     		ldr	r3, [r3]
 7779              		.loc 1 3287 41
 7780 006c 586A     		ldr	r0, [r3, #36]
 7781              		.loc 1 3287 11
 7782 006e FB68     		ldr	r3, [r7, #12]
 7783 0070 5B6A     		ldr	r3, [r3, #36]
 7784              		.loc 1 3287 21
 7785 0072 591C     		adds	r1, r3, #1
 7786 0074 FA68     		ldr	r2, [r7, #12]
 7787 0076 5162     		str	r1, [r2, #36]
 7788              		.loc 1 3287 25
 7789 0078 C2B2     		uxtb	r2, r0
 7790 007a 1A70     		strb	r2, [r3]
3288:Drivers/STM32F0xx_HAL_Driver/Src/stm32f0xx_hal_i2c.c ****     hi2c->XferSize--;
ARM GAS  C:\Users\ADMINI~1\AppData\Local\Temp\cc3zYV2m.s 			page 194


 7791              		.loc 1 3288 9
 7792 007c FB68     		ldr	r3, [r7, #12]
 7793 007e 1B8D     		ldrh	r3, [r3, #40]
 7794              		.loc 1 3288 19
 7795 0080 013B     		subs	r3, r3, #1
 7796 0082 9AB2     		uxth	r2, r3
 7797 0084 FB68     		ldr	r3, [r7, #12]
 7798 0086 1A85     		strh	r2, [r3, #40]
3289:Drivers/STM32F0xx_HAL_Driver/Src/stm32f0xx_hal_i2c.c ****     hi2c->XferCount--;
 7799              		.loc 1 3289 9
 7800 0088 FB68     		ldr	r3, [r7, #12]
 7801 008a 5B8D     		ldrh	r3, [r3, #42]
 7802 008c 9BB2     		uxth	r3, r3
 7803              		.loc 1 3289 20
 7804 008e 013B     		subs	r3, r3, #1
 7805 0090 9AB2     		uxth	r2, r3
 7806 0092 FB68     		ldr	r3, [r7, #12]
 7807 0094 5A85     		strh	r2, [r3, #42]
 7808 0096 BDE0     		b	.L345
 7809              	.L346:
3290:Drivers/STM32F0xx_HAL_Driver/Src/stm32f0xx_hal_i2c.c ****   }
3291:Drivers/STM32F0xx_HAL_Driver/Src/stm32f0xx_hal_i2c.c ****   else if (((ITFlags & I2C_FLAG_TXIS) != RESET) && ((ITSources & I2C_IT_TXI) != RESET))
 7810              		.loc 1 3291 22
 7811 0098 BB68     		ldr	r3, [r7, #8]
 7812 009a 0222     		movs	r2, #2
 7813 009c 1340     		ands	r3, r2
 7814              		.loc 1 3291 11
 7815 009e 1AD0     		beq	.L347
 7816              		.loc 1 3291 64 discriminator 1
 7817 00a0 7B68     		ldr	r3, [r7, #4]
 7818 00a2 0222     		movs	r2, #2
 7819 00a4 1340     		ands	r3, r2
 7820              		.loc 1 3291 49 discriminator 1
 7821 00a6 16D0     		beq	.L347
3292:Drivers/STM32F0xx_HAL_Driver/Src/stm32f0xx_hal_i2c.c ****   {
3293:Drivers/STM32F0xx_HAL_Driver/Src/stm32f0xx_hal_i2c.c ****     /* Write data to TXDR */
3294:Drivers/STM32F0xx_HAL_Driver/Src/stm32f0xx_hal_i2c.c ****     hi2c->Instance->TXDR = (*hi2c->pBuffPtr++);
 7822              		.loc 1 3294 34
 7823 00a8 FB68     		ldr	r3, [r7, #12]
 7824 00aa 5B6A     		ldr	r3, [r3, #36]
 7825              		.loc 1 3294 44
 7826 00ac 591C     		adds	r1, r3, #1
 7827 00ae FA68     		ldr	r2, [r7, #12]
 7828 00b0 5162     		str	r1, [r2, #36]
 7829              		.loc 1 3294 29
 7830 00b2 1A78     		ldrb	r2, [r3]
 7831              		.loc 1 3294 9
 7832 00b4 FB68     		ldr	r3, [r7, #12]
 7833 00b6 1B68     		ldr	r3, [r3]
 7834              		.loc 1 3294 26
 7835 00b8 9A62     		str	r2, [r3, #40]
3295:Drivers/STM32F0xx_HAL_Driver/Src/stm32f0xx_hal_i2c.c ****     hi2c->XferSize--;
 7836              		.loc 1 3295 9
 7837 00ba FB68     		ldr	r3, [r7, #12]
 7838 00bc 1B8D     		ldrh	r3, [r3, #40]
 7839              		.loc 1 3295 19
 7840 00be 013B     		subs	r3, r3, #1
ARM GAS  C:\Users\ADMINI~1\AppData\Local\Temp\cc3zYV2m.s 			page 195


 7841 00c0 9AB2     		uxth	r2, r3
 7842 00c2 FB68     		ldr	r3, [r7, #12]
 7843 00c4 1A85     		strh	r2, [r3, #40]
3296:Drivers/STM32F0xx_HAL_Driver/Src/stm32f0xx_hal_i2c.c ****     hi2c->XferCount--;
 7844              		.loc 1 3296 9
 7845 00c6 FB68     		ldr	r3, [r7, #12]
 7846 00c8 5B8D     		ldrh	r3, [r3, #42]
 7847 00ca 9BB2     		uxth	r3, r3
 7848              		.loc 1 3296 20
 7849 00cc 013B     		subs	r3, r3, #1
 7850 00ce 9AB2     		uxth	r2, r3
 7851 00d0 FB68     		ldr	r3, [r7, #12]
 7852 00d2 5A85     		strh	r2, [r3, #42]
 7853 00d4 9EE0     		b	.L345
 7854              	.L347:
3297:Drivers/STM32F0xx_HAL_Driver/Src/stm32f0xx_hal_i2c.c ****   }
3298:Drivers/STM32F0xx_HAL_Driver/Src/stm32f0xx_hal_i2c.c ****   else if (((ITFlags & I2C_FLAG_TCR) != RESET) && ((ITSources & I2C_IT_TCI) != RESET))
 7855              		.loc 1 3298 22
 7856 00d6 BB68     		ldr	r3, [r7, #8]
 7857 00d8 8022     		movs	r2, #128
 7858 00da 1340     		ands	r3, r2
 7859              		.loc 1 3298 11
 7860 00dc 00D1     		bne	.LCB6575
 7861 00de 69E0     		b	.L348	@long jump
 7862              	.LCB6575:
 7863              		.loc 1 3298 63 discriminator 1
 7864 00e0 7B68     		ldr	r3, [r7, #4]
 7865 00e2 4022     		movs	r2, #64
 7866 00e4 1340     		ands	r3, r2
 7867              		.loc 1 3298 48 discriminator 1
 7868 00e6 65D0     		beq	.L348
3299:Drivers/STM32F0xx_HAL_Driver/Src/stm32f0xx_hal_i2c.c ****   {
3300:Drivers/STM32F0xx_HAL_Driver/Src/stm32f0xx_hal_i2c.c ****     if ((hi2c->XferSize == 0U) && (hi2c->XferCount != 0U))
 7869              		.loc 1 3300 14
 7870 00e8 FB68     		ldr	r3, [r7, #12]
 7871 00ea 1B8D     		ldrh	r3, [r3, #40]
 7872              		.loc 1 3300 8
 7873 00ec 002B     		cmp	r3, #0
 7874 00ee 4BD1     		bne	.L349
 7875              		.loc 1 3300 40 discriminator 1
 7876 00f0 FB68     		ldr	r3, [r7, #12]
 7877 00f2 5B8D     		ldrh	r3, [r3, #42]
 7878 00f4 9BB2     		uxth	r3, r3
 7879              		.loc 1 3300 32 discriminator 1
 7880 00f6 002B     		cmp	r3, #0
 7881 00f8 46D0     		beq	.L349
3301:Drivers/STM32F0xx_HAL_Driver/Src/stm32f0xx_hal_i2c.c ****     {
3302:Drivers/STM32F0xx_HAL_Driver/Src/stm32f0xx_hal_i2c.c ****       devaddress = (hi2c->Instance->CR2 & I2C_CR2_SADD);
 7882              		.loc 1 3302 25
 7883 00fa FB68     		ldr	r3, [r7, #12]
 7884 00fc 1B68     		ldr	r3, [r3]
 7885              		.loc 1 3302 35
 7886 00fe 5B68     		ldr	r3, [r3, #4]
 7887              		.loc 1 3302 41
 7888 0100 9AB2     		uxth	r2, r3
 7889              		.loc 1 3302 18
 7890 0102 1621     		movs	r1, #22
ARM GAS  C:\Users\ADMINI~1\AppData\Local\Temp\cc3zYV2m.s 			page 196


 7891 0104 7B18     		adds	r3, r7, r1
 7892 0106 9205     		lsls	r2, r2, #22
 7893 0108 920D     		lsrs	r2, r2, #22
 7894 010a 1A80     		strh	r2, [r3]
3303:Drivers/STM32F0xx_HAL_Driver/Src/stm32f0xx_hal_i2c.c **** 
3304:Drivers/STM32F0xx_HAL_Driver/Src/stm32f0xx_hal_i2c.c ****       if (hi2c->XferCount > MAX_NBYTE_SIZE)
 7895              		.loc 1 3304 15
 7896 010c FB68     		ldr	r3, [r7, #12]
 7897 010e 5B8D     		ldrh	r3, [r3, #42]
 7898 0110 9BB2     		uxth	r3, r3
 7899              		.loc 1 3304 10
 7900 0112 FF2B     		cmp	r3, #255
 7901 0114 10D9     		bls	.L350
3305:Drivers/STM32F0xx_HAL_Driver/Src/stm32f0xx_hal_i2c.c ****       {
3306:Drivers/STM32F0xx_HAL_Driver/Src/stm32f0xx_hal_i2c.c ****         hi2c->XferSize = MAX_NBYTE_SIZE;
 7902              		.loc 1 3306 24
 7903 0116 FB68     		ldr	r3, [r7, #12]
 7904 0118 FF22     		movs	r2, #255
 7905 011a 1A85     		strh	r2, [r3, #40]
3307:Drivers/STM32F0xx_HAL_Driver/Src/stm32f0xx_hal_i2c.c ****         I2C_TransferConfig(hi2c, devaddress, hi2c->XferSize, I2C_RELOAD_MODE, I2C_NO_STARTSTOP);
 7906              		.loc 1 3307 50
 7907 011c FB68     		ldr	r3, [r7, #12]
 7908 011e 1B8D     		ldrh	r3, [r3, #40]
 7909              		.loc 1 3307 9
 7910 0120 DAB2     		uxtb	r2, r3
 7911 0122 8023     		movs	r3, #128
 7912 0124 5C04     		lsls	r4, r3, #17
 7913 0126 7B18     		adds	r3, r7, r1
 7914 0128 1988     		ldrh	r1, [r3]
 7915 012a F868     		ldr	r0, [r7, #12]
 7916 012c 0023     		movs	r3, #0
 7917 012e 0093     		str	r3, [sp]
 7918 0130 2300     		movs	r3, r4
 7919 0132 FFF7FEFF 		bl	I2C_TransferConfig
3304:Drivers/STM32F0xx_HAL_Driver/Src/stm32f0xx_hal_i2c.c ****       {
 7920              		.loc 1 3304 10
 7921 0136 3CE0     		b	.L353
 7922              	.L350:
3308:Drivers/STM32F0xx_HAL_Driver/Src/stm32f0xx_hal_i2c.c ****       }
3309:Drivers/STM32F0xx_HAL_Driver/Src/stm32f0xx_hal_i2c.c ****       else
3310:Drivers/STM32F0xx_HAL_Driver/Src/stm32f0xx_hal_i2c.c ****       {
3311:Drivers/STM32F0xx_HAL_Driver/Src/stm32f0xx_hal_i2c.c ****         hi2c->XferSize = hi2c->XferCount;
 7923              		.loc 1 3311 30
 7924 0138 FB68     		ldr	r3, [r7, #12]
 7925 013a 5B8D     		ldrh	r3, [r3, #42]
 7926 013c 9AB2     		uxth	r2, r3
 7927              		.loc 1 3311 24
 7928 013e FB68     		ldr	r3, [r7, #12]
 7929 0140 1A85     		strh	r2, [r3, #40]
3312:Drivers/STM32F0xx_HAL_Driver/Src/stm32f0xx_hal_i2c.c ****         if (hi2c->XferOptions != I2C_NO_OPTION_FRAME)
 7930              		.loc 1 3312 17
 7931 0142 FB68     		ldr	r3, [r7, #12]
 7932 0144 DB6A     		ldr	r3, [r3, #44]
 7933              		.loc 1 3312 12
 7934 0146 3F4A     		ldr	r2, .L358
 7935 0148 9342     		cmp	r3, r2
 7936 014a 0ED0     		beq	.L352
ARM GAS  C:\Users\ADMINI~1\AppData\Local\Temp\cc3zYV2m.s 			page 197


3313:Drivers/STM32F0xx_HAL_Driver/Src/stm32f0xx_hal_i2c.c ****         {
3314:Drivers/STM32F0xx_HAL_Driver/Src/stm32f0xx_hal_i2c.c ****           I2C_TransferConfig(hi2c, devaddress, hi2c->XferSize, hi2c->XferOptions, I2C_NO_STARTSTOP)
 7937              		.loc 1 3314 52
 7938 014c FB68     		ldr	r3, [r7, #12]
 7939 014e 1B8D     		ldrh	r3, [r3, #40]
 7940              		.loc 1 3314 11
 7941 0150 DAB2     		uxtb	r2, r3
 7942 0152 FB68     		ldr	r3, [r7, #12]
 7943 0154 DC6A     		ldr	r4, [r3, #44]
 7944 0156 1623     		movs	r3, #22
 7945 0158 FB18     		adds	r3, r7, r3
 7946 015a 1988     		ldrh	r1, [r3]
 7947 015c F868     		ldr	r0, [r7, #12]
 7948 015e 0023     		movs	r3, #0
 7949 0160 0093     		str	r3, [sp]
 7950 0162 2300     		movs	r3, r4
 7951 0164 FFF7FEFF 		bl	I2C_TransferConfig
3304:Drivers/STM32F0xx_HAL_Driver/Src/stm32f0xx_hal_i2c.c ****       {
 7952              		.loc 1 3304 10
 7953 0168 23E0     		b	.L353
 7954              	.L352:
3315:Drivers/STM32F0xx_HAL_Driver/Src/stm32f0xx_hal_i2c.c ****         }
3316:Drivers/STM32F0xx_HAL_Driver/Src/stm32f0xx_hal_i2c.c ****         else
3317:Drivers/STM32F0xx_HAL_Driver/Src/stm32f0xx_hal_i2c.c ****         {
3318:Drivers/STM32F0xx_HAL_Driver/Src/stm32f0xx_hal_i2c.c ****           I2C_TransferConfig(hi2c, devaddress, hi2c->XferSize, I2C_AUTOEND_MODE, I2C_NO_STARTSTOP);
 7955              		.loc 1 3318 52
 7956 016a FB68     		ldr	r3, [r7, #12]
 7957 016c 1B8D     		ldrh	r3, [r3, #40]
 7958              		.loc 1 3318 11
 7959 016e DAB2     		uxtb	r2, r3
 7960 0170 8023     		movs	r3, #128
 7961 0172 9C04     		lsls	r4, r3, #18
 7962 0174 1623     		movs	r3, #22
 7963 0176 FB18     		adds	r3, r7, r3
 7964 0178 1988     		ldrh	r1, [r3]
 7965 017a F868     		ldr	r0, [r7, #12]
 7966 017c 0023     		movs	r3, #0
 7967 017e 0093     		str	r3, [sp]
 7968 0180 2300     		movs	r3, r4
 7969 0182 FFF7FEFF 		bl	I2C_TransferConfig
3304:Drivers/STM32F0xx_HAL_Driver/Src/stm32f0xx_hal_i2c.c ****       {
 7970              		.loc 1 3304 10
 7971 0186 14E0     		b	.L353
 7972              	.L349:
3319:Drivers/STM32F0xx_HAL_Driver/Src/stm32f0xx_hal_i2c.c ****         }
3320:Drivers/STM32F0xx_HAL_Driver/Src/stm32f0xx_hal_i2c.c ****       }
3321:Drivers/STM32F0xx_HAL_Driver/Src/stm32f0xx_hal_i2c.c ****     }
3322:Drivers/STM32F0xx_HAL_Driver/Src/stm32f0xx_hal_i2c.c ****     else
3323:Drivers/STM32F0xx_HAL_Driver/Src/stm32f0xx_hal_i2c.c ****     {
3324:Drivers/STM32F0xx_HAL_Driver/Src/stm32f0xx_hal_i2c.c ****       /* Call TxCpltCallback() if no stop mode is set */
3325:Drivers/STM32F0xx_HAL_Driver/Src/stm32f0xx_hal_i2c.c ****       if (I2C_GET_STOP_MODE(hi2c) != I2C_AUTOEND_MODE)
 7973              		.loc 1 3325 11
 7974 0188 FB68     		ldr	r3, [r7, #12]
 7975 018a 1B68     		ldr	r3, [r3]
 7976 018c 5A68     		ldr	r2, [r3, #4]
 7977 018e 8023     		movs	r3, #128
 7978 0190 9B04     		lsls	r3, r3, #18
ARM GAS  C:\Users\ADMINI~1\AppData\Local\Temp\cc3zYV2m.s 			page 198


 7979 0192 1A40     		ands	r2, r3
 7980              		.loc 1 3325 10
 7981 0194 8023     		movs	r3, #128
 7982 0196 9B04     		lsls	r3, r3, #18
 7983 0198 9A42     		cmp	r2, r3
 7984 019a 04D0     		beq	.L354
3326:Drivers/STM32F0xx_HAL_Driver/Src/stm32f0xx_hal_i2c.c ****       {
3327:Drivers/STM32F0xx_HAL_Driver/Src/stm32f0xx_hal_i2c.c ****         /* Call I2C Master Sequential complete process */
3328:Drivers/STM32F0xx_HAL_Driver/Src/stm32f0xx_hal_i2c.c ****         I2C_ITMasterSequentialCplt(hi2c);
 7985              		.loc 1 3328 9
 7986 019c FB68     		ldr	r3, [r7, #12]
 7987 019e 1800     		movs	r0, r3
 7988 01a0 FFF7FEFF 		bl	I2C_ITMasterSequentialCplt
3300:Drivers/STM32F0xx_HAL_Driver/Src/stm32f0xx_hal_i2c.c ****     {
 7989              		.loc 1 3300 8
 7990 01a4 36E0     		b	.L345
 7991              	.L354:
3329:Drivers/STM32F0xx_HAL_Driver/Src/stm32f0xx_hal_i2c.c ****       }
3330:Drivers/STM32F0xx_HAL_Driver/Src/stm32f0xx_hal_i2c.c ****       else
3331:Drivers/STM32F0xx_HAL_Driver/Src/stm32f0xx_hal_i2c.c ****       {
3332:Drivers/STM32F0xx_HAL_Driver/Src/stm32f0xx_hal_i2c.c ****         /* Wrong size Status regarding TCR flag event */
3333:Drivers/STM32F0xx_HAL_Driver/Src/stm32f0xx_hal_i2c.c ****         /* Call the corresponding callback to inform upper layer of End of Transfer */
3334:Drivers/STM32F0xx_HAL_Driver/Src/stm32f0xx_hal_i2c.c ****         I2C_ITError(hi2c, HAL_I2C_ERROR_SIZE);
 7992              		.loc 1 3334 9
 7993 01a6 FB68     		ldr	r3, [r7, #12]
 7994 01a8 4021     		movs	r1, #64
 7995 01aa 1800     		movs	r0, r3
 7996 01ac FFF7FEFF 		bl	I2C_ITError
3300:Drivers/STM32F0xx_HAL_Driver/Src/stm32f0xx_hal_i2c.c ****     {
 7997              		.loc 1 3300 8
 7998 01b0 30E0     		b	.L345
 7999              	.L353:
3300:Drivers/STM32F0xx_HAL_Driver/Src/stm32f0xx_hal_i2c.c ****     {
 8000              		.loc 1 3300 8 is_stmt 0 discriminator 1
 8001 01b2 2FE0     		b	.L345
 8002              	.L348:
3335:Drivers/STM32F0xx_HAL_Driver/Src/stm32f0xx_hal_i2c.c ****       }
3336:Drivers/STM32F0xx_HAL_Driver/Src/stm32f0xx_hal_i2c.c ****     }
3337:Drivers/STM32F0xx_HAL_Driver/Src/stm32f0xx_hal_i2c.c ****   }
3338:Drivers/STM32F0xx_HAL_Driver/Src/stm32f0xx_hal_i2c.c ****   else if (((ITFlags & I2C_FLAG_TC) != RESET) && ((ITSources & I2C_IT_TCI) != RESET))
 8003              		.loc 1 3338 22 is_stmt 1
 8004 01b4 BB68     		ldr	r3, [r7, #8]
 8005 01b6 4022     		movs	r2, #64
 8006 01b8 1340     		ands	r3, r2
 8007              		.loc 1 3338 11
 8008 01ba 2BD0     		beq	.L345
 8009              		.loc 1 3338 62 discriminator 1
 8010 01bc 7B68     		ldr	r3, [r7, #4]
 8011 01be 4022     		movs	r2, #64
 8012 01c0 1340     		ands	r3, r2
 8013              		.loc 1 3338 47 discriminator 1
 8014 01c2 27D0     		beq	.L345
3339:Drivers/STM32F0xx_HAL_Driver/Src/stm32f0xx_hal_i2c.c ****   {
3340:Drivers/STM32F0xx_HAL_Driver/Src/stm32f0xx_hal_i2c.c ****     if (hi2c->XferCount == 0U)
 8015              		.loc 1 3340 13
 8016 01c4 FB68     		ldr	r3, [r7, #12]
 8017 01c6 5B8D     		ldrh	r3, [r3, #42]
ARM GAS  C:\Users\ADMINI~1\AppData\Local\Temp\cc3zYV2m.s 			page 199


 8018 01c8 9BB2     		uxth	r3, r3
 8019              		.loc 1 3340 8
 8020 01ca 002B     		cmp	r3, #0
 8021 01cc 1DD1     		bne	.L355
3341:Drivers/STM32F0xx_HAL_Driver/Src/stm32f0xx_hal_i2c.c ****     {
3342:Drivers/STM32F0xx_HAL_Driver/Src/stm32f0xx_hal_i2c.c ****       if (I2C_GET_STOP_MODE(hi2c) != I2C_AUTOEND_MODE)
 8022              		.loc 1 3342 11
 8023 01ce FB68     		ldr	r3, [r7, #12]
 8024 01d0 1B68     		ldr	r3, [r3]
 8025 01d2 5A68     		ldr	r2, [r3, #4]
 8026 01d4 8023     		movs	r3, #128
 8027 01d6 9B04     		lsls	r3, r3, #18
 8028 01d8 1A40     		ands	r2, r3
 8029              		.loc 1 3342 10
 8030 01da 8023     		movs	r3, #128
 8031 01dc 9B04     		lsls	r3, r3, #18
 8032 01de 9A42     		cmp	r2, r3
 8033 01e0 18D0     		beq	.L345
3343:Drivers/STM32F0xx_HAL_Driver/Src/stm32f0xx_hal_i2c.c ****       {
3344:Drivers/STM32F0xx_HAL_Driver/Src/stm32f0xx_hal_i2c.c ****         /* Generate a stop condition in case of no transfer option */
3345:Drivers/STM32F0xx_HAL_Driver/Src/stm32f0xx_hal_i2c.c ****         if (hi2c->XferOptions == I2C_NO_OPTION_FRAME)
 8034              		.loc 1 3345 17
 8035 01e2 FB68     		ldr	r3, [r7, #12]
 8036 01e4 DB6A     		ldr	r3, [r3, #44]
 8037              		.loc 1 3345 12
 8038 01e6 174A     		ldr	r2, .L358
 8039 01e8 9342     		cmp	r3, r2
 8040 01ea 09D1     		bne	.L356
3346:Drivers/STM32F0xx_HAL_Driver/Src/stm32f0xx_hal_i2c.c ****         {
3347:Drivers/STM32F0xx_HAL_Driver/Src/stm32f0xx_hal_i2c.c ****           /* Generate Stop */
3348:Drivers/STM32F0xx_HAL_Driver/Src/stm32f0xx_hal_i2c.c ****           hi2c->Instance->CR2 |= I2C_CR2_STOP;
 8041              		.loc 1 3348 15
 8042 01ec FB68     		ldr	r3, [r7, #12]
 8043 01ee 1B68     		ldr	r3, [r3]
 8044              		.loc 1 3348 31
 8045 01f0 5A68     		ldr	r2, [r3, #4]
 8046              		.loc 1 3348 15
 8047 01f2 FB68     		ldr	r3, [r7, #12]
 8048 01f4 1B68     		ldr	r3, [r3]
 8049              		.loc 1 3348 31
 8050 01f6 8021     		movs	r1, #128
 8051 01f8 C901     		lsls	r1, r1, #7
 8052 01fa 0A43     		orrs	r2, r1
 8053 01fc 5A60     		str	r2, [r3, #4]
 8054 01fe 09E0     		b	.L345
 8055              	.L356:
3349:Drivers/STM32F0xx_HAL_Driver/Src/stm32f0xx_hal_i2c.c ****         }
3350:Drivers/STM32F0xx_HAL_Driver/Src/stm32f0xx_hal_i2c.c ****         else
3351:Drivers/STM32F0xx_HAL_Driver/Src/stm32f0xx_hal_i2c.c ****         {
3352:Drivers/STM32F0xx_HAL_Driver/Src/stm32f0xx_hal_i2c.c ****           /* Call I2C Master Sequential complete process */
3353:Drivers/STM32F0xx_HAL_Driver/Src/stm32f0xx_hal_i2c.c ****           I2C_ITMasterSequentialCplt(hi2c);
 8056              		.loc 1 3353 11
 8057 0200 FB68     		ldr	r3, [r7, #12]
 8058 0202 1800     		movs	r0, r3
 8059 0204 FFF7FEFF 		bl	I2C_ITMasterSequentialCplt
 8060 0208 04E0     		b	.L345
 8061              	.L355:
ARM GAS  C:\Users\ADMINI~1\AppData\Local\Temp\cc3zYV2m.s 			page 200


3354:Drivers/STM32F0xx_HAL_Driver/Src/stm32f0xx_hal_i2c.c ****         }
3355:Drivers/STM32F0xx_HAL_Driver/Src/stm32f0xx_hal_i2c.c ****       }
3356:Drivers/STM32F0xx_HAL_Driver/Src/stm32f0xx_hal_i2c.c ****     }
3357:Drivers/STM32F0xx_HAL_Driver/Src/stm32f0xx_hal_i2c.c ****     else
3358:Drivers/STM32F0xx_HAL_Driver/Src/stm32f0xx_hal_i2c.c ****     {
3359:Drivers/STM32F0xx_HAL_Driver/Src/stm32f0xx_hal_i2c.c ****       /* Wrong size Status regarding TC flag event */
3360:Drivers/STM32F0xx_HAL_Driver/Src/stm32f0xx_hal_i2c.c ****       /* Call the corresponding callback to inform upper layer of End of Transfer */
3361:Drivers/STM32F0xx_HAL_Driver/Src/stm32f0xx_hal_i2c.c ****       I2C_ITError(hi2c, HAL_I2C_ERROR_SIZE);
 8062              		.loc 1 3361 7
 8063 020a FB68     		ldr	r3, [r7, #12]
 8064 020c 4021     		movs	r1, #64
 8065 020e 1800     		movs	r0, r3
 8066 0210 FFF7FEFF 		bl	I2C_ITError
 8067              	.L345:
3362:Drivers/STM32F0xx_HAL_Driver/Src/stm32f0xx_hal_i2c.c ****     }
3363:Drivers/STM32F0xx_HAL_Driver/Src/stm32f0xx_hal_i2c.c ****   }
3364:Drivers/STM32F0xx_HAL_Driver/Src/stm32f0xx_hal_i2c.c **** 
3365:Drivers/STM32F0xx_HAL_Driver/Src/stm32f0xx_hal_i2c.c ****   if (((ITFlags & I2C_FLAG_STOPF) != RESET) && ((ITSources & I2C_IT_STOPI) != RESET))
 8068              		.loc 1 3365 17
 8069 0214 BB68     		ldr	r3, [r7, #8]
 8070 0216 2022     		movs	r2, #32
 8071 0218 1340     		ands	r3, r2
 8072              		.loc 1 3365 6
 8073 021a 09D0     		beq	.L357
 8074              		.loc 1 3365 60 discriminator 1
 8075 021c 7B68     		ldr	r3, [r7, #4]
 8076 021e 2022     		movs	r2, #32
 8077 0220 1340     		ands	r3, r2
 8078              		.loc 1 3365 45 discriminator 1
 8079 0222 05D0     		beq	.L357
3366:Drivers/STM32F0xx_HAL_Driver/Src/stm32f0xx_hal_i2c.c ****   {
3367:Drivers/STM32F0xx_HAL_Driver/Src/stm32f0xx_hal_i2c.c ****     /* Call I2C Master complete process */
3368:Drivers/STM32F0xx_HAL_Driver/Src/stm32f0xx_hal_i2c.c ****     I2C_ITMasterCplt(hi2c, ITFlags);
 8080              		.loc 1 3368 5
 8081 0224 BA68     		ldr	r2, [r7, #8]
 8082 0226 FB68     		ldr	r3, [r7, #12]
 8083 0228 1100     		movs	r1, r2
 8084 022a 1800     		movs	r0, r3
 8085 022c FFF7FEFF 		bl	I2C_ITMasterCplt
 8086              	.L357:
3369:Drivers/STM32F0xx_HAL_Driver/Src/stm32f0xx_hal_i2c.c ****   }
3370:Drivers/STM32F0xx_HAL_Driver/Src/stm32f0xx_hal_i2c.c **** 
3371:Drivers/STM32F0xx_HAL_Driver/Src/stm32f0xx_hal_i2c.c ****   /* Process Unlocked */
3372:Drivers/STM32F0xx_HAL_Driver/Src/stm32f0xx_hal_i2c.c ****   __HAL_UNLOCK(hi2c);
 8087              		.loc 1 3372 3
 8088 0230 FB68     		ldr	r3, [r7, #12]
 8089 0232 4022     		movs	r2, #64
 8090 0234 0021     		movs	r1, #0
 8091 0236 9954     		strb	r1, [r3, r2]
3373:Drivers/STM32F0xx_HAL_Driver/Src/stm32f0xx_hal_i2c.c **** 
3374:Drivers/STM32F0xx_HAL_Driver/Src/stm32f0xx_hal_i2c.c ****   return HAL_OK;
 8092              		.loc 1 3374 10
 8093 0238 0023     		movs	r3, #0
 8094              	.L343:
3375:Drivers/STM32F0xx_HAL_Driver/Src/stm32f0xx_hal_i2c.c **** }
 8095              		.loc 1 3375 1
 8096 023a 1800     		movs	r0, r3
ARM GAS  C:\Users\ADMINI~1\AppData\Local\Temp\cc3zYV2m.s 			page 201


 8097 023c BD46     		mov	sp, r7
 8098 023e 07B0     		add	sp, sp, #28
 8099              		@ sp needed
 8100 0240 90BD     		pop	{r4, r7, pc}
 8101              	.L359:
 8102 0242 C046     		.align	2
 8103              	.L358:
 8104 0244 0000FFFF 		.word	-65536
 8105              		.cfi_endproc
 8106              	.LFE82:
 8108              		.section	.text.I2C_Slave_ISR_IT,"ax",%progbits
 8109              		.align	1
 8110              		.syntax unified
 8111              		.code	16
 8112              		.thumb_func
 8113              		.fpu softvfp
 8115              	I2C_Slave_ISR_IT:
 8116              	.LFB83:
3376:Drivers/STM32F0xx_HAL_Driver/Src/stm32f0xx_hal_i2c.c **** 
3377:Drivers/STM32F0xx_HAL_Driver/Src/stm32f0xx_hal_i2c.c **** /**
3378:Drivers/STM32F0xx_HAL_Driver/Src/stm32f0xx_hal_i2c.c ****   * @brief  Interrupt Sub-Routine which handle the Interrupt Flags Slave Mode with Interrupt.
3379:Drivers/STM32F0xx_HAL_Driver/Src/stm32f0xx_hal_i2c.c ****   * @param  hi2c Pointer to a I2C_HandleTypeDef structure that contains
3380:Drivers/STM32F0xx_HAL_Driver/Src/stm32f0xx_hal_i2c.c ****   *                the configuration information for the specified I2C.
3381:Drivers/STM32F0xx_HAL_Driver/Src/stm32f0xx_hal_i2c.c ****   * @param  ITFlags Interrupt flags to handle.
3382:Drivers/STM32F0xx_HAL_Driver/Src/stm32f0xx_hal_i2c.c ****   * @param  ITSources Interrupt sources enabled.
3383:Drivers/STM32F0xx_HAL_Driver/Src/stm32f0xx_hal_i2c.c ****   * @retval HAL status
3384:Drivers/STM32F0xx_HAL_Driver/Src/stm32f0xx_hal_i2c.c ****   */
3385:Drivers/STM32F0xx_HAL_Driver/Src/stm32f0xx_hal_i2c.c **** static HAL_StatusTypeDef I2C_Slave_ISR_IT(struct __I2C_HandleTypeDef *hi2c, uint32_t ITFlags, uint3
3386:Drivers/STM32F0xx_HAL_Driver/Src/stm32f0xx_hal_i2c.c **** {
 8117              		.loc 1 3386 1
 8118              		.cfi_startproc
 8119              		@ args = 0, pretend = 0, frame = 16
 8120              		@ frame_needed = 1, uses_anonymous_args = 0
 8121 0000 80B5     		push	{r7, lr}
 8122              	.LCFI138:
 8123              		.cfi_def_cfa_offset 8
 8124              		.cfi_offset 7, -8
 8125              		.cfi_offset 14, -4
 8126 0002 84B0     		sub	sp, sp, #16
 8127              	.LCFI139:
 8128              		.cfi_def_cfa_offset 24
 8129 0004 00AF     		add	r7, sp, #0
 8130              	.LCFI140:
 8131              		.cfi_def_cfa_register 7
 8132 0006 F860     		str	r0, [r7, #12]
 8133 0008 B960     		str	r1, [r7, #8]
 8134 000a 7A60     		str	r2, [r7, #4]
3387:Drivers/STM32F0xx_HAL_Driver/Src/stm32f0xx_hal_i2c.c ****   /* Process locked */
3388:Drivers/STM32F0xx_HAL_Driver/Src/stm32f0xx_hal_i2c.c ****   __HAL_LOCK(hi2c);
 8135              		.loc 1 3388 3
 8136 000c FB68     		ldr	r3, [r7, #12]
 8137 000e 4022     		movs	r2, #64
 8138 0010 9B5C     		ldrb	r3, [r3, r2]
 8139 0012 012B     		cmp	r3, #1
 8140 0014 01D1     		bne	.L361
 8141              		.loc 1 3388 3 is_stmt 0 discriminator 1
 8142 0016 0223     		movs	r3, #2
ARM GAS  C:\Users\ADMINI~1\AppData\Local\Temp\cc3zYV2m.s 			page 202


 8143 0018 DBE0     		b	.L362
 8144              	.L361:
 8145              		.loc 1 3388 3 discriminator 2
 8146 001a FB68     		ldr	r3, [r7, #12]
 8147 001c 4022     		movs	r2, #64
 8148 001e 0121     		movs	r1, #1
 8149 0020 9954     		strb	r1, [r3, r2]
3389:Drivers/STM32F0xx_HAL_Driver/Src/stm32f0xx_hal_i2c.c **** 
3390:Drivers/STM32F0xx_HAL_Driver/Src/stm32f0xx_hal_i2c.c ****   if (((ITFlags & I2C_FLAG_AF) != RESET) && ((ITSources & I2C_IT_NACKI) != RESET))
 8150              		.loc 1 3390 17 is_stmt 1 discriminator 2
 8151 0022 BB68     		ldr	r3, [r7, #8]
 8152 0024 1022     		movs	r2, #16
 8153 0026 1340     		ands	r3, r2
 8154              		.loc 1 3390 6 discriminator 2
 8155 0028 4AD0     		beq	.L363
 8156              		.loc 1 3390 57 discriminator 1
 8157 002a 7B68     		ldr	r3, [r7, #4]
 8158 002c 1022     		movs	r2, #16
 8159 002e 1340     		ands	r3, r2
 8160              		.loc 1 3390 42 discriminator 1
 8161 0030 46D0     		beq	.L363
3391:Drivers/STM32F0xx_HAL_Driver/Src/stm32f0xx_hal_i2c.c ****   {
3392:Drivers/STM32F0xx_HAL_Driver/Src/stm32f0xx_hal_i2c.c ****     /* Check that I2C transfer finished */
3393:Drivers/STM32F0xx_HAL_Driver/Src/stm32f0xx_hal_i2c.c ****     /* if yes, normal use case, a NACK is sent by the MASTER when Transfer is finished */
3394:Drivers/STM32F0xx_HAL_Driver/Src/stm32f0xx_hal_i2c.c ****     /* Mean XferCount == 0*/
3395:Drivers/STM32F0xx_HAL_Driver/Src/stm32f0xx_hal_i2c.c ****     /* So clear Flag NACKF only */
3396:Drivers/STM32F0xx_HAL_Driver/Src/stm32f0xx_hal_i2c.c ****     if (hi2c->XferCount == 0U)
 8162              		.loc 1 3396 13
 8163 0032 FB68     		ldr	r3, [r7, #12]
 8164 0034 5B8D     		ldrh	r3, [r3, #42]
 8165 0036 9BB2     		uxth	r3, r3
 8166              		.loc 1 3396 8
 8167 0038 002B     		cmp	r3, #0
 8168 003a 35D1     		bne	.L364
3397:Drivers/STM32F0xx_HAL_Driver/Src/stm32f0xx_hal_i2c.c ****     {
3398:Drivers/STM32F0xx_HAL_Driver/Src/stm32f0xx_hal_i2c.c ****       if (((hi2c->XferOptions == I2C_FIRST_AND_LAST_FRAME) || (hi2c->XferOptions == I2C_LAST_FRAME)
 8169              		.loc 1 3398 17
 8170 003c FB68     		ldr	r3, [r7, #12]
 8171 003e DA6A     		ldr	r2, [r3, #44]
 8172              		.loc 1 3398 10
 8173 0040 8023     		movs	r3, #128
 8174 0042 9B04     		lsls	r3, r3, #18
 8175 0044 9A42     		cmp	r2, r3
 8176 0046 05D0     		beq	.L365
 8177              		.loc 1 3398 68 discriminator 2
 8178 0048 FB68     		ldr	r3, [r7, #12]
 8179 004a DA6A     		ldr	r2, [r3, #44]
 8180              		.loc 1 3398 60 discriminator 2
 8181 004c 8023     		movs	r3, #128
 8182 004e 9B04     		lsls	r3, r3, #18
 8183 0050 9A42     		cmp	r2, r3
 8184 0052 0CD1     		bne	.L366
 8185              	.L365:
3399:Drivers/STM32F0xx_HAL_Driver/Src/stm32f0xx_hal_i2c.c ****           (hi2c->State == HAL_I2C_STATE_LISTEN))
 8186              		.loc 1 3399 16 discriminator 3
 8187 0054 FB68     		ldr	r3, [r7, #12]
 8188 0056 4122     		movs	r2, #65
ARM GAS  C:\Users\ADMINI~1\AppData\Local\Temp\cc3zYV2m.s 			page 203


 8189 0058 9B5C     		ldrb	r3, [r3, r2]
 8190 005a DBB2     		uxtb	r3, r3
3398:Drivers/STM32F0xx_HAL_Driver/Src/stm32f0xx_hal_i2c.c ****           (hi2c->State == HAL_I2C_STATE_LISTEN))
 8191              		.loc 1 3398 102 discriminator 3
 8192 005c 282B     		cmp	r3, #40
 8193 005e 06D1     		bne	.L366
3400:Drivers/STM32F0xx_HAL_Driver/Src/stm32f0xx_hal_i2c.c ****       {
3401:Drivers/STM32F0xx_HAL_Driver/Src/stm32f0xx_hal_i2c.c ****         /* Call I2C Listen complete process */
3402:Drivers/STM32F0xx_HAL_Driver/Src/stm32f0xx_hal_i2c.c ****         I2C_ITListenCplt(hi2c, ITFlags);
 8194              		.loc 1 3402 9
 8195 0060 BA68     		ldr	r2, [r7, #8]
 8196 0062 FB68     		ldr	r3, [r7, #12]
 8197 0064 1100     		movs	r1, r2
 8198 0066 1800     		movs	r0, r3
 8199 0068 FFF7FEFF 		bl	I2C_ITListenCplt
 8200 006c 27E0     		b	.L369
 8201              	.L366:
3403:Drivers/STM32F0xx_HAL_Driver/Src/stm32f0xx_hal_i2c.c ****       }
3404:Drivers/STM32F0xx_HAL_Driver/Src/stm32f0xx_hal_i2c.c ****       else if ((hi2c->XferOptions != I2C_NO_OPTION_FRAME) && (hi2c->State == HAL_I2C_STATE_BUSY_TX_
 8202              		.loc 1 3404 21
 8203 006e FB68     		ldr	r3, [r7, #12]
 8204 0070 DB6A     		ldr	r3, [r3, #44]
 8205              		.loc 1 3404 15
 8206 0072 5A4A     		ldr	r2, .L379
 8207 0074 9342     		cmp	r3, r2
 8208 0076 12D0     		beq	.L368
 8209              		.loc 1 3404 67 discriminator 1
 8210 0078 FB68     		ldr	r3, [r7, #12]
 8211 007a 4122     		movs	r2, #65
 8212 007c 9B5C     		ldrb	r3, [r3, r2]
 8213 007e DBB2     		uxtb	r3, r3
 8214              		.loc 1 3404 59 discriminator 1
 8215 0080 292B     		cmp	r3, #41
 8216 0082 0CD1     		bne	.L368
3405:Drivers/STM32F0xx_HAL_Driver/Src/stm32f0xx_hal_i2c.c ****       {
3406:Drivers/STM32F0xx_HAL_Driver/Src/stm32f0xx_hal_i2c.c ****         /* Clear NACK Flag */
3407:Drivers/STM32F0xx_HAL_Driver/Src/stm32f0xx_hal_i2c.c ****         __HAL_I2C_CLEAR_FLAG(hi2c, I2C_FLAG_AF);
 8217              		.loc 1 3407 9
 8218 0084 FB68     		ldr	r3, [r7, #12]
 8219 0086 1B68     		ldr	r3, [r3]
 8220 0088 1022     		movs	r2, #16
 8221 008a DA61     		str	r2, [r3, #28]
3408:Drivers/STM32F0xx_HAL_Driver/Src/stm32f0xx_hal_i2c.c **** 
3409:Drivers/STM32F0xx_HAL_Driver/Src/stm32f0xx_hal_i2c.c ****         /* Flush TX register */
3410:Drivers/STM32F0xx_HAL_Driver/Src/stm32f0xx_hal_i2c.c ****         I2C_Flush_TXDR(hi2c);
 8222              		.loc 1 3410 9
 8223 008c FB68     		ldr	r3, [r7, #12]
 8224 008e 1800     		movs	r0, r3
 8225 0090 FFF7FEFF 		bl	I2C_Flush_TXDR
3411:Drivers/STM32F0xx_HAL_Driver/Src/stm32f0xx_hal_i2c.c **** 
3412:Drivers/STM32F0xx_HAL_Driver/Src/stm32f0xx_hal_i2c.c ****         /* Last Byte is Transmitted */
3413:Drivers/STM32F0xx_HAL_Driver/Src/stm32f0xx_hal_i2c.c ****         /* Call I2C Slave Sequential complete process */
3414:Drivers/STM32F0xx_HAL_Driver/Src/stm32f0xx_hal_i2c.c ****         I2C_ITSlaveSequentialCplt(hi2c);
 8226              		.loc 1 3414 9
 8227 0094 FB68     		ldr	r3, [r7, #12]
 8228 0096 1800     		movs	r0, r3
 8229 0098 FFF7FEFF 		bl	I2C_ITSlaveSequentialCplt
ARM GAS  C:\Users\ADMINI~1\AppData\Local\Temp\cc3zYV2m.s 			page 204


 8230 009c 0FE0     		b	.L369
 8231              	.L368:
3415:Drivers/STM32F0xx_HAL_Driver/Src/stm32f0xx_hal_i2c.c ****       }
3416:Drivers/STM32F0xx_HAL_Driver/Src/stm32f0xx_hal_i2c.c ****       else
3417:Drivers/STM32F0xx_HAL_Driver/Src/stm32f0xx_hal_i2c.c ****       {
3418:Drivers/STM32F0xx_HAL_Driver/Src/stm32f0xx_hal_i2c.c ****         /* Clear NACK Flag */
3419:Drivers/STM32F0xx_HAL_Driver/Src/stm32f0xx_hal_i2c.c ****         __HAL_I2C_CLEAR_FLAG(hi2c, I2C_FLAG_AF);
 8232              		.loc 1 3419 9
 8233 009e FB68     		ldr	r3, [r7, #12]
 8234 00a0 1B68     		ldr	r3, [r3]
 8235 00a2 1022     		movs	r2, #16
 8236 00a4 DA61     		str	r2, [r3, #28]
3396:Drivers/STM32F0xx_HAL_Driver/Src/stm32f0xx_hal_i2c.c ****     {
 8237              		.loc 1 3396 8
 8238 00a6 81E0     		b	.L370
 8239              	.L364:
3420:Drivers/STM32F0xx_HAL_Driver/Src/stm32f0xx_hal_i2c.c ****       }
3421:Drivers/STM32F0xx_HAL_Driver/Src/stm32f0xx_hal_i2c.c ****     }
3422:Drivers/STM32F0xx_HAL_Driver/Src/stm32f0xx_hal_i2c.c ****     else
3423:Drivers/STM32F0xx_HAL_Driver/Src/stm32f0xx_hal_i2c.c ****     {
3424:Drivers/STM32F0xx_HAL_Driver/Src/stm32f0xx_hal_i2c.c ****       /* if no, error use case, a Non-Acknowledge of last Data is generated by the MASTER*/
3425:Drivers/STM32F0xx_HAL_Driver/Src/stm32f0xx_hal_i2c.c ****       /* Clear NACK Flag */
3426:Drivers/STM32F0xx_HAL_Driver/Src/stm32f0xx_hal_i2c.c ****       __HAL_I2C_CLEAR_FLAG(hi2c, I2C_FLAG_AF);
 8240              		.loc 1 3426 7
 8241 00a8 FB68     		ldr	r3, [r7, #12]
 8242 00aa 1B68     		ldr	r3, [r3]
 8243 00ac 1022     		movs	r2, #16
 8244 00ae DA61     		str	r2, [r3, #28]
3427:Drivers/STM32F0xx_HAL_Driver/Src/stm32f0xx_hal_i2c.c **** 
3428:Drivers/STM32F0xx_HAL_Driver/Src/stm32f0xx_hal_i2c.c ****       /* Set ErrorCode corresponding to a Non-Acknowledge */
3429:Drivers/STM32F0xx_HAL_Driver/Src/stm32f0xx_hal_i2c.c ****       hi2c->ErrorCode |= HAL_I2C_ERROR_AF;
 8245              		.loc 1 3429 23
 8246 00b0 FB68     		ldr	r3, [r7, #12]
 8247 00b2 5B6C     		ldr	r3, [r3, #68]
 8248 00b4 0422     		movs	r2, #4
 8249 00b6 1A43     		orrs	r2, r3
 8250 00b8 FB68     		ldr	r3, [r7, #12]
 8251 00ba 5A64     		str	r2, [r3, #68]
3396:Drivers/STM32F0xx_HAL_Driver/Src/stm32f0xx_hal_i2c.c ****     {
 8252              		.loc 1 3396 8
 8253 00bc 76E0     		b	.L370
 8254              	.L369:
3396:Drivers/STM32F0xx_HAL_Driver/Src/stm32f0xx_hal_i2c.c ****     {
 8255              		.loc 1 3396 8 is_stmt 0 discriminator 1
 8256 00be 75E0     		b	.L370
 8257              	.L363:
3430:Drivers/STM32F0xx_HAL_Driver/Src/stm32f0xx_hal_i2c.c ****     }
3431:Drivers/STM32F0xx_HAL_Driver/Src/stm32f0xx_hal_i2c.c ****   }
3432:Drivers/STM32F0xx_HAL_Driver/Src/stm32f0xx_hal_i2c.c ****   else if (((ITFlags & I2C_FLAG_RXNE) != RESET) && ((ITSources & I2C_IT_RXI) != RESET))
 8258              		.loc 1 3432 22 is_stmt 1
 8259 00c0 BB68     		ldr	r3, [r7, #8]
 8260 00c2 0422     		movs	r2, #4
 8261 00c4 1340     		ands	r3, r2
 8262              		.loc 1 3432 11
 8263 00c6 2ED0     		beq	.L371
 8264              		.loc 1 3432 64 discriminator 1
 8265 00c8 7B68     		ldr	r3, [r7, #4]
ARM GAS  C:\Users\ADMINI~1\AppData\Local\Temp\cc3zYV2m.s 			page 205


 8266 00ca 0422     		movs	r2, #4
 8267 00cc 1340     		ands	r3, r2
 8268              		.loc 1 3432 49 discriminator 1
 8269 00ce 2AD0     		beq	.L371
3433:Drivers/STM32F0xx_HAL_Driver/Src/stm32f0xx_hal_i2c.c ****   {
3434:Drivers/STM32F0xx_HAL_Driver/Src/stm32f0xx_hal_i2c.c ****     if (hi2c->XferCount > 0U)
 8270              		.loc 1 3434 13
 8271 00d0 FB68     		ldr	r3, [r7, #12]
 8272 00d2 5B8D     		ldrh	r3, [r3, #42]
 8273 00d4 9BB2     		uxth	r3, r3
 8274              		.loc 1 3434 8
 8275 00d6 002B     		cmp	r3, #0
 8276 00d8 16D0     		beq	.L372
3435:Drivers/STM32F0xx_HAL_Driver/Src/stm32f0xx_hal_i2c.c ****     {
3436:Drivers/STM32F0xx_HAL_Driver/Src/stm32f0xx_hal_i2c.c ****       /* Read data from RXDR */
3437:Drivers/STM32F0xx_HAL_Driver/Src/stm32f0xx_hal_i2c.c ****       (*hi2c->pBuffPtr++) = hi2c->Instance->RXDR;
 8277              		.loc 1 3437 33
 8278 00da FB68     		ldr	r3, [r7, #12]
 8279 00dc 1B68     		ldr	r3, [r3]
 8280              		.loc 1 3437 43
 8281 00de 586A     		ldr	r0, [r3, #36]
 8282              		.loc 1 3437 13
 8283 00e0 FB68     		ldr	r3, [r7, #12]
 8284 00e2 5B6A     		ldr	r3, [r3, #36]
 8285              		.loc 1 3437 23
 8286 00e4 591C     		adds	r1, r3, #1
 8287 00e6 FA68     		ldr	r2, [r7, #12]
 8288 00e8 5162     		str	r1, [r2, #36]
 8289              		.loc 1 3437 27
 8290 00ea C2B2     		uxtb	r2, r0
 8291 00ec 1A70     		strb	r2, [r3]
3438:Drivers/STM32F0xx_HAL_Driver/Src/stm32f0xx_hal_i2c.c ****       hi2c->XferSize--;
 8292              		.loc 1 3438 11
 8293 00ee FB68     		ldr	r3, [r7, #12]
 8294 00f0 1B8D     		ldrh	r3, [r3, #40]
 8295              		.loc 1 3438 21
 8296 00f2 013B     		subs	r3, r3, #1
 8297 00f4 9AB2     		uxth	r2, r3
 8298 00f6 FB68     		ldr	r3, [r7, #12]
 8299 00f8 1A85     		strh	r2, [r3, #40]
3439:Drivers/STM32F0xx_HAL_Driver/Src/stm32f0xx_hal_i2c.c ****       hi2c->XferCount--;
 8300              		.loc 1 3439 11
 8301 00fa FB68     		ldr	r3, [r7, #12]
 8302 00fc 5B8D     		ldrh	r3, [r3, #42]
 8303 00fe 9BB2     		uxth	r3, r3
 8304              		.loc 1 3439 22
 8305 0100 013B     		subs	r3, r3, #1
 8306 0102 9AB2     		uxth	r2, r3
 8307 0104 FB68     		ldr	r3, [r7, #12]
 8308 0106 5A85     		strh	r2, [r3, #42]
 8309              	.L372:
3440:Drivers/STM32F0xx_HAL_Driver/Src/stm32f0xx_hal_i2c.c ****     }
3441:Drivers/STM32F0xx_HAL_Driver/Src/stm32f0xx_hal_i2c.c **** 
3442:Drivers/STM32F0xx_HAL_Driver/Src/stm32f0xx_hal_i2c.c ****     if ((hi2c->XferCount == 0U) && \
 8310              		.loc 1 3442 14
 8311 0108 FB68     		ldr	r3, [r7, #12]
 8312 010a 5B8D     		ldrh	r3, [r3, #42]
ARM GAS  C:\Users\ADMINI~1\AppData\Local\Temp\cc3zYV2m.s 			page 206


 8313 010c 9BB2     		uxth	r3, r3
 8314              		.loc 1 3442 8
 8315 010e 002B     		cmp	r3, #0
 8316 0110 4BD1     		bne	.L378
3443:Drivers/STM32F0xx_HAL_Driver/Src/stm32f0xx_hal_i2c.c ****         (hi2c->XferOptions != I2C_NO_OPTION_FRAME))
 8317              		.loc 1 3443 14 discriminator 1
 8318 0112 FB68     		ldr	r3, [r7, #12]
 8319 0114 DB6A     		ldr	r3, [r3, #44]
3442:Drivers/STM32F0xx_HAL_Driver/Src/stm32f0xx_hal_i2c.c ****         (hi2c->XferOptions != I2C_NO_OPTION_FRAME))
 8320              		.loc 1 3442 33 discriminator 1
 8321 0116 314A     		ldr	r2, .L379
 8322 0118 9342     		cmp	r3, r2
 8323 011a 46D0     		beq	.L378
3444:Drivers/STM32F0xx_HAL_Driver/Src/stm32f0xx_hal_i2c.c ****     {
3445:Drivers/STM32F0xx_HAL_Driver/Src/stm32f0xx_hal_i2c.c ****       /* Call I2C Slave Sequential complete process */
3446:Drivers/STM32F0xx_HAL_Driver/Src/stm32f0xx_hal_i2c.c ****       I2C_ITSlaveSequentialCplt(hi2c);
 8324              		.loc 1 3446 7
 8325 011c FB68     		ldr	r3, [r7, #12]
 8326 011e 1800     		movs	r0, r3
 8327 0120 FFF7FEFF 		bl	I2C_ITSlaveSequentialCplt
3442:Drivers/STM32F0xx_HAL_Driver/Src/stm32f0xx_hal_i2c.c ****         (hi2c->XferOptions != I2C_NO_OPTION_FRAME))
 8328              		.loc 1 3442 8
 8329 0124 41E0     		b	.L378
 8330              	.L371:
3447:Drivers/STM32F0xx_HAL_Driver/Src/stm32f0xx_hal_i2c.c ****     }
3448:Drivers/STM32F0xx_HAL_Driver/Src/stm32f0xx_hal_i2c.c ****   }
3449:Drivers/STM32F0xx_HAL_Driver/Src/stm32f0xx_hal_i2c.c ****   else if (((ITFlags & I2C_FLAG_ADDR) != RESET) && ((ITSources & I2C_IT_ADDRI) != RESET))
 8331              		.loc 1 3449 22
 8332 0126 BB68     		ldr	r3, [r7, #8]
 8333 0128 0822     		movs	r2, #8
 8334 012a 1340     		ands	r3, r2
 8335              		.loc 1 3449 11
 8336 012c 0AD0     		beq	.L374
 8337              		.loc 1 3449 64 discriminator 1
 8338 012e 7B68     		ldr	r3, [r7, #4]
 8339 0130 0822     		movs	r2, #8
 8340 0132 1340     		ands	r3, r2
 8341              		.loc 1 3449 49 discriminator 1
 8342 0134 06D0     		beq	.L374
3450:Drivers/STM32F0xx_HAL_Driver/Src/stm32f0xx_hal_i2c.c ****   {
3451:Drivers/STM32F0xx_HAL_Driver/Src/stm32f0xx_hal_i2c.c ****     I2C_ITAddrCplt(hi2c, ITFlags);
 8343              		.loc 1 3451 5
 8344 0136 BA68     		ldr	r2, [r7, #8]
 8345 0138 FB68     		ldr	r3, [r7, #12]
 8346 013a 1100     		movs	r1, r2
 8347 013c 1800     		movs	r0, r3
 8348 013e FFF7FEFF 		bl	I2C_ITAddrCplt
 8349 0142 33E0     		b	.L370
 8350              	.L374:
3452:Drivers/STM32F0xx_HAL_Driver/Src/stm32f0xx_hal_i2c.c ****   }
3453:Drivers/STM32F0xx_HAL_Driver/Src/stm32f0xx_hal_i2c.c ****   else if (((ITFlags & I2C_FLAG_TXIS) != RESET) && ((ITSources & I2C_IT_TXI) != RESET))
 8351              		.loc 1 3453 22
 8352 0144 BB68     		ldr	r3, [r7, #8]
 8353 0146 0222     		movs	r2, #2
 8354 0148 1340     		ands	r3, r2
 8355              		.loc 1 3453 11
 8356 014a 2FD0     		beq	.L370
ARM GAS  C:\Users\ADMINI~1\AppData\Local\Temp\cc3zYV2m.s 			page 207


 8357              		.loc 1 3453 64 discriminator 1
 8358 014c 7B68     		ldr	r3, [r7, #4]
 8359 014e 0222     		movs	r2, #2
 8360 0150 1340     		ands	r3, r2
 8361              		.loc 1 3453 49 discriminator 1
 8362 0152 2BD0     		beq	.L370
3454:Drivers/STM32F0xx_HAL_Driver/Src/stm32f0xx_hal_i2c.c ****   {
3455:Drivers/STM32F0xx_HAL_Driver/Src/stm32f0xx_hal_i2c.c ****     /* Write data to TXDR only if XferCount not reach "0" */
3456:Drivers/STM32F0xx_HAL_Driver/Src/stm32f0xx_hal_i2c.c ****     /* A TXIS flag can be set, during STOP treatment      */
3457:Drivers/STM32F0xx_HAL_Driver/Src/stm32f0xx_hal_i2c.c ****     /* Check if all Datas have already been sent */
3458:Drivers/STM32F0xx_HAL_Driver/Src/stm32f0xx_hal_i2c.c ****     /* If it is the case, this last write in TXDR is not sent, correspond to a dummy TXIS event */
3459:Drivers/STM32F0xx_HAL_Driver/Src/stm32f0xx_hal_i2c.c ****     if (hi2c->XferCount > 0U)
 8363              		.loc 1 3459 13
 8364 0154 FB68     		ldr	r3, [r7, #12]
 8365 0156 5B8D     		ldrh	r3, [r3, #42]
 8366 0158 9BB2     		uxth	r3, r3
 8367              		.loc 1 3459 8
 8368 015a 002B     		cmp	r3, #0
 8369 015c 16D0     		beq	.L375
3460:Drivers/STM32F0xx_HAL_Driver/Src/stm32f0xx_hal_i2c.c ****     {
3461:Drivers/STM32F0xx_HAL_Driver/Src/stm32f0xx_hal_i2c.c ****       /* Write data to TXDR */
3462:Drivers/STM32F0xx_HAL_Driver/Src/stm32f0xx_hal_i2c.c ****       hi2c->Instance->TXDR = (*hi2c->pBuffPtr++);
 8370              		.loc 1 3462 36
 8371 015e FB68     		ldr	r3, [r7, #12]
 8372 0160 5B6A     		ldr	r3, [r3, #36]
 8373              		.loc 1 3462 46
 8374 0162 591C     		adds	r1, r3, #1
 8375 0164 FA68     		ldr	r2, [r7, #12]
 8376 0166 5162     		str	r1, [r2, #36]
 8377              		.loc 1 3462 31
 8378 0168 1A78     		ldrb	r2, [r3]
 8379              		.loc 1 3462 11
 8380 016a FB68     		ldr	r3, [r7, #12]
 8381 016c 1B68     		ldr	r3, [r3]
 8382              		.loc 1 3462 28
 8383 016e 9A62     		str	r2, [r3, #40]
3463:Drivers/STM32F0xx_HAL_Driver/Src/stm32f0xx_hal_i2c.c ****       hi2c->XferCount--;
 8384              		.loc 1 3463 11
 8385 0170 FB68     		ldr	r3, [r7, #12]
 8386 0172 5B8D     		ldrh	r3, [r3, #42]
 8387 0174 9BB2     		uxth	r3, r3
 8388              		.loc 1 3463 22
 8389 0176 013B     		subs	r3, r3, #1
 8390 0178 9AB2     		uxth	r2, r3
 8391 017a FB68     		ldr	r3, [r7, #12]
 8392 017c 5A85     		strh	r2, [r3, #42]
3464:Drivers/STM32F0xx_HAL_Driver/Src/stm32f0xx_hal_i2c.c ****       hi2c->XferSize--;
 8393              		.loc 1 3464 11
 8394 017e FB68     		ldr	r3, [r7, #12]
 8395 0180 1B8D     		ldrh	r3, [r3, #40]
 8396              		.loc 1 3464 21
 8397 0182 013B     		subs	r3, r3, #1
 8398 0184 9AB2     		uxth	r2, r3
 8399 0186 FB68     		ldr	r3, [r7, #12]
 8400 0188 1A85     		strh	r2, [r3, #40]
 8401 018a 0FE0     		b	.L370
 8402              	.L375:
ARM GAS  C:\Users\ADMINI~1\AppData\Local\Temp\cc3zYV2m.s 			page 208


3465:Drivers/STM32F0xx_HAL_Driver/Src/stm32f0xx_hal_i2c.c ****     }
3466:Drivers/STM32F0xx_HAL_Driver/Src/stm32f0xx_hal_i2c.c ****     else
3467:Drivers/STM32F0xx_HAL_Driver/Src/stm32f0xx_hal_i2c.c ****     {
3468:Drivers/STM32F0xx_HAL_Driver/Src/stm32f0xx_hal_i2c.c ****       if ((hi2c->XferOptions == I2C_NEXT_FRAME) || (hi2c->XferOptions == I2C_FIRST_FRAME))
 8403              		.loc 1 3468 16
 8404 018c FB68     		ldr	r3, [r7, #12]
 8405 018e DA6A     		ldr	r2, [r3, #44]
 8406              		.loc 1 3468 10
 8407 0190 8023     		movs	r3, #128
 8408 0192 5B04     		lsls	r3, r3, #17
 8409 0194 9A42     		cmp	r2, r3
 8410 0196 03D0     		beq	.L376
 8411              		.loc 1 3468 57 discriminator 1
 8412 0198 FB68     		ldr	r3, [r7, #12]
 8413 019a DB6A     		ldr	r3, [r3, #44]
 8414              		.loc 1 3468 49 discriminator 1
 8415 019c 002B     		cmp	r3, #0
 8416 019e 05D1     		bne	.L370
 8417              	.L376:
3469:Drivers/STM32F0xx_HAL_Driver/Src/stm32f0xx_hal_i2c.c ****       {
3470:Drivers/STM32F0xx_HAL_Driver/Src/stm32f0xx_hal_i2c.c ****         /* Last Byte is Transmitted */
3471:Drivers/STM32F0xx_HAL_Driver/Src/stm32f0xx_hal_i2c.c ****         /* Call I2C Slave Sequential complete process */
3472:Drivers/STM32F0xx_HAL_Driver/Src/stm32f0xx_hal_i2c.c ****         I2C_ITSlaveSequentialCplt(hi2c);
 8418              		.loc 1 3472 9
 8419 01a0 FB68     		ldr	r3, [r7, #12]
 8420 01a2 1800     		movs	r0, r3
 8421 01a4 FFF7FEFF 		bl	I2C_ITSlaveSequentialCplt
 8422 01a8 00E0     		b	.L370
 8423              	.L378:
3442:Drivers/STM32F0xx_HAL_Driver/Src/stm32f0xx_hal_i2c.c ****         (hi2c->XferOptions != I2C_NO_OPTION_FRAME))
 8424              		.loc 1 3442 8
 8425 01aa C046     		nop
 8426              	.L370:
3473:Drivers/STM32F0xx_HAL_Driver/Src/stm32f0xx_hal_i2c.c ****       }
3474:Drivers/STM32F0xx_HAL_Driver/Src/stm32f0xx_hal_i2c.c ****     }
3475:Drivers/STM32F0xx_HAL_Driver/Src/stm32f0xx_hal_i2c.c ****   }
3476:Drivers/STM32F0xx_HAL_Driver/Src/stm32f0xx_hal_i2c.c **** 
3477:Drivers/STM32F0xx_HAL_Driver/Src/stm32f0xx_hal_i2c.c ****   /* Check if STOPF is set */
3478:Drivers/STM32F0xx_HAL_Driver/Src/stm32f0xx_hal_i2c.c ****   if (((ITFlags & I2C_FLAG_STOPF) != RESET) && ((ITSources & I2C_IT_STOPI) != RESET))
 8427              		.loc 1 3478 17
 8428 01ac BB68     		ldr	r3, [r7, #8]
 8429 01ae 2022     		movs	r2, #32
 8430 01b0 1340     		ands	r3, r2
 8431              		.loc 1 3478 6
 8432 01b2 09D0     		beq	.L377
 8433              		.loc 1 3478 60 discriminator 1
 8434 01b4 7B68     		ldr	r3, [r7, #4]
 8435 01b6 2022     		movs	r2, #32
 8436 01b8 1340     		ands	r3, r2
 8437              		.loc 1 3478 45 discriminator 1
 8438 01ba 05D0     		beq	.L377
3479:Drivers/STM32F0xx_HAL_Driver/Src/stm32f0xx_hal_i2c.c ****   {
3480:Drivers/STM32F0xx_HAL_Driver/Src/stm32f0xx_hal_i2c.c ****     /* Call I2C Slave complete process */
3481:Drivers/STM32F0xx_HAL_Driver/Src/stm32f0xx_hal_i2c.c ****     I2C_ITSlaveCplt(hi2c, ITFlags);
 8439              		.loc 1 3481 5
 8440 01bc BA68     		ldr	r2, [r7, #8]
 8441 01be FB68     		ldr	r3, [r7, #12]
ARM GAS  C:\Users\ADMINI~1\AppData\Local\Temp\cc3zYV2m.s 			page 209


 8442 01c0 1100     		movs	r1, r2
 8443 01c2 1800     		movs	r0, r3
 8444 01c4 FFF7FEFF 		bl	I2C_ITSlaveCplt
 8445              	.L377:
3482:Drivers/STM32F0xx_HAL_Driver/Src/stm32f0xx_hal_i2c.c ****   }
3483:Drivers/STM32F0xx_HAL_Driver/Src/stm32f0xx_hal_i2c.c **** 
3484:Drivers/STM32F0xx_HAL_Driver/Src/stm32f0xx_hal_i2c.c ****   /* Process Unlocked */
3485:Drivers/STM32F0xx_HAL_Driver/Src/stm32f0xx_hal_i2c.c ****   __HAL_UNLOCK(hi2c);
 8446              		.loc 1 3485 3
 8447 01c8 FB68     		ldr	r3, [r7, #12]
 8448 01ca 4022     		movs	r2, #64
 8449 01cc 0021     		movs	r1, #0
 8450 01ce 9954     		strb	r1, [r3, r2]
3486:Drivers/STM32F0xx_HAL_Driver/Src/stm32f0xx_hal_i2c.c **** 
3487:Drivers/STM32F0xx_HAL_Driver/Src/stm32f0xx_hal_i2c.c ****   return HAL_OK;
 8451              		.loc 1 3487 10
 8452 01d0 0023     		movs	r3, #0
 8453              	.L362:
3488:Drivers/STM32F0xx_HAL_Driver/Src/stm32f0xx_hal_i2c.c **** }
 8454              		.loc 1 3488 1
 8455 01d2 1800     		movs	r0, r3
 8456 01d4 BD46     		mov	sp, r7
 8457 01d6 04B0     		add	sp, sp, #16
 8458              		@ sp needed
 8459 01d8 80BD     		pop	{r7, pc}
 8460              	.L380:
 8461 01da C046     		.align	2
 8462              	.L379:
 8463 01dc 0000FFFF 		.word	-65536
 8464              		.cfi_endproc
 8465              	.LFE83:
 8467              		.section	.text.I2C_Master_ISR_DMA,"ax",%progbits
 8468              		.align	1
 8469              		.syntax unified
 8470              		.code	16
 8471              		.thumb_func
 8472              		.fpu softvfp
 8474              	I2C_Master_ISR_DMA:
 8475              	.LFB84:
3489:Drivers/STM32F0xx_HAL_Driver/Src/stm32f0xx_hal_i2c.c **** 
3490:Drivers/STM32F0xx_HAL_Driver/Src/stm32f0xx_hal_i2c.c **** /**
3491:Drivers/STM32F0xx_HAL_Driver/Src/stm32f0xx_hal_i2c.c ****   * @brief  Interrupt Sub-Routine which handle the Interrupt Flags Master Mode with DMA.
3492:Drivers/STM32F0xx_HAL_Driver/Src/stm32f0xx_hal_i2c.c ****   * @param  hi2c Pointer to a I2C_HandleTypeDef structure that contains
3493:Drivers/STM32F0xx_HAL_Driver/Src/stm32f0xx_hal_i2c.c ****   *                the configuration information for the specified I2C.
3494:Drivers/STM32F0xx_HAL_Driver/Src/stm32f0xx_hal_i2c.c ****   * @param  ITFlags Interrupt flags to handle.
3495:Drivers/STM32F0xx_HAL_Driver/Src/stm32f0xx_hal_i2c.c ****   * @param  ITSources Interrupt sources enabled.
3496:Drivers/STM32F0xx_HAL_Driver/Src/stm32f0xx_hal_i2c.c ****   * @retval HAL status
3497:Drivers/STM32F0xx_HAL_Driver/Src/stm32f0xx_hal_i2c.c ****   */
3498:Drivers/STM32F0xx_HAL_Driver/Src/stm32f0xx_hal_i2c.c **** static HAL_StatusTypeDef I2C_Master_ISR_DMA(struct __I2C_HandleTypeDef *hi2c, uint32_t ITFlags, uin
3499:Drivers/STM32F0xx_HAL_Driver/Src/stm32f0xx_hal_i2c.c **** {
 8476              		.loc 1 3499 1
 8477              		.cfi_startproc
 8478              		@ args = 0, pretend = 0, frame = 24
 8479              		@ frame_needed = 1, uses_anonymous_args = 0
 8480 0000 90B5     		push	{r4, r7, lr}
 8481              	.LCFI141:
 8482              		.cfi_def_cfa_offset 12
ARM GAS  C:\Users\ADMINI~1\AppData\Local\Temp\cc3zYV2m.s 			page 210


 8483              		.cfi_offset 4, -12
 8484              		.cfi_offset 7, -8
 8485              		.cfi_offset 14, -4
 8486 0002 89B0     		sub	sp, sp, #36
 8487              	.LCFI142:
 8488              		.cfi_def_cfa_offset 48
 8489 0004 02AF     		add	r7, sp, #8
 8490              	.LCFI143:
 8491              		.cfi_def_cfa 7, 40
 8492 0006 F860     		str	r0, [r7, #12]
 8493 0008 B960     		str	r1, [r7, #8]
 8494 000a 7A60     		str	r2, [r7, #4]
3500:Drivers/STM32F0xx_HAL_Driver/Src/stm32f0xx_hal_i2c.c ****   uint16_t devaddress = 0U;
 8495              		.loc 1 3500 12
 8496 000c 1223     		movs	r3, #18
 8497 000e FB18     		adds	r3, r7, r3
 8498 0010 0022     		movs	r2, #0
 8499 0012 1A80     		strh	r2, [r3]
3501:Drivers/STM32F0xx_HAL_Driver/Src/stm32f0xx_hal_i2c.c ****   uint32_t xfermode = 0U;
 8500              		.loc 1 3501 12
 8501 0014 0023     		movs	r3, #0
 8502 0016 7B61     		str	r3, [r7, #20]
3502:Drivers/STM32F0xx_HAL_Driver/Src/stm32f0xx_hal_i2c.c **** 
3503:Drivers/STM32F0xx_HAL_Driver/Src/stm32f0xx_hal_i2c.c ****   /* Process Locked */
3504:Drivers/STM32F0xx_HAL_Driver/Src/stm32f0xx_hal_i2c.c ****   __HAL_LOCK(hi2c);
 8503              		.loc 1 3504 3
 8504 0018 FB68     		ldr	r3, [r7, #12]
 8505 001a 4022     		movs	r2, #64
 8506 001c 9B5C     		ldrb	r3, [r3, r2]
 8507 001e 012B     		cmp	r3, #1
 8508 0020 01D1     		bne	.L382
 8509              		.loc 1 3504 3 is_stmt 0 discriminator 1
 8510 0022 0223     		movs	r3, #2
 8511 0024 9AE0     		b	.L383
 8512              	.L382:
 8513              		.loc 1 3504 3 discriminator 2
 8514 0026 FB68     		ldr	r3, [r7, #12]
 8515 0028 4022     		movs	r2, #64
 8516 002a 0121     		movs	r1, #1
 8517 002c 9954     		strb	r1, [r3, r2]
3505:Drivers/STM32F0xx_HAL_Driver/Src/stm32f0xx_hal_i2c.c **** 
3506:Drivers/STM32F0xx_HAL_Driver/Src/stm32f0xx_hal_i2c.c ****   if (((ITFlags & I2C_FLAG_AF) != RESET) && ((ITSources & I2C_IT_NACKI) != RESET))
 8518              		.loc 1 3506 17 is_stmt 1 discriminator 2
 8519 002e BB68     		ldr	r3, [r7, #8]
 8520 0030 1022     		movs	r2, #16
 8521 0032 1340     		ands	r3, r2
 8522              		.loc 1 3506 6 discriminator 2
 8523 0034 17D0     		beq	.L384
 8524              		.loc 1 3506 57 discriminator 1
 8525 0036 7B68     		ldr	r3, [r7, #4]
 8526 0038 1022     		movs	r2, #16
 8527 003a 1340     		ands	r3, r2
 8528              		.loc 1 3506 42 discriminator 1
 8529 003c 13D0     		beq	.L384
3507:Drivers/STM32F0xx_HAL_Driver/Src/stm32f0xx_hal_i2c.c ****   {
3508:Drivers/STM32F0xx_HAL_Driver/Src/stm32f0xx_hal_i2c.c ****     /* Clear NACK Flag */
3509:Drivers/STM32F0xx_HAL_Driver/Src/stm32f0xx_hal_i2c.c ****     __HAL_I2C_CLEAR_FLAG(hi2c, I2C_FLAG_AF);
ARM GAS  C:\Users\ADMINI~1\AppData\Local\Temp\cc3zYV2m.s 			page 211


 8530              		.loc 1 3509 5
 8531 003e FB68     		ldr	r3, [r7, #12]
 8532 0040 1B68     		ldr	r3, [r3]
 8533 0042 1022     		movs	r2, #16
 8534 0044 DA61     		str	r2, [r3, #28]
3510:Drivers/STM32F0xx_HAL_Driver/Src/stm32f0xx_hal_i2c.c **** 
3511:Drivers/STM32F0xx_HAL_Driver/Src/stm32f0xx_hal_i2c.c ****     /* Set corresponding Error Code */
3512:Drivers/STM32F0xx_HAL_Driver/Src/stm32f0xx_hal_i2c.c ****     hi2c->ErrorCode |= HAL_I2C_ERROR_AF;
 8535              		.loc 1 3512 21
 8536 0046 FB68     		ldr	r3, [r7, #12]
 8537 0048 5B6C     		ldr	r3, [r3, #68]
 8538 004a 0422     		movs	r2, #4
 8539 004c 1A43     		orrs	r2, r3
 8540 004e FB68     		ldr	r3, [r7, #12]
 8541 0050 5A64     		str	r2, [r3, #68]
3513:Drivers/STM32F0xx_HAL_Driver/Src/stm32f0xx_hal_i2c.c **** 
3514:Drivers/STM32F0xx_HAL_Driver/Src/stm32f0xx_hal_i2c.c ****     /* No need to generate STOP, it is automatically done */
3515:Drivers/STM32F0xx_HAL_Driver/Src/stm32f0xx_hal_i2c.c ****     /* But enable STOP interrupt, to treat it */
3516:Drivers/STM32F0xx_HAL_Driver/Src/stm32f0xx_hal_i2c.c ****     /* Error callback will be send during stop flag treatment */
3517:Drivers/STM32F0xx_HAL_Driver/Src/stm32f0xx_hal_i2c.c ****     I2C_Enable_IRQ(hi2c, I2C_XFER_CPLT_IT);
 8542              		.loc 1 3517 5
 8543 0052 FB68     		ldr	r3, [r7, #12]
 8544 0054 1221     		movs	r1, #18
 8545 0056 1800     		movs	r0, r3
 8546 0058 FFF7FEFF 		bl	I2C_Enable_IRQ
3518:Drivers/STM32F0xx_HAL_Driver/Src/stm32f0xx_hal_i2c.c **** 
3519:Drivers/STM32F0xx_HAL_Driver/Src/stm32f0xx_hal_i2c.c ****     /* Flush TX register */
3520:Drivers/STM32F0xx_HAL_Driver/Src/stm32f0xx_hal_i2c.c ****     I2C_Flush_TXDR(hi2c);
 8547              		.loc 1 3520 5
 8548 005c FB68     		ldr	r3, [r7, #12]
 8549 005e 1800     		movs	r0, r3
 8550 0060 FFF7FEFF 		bl	I2C_Flush_TXDR
 8551 0064 75E0     		b	.L385
 8552              	.L384:
3521:Drivers/STM32F0xx_HAL_Driver/Src/stm32f0xx_hal_i2c.c ****   }
3522:Drivers/STM32F0xx_HAL_Driver/Src/stm32f0xx_hal_i2c.c ****   else if (((ITFlags & I2C_FLAG_TCR) != RESET) && ((ITSources & I2C_IT_TCI) != RESET))
 8553              		.loc 1 3522 22
 8554 0066 BB68     		ldr	r3, [r7, #8]
 8555 0068 8022     		movs	r2, #128
 8556 006a 1340     		ands	r3, r2
 8557              		.loc 1 3522 11
 8558 006c 63D0     		beq	.L386
 8559              		.loc 1 3522 63 discriminator 1
 8560 006e 7B68     		ldr	r3, [r7, #4]
 8561 0070 4022     		movs	r2, #64
 8562 0072 1340     		ands	r3, r2
 8563              		.loc 1 3522 48 discriminator 1
 8564 0074 5FD0     		beq	.L386
3523:Drivers/STM32F0xx_HAL_Driver/Src/stm32f0xx_hal_i2c.c ****   {
3524:Drivers/STM32F0xx_HAL_Driver/Src/stm32f0xx_hal_i2c.c ****     /* Disable TC interrupt */
3525:Drivers/STM32F0xx_HAL_Driver/Src/stm32f0xx_hal_i2c.c ****     __HAL_I2C_DISABLE_IT(hi2c, I2C_IT_TCI);
 8565              		.loc 1 3525 5
 8566 0076 FB68     		ldr	r3, [r7, #12]
 8567 0078 1B68     		ldr	r3, [r3]
 8568 007a 1A68     		ldr	r2, [r3]
 8569 007c FB68     		ldr	r3, [r7, #12]
 8570 007e 1B68     		ldr	r3, [r3]
ARM GAS  C:\Users\ADMINI~1\AppData\Local\Temp\cc3zYV2m.s 			page 212


 8571 0080 4021     		movs	r1, #64
 8572 0082 8A43     		bics	r2, r1
 8573 0084 1A60     		str	r2, [r3]
3526:Drivers/STM32F0xx_HAL_Driver/Src/stm32f0xx_hal_i2c.c **** 
3527:Drivers/STM32F0xx_HAL_Driver/Src/stm32f0xx_hal_i2c.c ****     if (hi2c->XferCount != 0U)
 8574              		.loc 1 3527 13
 8575 0086 FB68     		ldr	r3, [r7, #12]
 8576 0088 5B8D     		ldrh	r3, [r3, #42]
 8577 008a 9BB2     		uxth	r3, r3
 8578              		.loc 1 3527 8
 8579 008c 002B     		cmp	r3, #0
 8580 008e 4CD0     		beq	.L387
3528:Drivers/STM32F0xx_HAL_Driver/Src/stm32f0xx_hal_i2c.c ****     {
3529:Drivers/STM32F0xx_HAL_Driver/Src/stm32f0xx_hal_i2c.c ****       /* Recover Slave address */
3530:Drivers/STM32F0xx_HAL_Driver/Src/stm32f0xx_hal_i2c.c ****       devaddress = (hi2c->Instance->CR2 & I2C_CR2_SADD);
 8581              		.loc 1 3530 25
 8582 0090 FB68     		ldr	r3, [r7, #12]
 8583 0092 1B68     		ldr	r3, [r3]
 8584              		.loc 1 3530 35
 8585 0094 5B68     		ldr	r3, [r3, #4]
 8586              		.loc 1 3530 41
 8587 0096 9AB2     		uxth	r2, r3
 8588              		.loc 1 3530 18
 8589 0098 1223     		movs	r3, #18
 8590 009a FB18     		adds	r3, r7, r3
 8591 009c 9205     		lsls	r2, r2, #22
 8592 009e 920D     		lsrs	r2, r2, #22
 8593 00a0 1A80     		strh	r2, [r3]
3531:Drivers/STM32F0xx_HAL_Driver/Src/stm32f0xx_hal_i2c.c **** 
3532:Drivers/STM32F0xx_HAL_Driver/Src/stm32f0xx_hal_i2c.c ****       /* Prepare the new XferSize to transfer */
3533:Drivers/STM32F0xx_HAL_Driver/Src/stm32f0xx_hal_i2c.c ****       if (hi2c->XferCount > MAX_NBYTE_SIZE)
 8594              		.loc 1 3533 15
 8595 00a2 FB68     		ldr	r3, [r7, #12]
 8596 00a4 5B8D     		ldrh	r3, [r3, #42]
 8597 00a6 9BB2     		uxth	r3, r3
 8598              		.loc 1 3533 10
 8599 00a8 FF2B     		cmp	r3, #255
 8600 00aa 06D9     		bls	.L388
3534:Drivers/STM32F0xx_HAL_Driver/Src/stm32f0xx_hal_i2c.c ****       {
3535:Drivers/STM32F0xx_HAL_Driver/Src/stm32f0xx_hal_i2c.c ****         hi2c->XferSize = MAX_NBYTE_SIZE;
 8601              		.loc 1 3535 24
 8602 00ac FB68     		ldr	r3, [r7, #12]
 8603 00ae FF22     		movs	r2, #255
 8604 00b0 1A85     		strh	r2, [r3, #40]
3536:Drivers/STM32F0xx_HAL_Driver/Src/stm32f0xx_hal_i2c.c ****         xfermode = I2C_RELOAD_MODE;
 8605              		.loc 1 3536 18
 8606 00b2 8023     		movs	r3, #128
 8607 00b4 5B04     		lsls	r3, r3, #17
 8608 00b6 7B61     		str	r3, [r7, #20]
 8609 00b8 07E0     		b	.L389
 8610              	.L388:
3537:Drivers/STM32F0xx_HAL_Driver/Src/stm32f0xx_hal_i2c.c ****       }
3538:Drivers/STM32F0xx_HAL_Driver/Src/stm32f0xx_hal_i2c.c ****       else
3539:Drivers/STM32F0xx_HAL_Driver/Src/stm32f0xx_hal_i2c.c ****       {
3540:Drivers/STM32F0xx_HAL_Driver/Src/stm32f0xx_hal_i2c.c ****         hi2c->XferSize = hi2c->XferCount;
 8611              		.loc 1 3540 30
 8612 00ba FB68     		ldr	r3, [r7, #12]
ARM GAS  C:\Users\ADMINI~1\AppData\Local\Temp\cc3zYV2m.s 			page 213


 8613 00bc 5B8D     		ldrh	r3, [r3, #42]
 8614 00be 9AB2     		uxth	r2, r3
 8615              		.loc 1 3540 24
 8616 00c0 FB68     		ldr	r3, [r7, #12]
 8617 00c2 1A85     		strh	r2, [r3, #40]
3541:Drivers/STM32F0xx_HAL_Driver/Src/stm32f0xx_hal_i2c.c ****         xfermode = I2C_AUTOEND_MODE;
 8618              		.loc 1 3541 18
 8619 00c4 8023     		movs	r3, #128
 8620 00c6 9B04     		lsls	r3, r3, #18
 8621 00c8 7B61     		str	r3, [r7, #20]
 8622              	.L389:
3542:Drivers/STM32F0xx_HAL_Driver/Src/stm32f0xx_hal_i2c.c ****       }
3543:Drivers/STM32F0xx_HAL_Driver/Src/stm32f0xx_hal_i2c.c **** 
3544:Drivers/STM32F0xx_HAL_Driver/Src/stm32f0xx_hal_i2c.c ****       /* Set the new XferSize in Nbytes register */
3545:Drivers/STM32F0xx_HAL_Driver/Src/stm32f0xx_hal_i2c.c ****       I2C_TransferConfig(hi2c, devaddress, hi2c->XferSize, xfermode, I2C_NO_STARTSTOP);
 8623              		.loc 1 3545 48
 8624 00ca FB68     		ldr	r3, [r7, #12]
 8625 00cc 1B8D     		ldrh	r3, [r3, #40]
 8626              		.loc 1 3545 7
 8627 00ce DAB2     		uxtb	r2, r3
 8628 00d0 7C69     		ldr	r4, [r7, #20]
 8629 00d2 1223     		movs	r3, #18
 8630 00d4 FB18     		adds	r3, r7, r3
 8631 00d6 1988     		ldrh	r1, [r3]
 8632 00d8 F868     		ldr	r0, [r7, #12]
 8633 00da 0023     		movs	r3, #0
 8634 00dc 0093     		str	r3, [sp]
 8635 00de 2300     		movs	r3, r4
 8636 00e0 FFF7FEFF 		bl	I2C_TransferConfig
3546:Drivers/STM32F0xx_HAL_Driver/Src/stm32f0xx_hal_i2c.c **** 
3547:Drivers/STM32F0xx_HAL_Driver/Src/stm32f0xx_hal_i2c.c ****       /* Update XferCount value */
3548:Drivers/STM32F0xx_HAL_Driver/Src/stm32f0xx_hal_i2c.c ****       hi2c->XferCount -= hi2c->XferSize;
 8637              		.loc 1 3548 23
 8638 00e4 FB68     		ldr	r3, [r7, #12]
 8639 00e6 5B8D     		ldrh	r3, [r3, #42]
 8640 00e8 9AB2     		uxth	r2, r3
 8641              		.loc 1 3548 30
 8642 00ea FB68     		ldr	r3, [r7, #12]
 8643 00ec 1B8D     		ldrh	r3, [r3, #40]
 8644              		.loc 1 3548 23
 8645 00ee D31A     		subs	r3, r2, r3
 8646 00f0 9AB2     		uxth	r2, r3
 8647 00f2 FB68     		ldr	r3, [r7, #12]
 8648 00f4 5A85     		strh	r2, [r3, #42]
3549:Drivers/STM32F0xx_HAL_Driver/Src/stm32f0xx_hal_i2c.c **** 
3550:Drivers/STM32F0xx_HAL_Driver/Src/stm32f0xx_hal_i2c.c ****       /* Enable DMA Request */
3551:Drivers/STM32F0xx_HAL_Driver/Src/stm32f0xx_hal_i2c.c ****       if (hi2c->State == HAL_I2C_STATE_BUSY_RX)
 8649              		.loc 1 3551 15
 8650 00f6 FB68     		ldr	r3, [r7, #12]
 8651 00f8 4122     		movs	r2, #65
 8652 00fa 9B5C     		ldrb	r3, [r3, r2]
 8653 00fc DBB2     		uxtb	r3, r3
 8654              		.loc 1 3551 10
 8655 00fe 222B     		cmp	r3, #34
 8656 0100 09D1     		bne	.L390
3552:Drivers/STM32F0xx_HAL_Driver/Src/stm32f0xx_hal_i2c.c ****       {
3553:Drivers/STM32F0xx_HAL_Driver/Src/stm32f0xx_hal_i2c.c ****         hi2c->Instance->CR1 |= I2C_CR1_RXDMAEN;
ARM GAS  C:\Users\ADMINI~1\AppData\Local\Temp\cc3zYV2m.s 			page 214


 8657              		.loc 1 3553 13
 8658 0102 FB68     		ldr	r3, [r7, #12]
 8659 0104 1B68     		ldr	r3, [r3]
 8660              		.loc 1 3553 29
 8661 0106 1A68     		ldr	r2, [r3]
 8662              		.loc 1 3553 13
 8663 0108 FB68     		ldr	r3, [r7, #12]
 8664 010a 1B68     		ldr	r3, [r3]
 8665              		.loc 1 3553 29
 8666 010c 8021     		movs	r1, #128
 8667 010e 0902     		lsls	r1, r1, #8
 8668 0110 0A43     		orrs	r2, r1
 8669 0112 1A60     		str	r2, [r3]
3527:Drivers/STM32F0xx_HAL_Driver/Src/stm32f0xx_hal_i2c.c ****     {
 8670              		.loc 1 3527 8
 8671 0114 1DE0     		b	.L385
 8672              	.L390:
3554:Drivers/STM32F0xx_HAL_Driver/Src/stm32f0xx_hal_i2c.c ****       }
3555:Drivers/STM32F0xx_HAL_Driver/Src/stm32f0xx_hal_i2c.c ****       else
3556:Drivers/STM32F0xx_HAL_Driver/Src/stm32f0xx_hal_i2c.c ****       {
3557:Drivers/STM32F0xx_HAL_Driver/Src/stm32f0xx_hal_i2c.c ****         hi2c->Instance->CR1 |= I2C_CR1_TXDMAEN;
 8673              		.loc 1 3557 13
 8674 0116 FB68     		ldr	r3, [r7, #12]
 8675 0118 1B68     		ldr	r3, [r3]
 8676              		.loc 1 3557 29
 8677 011a 1A68     		ldr	r2, [r3]
 8678              		.loc 1 3557 13
 8679 011c FB68     		ldr	r3, [r7, #12]
 8680 011e 1B68     		ldr	r3, [r3]
 8681              		.loc 1 3557 29
 8682 0120 8021     		movs	r1, #128
 8683 0122 C901     		lsls	r1, r1, #7
 8684 0124 0A43     		orrs	r2, r1
 8685 0126 1A60     		str	r2, [r3]
3527:Drivers/STM32F0xx_HAL_Driver/Src/stm32f0xx_hal_i2c.c ****     {
 8686              		.loc 1 3527 8
 8687 0128 13E0     		b	.L385
 8688              	.L387:
3558:Drivers/STM32F0xx_HAL_Driver/Src/stm32f0xx_hal_i2c.c ****       }
3559:Drivers/STM32F0xx_HAL_Driver/Src/stm32f0xx_hal_i2c.c ****     }
3560:Drivers/STM32F0xx_HAL_Driver/Src/stm32f0xx_hal_i2c.c ****     else
3561:Drivers/STM32F0xx_HAL_Driver/Src/stm32f0xx_hal_i2c.c ****     {
3562:Drivers/STM32F0xx_HAL_Driver/Src/stm32f0xx_hal_i2c.c ****       /* Wrong size Status regarding TCR flag event */
3563:Drivers/STM32F0xx_HAL_Driver/Src/stm32f0xx_hal_i2c.c ****       /* Call the corresponding callback to inform upper layer of End of Transfer */
3564:Drivers/STM32F0xx_HAL_Driver/Src/stm32f0xx_hal_i2c.c ****       I2C_ITError(hi2c, HAL_I2C_ERROR_SIZE);
 8689              		.loc 1 3564 7
 8690 012a FB68     		ldr	r3, [r7, #12]
 8691 012c 4021     		movs	r1, #64
 8692 012e 1800     		movs	r0, r3
 8693 0130 FFF7FEFF 		bl	I2C_ITError
3527:Drivers/STM32F0xx_HAL_Driver/Src/stm32f0xx_hal_i2c.c ****     {
 8694              		.loc 1 3527 8
 8695 0134 0DE0     		b	.L385
 8696              	.L386:
3565:Drivers/STM32F0xx_HAL_Driver/Src/stm32f0xx_hal_i2c.c ****     }
3566:Drivers/STM32F0xx_HAL_Driver/Src/stm32f0xx_hal_i2c.c ****   }
3567:Drivers/STM32F0xx_HAL_Driver/Src/stm32f0xx_hal_i2c.c ****   else if (((ITFlags & I2C_FLAG_STOPF) != RESET) && ((ITSources & I2C_IT_STOPI) != RESET))
ARM GAS  C:\Users\ADMINI~1\AppData\Local\Temp\cc3zYV2m.s 			page 215


 8697              		.loc 1 3567 22
 8698 0136 BB68     		ldr	r3, [r7, #8]
 8699 0138 2022     		movs	r2, #32
 8700 013a 1340     		ands	r3, r2
 8701              		.loc 1 3567 11
 8702 013c 09D0     		beq	.L385
 8703              		.loc 1 3567 65 discriminator 1
 8704 013e 7B68     		ldr	r3, [r7, #4]
 8705 0140 2022     		movs	r2, #32
 8706 0142 1340     		ands	r3, r2
 8707              		.loc 1 3567 50 discriminator 1
 8708 0144 05D0     		beq	.L385
3568:Drivers/STM32F0xx_HAL_Driver/Src/stm32f0xx_hal_i2c.c ****   {
3569:Drivers/STM32F0xx_HAL_Driver/Src/stm32f0xx_hal_i2c.c ****     /* Call I2C Master complete process */
3570:Drivers/STM32F0xx_HAL_Driver/Src/stm32f0xx_hal_i2c.c ****     I2C_ITMasterCplt(hi2c, ITFlags);
 8709              		.loc 1 3570 5
 8710 0146 BA68     		ldr	r2, [r7, #8]
 8711 0148 FB68     		ldr	r3, [r7, #12]
 8712 014a 1100     		movs	r1, r2
 8713 014c 1800     		movs	r0, r3
 8714 014e FFF7FEFF 		bl	I2C_ITMasterCplt
 8715              	.L385:
3571:Drivers/STM32F0xx_HAL_Driver/Src/stm32f0xx_hal_i2c.c ****   }
3572:Drivers/STM32F0xx_HAL_Driver/Src/stm32f0xx_hal_i2c.c **** 
3573:Drivers/STM32F0xx_HAL_Driver/Src/stm32f0xx_hal_i2c.c ****   /* Process Unlocked */
3574:Drivers/STM32F0xx_HAL_Driver/Src/stm32f0xx_hal_i2c.c ****   __HAL_UNLOCK(hi2c);
 8716              		.loc 1 3574 3
 8717 0152 FB68     		ldr	r3, [r7, #12]
 8718 0154 4022     		movs	r2, #64
 8719 0156 0021     		movs	r1, #0
 8720 0158 9954     		strb	r1, [r3, r2]
3575:Drivers/STM32F0xx_HAL_Driver/Src/stm32f0xx_hal_i2c.c **** 
3576:Drivers/STM32F0xx_HAL_Driver/Src/stm32f0xx_hal_i2c.c ****   return HAL_OK;
 8721              		.loc 1 3576 10
 8722 015a 0023     		movs	r3, #0
 8723              	.L383:
3577:Drivers/STM32F0xx_HAL_Driver/Src/stm32f0xx_hal_i2c.c **** }
 8724              		.loc 1 3577 1
 8725 015c 1800     		movs	r0, r3
 8726 015e BD46     		mov	sp, r7
 8727 0160 07B0     		add	sp, sp, #28
 8728              		@ sp needed
 8729 0162 90BD     		pop	{r4, r7, pc}
 8730              		.cfi_endproc
 8731              	.LFE84:
 8733              		.section	.text.I2C_Slave_ISR_DMA,"ax",%progbits
 8734              		.align	1
 8735              		.syntax unified
 8736              		.code	16
 8737              		.thumb_func
 8738              		.fpu softvfp
 8740              	I2C_Slave_ISR_DMA:
 8741              	.LFB85:
3578:Drivers/STM32F0xx_HAL_Driver/Src/stm32f0xx_hal_i2c.c **** 
3579:Drivers/STM32F0xx_HAL_Driver/Src/stm32f0xx_hal_i2c.c **** /**
3580:Drivers/STM32F0xx_HAL_Driver/Src/stm32f0xx_hal_i2c.c ****   * @brief  Interrupt Sub-Routine which handle the Interrupt Flags Slave Mode with DMA.
3581:Drivers/STM32F0xx_HAL_Driver/Src/stm32f0xx_hal_i2c.c ****   * @param  hi2c Pointer to a I2C_HandleTypeDef structure that contains
ARM GAS  C:\Users\ADMINI~1\AppData\Local\Temp\cc3zYV2m.s 			page 216


3582:Drivers/STM32F0xx_HAL_Driver/Src/stm32f0xx_hal_i2c.c ****   *                the configuration information for the specified I2C.
3583:Drivers/STM32F0xx_HAL_Driver/Src/stm32f0xx_hal_i2c.c ****   * @param  ITFlags Interrupt flags to handle.
3584:Drivers/STM32F0xx_HAL_Driver/Src/stm32f0xx_hal_i2c.c ****   * @param  ITSources Interrupt sources enabled.
3585:Drivers/STM32F0xx_HAL_Driver/Src/stm32f0xx_hal_i2c.c ****   * @retval HAL status
3586:Drivers/STM32F0xx_HAL_Driver/Src/stm32f0xx_hal_i2c.c ****   */
3587:Drivers/STM32F0xx_HAL_Driver/Src/stm32f0xx_hal_i2c.c **** static HAL_StatusTypeDef I2C_Slave_ISR_DMA(struct __I2C_HandleTypeDef *hi2c, uint32_t ITFlags, uint
3588:Drivers/STM32F0xx_HAL_Driver/Src/stm32f0xx_hal_i2c.c **** {
 8742              		.loc 1 3588 1
 8743              		.cfi_startproc
 8744              		@ args = 0, pretend = 0, frame = 16
 8745              		@ frame_needed = 1, uses_anonymous_args = 0
 8746 0000 80B5     		push	{r7, lr}
 8747              	.LCFI144:
 8748              		.cfi_def_cfa_offset 8
 8749              		.cfi_offset 7, -8
 8750              		.cfi_offset 14, -4
 8751 0002 84B0     		sub	sp, sp, #16
 8752              	.LCFI145:
 8753              		.cfi_def_cfa_offset 24
 8754 0004 00AF     		add	r7, sp, #0
 8755              	.LCFI146:
 8756              		.cfi_def_cfa_register 7
 8757 0006 F860     		str	r0, [r7, #12]
 8758 0008 B960     		str	r1, [r7, #8]
 8759 000a 7A60     		str	r2, [r7, #4]
3589:Drivers/STM32F0xx_HAL_Driver/Src/stm32f0xx_hal_i2c.c ****   /* Process locked */
3590:Drivers/STM32F0xx_HAL_Driver/Src/stm32f0xx_hal_i2c.c ****   __HAL_LOCK(hi2c);
 8760              		.loc 1 3590 3
 8761 000c FB68     		ldr	r3, [r7, #12]
 8762 000e 4022     		movs	r2, #64
 8763 0010 9B5C     		ldrb	r3, [r3, r2]
 8764 0012 012B     		cmp	r3, #1
 8765 0014 01D1     		bne	.L393
 8766              		.loc 1 3590 3 is_stmt 0 discriminator 1
 8767 0016 0223     		movs	r3, #2
 8768 0018 52E0     		b	.L394
 8769              	.L393:
 8770              		.loc 1 3590 3 discriminator 2
 8771 001a FB68     		ldr	r3, [r7, #12]
 8772 001c 4022     		movs	r2, #64
 8773 001e 0121     		movs	r1, #1
 8774 0020 9954     		strb	r1, [r3, r2]
3591:Drivers/STM32F0xx_HAL_Driver/Src/stm32f0xx_hal_i2c.c **** 
3592:Drivers/STM32F0xx_HAL_Driver/Src/stm32f0xx_hal_i2c.c ****   if (((ITFlags & I2C_FLAG_AF) != RESET) && ((ITSources & I2C_IT_NACKI) != RESET))
 8775              		.loc 1 3592 17 is_stmt 1 discriminator 2
 8776 0022 BB68     		ldr	r3, [r7, #8]
 8777 0024 1022     		movs	r2, #16
 8778 0026 1340     		ands	r3, r2
 8779              		.loc 1 3592 6 discriminator 2
 8780 0028 2AD0     		beq	.L395
 8781              		.loc 1 3592 57 discriminator 1
 8782 002a 7B68     		ldr	r3, [r7, #4]
 8783 002c 1022     		movs	r2, #16
 8784 002e 1340     		ands	r3, r2
 8785              		.loc 1 3592 42 discriminator 1
 8786 0030 26D0     		beq	.L395
3593:Drivers/STM32F0xx_HAL_Driver/Src/stm32f0xx_hal_i2c.c ****   {
ARM GAS  C:\Users\ADMINI~1\AppData\Local\Temp\cc3zYV2m.s 			page 217


3594:Drivers/STM32F0xx_HAL_Driver/Src/stm32f0xx_hal_i2c.c ****     /* Check that I2C transfer finished */
3595:Drivers/STM32F0xx_HAL_Driver/Src/stm32f0xx_hal_i2c.c ****     /* if yes, normal use case, a NACK is sent by the MASTER when Transfer is finished */
3596:Drivers/STM32F0xx_HAL_Driver/Src/stm32f0xx_hal_i2c.c ****     /* Mean XferCount == 0 */
3597:Drivers/STM32F0xx_HAL_Driver/Src/stm32f0xx_hal_i2c.c ****     /* So clear Flag NACKF only */
3598:Drivers/STM32F0xx_HAL_Driver/Src/stm32f0xx_hal_i2c.c ****     if (I2C_GET_DMA_REMAIN_DATA(hi2c) == 0U)
 8787              		.loc 1 3598 9
 8788 0032 FB68     		ldr	r3, [r7, #12]
 8789 0034 4122     		movs	r2, #65
 8790 0036 9B5C     		ldrb	r3, [r3, r2]
 8791 0038 DBB2     		uxtb	r3, r3
 8792              		.loc 1 3598 39
 8793 003a 212B     		cmp	r3, #33
 8794 003c 07D1     		bne	.L396
 8795              		.loc 1 3598 9 discriminator 1
 8796 003e FB68     		ldr	r3, [r7, #12]
 8797 0040 9B6B     		ldr	r3, [r3, #56]
 8798 0042 1B68     		ldr	r3, [r3]
 8799 0044 5B68     		ldr	r3, [r3, #4]
 8800              		.loc 1 3598 39 discriminator 1
 8801 0046 5A42     		rsbs	r2, r3, #0
 8802 0048 5341     		adcs	r3, r3, r2
 8803 004a DBB2     		uxtb	r3, r3
 8804 004c 06E0     		b	.L397
 8805              	.L396:
 8806              		.loc 1 3598 9 discriminator 2
 8807 004e FB68     		ldr	r3, [r7, #12]
 8808 0050 DB6B     		ldr	r3, [r3, #60]
 8809 0052 1B68     		ldr	r3, [r3]
 8810 0054 5B68     		ldr	r3, [r3, #4]
 8811              		.loc 1 3598 39 discriminator 2
 8812 0056 5A42     		rsbs	r2, r3, #0
 8813 0058 5341     		adcs	r3, r3, r2
 8814 005a DBB2     		uxtb	r3, r3
 8815              	.L397:
 8816              		.loc 1 3598 8 discriminator 4
 8817 005c 002B     		cmp	r3, #0
 8818 005e 04D0     		beq	.L398
3599:Drivers/STM32F0xx_HAL_Driver/Src/stm32f0xx_hal_i2c.c ****     {
3600:Drivers/STM32F0xx_HAL_Driver/Src/stm32f0xx_hal_i2c.c ****       /* Clear NACK Flag */
3601:Drivers/STM32F0xx_HAL_Driver/Src/stm32f0xx_hal_i2c.c ****       __HAL_I2C_CLEAR_FLAG(hi2c, I2C_FLAG_AF);
 8819              		.loc 1 3601 7
 8820 0060 FB68     		ldr	r3, [r7, #12]
 8821 0062 1B68     		ldr	r3, [r3]
 8822 0064 1022     		movs	r2, #16
 8823 0066 DA61     		str	r2, [r3, #28]
3598:Drivers/STM32F0xx_HAL_Driver/Src/stm32f0xx_hal_i2c.c ****     {
 8824              		.loc 1 3598 8
 8825 0068 25E0     		b	.L400
 8826              	.L398:
3602:Drivers/STM32F0xx_HAL_Driver/Src/stm32f0xx_hal_i2c.c ****     }
3603:Drivers/STM32F0xx_HAL_Driver/Src/stm32f0xx_hal_i2c.c ****     else
3604:Drivers/STM32F0xx_HAL_Driver/Src/stm32f0xx_hal_i2c.c ****     {
3605:Drivers/STM32F0xx_HAL_Driver/Src/stm32f0xx_hal_i2c.c ****       /* if no, error use case, a Non-Acknowledge of last Data is generated by the MASTER*/
3606:Drivers/STM32F0xx_HAL_Driver/Src/stm32f0xx_hal_i2c.c ****       /* Clear NACK Flag */
3607:Drivers/STM32F0xx_HAL_Driver/Src/stm32f0xx_hal_i2c.c ****       __HAL_I2C_CLEAR_FLAG(hi2c, I2C_FLAG_AF);
 8827              		.loc 1 3607 7
 8828 006a FB68     		ldr	r3, [r7, #12]
ARM GAS  C:\Users\ADMINI~1\AppData\Local\Temp\cc3zYV2m.s 			page 218


 8829 006c 1B68     		ldr	r3, [r3]
 8830 006e 1022     		movs	r2, #16
 8831 0070 DA61     		str	r2, [r3, #28]
3608:Drivers/STM32F0xx_HAL_Driver/Src/stm32f0xx_hal_i2c.c **** 
3609:Drivers/STM32F0xx_HAL_Driver/Src/stm32f0xx_hal_i2c.c ****       /* Set ErrorCode corresponding to a Non-Acknowledge */
3610:Drivers/STM32F0xx_HAL_Driver/Src/stm32f0xx_hal_i2c.c ****       hi2c->ErrorCode |= HAL_I2C_ERROR_AF;
 8832              		.loc 1 3610 23
 8833 0072 FB68     		ldr	r3, [r7, #12]
 8834 0074 5B6C     		ldr	r3, [r3, #68]
 8835 0076 0422     		movs	r2, #4
 8836 0078 1A43     		orrs	r2, r3
 8837 007a FB68     		ldr	r3, [r7, #12]
 8838 007c 5A64     		str	r2, [r3, #68]
3598:Drivers/STM32F0xx_HAL_Driver/Src/stm32f0xx_hal_i2c.c ****     {
 8839              		.loc 1 3598 8
 8840 007e 1AE0     		b	.L400
 8841              	.L395:
3611:Drivers/STM32F0xx_HAL_Driver/Src/stm32f0xx_hal_i2c.c ****     }
3612:Drivers/STM32F0xx_HAL_Driver/Src/stm32f0xx_hal_i2c.c ****   }
3613:Drivers/STM32F0xx_HAL_Driver/Src/stm32f0xx_hal_i2c.c ****   else if (((ITFlags & I2C_FLAG_ADDR) != RESET) && ((ITSources & I2C_IT_ADDRI) != RESET))
 8842              		.loc 1 3613 22
 8843 0080 BB68     		ldr	r3, [r7, #8]
 8844 0082 0822     		movs	r2, #8
 8845 0084 1340     		ands	r3, r2
 8846              		.loc 1 3613 11
 8847 0086 08D0     		beq	.L401
 8848              		.loc 1 3613 64 discriminator 1
 8849 0088 7B68     		ldr	r3, [r7, #4]
 8850 008a 0822     		movs	r2, #8
 8851 008c 1340     		ands	r3, r2
 8852              		.loc 1 3613 49 discriminator 1
 8853 008e 04D0     		beq	.L401
3614:Drivers/STM32F0xx_HAL_Driver/Src/stm32f0xx_hal_i2c.c ****   {
3615:Drivers/STM32F0xx_HAL_Driver/Src/stm32f0xx_hal_i2c.c ****     /* Clear ADDR flag */
3616:Drivers/STM32F0xx_HAL_Driver/Src/stm32f0xx_hal_i2c.c ****     __HAL_I2C_CLEAR_FLAG(hi2c, I2C_FLAG_ADDR);
 8854              		.loc 1 3616 5
 8855 0090 FB68     		ldr	r3, [r7, #12]
 8856 0092 1B68     		ldr	r3, [r3]
 8857 0094 0822     		movs	r2, #8
 8858 0096 DA61     		str	r2, [r3, #28]
 8859 0098 0DE0     		b	.L400
 8860              	.L401:
3617:Drivers/STM32F0xx_HAL_Driver/Src/stm32f0xx_hal_i2c.c ****   }
3618:Drivers/STM32F0xx_HAL_Driver/Src/stm32f0xx_hal_i2c.c ****   else if (((ITFlags & I2C_FLAG_STOPF) != RESET) && ((ITSources & I2C_IT_STOPI) != RESET))
 8861              		.loc 1 3618 22
 8862 009a BB68     		ldr	r3, [r7, #8]
 8863 009c 2022     		movs	r2, #32
 8864 009e 1340     		ands	r3, r2
 8865              		.loc 1 3618 11
 8866 00a0 09D0     		beq	.L400
 8867              		.loc 1 3618 65 discriminator 1
 8868 00a2 7B68     		ldr	r3, [r7, #4]
 8869 00a4 2022     		movs	r2, #32
 8870 00a6 1340     		ands	r3, r2
 8871              		.loc 1 3618 50 discriminator 1
 8872 00a8 05D0     		beq	.L400
3619:Drivers/STM32F0xx_HAL_Driver/Src/stm32f0xx_hal_i2c.c ****   {
ARM GAS  C:\Users\ADMINI~1\AppData\Local\Temp\cc3zYV2m.s 			page 219


3620:Drivers/STM32F0xx_HAL_Driver/Src/stm32f0xx_hal_i2c.c ****     /* Call I2C Slave complete process */
3621:Drivers/STM32F0xx_HAL_Driver/Src/stm32f0xx_hal_i2c.c ****     I2C_ITSlaveCplt(hi2c, ITFlags);
 8873              		.loc 1 3621 5
 8874 00aa BA68     		ldr	r2, [r7, #8]
 8875 00ac FB68     		ldr	r3, [r7, #12]
 8876 00ae 1100     		movs	r1, r2
 8877 00b0 1800     		movs	r0, r3
 8878 00b2 FFF7FEFF 		bl	I2C_ITSlaveCplt
 8879              	.L400:
3622:Drivers/STM32F0xx_HAL_Driver/Src/stm32f0xx_hal_i2c.c ****   }
3623:Drivers/STM32F0xx_HAL_Driver/Src/stm32f0xx_hal_i2c.c **** 
3624:Drivers/STM32F0xx_HAL_Driver/Src/stm32f0xx_hal_i2c.c ****   /* Process Unlocked */
3625:Drivers/STM32F0xx_HAL_Driver/Src/stm32f0xx_hal_i2c.c ****   __HAL_UNLOCK(hi2c);
 8880              		.loc 1 3625 3
 8881 00b6 FB68     		ldr	r3, [r7, #12]
 8882 00b8 4022     		movs	r2, #64
 8883 00ba 0021     		movs	r1, #0
 8884 00bc 9954     		strb	r1, [r3, r2]
3626:Drivers/STM32F0xx_HAL_Driver/Src/stm32f0xx_hal_i2c.c **** 
3627:Drivers/STM32F0xx_HAL_Driver/Src/stm32f0xx_hal_i2c.c ****   return HAL_OK;
 8885              		.loc 1 3627 10
 8886 00be 0023     		movs	r3, #0
 8887              	.L394:
3628:Drivers/STM32F0xx_HAL_Driver/Src/stm32f0xx_hal_i2c.c **** }
 8888              		.loc 1 3628 1
 8889 00c0 1800     		movs	r0, r3
 8890 00c2 BD46     		mov	sp, r7
 8891 00c4 04B0     		add	sp, sp, #16
 8892              		@ sp needed
 8893 00c6 80BD     		pop	{r7, pc}
 8894              		.cfi_endproc
 8895              	.LFE85:
 8897              		.section	.text.I2C_RequestMemoryWrite,"ax",%progbits
 8898              		.align	1
 8899              		.syntax unified
 8900              		.code	16
 8901              		.thumb_func
 8902              		.fpu softvfp
 8904              	I2C_RequestMemoryWrite:
 8905              	.LFB86:
3629:Drivers/STM32F0xx_HAL_Driver/Src/stm32f0xx_hal_i2c.c **** 
3630:Drivers/STM32F0xx_HAL_Driver/Src/stm32f0xx_hal_i2c.c **** /**
3631:Drivers/STM32F0xx_HAL_Driver/Src/stm32f0xx_hal_i2c.c ****   * @brief  Master sends target device address followed by internal memory address for write reques
3632:Drivers/STM32F0xx_HAL_Driver/Src/stm32f0xx_hal_i2c.c ****   * @param  hi2c Pointer to a I2C_HandleTypeDef structure that contains
3633:Drivers/STM32F0xx_HAL_Driver/Src/stm32f0xx_hal_i2c.c ****   *                the configuration information for the specified I2C.
3634:Drivers/STM32F0xx_HAL_Driver/Src/stm32f0xx_hal_i2c.c ****   * @param  DevAddress Target device address: The device 7 bits address value
3635:Drivers/STM32F0xx_HAL_Driver/Src/stm32f0xx_hal_i2c.c ****   *         in datasheet must be shift at right before call interface
3636:Drivers/STM32F0xx_HAL_Driver/Src/stm32f0xx_hal_i2c.c ****   * @param  MemAddress Internal memory address
3637:Drivers/STM32F0xx_HAL_Driver/Src/stm32f0xx_hal_i2c.c ****   * @param  MemAddSize Size of internal memory address
3638:Drivers/STM32F0xx_HAL_Driver/Src/stm32f0xx_hal_i2c.c ****   * @param  Timeout Timeout duration
3639:Drivers/STM32F0xx_HAL_Driver/Src/stm32f0xx_hal_i2c.c ****   * @param  Tickstart Tick start value
3640:Drivers/STM32F0xx_HAL_Driver/Src/stm32f0xx_hal_i2c.c ****   * @retval HAL status
3641:Drivers/STM32F0xx_HAL_Driver/Src/stm32f0xx_hal_i2c.c ****   */
3642:Drivers/STM32F0xx_HAL_Driver/Src/stm32f0xx_hal_i2c.c **** static HAL_StatusTypeDef I2C_RequestMemoryWrite(I2C_HandleTypeDef *hi2c, uint16_t DevAddress, uint1
3643:Drivers/STM32F0xx_HAL_Driver/Src/stm32f0xx_hal_i2c.c **** {
 8906              		.loc 1 3643 1
 8907              		.cfi_startproc
ARM GAS  C:\Users\ADMINI~1\AppData\Local\Temp\cc3zYV2m.s 			page 220


 8908              		@ args = 8, pretend = 0, frame = 16
 8909              		@ frame_needed = 1, uses_anonymous_args = 0
 8910 0000 B0B5     		push	{r4, r5, r7, lr}
 8911              	.LCFI147:
 8912              		.cfi_def_cfa_offset 16
 8913              		.cfi_offset 4, -16
 8914              		.cfi_offset 5, -12
 8915              		.cfi_offset 7, -8
 8916              		.cfi_offset 14, -4
 8917 0002 86B0     		sub	sp, sp, #24
 8918              	.LCFI148:
 8919              		.cfi_def_cfa_offset 40
 8920 0004 02AF     		add	r7, sp, #8
 8921              	.LCFI149:
 8922              		.cfi_def_cfa 7, 32
 8923 0006 F860     		str	r0, [r7, #12]
 8924 0008 0C00     		movs	r4, r1
 8925 000a 1000     		movs	r0, r2
 8926 000c 1900     		movs	r1, r3
 8927 000e 0A25     		movs	r5, #10
 8928 0010 7B19     		adds	r3, r7, r5
 8929 0012 221C     		adds	r2, r4, #0
 8930 0014 1A80     		strh	r2, [r3]
 8931 0016 0823     		movs	r3, #8
 8932 0018 FB18     		adds	r3, r7, r3
 8933 001a 021C     		adds	r2, r0, #0
 8934 001c 1A80     		strh	r2, [r3]
 8935 001e BB1D     		adds	r3, r7, #6
 8936 0020 0A1C     		adds	r2, r1, #0
 8937 0022 1A80     		strh	r2, [r3]
3644:Drivers/STM32F0xx_HAL_Driver/Src/stm32f0xx_hal_i2c.c ****   I2C_TransferConfig(hi2c, DevAddress, MemAddSize, I2C_RELOAD_MODE, I2C_GENERATE_START_WRITE);
 8938              		.loc 1 3644 3
 8939 0024 BB1D     		adds	r3, r7, #6
 8940 0026 1B88     		ldrh	r3, [r3]
 8941 0028 DAB2     		uxtb	r2, r3
 8942 002a 8023     		movs	r3, #128
 8943 002c 5C04     		lsls	r4, r3, #17
 8944 002e 7B19     		adds	r3, r7, r5
 8945 0030 1988     		ldrh	r1, [r3]
 8946 0032 F868     		ldr	r0, [r7, #12]
 8947 0034 8023     		movs	r3, #128
 8948 0036 9B01     		lsls	r3, r3, #6
 8949 0038 0093     		str	r3, [sp]
 8950 003a 2300     		movs	r3, r4
 8951 003c FFF7FEFF 		bl	I2C_TransferConfig
3645:Drivers/STM32F0xx_HAL_Driver/Src/stm32f0xx_hal_i2c.c **** 
3646:Drivers/STM32F0xx_HAL_Driver/Src/stm32f0xx_hal_i2c.c ****   /* Wait until TXIS flag is set */
3647:Drivers/STM32F0xx_HAL_Driver/Src/stm32f0xx_hal_i2c.c ****   if (I2C_WaitOnTXISFlagUntilTimeout(hi2c, Timeout, Tickstart) != HAL_OK)
 8952              		.loc 1 3647 7
 8953 0040 7A6A     		ldr	r2, [r7, #36]
 8954 0042 396A     		ldr	r1, [r7, #32]
 8955 0044 FB68     		ldr	r3, [r7, #12]
 8956 0046 1800     		movs	r0, r3
 8957 0048 FFF7FEFF 		bl	I2C_WaitOnTXISFlagUntilTimeout
 8958 004c 031E     		subs	r3, r0, #0
 8959              		.loc 1 3647 6
 8960 004e 07D0     		beq	.L403
ARM GAS  C:\Users\ADMINI~1\AppData\Local\Temp\cc3zYV2m.s 			page 221


3648:Drivers/STM32F0xx_HAL_Driver/Src/stm32f0xx_hal_i2c.c ****   {
3649:Drivers/STM32F0xx_HAL_Driver/Src/stm32f0xx_hal_i2c.c ****     if (hi2c->ErrorCode == HAL_I2C_ERROR_AF)
 8961              		.loc 1 3649 13
 8962 0050 FB68     		ldr	r3, [r7, #12]
 8963 0052 5B6C     		ldr	r3, [r3, #68]
 8964              		.loc 1 3649 8
 8965 0054 042B     		cmp	r3, #4
 8966 0056 01D1     		bne	.L404
3650:Drivers/STM32F0xx_HAL_Driver/Src/stm32f0xx_hal_i2c.c ****     {
3651:Drivers/STM32F0xx_HAL_Driver/Src/stm32f0xx_hal_i2c.c ****       return HAL_ERROR;
 8967              		.loc 1 3651 14
 8968 0058 0123     		movs	r3, #1
 8969 005a 3BE0     		b	.L405
 8970              	.L404:
3652:Drivers/STM32F0xx_HAL_Driver/Src/stm32f0xx_hal_i2c.c ****     }
3653:Drivers/STM32F0xx_HAL_Driver/Src/stm32f0xx_hal_i2c.c ****     else
3654:Drivers/STM32F0xx_HAL_Driver/Src/stm32f0xx_hal_i2c.c ****     {
3655:Drivers/STM32F0xx_HAL_Driver/Src/stm32f0xx_hal_i2c.c ****       return HAL_TIMEOUT;
 8971              		.loc 1 3655 14
 8972 005c 0323     		movs	r3, #3
 8973 005e 39E0     		b	.L405
 8974              	.L403:
3656:Drivers/STM32F0xx_HAL_Driver/Src/stm32f0xx_hal_i2c.c ****     }
3657:Drivers/STM32F0xx_HAL_Driver/Src/stm32f0xx_hal_i2c.c ****   }
3658:Drivers/STM32F0xx_HAL_Driver/Src/stm32f0xx_hal_i2c.c **** 
3659:Drivers/STM32F0xx_HAL_Driver/Src/stm32f0xx_hal_i2c.c ****   /* If Memory address size is 8Bit */
3660:Drivers/STM32F0xx_HAL_Driver/Src/stm32f0xx_hal_i2c.c ****   if (MemAddSize == I2C_MEMADD_SIZE_8BIT)
 8975              		.loc 1 3660 6
 8976 0060 BB1D     		adds	r3, r7, #6
 8977 0062 1B88     		ldrh	r3, [r3]
 8978 0064 012B     		cmp	r3, #1
 8979 0066 07D1     		bne	.L406
3661:Drivers/STM32F0xx_HAL_Driver/Src/stm32f0xx_hal_i2c.c ****   {
3662:Drivers/STM32F0xx_HAL_Driver/Src/stm32f0xx_hal_i2c.c ****     /* Send Memory Address */
3663:Drivers/STM32F0xx_HAL_Driver/Src/stm32f0xx_hal_i2c.c ****     hi2c->Instance->TXDR = I2C_MEM_ADD_LSB(MemAddress);
 8980              		.loc 1 3663 28
 8981 0068 0823     		movs	r3, #8
 8982 006a FB18     		adds	r3, r7, r3
 8983 006c 1B88     		ldrh	r3, [r3]
 8984 006e DAB2     		uxtb	r2, r3
 8985              		.loc 1 3663 9
 8986 0070 FB68     		ldr	r3, [r7, #12]
 8987 0072 1B68     		ldr	r3, [r3]
 8988              		.loc 1 3663 26
 8989 0074 9A62     		str	r2, [r3, #40]
 8990 0076 1FE0     		b	.L407
 8991              	.L406:
3664:Drivers/STM32F0xx_HAL_Driver/Src/stm32f0xx_hal_i2c.c ****   }
3665:Drivers/STM32F0xx_HAL_Driver/Src/stm32f0xx_hal_i2c.c ****   /* If Memory address size is 16Bit */
3666:Drivers/STM32F0xx_HAL_Driver/Src/stm32f0xx_hal_i2c.c ****   else
3667:Drivers/STM32F0xx_HAL_Driver/Src/stm32f0xx_hal_i2c.c ****   {
3668:Drivers/STM32F0xx_HAL_Driver/Src/stm32f0xx_hal_i2c.c ****     /* Send MSB of Memory Address */
3669:Drivers/STM32F0xx_HAL_Driver/Src/stm32f0xx_hal_i2c.c ****     hi2c->Instance->TXDR = I2C_MEM_ADD_MSB(MemAddress);
 8992              		.loc 1 3669 28
 8993 0078 0823     		movs	r3, #8
 8994 007a FB18     		adds	r3, r7, r3
 8995 007c 1B88     		ldrh	r3, [r3]
ARM GAS  C:\Users\ADMINI~1\AppData\Local\Temp\cc3zYV2m.s 			page 222


 8996 007e 1B0A     		lsrs	r3, r3, #8
 8997 0080 9BB2     		uxth	r3, r3
 8998 0082 DAB2     		uxtb	r2, r3
 8999              		.loc 1 3669 9
 9000 0084 FB68     		ldr	r3, [r7, #12]
 9001 0086 1B68     		ldr	r3, [r3]
 9002              		.loc 1 3669 26
 9003 0088 9A62     		str	r2, [r3, #40]
3670:Drivers/STM32F0xx_HAL_Driver/Src/stm32f0xx_hal_i2c.c **** 
3671:Drivers/STM32F0xx_HAL_Driver/Src/stm32f0xx_hal_i2c.c ****     /* Wait until TXIS flag is set */
3672:Drivers/STM32F0xx_HAL_Driver/Src/stm32f0xx_hal_i2c.c ****     if (I2C_WaitOnTXISFlagUntilTimeout(hi2c, Timeout, Tickstart) != HAL_OK)
 9004              		.loc 1 3672 9
 9005 008a 7A6A     		ldr	r2, [r7, #36]
 9006 008c 396A     		ldr	r1, [r7, #32]
 9007 008e FB68     		ldr	r3, [r7, #12]
 9008 0090 1800     		movs	r0, r3
 9009 0092 FFF7FEFF 		bl	I2C_WaitOnTXISFlagUntilTimeout
 9010 0096 031E     		subs	r3, r0, #0
 9011              		.loc 1 3672 8
 9012 0098 07D0     		beq	.L408
3673:Drivers/STM32F0xx_HAL_Driver/Src/stm32f0xx_hal_i2c.c ****     {
3674:Drivers/STM32F0xx_HAL_Driver/Src/stm32f0xx_hal_i2c.c ****       if (hi2c->ErrorCode == HAL_I2C_ERROR_AF)
 9013              		.loc 1 3674 15
 9014 009a FB68     		ldr	r3, [r7, #12]
 9015 009c 5B6C     		ldr	r3, [r3, #68]
 9016              		.loc 1 3674 10
 9017 009e 042B     		cmp	r3, #4
 9018 00a0 01D1     		bne	.L409
3675:Drivers/STM32F0xx_HAL_Driver/Src/stm32f0xx_hal_i2c.c ****       {
3676:Drivers/STM32F0xx_HAL_Driver/Src/stm32f0xx_hal_i2c.c ****         return HAL_ERROR;
 9019              		.loc 1 3676 16
 9020 00a2 0123     		movs	r3, #1
 9021 00a4 16E0     		b	.L405
 9022              	.L409:
3677:Drivers/STM32F0xx_HAL_Driver/Src/stm32f0xx_hal_i2c.c ****       }
3678:Drivers/STM32F0xx_HAL_Driver/Src/stm32f0xx_hal_i2c.c ****       else
3679:Drivers/STM32F0xx_HAL_Driver/Src/stm32f0xx_hal_i2c.c ****       {
3680:Drivers/STM32F0xx_HAL_Driver/Src/stm32f0xx_hal_i2c.c ****         return HAL_TIMEOUT;
 9023              		.loc 1 3680 16
 9024 00a6 0323     		movs	r3, #3
 9025 00a8 14E0     		b	.L405
 9026              	.L408:
3681:Drivers/STM32F0xx_HAL_Driver/Src/stm32f0xx_hal_i2c.c ****       }
3682:Drivers/STM32F0xx_HAL_Driver/Src/stm32f0xx_hal_i2c.c ****     }
3683:Drivers/STM32F0xx_HAL_Driver/Src/stm32f0xx_hal_i2c.c **** 
3684:Drivers/STM32F0xx_HAL_Driver/Src/stm32f0xx_hal_i2c.c ****     /* Send LSB of Memory Address */
3685:Drivers/STM32F0xx_HAL_Driver/Src/stm32f0xx_hal_i2c.c ****     hi2c->Instance->TXDR = I2C_MEM_ADD_LSB(MemAddress);
 9027              		.loc 1 3685 28
 9028 00aa 0823     		movs	r3, #8
 9029 00ac FB18     		adds	r3, r7, r3
 9030 00ae 1B88     		ldrh	r3, [r3]
 9031 00b0 DAB2     		uxtb	r2, r3
 9032              		.loc 1 3685 9
 9033 00b2 FB68     		ldr	r3, [r7, #12]
 9034 00b4 1B68     		ldr	r3, [r3]
 9035              		.loc 1 3685 26
 9036 00b6 9A62     		str	r2, [r3, #40]
ARM GAS  C:\Users\ADMINI~1\AppData\Local\Temp\cc3zYV2m.s 			page 223


 9037              	.L407:
3686:Drivers/STM32F0xx_HAL_Driver/Src/stm32f0xx_hal_i2c.c ****   }
3687:Drivers/STM32F0xx_HAL_Driver/Src/stm32f0xx_hal_i2c.c **** 
3688:Drivers/STM32F0xx_HAL_Driver/Src/stm32f0xx_hal_i2c.c ****   /* Wait until TCR flag is set */
3689:Drivers/STM32F0xx_HAL_Driver/Src/stm32f0xx_hal_i2c.c ****   if (I2C_WaitOnFlagUntilTimeout(hi2c, I2C_FLAG_TCR, RESET, Timeout, Tickstart) != HAL_OK)
 9038              		.loc 1 3689 7
 9039 00b8 3A6A     		ldr	r2, [r7, #32]
 9040 00ba F868     		ldr	r0, [r7, #12]
 9041 00bc 7B6A     		ldr	r3, [r7, #36]
 9042 00be 0093     		str	r3, [sp]
 9043 00c0 1300     		movs	r3, r2
 9044 00c2 0022     		movs	r2, #0
 9045 00c4 8021     		movs	r1, #128
 9046 00c6 FFF7FEFF 		bl	I2C_WaitOnFlagUntilTimeout
 9047 00ca 031E     		subs	r3, r0, #0
 9048              		.loc 1 3689 6
 9049 00cc 01D0     		beq	.L410
3690:Drivers/STM32F0xx_HAL_Driver/Src/stm32f0xx_hal_i2c.c ****   {
3691:Drivers/STM32F0xx_HAL_Driver/Src/stm32f0xx_hal_i2c.c ****     return HAL_TIMEOUT;
 9050              		.loc 1 3691 12
 9051 00ce 0323     		movs	r3, #3
 9052 00d0 00E0     		b	.L405
 9053              	.L410:
3692:Drivers/STM32F0xx_HAL_Driver/Src/stm32f0xx_hal_i2c.c ****   }
3693:Drivers/STM32F0xx_HAL_Driver/Src/stm32f0xx_hal_i2c.c **** 
3694:Drivers/STM32F0xx_HAL_Driver/Src/stm32f0xx_hal_i2c.c ****   return HAL_OK;
 9054              		.loc 1 3694 10
 9055 00d2 0023     		movs	r3, #0
 9056              	.L405:
3695:Drivers/STM32F0xx_HAL_Driver/Src/stm32f0xx_hal_i2c.c **** }
 9057              		.loc 1 3695 1
 9058 00d4 1800     		movs	r0, r3
 9059 00d6 BD46     		mov	sp, r7
 9060 00d8 04B0     		add	sp, sp, #16
 9061              		@ sp needed
 9062 00da B0BD     		pop	{r4, r5, r7, pc}
 9063              		.cfi_endproc
 9064              	.LFE86:
 9066              		.section	.text.I2C_RequestMemoryRead,"ax",%progbits
 9067              		.align	1
 9068              		.syntax unified
 9069              		.code	16
 9070              		.thumb_func
 9071              		.fpu softvfp
 9073              	I2C_RequestMemoryRead:
 9074              	.LFB87:
3696:Drivers/STM32F0xx_HAL_Driver/Src/stm32f0xx_hal_i2c.c **** 
3697:Drivers/STM32F0xx_HAL_Driver/Src/stm32f0xx_hal_i2c.c **** /**
3698:Drivers/STM32F0xx_HAL_Driver/Src/stm32f0xx_hal_i2c.c ****   * @brief  Master sends target device address followed by internal memory address for read request
3699:Drivers/STM32F0xx_HAL_Driver/Src/stm32f0xx_hal_i2c.c ****   * @param  hi2c Pointer to a I2C_HandleTypeDef structure that contains
3700:Drivers/STM32F0xx_HAL_Driver/Src/stm32f0xx_hal_i2c.c ****   *                the configuration information for the specified I2C.
3701:Drivers/STM32F0xx_HAL_Driver/Src/stm32f0xx_hal_i2c.c ****   * @param  DevAddress Target device address: The device 7 bits address value
3702:Drivers/STM32F0xx_HAL_Driver/Src/stm32f0xx_hal_i2c.c ****   *         in datasheet must be shift at right before call interface
3703:Drivers/STM32F0xx_HAL_Driver/Src/stm32f0xx_hal_i2c.c ****   * @param  MemAddress Internal memory address
3704:Drivers/STM32F0xx_HAL_Driver/Src/stm32f0xx_hal_i2c.c ****   * @param  MemAddSize Size of internal memory address
3705:Drivers/STM32F0xx_HAL_Driver/Src/stm32f0xx_hal_i2c.c ****   * @param  Timeout Timeout duration
3706:Drivers/STM32F0xx_HAL_Driver/Src/stm32f0xx_hal_i2c.c ****   * @param  Tickstart Tick start value
ARM GAS  C:\Users\ADMINI~1\AppData\Local\Temp\cc3zYV2m.s 			page 224


3707:Drivers/STM32F0xx_HAL_Driver/Src/stm32f0xx_hal_i2c.c ****   * @retval HAL status
3708:Drivers/STM32F0xx_HAL_Driver/Src/stm32f0xx_hal_i2c.c ****   */
3709:Drivers/STM32F0xx_HAL_Driver/Src/stm32f0xx_hal_i2c.c **** static HAL_StatusTypeDef I2C_RequestMemoryRead(I2C_HandleTypeDef *hi2c, uint16_t DevAddress, uint16
3710:Drivers/STM32F0xx_HAL_Driver/Src/stm32f0xx_hal_i2c.c **** {
 9075              		.loc 1 3710 1
 9076              		.cfi_startproc
 9077              		@ args = 8, pretend = 0, frame = 16
 9078              		@ frame_needed = 1, uses_anonymous_args = 0
 9079 0000 B0B5     		push	{r4, r5, r7, lr}
 9080              	.LCFI150:
 9081              		.cfi_def_cfa_offset 16
 9082              		.cfi_offset 4, -16
 9083              		.cfi_offset 5, -12
 9084              		.cfi_offset 7, -8
 9085              		.cfi_offset 14, -4
 9086 0002 86B0     		sub	sp, sp, #24
 9087              	.LCFI151:
 9088              		.cfi_def_cfa_offset 40
 9089 0004 02AF     		add	r7, sp, #8
 9090              	.LCFI152:
 9091              		.cfi_def_cfa 7, 32
 9092 0006 F860     		str	r0, [r7, #12]
 9093 0008 0C00     		movs	r4, r1
 9094 000a 1000     		movs	r0, r2
 9095 000c 1900     		movs	r1, r3
 9096 000e 0A25     		movs	r5, #10
 9097 0010 7B19     		adds	r3, r7, r5
 9098 0012 221C     		adds	r2, r4, #0
 9099 0014 1A80     		strh	r2, [r3]
 9100 0016 0823     		movs	r3, #8
 9101 0018 FB18     		adds	r3, r7, r3
 9102 001a 021C     		adds	r2, r0, #0
 9103 001c 1A80     		strh	r2, [r3]
 9104 001e BB1D     		adds	r3, r7, #6
 9105 0020 0A1C     		adds	r2, r1, #0
 9106 0022 1A80     		strh	r2, [r3]
3711:Drivers/STM32F0xx_HAL_Driver/Src/stm32f0xx_hal_i2c.c ****   I2C_TransferConfig(hi2c, DevAddress, MemAddSize, I2C_SOFTEND_MODE, I2C_GENERATE_START_WRITE);
 9107              		.loc 1 3711 3
 9108 0024 BB1D     		adds	r3, r7, #6
 9109 0026 1B88     		ldrh	r3, [r3]
 9110 0028 DAB2     		uxtb	r2, r3
 9111 002a 7B19     		adds	r3, r7, r5
 9112 002c 1988     		ldrh	r1, [r3]
 9113 002e F868     		ldr	r0, [r7, #12]
 9114 0030 8023     		movs	r3, #128
 9115 0032 9B01     		lsls	r3, r3, #6
 9116 0034 0093     		str	r3, [sp]
 9117 0036 0023     		movs	r3, #0
 9118 0038 FFF7FEFF 		bl	I2C_TransferConfig
3712:Drivers/STM32F0xx_HAL_Driver/Src/stm32f0xx_hal_i2c.c **** 
3713:Drivers/STM32F0xx_HAL_Driver/Src/stm32f0xx_hal_i2c.c ****   /* Wait until TXIS flag is set */
3714:Drivers/STM32F0xx_HAL_Driver/Src/stm32f0xx_hal_i2c.c ****   if (I2C_WaitOnTXISFlagUntilTimeout(hi2c, Timeout, Tickstart) != HAL_OK)
 9119              		.loc 1 3714 7
 9120 003c 7A6A     		ldr	r2, [r7, #36]
 9121 003e 396A     		ldr	r1, [r7, #32]
 9122 0040 FB68     		ldr	r3, [r7, #12]
 9123 0042 1800     		movs	r0, r3
ARM GAS  C:\Users\ADMINI~1\AppData\Local\Temp\cc3zYV2m.s 			page 225


 9124 0044 FFF7FEFF 		bl	I2C_WaitOnTXISFlagUntilTimeout
 9125 0048 031E     		subs	r3, r0, #0
 9126              		.loc 1 3714 6
 9127 004a 07D0     		beq	.L412
3715:Drivers/STM32F0xx_HAL_Driver/Src/stm32f0xx_hal_i2c.c ****   {
3716:Drivers/STM32F0xx_HAL_Driver/Src/stm32f0xx_hal_i2c.c ****     if (hi2c->ErrorCode == HAL_I2C_ERROR_AF)
 9128              		.loc 1 3716 13
 9129 004c FB68     		ldr	r3, [r7, #12]
 9130 004e 5B6C     		ldr	r3, [r3, #68]
 9131              		.loc 1 3716 8
 9132 0050 042B     		cmp	r3, #4
 9133 0052 01D1     		bne	.L413
3717:Drivers/STM32F0xx_HAL_Driver/Src/stm32f0xx_hal_i2c.c ****     {
3718:Drivers/STM32F0xx_HAL_Driver/Src/stm32f0xx_hal_i2c.c ****       return HAL_ERROR;
 9134              		.loc 1 3718 14
 9135 0054 0123     		movs	r3, #1
 9136 0056 3BE0     		b	.L414
 9137              	.L413:
3719:Drivers/STM32F0xx_HAL_Driver/Src/stm32f0xx_hal_i2c.c ****     }
3720:Drivers/STM32F0xx_HAL_Driver/Src/stm32f0xx_hal_i2c.c ****     else
3721:Drivers/STM32F0xx_HAL_Driver/Src/stm32f0xx_hal_i2c.c ****     {
3722:Drivers/STM32F0xx_HAL_Driver/Src/stm32f0xx_hal_i2c.c ****       return HAL_TIMEOUT;
 9138              		.loc 1 3722 14
 9139 0058 0323     		movs	r3, #3
 9140 005a 39E0     		b	.L414
 9141              	.L412:
3723:Drivers/STM32F0xx_HAL_Driver/Src/stm32f0xx_hal_i2c.c ****     }
3724:Drivers/STM32F0xx_HAL_Driver/Src/stm32f0xx_hal_i2c.c ****   }
3725:Drivers/STM32F0xx_HAL_Driver/Src/stm32f0xx_hal_i2c.c **** 
3726:Drivers/STM32F0xx_HAL_Driver/Src/stm32f0xx_hal_i2c.c ****   /* If Memory address size is 8Bit */
3727:Drivers/STM32F0xx_HAL_Driver/Src/stm32f0xx_hal_i2c.c ****   if (MemAddSize == I2C_MEMADD_SIZE_8BIT)
 9142              		.loc 1 3727 6
 9143 005c BB1D     		adds	r3, r7, #6
 9144 005e 1B88     		ldrh	r3, [r3]
 9145 0060 012B     		cmp	r3, #1
 9146 0062 07D1     		bne	.L415
3728:Drivers/STM32F0xx_HAL_Driver/Src/stm32f0xx_hal_i2c.c ****   {
3729:Drivers/STM32F0xx_HAL_Driver/Src/stm32f0xx_hal_i2c.c ****     /* Send Memory Address */
3730:Drivers/STM32F0xx_HAL_Driver/Src/stm32f0xx_hal_i2c.c ****     hi2c->Instance->TXDR = I2C_MEM_ADD_LSB(MemAddress);
 9147              		.loc 1 3730 28
 9148 0064 0823     		movs	r3, #8
 9149 0066 FB18     		adds	r3, r7, r3
 9150 0068 1B88     		ldrh	r3, [r3]
 9151 006a DAB2     		uxtb	r2, r3
 9152              		.loc 1 3730 9
 9153 006c FB68     		ldr	r3, [r7, #12]
 9154 006e 1B68     		ldr	r3, [r3]
 9155              		.loc 1 3730 26
 9156 0070 9A62     		str	r2, [r3, #40]
 9157 0072 1FE0     		b	.L416
 9158              	.L415:
3731:Drivers/STM32F0xx_HAL_Driver/Src/stm32f0xx_hal_i2c.c ****   }
3732:Drivers/STM32F0xx_HAL_Driver/Src/stm32f0xx_hal_i2c.c ****   /* If Memory address size is 16Bit */
3733:Drivers/STM32F0xx_HAL_Driver/Src/stm32f0xx_hal_i2c.c ****   else
3734:Drivers/STM32F0xx_HAL_Driver/Src/stm32f0xx_hal_i2c.c ****   {
3735:Drivers/STM32F0xx_HAL_Driver/Src/stm32f0xx_hal_i2c.c ****     /* Send MSB of Memory Address */
3736:Drivers/STM32F0xx_HAL_Driver/Src/stm32f0xx_hal_i2c.c ****     hi2c->Instance->TXDR = I2C_MEM_ADD_MSB(MemAddress);
ARM GAS  C:\Users\ADMINI~1\AppData\Local\Temp\cc3zYV2m.s 			page 226


 9159              		.loc 1 3736 28
 9160 0074 0823     		movs	r3, #8
 9161 0076 FB18     		adds	r3, r7, r3
 9162 0078 1B88     		ldrh	r3, [r3]
 9163 007a 1B0A     		lsrs	r3, r3, #8
 9164 007c 9BB2     		uxth	r3, r3
 9165 007e DAB2     		uxtb	r2, r3
 9166              		.loc 1 3736 9
 9167 0080 FB68     		ldr	r3, [r7, #12]
 9168 0082 1B68     		ldr	r3, [r3]
 9169              		.loc 1 3736 26
 9170 0084 9A62     		str	r2, [r3, #40]
3737:Drivers/STM32F0xx_HAL_Driver/Src/stm32f0xx_hal_i2c.c **** 
3738:Drivers/STM32F0xx_HAL_Driver/Src/stm32f0xx_hal_i2c.c ****     /* Wait until TXIS flag is set */
3739:Drivers/STM32F0xx_HAL_Driver/Src/stm32f0xx_hal_i2c.c ****     if (I2C_WaitOnTXISFlagUntilTimeout(hi2c, Timeout, Tickstart) != HAL_OK)
 9171              		.loc 1 3739 9
 9172 0086 7A6A     		ldr	r2, [r7, #36]
 9173 0088 396A     		ldr	r1, [r7, #32]
 9174 008a FB68     		ldr	r3, [r7, #12]
 9175 008c 1800     		movs	r0, r3
 9176 008e FFF7FEFF 		bl	I2C_WaitOnTXISFlagUntilTimeout
 9177 0092 031E     		subs	r3, r0, #0
 9178              		.loc 1 3739 8
 9179 0094 07D0     		beq	.L417
3740:Drivers/STM32F0xx_HAL_Driver/Src/stm32f0xx_hal_i2c.c ****     {
3741:Drivers/STM32F0xx_HAL_Driver/Src/stm32f0xx_hal_i2c.c ****       if (hi2c->ErrorCode == HAL_I2C_ERROR_AF)
 9180              		.loc 1 3741 15
 9181 0096 FB68     		ldr	r3, [r7, #12]
 9182 0098 5B6C     		ldr	r3, [r3, #68]
 9183              		.loc 1 3741 10
 9184 009a 042B     		cmp	r3, #4
 9185 009c 01D1     		bne	.L418
3742:Drivers/STM32F0xx_HAL_Driver/Src/stm32f0xx_hal_i2c.c ****       {
3743:Drivers/STM32F0xx_HAL_Driver/Src/stm32f0xx_hal_i2c.c ****         return HAL_ERROR;
 9186              		.loc 1 3743 16
 9187 009e 0123     		movs	r3, #1
 9188 00a0 16E0     		b	.L414
 9189              	.L418:
3744:Drivers/STM32F0xx_HAL_Driver/Src/stm32f0xx_hal_i2c.c ****       }
3745:Drivers/STM32F0xx_HAL_Driver/Src/stm32f0xx_hal_i2c.c ****       else
3746:Drivers/STM32F0xx_HAL_Driver/Src/stm32f0xx_hal_i2c.c ****       {
3747:Drivers/STM32F0xx_HAL_Driver/Src/stm32f0xx_hal_i2c.c ****         return HAL_TIMEOUT;
 9190              		.loc 1 3747 16
 9191 00a2 0323     		movs	r3, #3
 9192 00a4 14E0     		b	.L414
 9193              	.L417:
3748:Drivers/STM32F0xx_HAL_Driver/Src/stm32f0xx_hal_i2c.c ****       }
3749:Drivers/STM32F0xx_HAL_Driver/Src/stm32f0xx_hal_i2c.c ****     }
3750:Drivers/STM32F0xx_HAL_Driver/Src/stm32f0xx_hal_i2c.c **** 
3751:Drivers/STM32F0xx_HAL_Driver/Src/stm32f0xx_hal_i2c.c ****     /* Send LSB of Memory Address */
3752:Drivers/STM32F0xx_HAL_Driver/Src/stm32f0xx_hal_i2c.c ****     hi2c->Instance->TXDR = I2C_MEM_ADD_LSB(MemAddress);
 9194              		.loc 1 3752 28
 9195 00a6 0823     		movs	r3, #8
 9196 00a8 FB18     		adds	r3, r7, r3
 9197 00aa 1B88     		ldrh	r3, [r3]
 9198 00ac DAB2     		uxtb	r2, r3
 9199              		.loc 1 3752 9
ARM GAS  C:\Users\ADMINI~1\AppData\Local\Temp\cc3zYV2m.s 			page 227


 9200 00ae FB68     		ldr	r3, [r7, #12]
 9201 00b0 1B68     		ldr	r3, [r3]
 9202              		.loc 1 3752 26
 9203 00b2 9A62     		str	r2, [r3, #40]
 9204              	.L416:
3753:Drivers/STM32F0xx_HAL_Driver/Src/stm32f0xx_hal_i2c.c ****   }
3754:Drivers/STM32F0xx_HAL_Driver/Src/stm32f0xx_hal_i2c.c **** 
3755:Drivers/STM32F0xx_HAL_Driver/Src/stm32f0xx_hal_i2c.c ****   /* Wait until TC flag is set */
3756:Drivers/STM32F0xx_HAL_Driver/Src/stm32f0xx_hal_i2c.c ****   if (I2C_WaitOnFlagUntilTimeout(hi2c, I2C_FLAG_TC, RESET, Timeout, Tickstart) != HAL_OK)
 9205              		.loc 1 3756 7
 9206 00b4 3A6A     		ldr	r2, [r7, #32]
 9207 00b6 F868     		ldr	r0, [r7, #12]
 9208 00b8 7B6A     		ldr	r3, [r7, #36]
 9209 00ba 0093     		str	r3, [sp]
 9210 00bc 1300     		movs	r3, r2
 9211 00be 0022     		movs	r2, #0
 9212 00c0 4021     		movs	r1, #64
 9213 00c2 FFF7FEFF 		bl	I2C_WaitOnFlagUntilTimeout
 9214 00c6 031E     		subs	r3, r0, #0
 9215              		.loc 1 3756 6
 9216 00c8 01D0     		beq	.L419
3757:Drivers/STM32F0xx_HAL_Driver/Src/stm32f0xx_hal_i2c.c ****   {
3758:Drivers/STM32F0xx_HAL_Driver/Src/stm32f0xx_hal_i2c.c ****     return HAL_TIMEOUT;
 9217              		.loc 1 3758 12
 9218 00ca 0323     		movs	r3, #3
 9219 00cc 00E0     		b	.L414
 9220              	.L419:
3759:Drivers/STM32F0xx_HAL_Driver/Src/stm32f0xx_hal_i2c.c ****   }
3760:Drivers/STM32F0xx_HAL_Driver/Src/stm32f0xx_hal_i2c.c **** 
3761:Drivers/STM32F0xx_HAL_Driver/Src/stm32f0xx_hal_i2c.c ****   return HAL_OK;
 9221              		.loc 1 3761 10
 9222 00ce 0023     		movs	r3, #0
 9223              	.L414:
3762:Drivers/STM32F0xx_HAL_Driver/Src/stm32f0xx_hal_i2c.c **** }
 9224              		.loc 1 3762 1
 9225 00d0 1800     		movs	r0, r3
 9226 00d2 BD46     		mov	sp, r7
 9227 00d4 04B0     		add	sp, sp, #16
 9228              		@ sp needed
 9229 00d6 B0BD     		pop	{r4, r5, r7, pc}
 9230              		.cfi_endproc
 9231              	.LFE87:
 9233              		.section	.text.I2C_ITAddrCplt,"ax",%progbits
 9234              		.align	1
 9235              		.syntax unified
 9236              		.code	16
 9237              		.thumb_func
 9238              		.fpu softvfp
 9240              	I2C_ITAddrCplt:
 9241              	.LFB88:
3763:Drivers/STM32F0xx_HAL_Driver/Src/stm32f0xx_hal_i2c.c **** 
3764:Drivers/STM32F0xx_HAL_Driver/Src/stm32f0xx_hal_i2c.c **** /**
3765:Drivers/STM32F0xx_HAL_Driver/Src/stm32f0xx_hal_i2c.c ****   * @brief  I2C Address complete process callback.
3766:Drivers/STM32F0xx_HAL_Driver/Src/stm32f0xx_hal_i2c.c ****   * @param  hi2c I2C handle.
3767:Drivers/STM32F0xx_HAL_Driver/Src/stm32f0xx_hal_i2c.c ****   * @param  ITFlags Interrupt flags to handle.
3768:Drivers/STM32F0xx_HAL_Driver/Src/stm32f0xx_hal_i2c.c ****   * @retval None
3769:Drivers/STM32F0xx_HAL_Driver/Src/stm32f0xx_hal_i2c.c ****   */
ARM GAS  C:\Users\ADMINI~1\AppData\Local\Temp\cc3zYV2m.s 			page 228


3770:Drivers/STM32F0xx_HAL_Driver/Src/stm32f0xx_hal_i2c.c **** static void I2C_ITAddrCplt(I2C_HandleTypeDef *hi2c, uint32_t ITFlags)
3771:Drivers/STM32F0xx_HAL_Driver/Src/stm32f0xx_hal_i2c.c **** {
 9242              		.loc 1 3771 1
 9243              		.cfi_startproc
 9244              		@ args = 0, pretend = 0, frame = 16
 9245              		@ frame_needed = 1, uses_anonymous_args = 0
 9246 0000 F0B5     		push	{r4, r5, r6, r7, lr}
 9247              	.LCFI153:
 9248              		.cfi_def_cfa_offset 20
 9249              		.cfi_offset 4, -20
 9250              		.cfi_offset 5, -16
 9251              		.cfi_offset 6, -12
 9252              		.cfi_offset 7, -8
 9253              		.cfi_offset 14, -4
 9254 0002 85B0     		sub	sp, sp, #20
 9255              	.LCFI154:
 9256              		.cfi_def_cfa_offset 40
 9257 0004 00AF     		add	r7, sp, #0
 9258              	.LCFI155:
 9259              		.cfi_def_cfa_register 7
 9260 0006 7860     		str	r0, [r7, #4]
 9261 0008 3960     		str	r1, [r7]
3772:Drivers/STM32F0xx_HAL_Driver/Src/stm32f0xx_hal_i2c.c ****   uint8_t transferdirection = 0U;
 9262              		.loc 1 3772 11
 9263 000a 0F25     		movs	r5, #15
 9264 000c 7B19     		adds	r3, r7, r5
 9265 000e 0022     		movs	r2, #0
 9266 0010 1A70     		strb	r2, [r3]
3773:Drivers/STM32F0xx_HAL_Driver/Src/stm32f0xx_hal_i2c.c ****   uint16_t slaveaddrcode = 0U;
 9267              		.loc 1 3773 12
 9268 0012 0C20     		movs	r0, #12
 9269 0014 3B18     		adds	r3, r7, r0
 9270 0016 0022     		movs	r2, #0
 9271 0018 1A80     		strh	r2, [r3]
3774:Drivers/STM32F0xx_HAL_Driver/Src/stm32f0xx_hal_i2c.c ****   uint16_t ownadd1code = 0U;
 9272              		.loc 1 3774 12
 9273 001a 0A24     		movs	r4, #10
 9274 001c 3B19     		adds	r3, r7, r4
 9275 001e 0022     		movs	r2, #0
 9276 0020 1A80     		strh	r2, [r3]
3775:Drivers/STM32F0xx_HAL_Driver/Src/stm32f0xx_hal_i2c.c ****   uint16_t ownadd2code = 0U;
 9277              		.loc 1 3775 12
 9278 0022 0826     		movs	r6, #8
 9279 0024 BB19     		adds	r3, r7, r6
 9280 0026 0022     		movs	r2, #0
 9281 0028 1A80     		strh	r2, [r3]
3776:Drivers/STM32F0xx_HAL_Driver/Src/stm32f0xx_hal_i2c.c **** 
3777:Drivers/STM32F0xx_HAL_Driver/Src/stm32f0xx_hal_i2c.c ****   /* Prevent unused argument(s) compilation warning */
3778:Drivers/STM32F0xx_HAL_Driver/Src/stm32f0xx_hal_i2c.c ****   UNUSED(ITFlags);
3779:Drivers/STM32F0xx_HAL_Driver/Src/stm32f0xx_hal_i2c.c **** 
3780:Drivers/STM32F0xx_HAL_Driver/Src/stm32f0xx_hal_i2c.c ****   /* In case of Listen state, need to inform upper layer of address match code event */
3781:Drivers/STM32F0xx_HAL_Driver/Src/stm32f0xx_hal_i2c.c ****   if ((hi2c->State & HAL_I2C_STATE_LISTEN) == HAL_I2C_STATE_LISTEN)
 9282              		.loc 1 3781 12
 9283 002a 7B68     		ldr	r3, [r7, #4]
 9284 002c 4122     		movs	r2, #65
 9285 002e 9B5C     		ldrb	r3, [r3, r2]
 9286 0030 DBB2     		uxtb	r3, r3
ARM GAS  C:\Users\ADMINI~1\AppData\Local\Temp\cc3zYV2m.s 			page 229


 9287              		.loc 1 3781 20
 9288 0032 1A00     		movs	r2, r3
 9289 0034 2823     		movs	r3, #40
 9290 0036 1340     		ands	r3, r2
 9291              		.loc 1 3781 6
 9292 0038 282B     		cmp	r3, #40
 9293 003a 00D0     		beq	.LCB7819
 9294 003c 7FE0     		b	.L421	@long jump
 9295              	.LCB7819:
3782:Drivers/STM32F0xx_HAL_Driver/Src/stm32f0xx_hal_i2c.c ****   {
3783:Drivers/STM32F0xx_HAL_Driver/Src/stm32f0xx_hal_i2c.c ****     transferdirection = I2C_GET_DIR(hi2c);
 9296              		.loc 1 3783 25
 9297 003e 7B68     		ldr	r3, [r7, #4]
 9298 0040 1B68     		ldr	r3, [r3]
 9299 0042 9B69     		ldr	r3, [r3, #24]
 9300 0044 1B0C     		lsrs	r3, r3, #16
 9301 0046 DAB2     		uxtb	r2, r3
 9302              		.loc 1 3783 23
 9303 0048 7B19     		adds	r3, r7, r5
 9304 004a 0121     		movs	r1, #1
 9305 004c 0A40     		ands	r2, r1
 9306 004e 1A70     		strb	r2, [r3]
3784:Drivers/STM32F0xx_HAL_Driver/Src/stm32f0xx_hal_i2c.c ****     slaveaddrcode     = I2C_GET_ADDR_MATCH(hi2c);
 9307              		.loc 1 3784 25
 9308 0050 7B68     		ldr	r3, [r7, #4]
 9309 0052 1B68     		ldr	r3, [r3]
 9310 0054 9B69     		ldr	r3, [r3, #24]
 9311 0056 1B0C     		lsrs	r3, r3, #16
 9312 0058 9AB2     		uxth	r2, r3
 9313              		.loc 1 3784 23
 9314 005a 3B18     		adds	r3, r7, r0
 9315 005c FE21     		movs	r1, #254
 9316 005e 0A40     		ands	r2, r1
 9317 0060 1A80     		strh	r2, [r3]
3785:Drivers/STM32F0xx_HAL_Driver/Src/stm32f0xx_hal_i2c.c ****     ownadd1code       = I2C_GET_OWN_ADDRESS1(hi2c);
 9318              		.loc 1 3785 25
 9319 0062 7B68     		ldr	r3, [r7, #4]
 9320 0064 1B68     		ldr	r3, [r3]
 9321 0066 9B68     		ldr	r3, [r3, #8]
 9322 0068 9AB2     		uxth	r2, r3
 9323              		.loc 1 3785 23
 9324 006a 3B19     		adds	r3, r7, r4
 9325 006c 9205     		lsls	r2, r2, #22
 9326 006e 920D     		lsrs	r2, r2, #22
 9327 0070 1A80     		strh	r2, [r3]
3786:Drivers/STM32F0xx_HAL_Driver/Src/stm32f0xx_hal_i2c.c ****     ownadd2code       = I2C_GET_OWN_ADDRESS2(hi2c);
 9328              		.loc 1 3786 25
 9329 0072 7B68     		ldr	r3, [r7, #4]
 9330 0074 1B68     		ldr	r3, [r3]
 9331 0076 DB68     		ldr	r3, [r3, #12]
 9332 0078 9AB2     		uxth	r2, r3
 9333              		.loc 1 3786 23
 9334 007a BB19     		adds	r3, r7, r6
 9335 007c FE21     		movs	r1, #254
 9336 007e 0A40     		ands	r2, r1
 9337 0080 1A80     		strh	r2, [r3]
3787:Drivers/STM32F0xx_HAL_Driver/Src/stm32f0xx_hal_i2c.c **** 
ARM GAS  C:\Users\ADMINI~1\AppData\Local\Temp\cc3zYV2m.s 			page 230


3788:Drivers/STM32F0xx_HAL_Driver/Src/stm32f0xx_hal_i2c.c ****     /* If 10bits addressing mode is selected */
3789:Drivers/STM32F0xx_HAL_Driver/Src/stm32f0xx_hal_i2c.c ****     if (hi2c->Init.AddressingMode == I2C_ADDRESSINGMODE_10BIT)
 9338              		.loc 1 3789 19
 9339 0082 7B68     		ldr	r3, [r7, #4]
 9340 0084 DB68     		ldr	r3, [r3, #12]
 9341              		.loc 1 3789 8
 9342 0086 022B     		cmp	r3, #2
 9343 0088 45D1     		bne	.L422
3790:Drivers/STM32F0xx_HAL_Driver/Src/stm32f0xx_hal_i2c.c ****     {
3791:Drivers/STM32F0xx_HAL_Driver/Src/stm32f0xx_hal_i2c.c ****       if ((slaveaddrcode & SlaveAddr_MSK) == ((ownadd1code >> SlaveAddr_SHIFT) & SlaveAddr_MSK))
 9344              		.loc 1 3791 43
 9345 008a 3B19     		adds	r3, r7, r4
 9346 008c 1B88     		ldrh	r3, [r3]
 9347 008e DB09     		lsrs	r3, r3, #7
 9348 0090 9AB2     		uxth	r2, r3
 9349 0092 3B18     		adds	r3, r7, r0
 9350 0094 1B88     		ldrh	r3, [r3]
 9351 0096 5340     		eors	r3, r2
 9352 0098 9BB2     		uxth	r3, r3
 9353 009a 1A00     		movs	r2, r3
 9354 009c 0623     		movs	r3, #6
 9355 009e 1340     		ands	r3, r2
 9356              		.loc 1 3791 10
 9357 00a0 20D1     		bne	.L423
3792:Drivers/STM32F0xx_HAL_Driver/Src/stm32f0xx_hal_i2c.c ****       {
3793:Drivers/STM32F0xx_HAL_Driver/Src/stm32f0xx_hal_i2c.c ****         slaveaddrcode = ownadd1code;
 9358              		.loc 1 3793 23
 9359 00a2 3B18     		adds	r3, r7, r0
 9360 00a4 3A19     		adds	r2, r7, r4
 9361 00a6 1288     		ldrh	r2, [r2]
 9362 00a8 1A80     		strh	r2, [r3]
3794:Drivers/STM32F0xx_HAL_Driver/Src/stm32f0xx_hal_i2c.c ****         hi2c->AddrEventCount++;
 9363              		.loc 1 3794 13
 9364 00aa 7B68     		ldr	r3, [r7, #4]
 9365 00ac 9B6C     		ldr	r3, [r3, #72]
 9366              		.loc 1 3794 29
 9367 00ae 5A1C     		adds	r2, r3, #1
 9368 00b0 7B68     		ldr	r3, [r7, #4]
 9369 00b2 9A64     		str	r2, [r3, #72]
3795:Drivers/STM32F0xx_HAL_Driver/Src/stm32f0xx_hal_i2c.c ****         if (hi2c->AddrEventCount == 2U)
 9370              		.loc 1 3795 17
 9371 00b4 7B68     		ldr	r3, [r7, #4]
 9372 00b6 9B6C     		ldr	r3, [r3, #72]
 9373              		.loc 1 3795 12
 9374 00b8 022B     		cmp	r3, #2
 9375 00ba 48D1     		bne	.L425
3796:Drivers/STM32F0xx_HAL_Driver/Src/stm32f0xx_hal_i2c.c ****         {
3797:Drivers/STM32F0xx_HAL_Driver/Src/stm32f0xx_hal_i2c.c ****           /* Reset Address Event counter */
3798:Drivers/STM32F0xx_HAL_Driver/Src/stm32f0xx_hal_i2c.c ****           hi2c->AddrEventCount = 0U;
 9376              		.loc 1 3798 32
 9377 00bc 7B68     		ldr	r3, [r7, #4]
 9378 00be 0022     		movs	r2, #0
 9379 00c0 9A64     		str	r2, [r3, #72]
3799:Drivers/STM32F0xx_HAL_Driver/Src/stm32f0xx_hal_i2c.c **** 
3800:Drivers/STM32F0xx_HAL_Driver/Src/stm32f0xx_hal_i2c.c ****           /* Clear ADDR flag */
3801:Drivers/STM32F0xx_HAL_Driver/Src/stm32f0xx_hal_i2c.c ****           __HAL_I2C_CLEAR_FLAG(hi2c, I2C_FLAG_ADDR);
 9380              		.loc 1 3801 11
ARM GAS  C:\Users\ADMINI~1\AppData\Local\Temp\cc3zYV2m.s 			page 231


 9381 00c2 7B68     		ldr	r3, [r7, #4]
 9382 00c4 1B68     		ldr	r3, [r3]
 9383 00c6 0822     		movs	r2, #8
 9384 00c8 DA61     		str	r2, [r3, #28]
3802:Drivers/STM32F0xx_HAL_Driver/Src/stm32f0xx_hal_i2c.c **** 
3803:Drivers/STM32F0xx_HAL_Driver/Src/stm32f0xx_hal_i2c.c ****           /* Process Unlocked */
3804:Drivers/STM32F0xx_HAL_Driver/Src/stm32f0xx_hal_i2c.c ****           __HAL_UNLOCK(hi2c);
 9385              		.loc 1 3804 11
 9386 00ca 7B68     		ldr	r3, [r7, #4]
 9387 00cc 4022     		movs	r2, #64
 9388 00ce 0021     		movs	r1, #0
 9389 00d0 9954     		strb	r1, [r3, r2]
3805:Drivers/STM32F0xx_HAL_Driver/Src/stm32f0xx_hal_i2c.c **** 
3806:Drivers/STM32F0xx_HAL_Driver/Src/stm32f0xx_hal_i2c.c ****           /* Call Slave Addr callback */
3807:Drivers/STM32F0xx_HAL_Driver/Src/stm32f0xx_hal_i2c.c ****           HAL_I2C_AddrCallback(hi2c, transferdirection, slaveaddrcode);
 9390              		.loc 1 3807 11
 9391 00d2 3B18     		adds	r3, r7, r0
 9392 00d4 1A88     		ldrh	r2, [r3]
 9393 00d6 7B19     		adds	r3, r7, r5
 9394 00d8 1978     		ldrb	r1, [r3]
 9395 00da 7B68     		ldr	r3, [r7, #4]
 9396 00dc 1800     		movs	r0, r3
 9397 00de FFF7FEFF 		bl	HAL_I2C_AddrCallback
3808:Drivers/STM32F0xx_HAL_Driver/Src/stm32f0xx_hal_i2c.c ****         }
3809:Drivers/STM32F0xx_HAL_Driver/Src/stm32f0xx_hal_i2c.c ****       }
3810:Drivers/STM32F0xx_HAL_Driver/Src/stm32f0xx_hal_i2c.c ****       else
3811:Drivers/STM32F0xx_HAL_Driver/Src/stm32f0xx_hal_i2c.c ****       {
3812:Drivers/STM32F0xx_HAL_Driver/Src/stm32f0xx_hal_i2c.c ****         slaveaddrcode = ownadd2code;
3813:Drivers/STM32F0xx_HAL_Driver/Src/stm32f0xx_hal_i2c.c **** 
3814:Drivers/STM32F0xx_HAL_Driver/Src/stm32f0xx_hal_i2c.c ****         /* Disable ADDR Interrupts */
3815:Drivers/STM32F0xx_HAL_Driver/Src/stm32f0xx_hal_i2c.c ****         I2C_Disable_IRQ(hi2c, I2C_XFER_LISTEN_IT);
3816:Drivers/STM32F0xx_HAL_Driver/Src/stm32f0xx_hal_i2c.c **** 
3817:Drivers/STM32F0xx_HAL_Driver/Src/stm32f0xx_hal_i2c.c ****         /* Process Unlocked */
3818:Drivers/STM32F0xx_HAL_Driver/Src/stm32f0xx_hal_i2c.c ****         __HAL_UNLOCK(hi2c);
3819:Drivers/STM32F0xx_HAL_Driver/Src/stm32f0xx_hal_i2c.c **** 
3820:Drivers/STM32F0xx_HAL_Driver/Src/stm32f0xx_hal_i2c.c ****         /* Call Slave Addr callback */
3821:Drivers/STM32F0xx_HAL_Driver/Src/stm32f0xx_hal_i2c.c ****         HAL_I2C_AddrCallback(hi2c, transferdirection, slaveaddrcode);
3822:Drivers/STM32F0xx_HAL_Driver/Src/stm32f0xx_hal_i2c.c ****       }
3823:Drivers/STM32F0xx_HAL_Driver/Src/stm32f0xx_hal_i2c.c ****     }
3824:Drivers/STM32F0xx_HAL_Driver/Src/stm32f0xx_hal_i2c.c ****     /* else 7 bits addressing mode is selected */
3825:Drivers/STM32F0xx_HAL_Driver/Src/stm32f0xx_hal_i2c.c ****     else
3826:Drivers/STM32F0xx_HAL_Driver/Src/stm32f0xx_hal_i2c.c ****     {
3827:Drivers/STM32F0xx_HAL_Driver/Src/stm32f0xx_hal_i2c.c ****       /* Disable ADDR Interrupts */
3828:Drivers/STM32F0xx_HAL_Driver/Src/stm32f0xx_hal_i2c.c ****       I2C_Disable_IRQ(hi2c, I2C_XFER_LISTEN_IT);
3829:Drivers/STM32F0xx_HAL_Driver/Src/stm32f0xx_hal_i2c.c **** 
3830:Drivers/STM32F0xx_HAL_Driver/Src/stm32f0xx_hal_i2c.c ****       /* Process Unlocked */
3831:Drivers/STM32F0xx_HAL_Driver/Src/stm32f0xx_hal_i2c.c ****       __HAL_UNLOCK(hi2c);
3832:Drivers/STM32F0xx_HAL_Driver/Src/stm32f0xx_hal_i2c.c **** 
3833:Drivers/STM32F0xx_HAL_Driver/Src/stm32f0xx_hal_i2c.c ****       /* Call Slave Addr callback */
3834:Drivers/STM32F0xx_HAL_Driver/Src/stm32f0xx_hal_i2c.c ****       HAL_I2C_AddrCallback(hi2c, transferdirection, slaveaddrcode);
3835:Drivers/STM32F0xx_HAL_Driver/Src/stm32f0xx_hal_i2c.c ****     }
3836:Drivers/STM32F0xx_HAL_Driver/Src/stm32f0xx_hal_i2c.c ****   }
3837:Drivers/STM32F0xx_HAL_Driver/Src/stm32f0xx_hal_i2c.c ****   /* Else clear address flag only */
3838:Drivers/STM32F0xx_HAL_Driver/Src/stm32f0xx_hal_i2c.c ****   else
3839:Drivers/STM32F0xx_HAL_Driver/Src/stm32f0xx_hal_i2c.c ****   {
3840:Drivers/STM32F0xx_HAL_Driver/Src/stm32f0xx_hal_i2c.c ****     /* Clear ADDR flag */
3841:Drivers/STM32F0xx_HAL_Driver/Src/stm32f0xx_hal_i2c.c ****     __HAL_I2C_CLEAR_FLAG(hi2c, I2C_FLAG_ADDR);
ARM GAS  C:\Users\ADMINI~1\AppData\Local\Temp\cc3zYV2m.s 			page 232


3842:Drivers/STM32F0xx_HAL_Driver/Src/stm32f0xx_hal_i2c.c **** 
3843:Drivers/STM32F0xx_HAL_Driver/Src/stm32f0xx_hal_i2c.c ****     /* Process Unlocked */
3844:Drivers/STM32F0xx_HAL_Driver/Src/stm32f0xx_hal_i2c.c ****     __HAL_UNLOCK(hi2c);
3845:Drivers/STM32F0xx_HAL_Driver/Src/stm32f0xx_hal_i2c.c ****   }
3846:Drivers/STM32F0xx_HAL_Driver/Src/stm32f0xx_hal_i2c.c **** }
 9398              		.loc 1 3846 1
 9399 00e2 34E0     		b	.L425
 9400              	.L423:
3812:Drivers/STM32F0xx_HAL_Driver/Src/stm32f0xx_hal_i2c.c **** 
 9401              		.loc 1 3812 23
 9402 00e4 0C24     		movs	r4, #12
 9403 00e6 3B19     		adds	r3, r7, r4
 9404 00e8 0822     		movs	r2, #8
 9405 00ea BA18     		adds	r2, r7, r2
 9406 00ec 1288     		ldrh	r2, [r2]
 9407 00ee 1A80     		strh	r2, [r3]
3815:Drivers/STM32F0xx_HAL_Driver/Src/stm32f0xx_hal_i2c.c **** 
 9408              		.loc 1 3815 9
 9409 00f0 7B68     		ldr	r3, [r7, #4]
 9410 00f2 0421     		movs	r1, #4
 9411 00f4 1800     		movs	r0, r3
 9412 00f6 FFF7FEFF 		bl	I2C_Disable_IRQ
3818:Drivers/STM32F0xx_HAL_Driver/Src/stm32f0xx_hal_i2c.c **** 
 9413              		.loc 1 3818 9
 9414 00fa 7B68     		ldr	r3, [r7, #4]
 9415 00fc 4022     		movs	r2, #64
 9416 00fe 0021     		movs	r1, #0
 9417 0100 9954     		strb	r1, [r3, r2]
3821:Drivers/STM32F0xx_HAL_Driver/Src/stm32f0xx_hal_i2c.c ****       }
 9418              		.loc 1 3821 9
 9419 0102 3B19     		adds	r3, r7, r4
 9420 0104 1A88     		ldrh	r2, [r3]
 9421 0106 0F23     		movs	r3, #15
 9422 0108 FB18     		adds	r3, r7, r3
 9423 010a 1978     		ldrb	r1, [r3]
 9424 010c 7B68     		ldr	r3, [r7, #4]
 9425 010e 1800     		movs	r0, r3
 9426 0110 FFF7FEFF 		bl	HAL_I2C_AddrCallback
 9427              		.loc 1 3846 1
 9428 0114 1BE0     		b	.L425
 9429              	.L422:
3828:Drivers/STM32F0xx_HAL_Driver/Src/stm32f0xx_hal_i2c.c **** 
 9430              		.loc 1 3828 7
 9431 0116 7B68     		ldr	r3, [r7, #4]
 9432 0118 0421     		movs	r1, #4
 9433 011a 1800     		movs	r0, r3
 9434 011c FFF7FEFF 		bl	I2C_Disable_IRQ
3831:Drivers/STM32F0xx_HAL_Driver/Src/stm32f0xx_hal_i2c.c **** 
 9435              		.loc 1 3831 7
 9436 0120 7B68     		ldr	r3, [r7, #4]
 9437 0122 4022     		movs	r2, #64
 9438 0124 0021     		movs	r1, #0
 9439 0126 9954     		strb	r1, [r3, r2]
3834:Drivers/STM32F0xx_HAL_Driver/Src/stm32f0xx_hal_i2c.c ****     }
 9440              		.loc 1 3834 7
 9441 0128 0C23     		movs	r3, #12
 9442 012a FB18     		adds	r3, r7, r3
ARM GAS  C:\Users\ADMINI~1\AppData\Local\Temp\cc3zYV2m.s 			page 233


 9443 012c 1A88     		ldrh	r2, [r3]
 9444 012e 0F23     		movs	r3, #15
 9445 0130 FB18     		adds	r3, r7, r3
 9446 0132 1978     		ldrb	r1, [r3]
 9447 0134 7B68     		ldr	r3, [r7, #4]
 9448 0136 1800     		movs	r0, r3
 9449 0138 FFF7FEFF 		bl	HAL_I2C_AddrCallback
 9450              		.loc 1 3846 1
 9451 013c 07E0     		b	.L425
 9452              	.L421:
3841:Drivers/STM32F0xx_HAL_Driver/Src/stm32f0xx_hal_i2c.c **** 
 9453              		.loc 1 3841 5
 9454 013e 7B68     		ldr	r3, [r7, #4]
 9455 0140 1B68     		ldr	r3, [r3]
 9456 0142 0822     		movs	r2, #8
 9457 0144 DA61     		str	r2, [r3, #28]
3844:Drivers/STM32F0xx_HAL_Driver/Src/stm32f0xx_hal_i2c.c ****   }
 9458              		.loc 1 3844 5
 9459 0146 7B68     		ldr	r3, [r7, #4]
 9460 0148 4022     		movs	r2, #64
 9461 014a 0021     		movs	r1, #0
 9462 014c 9954     		strb	r1, [r3, r2]
 9463              	.L425:
 9464              		.loc 1 3846 1
 9465 014e C046     		nop
 9466 0150 BD46     		mov	sp, r7
 9467 0152 05B0     		add	sp, sp, #20
 9468              		@ sp needed
 9469 0154 F0BD     		pop	{r4, r5, r6, r7, pc}
 9470              		.cfi_endproc
 9471              	.LFE88:
 9473              		.section	.text.I2C_ITMasterSequentialCplt,"ax",%progbits
 9474              		.align	1
 9475              		.syntax unified
 9476              		.code	16
 9477              		.thumb_func
 9478              		.fpu softvfp
 9480              	I2C_ITMasterSequentialCplt:
 9481              	.LFB89:
3847:Drivers/STM32F0xx_HAL_Driver/Src/stm32f0xx_hal_i2c.c **** 
3848:Drivers/STM32F0xx_HAL_Driver/Src/stm32f0xx_hal_i2c.c **** /**
3849:Drivers/STM32F0xx_HAL_Driver/Src/stm32f0xx_hal_i2c.c ****   * @brief  I2C Master sequential complete process.
3850:Drivers/STM32F0xx_HAL_Driver/Src/stm32f0xx_hal_i2c.c ****   * @param  hi2c I2C handle.
3851:Drivers/STM32F0xx_HAL_Driver/Src/stm32f0xx_hal_i2c.c ****   * @retval None
3852:Drivers/STM32F0xx_HAL_Driver/Src/stm32f0xx_hal_i2c.c ****   */
3853:Drivers/STM32F0xx_HAL_Driver/Src/stm32f0xx_hal_i2c.c **** static void I2C_ITMasterSequentialCplt(I2C_HandleTypeDef *hi2c)
3854:Drivers/STM32F0xx_HAL_Driver/Src/stm32f0xx_hal_i2c.c **** {
 9482              		.loc 1 3854 1
 9483              		.cfi_startproc
 9484              		@ args = 0, pretend = 0, frame = 8
 9485              		@ frame_needed = 1, uses_anonymous_args = 0
 9486 0000 80B5     		push	{r7, lr}
 9487              	.LCFI156:
 9488              		.cfi_def_cfa_offset 8
 9489              		.cfi_offset 7, -8
 9490              		.cfi_offset 14, -4
 9491 0002 82B0     		sub	sp, sp, #8
ARM GAS  C:\Users\ADMINI~1\AppData\Local\Temp\cc3zYV2m.s 			page 234


 9492              	.LCFI157:
 9493              		.cfi_def_cfa_offset 16
 9494 0004 00AF     		add	r7, sp, #0
 9495              	.LCFI158:
 9496              		.cfi_def_cfa_register 7
 9497 0006 7860     		str	r0, [r7, #4]
3855:Drivers/STM32F0xx_HAL_Driver/Src/stm32f0xx_hal_i2c.c ****   /* Reset I2C handle mode */
3856:Drivers/STM32F0xx_HAL_Driver/Src/stm32f0xx_hal_i2c.c ****   hi2c->Mode = HAL_I2C_MODE_NONE;
 9498              		.loc 1 3856 14
 9499 0008 7B68     		ldr	r3, [r7, #4]
 9500 000a 4222     		movs	r2, #66
 9501 000c 0021     		movs	r1, #0
 9502 000e 9954     		strb	r1, [r3, r2]
3857:Drivers/STM32F0xx_HAL_Driver/Src/stm32f0xx_hal_i2c.c **** 
3858:Drivers/STM32F0xx_HAL_Driver/Src/stm32f0xx_hal_i2c.c ****   /* No Generate Stop, to permit restart mode */
3859:Drivers/STM32F0xx_HAL_Driver/Src/stm32f0xx_hal_i2c.c ****   /* The stop will be done at the end of transfer, when I2C_AUTOEND_MODE enable */
3860:Drivers/STM32F0xx_HAL_Driver/Src/stm32f0xx_hal_i2c.c ****   if (hi2c->State == HAL_I2C_STATE_BUSY_TX)
 9503              		.loc 1 3860 11
 9504 0010 7B68     		ldr	r3, [r7, #4]
 9505 0012 4122     		movs	r2, #65
 9506 0014 9B5C     		ldrb	r3, [r3, r2]
 9507 0016 DBB2     		uxtb	r3, r3
 9508              		.loc 1 3860 6
 9509 0018 212B     		cmp	r3, #33
 9510 001a 17D1     		bne	.L427
3861:Drivers/STM32F0xx_HAL_Driver/Src/stm32f0xx_hal_i2c.c ****   {
3862:Drivers/STM32F0xx_HAL_Driver/Src/stm32f0xx_hal_i2c.c ****     hi2c->State         = HAL_I2C_STATE_READY;
 9511              		.loc 1 3862 25
 9512 001c 7B68     		ldr	r3, [r7, #4]
 9513 001e 4122     		movs	r2, #65
 9514 0020 2021     		movs	r1, #32
 9515 0022 9954     		strb	r1, [r3, r2]
3863:Drivers/STM32F0xx_HAL_Driver/Src/stm32f0xx_hal_i2c.c ****     hi2c->PreviousState = I2C_STATE_MASTER_BUSY_TX;
 9516              		.loc 1 3863 25
 9517 0024 7B68     		ldr	r3, [r7, #4]
 9518 0026 1122     		movs	r2, #17
 9519 0028 1A63     		str	r2, [r3, #48]
3864:Drivers/STM32F0xx_HAL_Driver/Src/stm32f0xx_hal_i2c.c ****     hi2c->XferISR       = NULL;
 9520              		.loc 1 3864 25
 9521 002a 7B68     		ldr	r3, [r7, #4]
 9522 002c 0022     		movs	r2, #0
 9523 002e 5A63     		str	r2, [r3, #52]
3865:Drivers/STM32F0xx_HAL_Driver/Src/stm32f0xx_hal_i2c.c **** 
3866:Drivers/STM32F0xx_HAL_Driver/Src/stm32f0xx_hal_i2c.c ****     /* Disable Interrupts */
3867:Drivers/STM32F0xx_HAL_Driver/Src/stm32f0xx_hal_i2c.c ****     I2C_Disable_IRQ(hi2c, I2C_XFER_TX_IT);
 9524              		.loc 1 3867 5
 9525 0030 7B68     		ldr	r3, [r7, #4]
 9526 0032 0121     		movs	r1, #1
 9527 0034 1800     		movs	r0, r3
 9528 0036 FFF7FEFF 		bl	I2C_Disable_IRQ
3868:Drivers/STM32F0xx_HAL_Driver/Src/stm32f0xx_hal_i2c.c **** 
3869:Drivers/STM32F0xx_HAL_Driver/Src/stm32f0xx_hal_i2c.c ****     /* Process Unlocked */
3870:Drivers/STM32F0xx_HAL_Driver/Src/stm32f0xx_hal_i2c.c ****     __HAL_UNLOCK(hi2c);
 9529              		.loc 1 3870 5
 9530 003a 7B68     		ldr	r3, [r7, #4]
 9531 003c 4022     		movs	r2, #64
 9532 003e 0021     		movs	r1, #0
ARM GAS  C:\Users\ADMINI~1\AppData\Local\Temp\cc3zYV2m.s 			page 235


 9533 0040 9954     		strb	r1, [r3, r2]
3871:Drivers/STM32F0xx_HAL_Driver/Src/stm32f0xx_hal_i2c.c **** 
3872:Drivers/STM32F0xx_HAL_Driver/Src/stm32f0xx_hal_i2c.c ****     /* Call the corresponding callback to inform upper layer of End of Transfer */
3873:Drivers/STM32F0xx_HAL_Driver/Src/stm32f0xx_hal_i2c.c ****     HAL_I2C_MasterTxCpltCallback(hi2c);
 9534              		.loc 1 3873 5
 9535 0042 7B68     		ldr	r3, [r7, #4]
 9536 0044 1800     		movs	r0, r3
 9537 0046 FFF7FEFF 		bl	HAL_I2C_MasterTxCpltCallback
3874:Drivers/STM32F0xx_HAL_Driver/Src/stm32f0xx_hal_i2c.c ****   }
3875:Drivers/STM32F0xx_HAL_Driver/Src/stm32f0xx_hal_i2c.c ****   /* hi2c->State == HAL_I2C_STATE_BUSY_RX */
3876:Drivers/STM32F0xx_HAL_Driver/Src/stm32f0xx_hal_i2c.c ****   else
3877:Drivers/STM32F0xx_HAL_Driver/Src/stm32f0xx_hal_i2c.c ****   {
3878:Drivers/STM32F0xx_HAL_Driver/Src/stm32f0xx_hal_i2c.c ****     hi2c->State         = HAL_I2C_STATE_READY;
3879:Drivers/STM32F0xx_HAL_Driver/Src/stm32f0xx_hal_i2c.c ****     hi2c->PreviousState = I2C_STATE_MASTER_BUSY_RX;
3880:Drivers/STM32F0xx_HAL_Driver/Src/stm32f0xx_hal_i2c.c ****     hi2c->XferISR       = NULL;
3881:Drivers/STM32F0xx_HAL_Driver/Src/stm32f0xx_hal_i2c.c **** 
3882:Drivers/STM32F0xx_HAL_Driver/Src/stm32f0xx_hal_i2c.c ****     /* Disable Interrupts */
3883:Drivers/STM32F0xx_HAL_Driver/Src/stm32f0xx_hal_i2c.c ****     I2C_Disable_IRQ(hi2c, I2C_XFER_RX_IT);
3884:Drivers/STM32F0xx_HAL_Driver/Src/stm32f0xx_hal_i2c.c **** 
3885:Drivers/STM32F0xx_HAL_Driver/Src/stm32f0xx_hal_i2c.c ****     /* Process Unlocked */
3886:Drivers/STM32F0xx_HAL_Driver/Src/stm32f0xx_hal_i2c.c ****     __HAL_UNLOCK(hi2c);
3887:Drivers/STM32F0xx_HAL_Driver/Src/stm32f0xx_hal_i2c.c **** 
3888:Drivers/STM32F0xx_HAL_Driver/Src/stm32f0xx_hal_i2c.c ****     /* Call the corresponding callback to inform upper layer of End of Transfer */
3889:Drivers/STM32F0xx_HAL_Driver/Src/stm32f0xx_hal_i2c.c ****     HAL_I2C_MasterRxCpltCallback(hi2c);
3890:Drivers/STM32F0xx_HAL_Driver/Src/stm32f0xx_hal_i2c.c ****   }
3891:Drivers/STM32F0xx_HAL_Driver/Src/stm32f0xx_hal_i2c.c **** }
 9538              		.loc 1 3891 1
 9539 004a 16E0     		b	.L429
 9540              	.L427:
3878:Drivers/STM32F0xx_HAL_Driver/Src/stm32f0xx_hal_i2c.c ****     hi2c->PreviousState = I2C_STATE_MASTER_BUSY_RX;
 9541              		.loc 1 3878 25
 9542 004c 7B68     		ldr	r3, [r7, #4]
 9543 004e 4122     		movs	r2, #65
 9544 0050 2021     		movs	r1, #32
 9545 0052 9954     		strb	r1, [r3, r2]
3879:Drivers/STM32F0xx_HAL_Driver/Src/stm32f0xx_hal_i2c.c ****     hi2c->XferISR       = NULL;
 9546              		.loc 1 3879 25
 9547 0054 7B68     		ldr	r3, [r7, #4]
 9548 0056 1222     		movs	r2, #18
 9549 0058 1A63     		str	r2, [r3, #48]
3880:Drivers/STM32F0xx_HAL_Driver/Src/stm32f0xx_hal_i2c.c **** 
 9550              		.loc 1 3880 25
 9551 005a 7B68     		ldr	r3, [r7, #4]
 9552 005c 0022     		movs	r2, #0
 9553 005e 5A63     		str	r2, [r3, #52]
3883:Drivers/STM32F0xx_HAL_Driver/Src/stm32f0xx_hal_i2c.c **** 
 9554              		.loc 1 3883 5
 9555 0060 7B68     		ldr	r3, [r7, #4]
 9556 0062 0221     		movs	r1, #2
 9557 0064 1800     		movs	r0, r3
 9558 0066 FFF7FEFF 		bl	I2C_Disable_IRQ
3886:Drivers/STM32F0xx_HAL_Driver/Src/stm32f0xx_hal_i2c.c **** 
 9559              		.loc 1 3886 5
 9560 006a 7B68     		ldr	r3, [r7, #4]
 9561 006c 4022     		movs	r2, #64
 9562 006e 0021     		movs	r1, #0
 9563 0070 9954     		strb	r1, [r3, r2]
ARM GAS  C:\Users\ADMINI~1\AppData\Local\Temp\cc3zYV2m.s 			page 236


3889:Drivers/STM32F0xx_HAL_Driver/Src/stm32f0xx_hal_i2c.c ****   }
 9564              		.loc 1 3889 5
 9565 0072 7B68     		ldr	r3, [r7, #4]
 9566 0074 1800     		movs	r0, r3
 9567 0076 FFF7FEFF 		bl	HAL_I2C_MasterRxCpltCallback
 9568              	.L429:
 9569              		.loc 1 3891 1
 9570 007a C046     		nop
 9571 007c BD46     		mov	sp, r7
 9572 007e 02B0     		add	sp, sp, #8
 9573              		@ sp needed
 9574 0080 80BD     		pop	{r7, pc}
 9575              		.cfi_endproc
 9576              	.LFE89:
 9578              		.section	.text.I2C_ITSlaveSequentialCplt,"ax",%progbits
 9579              		.align	1
 9580              		.syntax unified
 9581              		.code	16
 9582              		.thumb_func
 9583              		.fpu softvfp
 9585              	I2C_ITSlaveSequentialCplt:
 9586              	.LFB90:
3892:Drivers/STM32F0xx_HAL_Driver/Src/stm32f0xx_hal_i2c.c **** 
3893:Drivers/STM32F0xx_HAL_Driver/Src/stm32f0xx_hal_i2c.c **** /**
3894:Drivers/STM32F0xx_HAL_Driver/Src/stm32f0xx_hal_i2c.c ****   * @brief  I2C Slave sequential complete process.
3895:Drivers/STM32F0xx_HAL_Driver/Src/stm32f0xx_hal_i2c.c ****   * @param  hi2c I2C handle.
3896:Drivers/STM32F0xx_HAL_Driver/Src/stm32f0xx_hal_i2c.c ****   * @retval None
3897:Drivers/STM32F0xx_HAL_Driver/Src/stm32f0xx_hal_i2c.c ****   */
3898:Drivers/STM32F0xx_HAL_Driver/Src/stm32f0xx_hal_i2c.c **** static void I2C_ITSlaveSequentialCplt(I2C_HandleTypeDef *hi2c)
3899:Drivers/STM32F0xx_HAL_Driver/Src/stm32f0xx_hal_i2c.c **** {
 9587              		.loc 1 3899 1
 9588              		.cfi_startproc
 9589              		@ args = 0, pretend = 0, frame = 8
 9590              		@ frame_needed = 1, uses_anonymous_args = 0
 9591 0000 80B5     		push	{r7, lr}
 9592              	.LCFI159:
 9593              		.cfi_def_cfa_offset 8
 9594              		.cfi_offset 7, -8
 9595              		.cfi_offset 14, -4
 9596 0002 82B0     		sub	sp, sp, #8
 9597              	.LCFI160:
 9598              		.cfi_def_cfa_offset 16
 9599 0004 00AF     		add	r7, sp, #0
 9600              	.LCFI161:
 9601              		.cfi_def_cfa_register 7
 9602 0006 7860     		str	r0, [r7, #4]
3900:Drivers/STM32F0xx_HAL_Driver/Src/stm32f0xx_hal_i2c.c ****   /* Reset I2C handle mode */
3901:Drivers/STM32F0xx_HAL_Driver/Src/stm32f0xx_hal_i2c.c ****   hi2c->Mode = HAL_I2C_MODE_NONE;
 9603              		.loc 1 3901 14
 9604 0008 7B68     		ldr	r3, [r7, #4]
 9605 000a 4222     		movs	r2, #66
 9606 000c 0021     		movs	r1, #0
 9607 000e 9954     		strb	r1, [r3, r2]
3902:Drivers/STM32F0xx_HAL_Driver/Src/stm32f0xx_hal_i2c.c **** 
3903:Drivers/STM32F0xx_HAL_Driver/Src/stm32f0xx_hal_i2c.c ****   if (hi2c->State == HAL_I2C_STATE_BUSY_TX_LISTEN)
 9608              		.loc 1 3903 11
 9609 0010 7B68     		ldr	r3, [r7, #4]
ARM GAS  C:\Users\ADMINI~1\AppData\Local\Temp\cc3zYV2m.s 			page 237


 9610 0012 4122     		movs	r2, #65
 9611 0014 9B5C     		ldrb	r3, [r3, r2]
 9612 0016 DBB2     		uxtb	r3, r3
 9613              		.loc 1 3903 6
 9614 0018 292B     		cmp	r3, #41
 9615 001a 14D1     		bne	.L431
3904:Drivers/STM32F0xx_HAL_Driver/Src/stm32f0xx_hal_i2c.c ****   {
3905:Drivers/STM32F0xx_HAL_Driver/Src/stm32f0xx_hal_i2c.c ****     /* Remove HAL_I2C_STATE_SLAVE_BUSY_TX, keep only HAL_I2C_STATE_LISTEN */
3906:Drivers/STM32F0xx_HAL_Driver/Src/stm32f0xx_hal_i2c.c ****     hi2c->State         = HAL_I2C_STATE_LISTEN;
 9616              		.loc 1 3906 25
 9617 001c 7B68     		ldr	r3, [r7, #4]
 9618 001e 4122     		movs	r2, #65
 9619 0020 2821     		movs	r1, #40
 9620 0022 9954     		strb	r1, [r3, r2]
3907:Drivers/STM32F0xx_HAL_Driver/Src/stm32f0xx_hal_i2c.c ****     hi2c->PreviousState = I2C_STATE_SLAVE_BUSY_TX;
 9621              		.loc 1 3907 25
 9622 0024 7B68     		ldr	r3, [r7, #4]
 9623 0026 2122     		movs	r2, #33
 9624 0028 1A63     		str	r2, [r3, #48]
3908:Drivers/STM32F0xx_HAL_Driver/Src/stm32f0xx_hal_i2c.c **** 
3909:Drivers/STM32F0xx_HAL_Driver/Src/stm32f0xx_hal_i2c.c ****     /* Disable Interrupts */
3910:Drivers/STM32F0xx_HAL_Driver/Src/stm32f0xx_hal_i2c.c ****     I2C_Disable_IRQ(hi2c, I2C_XFER_TX_IT);
 9625              		.loc 1 3910 5
 9626 002a 7B68     		ldr	r3, [r7, #4]
 9627 002c 0121     		movs	r1, #1
 9628 002e 1800     		movs	r0, r3
 9629 0030 FFF7FEFF 		bl	I2C_Disable_IRQ
3911:Drivers/STM32F0xx_HAL_Driver/Src/stm32f0xx_hal_i2c.c **** 
3912:Drivers/STM32F0xx_HAL_Driver/Src/stm32f0xx_hal_i2c.c ****     /* Process Unlocked */
3913:Drivers/STM32F0xx_HAL_Driver/Src/stm32f0xx_hal_i2c.c ****     __HAL_UNLOCK(hi2c);
 9630              		.loc 1 3913 5
 9631 0034 7B68     		ldr	r3, [r7, #4]
 9632 0036 4022     		movs	r2, #64
 9633 0038 0021     		movs	r1, #0
 9634 003a 9954     		strb	r1, [r3, r2]
3914:Drivers/STM32F0xx_HAL_Driver/Src/stm32f0xx_hal_i2c.c **** 
3915:Drivers/STM32F0xx_HAL_Driver/Src/stm32f0xx_hal_i2c.c ****     /* Call the Tx complete callback to inform upper layer of the end of transmit process */
3916:Drivers/STM32F0xx_HAL_Driver/Src/stm32f0xx_hal_i2c.c ****     HAL_I2C_SlaveTxCpltCallback(hi2c);
 9635              		.loc 1 3916 5
 9636 003c 7B68     		ldr	r3, [r7, #4]
 9637 003e 1800     		movs	r0, r3
 9638 0040 FFF7FEFF 		bl	HAL_I2C_SlaveTxCpltCallback
3917:Drivers/STM32F0xx_HAL_Driver/Src/stm32f0xx_hal_i2c.c ****   }
3918:Drivers/STM32F0xx_HAL_Driver/Src/stm32f0xx_hal_i2c.c **** 
3919:Drivers/STM32F0xx_HAL_Driver/Src/stm32f0xx_hal_i2c.c ****   else if (hi2c->State == HAL_I2C_STATE_BUSY_RX_LISTEN)
3920:Drivers/STM32F0xx_HAL_Driver/Src/stm32f0xx_hal_i2c.c ****   {
3921:Drivers/STM32F0xx_HAL_Driver/Src/stm32f0xx_hal_i2c.c ****     /* Remove HAL_I2C_STATE_SLAVE_BUSY_RX, keep only HAL_I2C_STATE_LISTEN */
3922:Drivers/STM32F0xx_HAL_Driver/Src/stm32f0xx_hal_i2c.c ****     hi2c->State         = HAL_I2C_STATE_LISTEN;
3923:Drivers/STM32F0xx_HAL_Driver/Src/stm32f0xx_hal_i2c.c ****     hi2c->PreviousState = I2C_STATE_SLAVE_BUSY_RX;
3924:Drivers/STM32F0xx_HAL_Driver/Src/stm32f0xx_hal_i2c.c **** 
3925:Drivers/STM32F0xx_HAL_Driver/Src/stm32f0xx_hal_i2c.c ****     /* Disable Interrupts */
3926:Drivers/STM32F0xx_HAL_Driver/Src/stm32f0xx_hal_i2c.c ****     I2C_Disable_IRQ(hi2c, I2C_XFER_RX_IT);
3927:Drivers/STM32F0xx_HAL_Driver/Src/stm32f0xx_hal_i2c.c **** 
3928:Drivers/STM32F0xx_HAL_Driver/Src/stm32f0xx_hal_i2c.c ****     /* Process Unlocked */
3929:Drivers/STM32F0xx_HAL_Driver/Src/stm32f0xx_hal_i2c.c ****     __HAL_UNLOCK(hi2c);
3930:Drivers/STM32F0xx_HAL_Driver/Src/stm32f0xx_hal_i2c.c **** 
3931:Drivers/STM32F0xx_HAL_Driver/Src/stm32f0xx_hal_i2c.c ****     /* Call the Rx complete callback to inform upper layer of the end of receive process */
ARM GAS  C:\Users\ADMINI~1\AppData\Local\Temp\cc3zYV2m.s 			page 238


3932:Drivers/STM32F0xx_HAL_Driver/Src/stm32f0xx_hal_i2c.c ****     HAL_I2C_SlaveRxCpltCallback(hi2c);
3933:Drivers/STM32F0xx_HAL_Driver/Src/stm32f0xx_hal_i2c.c ****   }
3934:Drivers/STM32F0xx_HAL_Driver/Src/stm32f0xx_hal_i2c.c **** }
 9639              		.loc 1 3934 1
 9640 0044 19E0     		b	.L433
 9641              	.L431:
3919:Drivers/STM32F0xx_HAL_Driver/Src/stm32f0xx_hal_i2c.c ****   {
 9642              		.loc 1 3919 16
 9643 0046 7B68     		ldr	r3, [r7, #4]
 9644 0048 4122     		movs	r2, #65
 9645 004a 9B5C     		ldrb	r3, [r3, r2]
 9646 004c DBB2     		uxtb	r3, r3
3919:Drivers/STM32F0xx_HAL_Driver/Src/stm32f0xx_hal_i2c.c ****   {
 9647              		.loc 1 3919 11
 9648 004e 2A2B     		cmp	r3, #42
 9649 0050 13D1     		bne	.L433
3922:Drivers/STM32F0xx_HAL_Driver/Src/stm32f0xx_hal_i2c.c ****     hi2c->PreviousState = I2C_STATE_SLAVE_BUSY_RX;
 9650              		.loc 1 3922 25
 9651 0052 7B68     		ldr	r3, [r7, #4]
 9652 0054 4122     		movs	r2, #65
 9653 0056 2821     		movs	r1, #40
 9654 0058 9954     		strb	r1, [r3, r2]
3923:Drivers/STM32F0xx_HAL_Driver/Src/stm32f0xx_hal_i2c.c **** 
 9655              		.loc 1 3923 25
 9656 005a 7B68     		ldr	r3, [r7, #4]
 9657 005c 2222     		movs	r2, #34
 9658 005e 1A63     		str	r2, [r3, #48]
3926:Drivers/STM32F0xx_HAL_Driver/Src/stm32f0xx_hal_i2c.c **** 
 9659              		.loc 1 3926 5
 9660 0060 7B68     		ldr	r3, [r7, #4]
 9661 0062 0221     		movs	r1, #2
 9662 0064 1800     		movs	r0, r3
 9663 0066 FFF7FEFF 		bl	I2C_Disable_IRQ
3929:Drivers/STM32F0xx_HAL_Driver/Src/stm32f0xx_hal_i2c.c **** 
 9664              		.loc 1 3929 5
 9665 006a 7B68     		ldr	r3, [r7, #4]
 9666 006c 4022     		movs	r2, #64
 9667 006e 0021     		movs	r1, #0
 9668 0070 9954     		strb	r1, [r3, r2]
3932:Drivers/STM32F0xx_HAL_Driver/Src/stm32f0xx_hal_i2c.c ****   }
 9669              		.loc 1 3932 5
 9670 0072 7B68     		ldr	r3, [r7, #4]
 9671 0074 1800     		movs	r0, r3
 9672 0076 FFF7FEFF 		bl	HAL_I2C_SlaveRxCpltCallback
 9673              	.L433:
 9674              		.loc 1 3934 1
 9675 007a C046     		nop
 9676 007c BD46     		mov	sp, r7
 9677 007e 02B0     		add	sp, sp, #8
 9678              		@ sp needed
 9679 0080 80BD     		pop	{r7, pc}
 9680              		.cfi_endproc
 9681              	.LFE90:
 9683              		.section	.text.I2C_ITMasterCplt,"ax",%progbits
 9684              		.align	1
 9685              		.syntax unified
 9686              		.code	16
ARM GAS  C:\Users\ADMINI~1\AppData\Local\Temp\cc3zYV2m.s 			page 239


 9687              		.thumb_func
 9688              		.fpu softvfp
 9690              	I2C_ITMasterCplt:
 9691              	.LFB91:
3935:Drivers/STM32F0xx_HAL_Driver/Src/stm32f0xx_hal_i2c.c **** 
3936:Drivers/STM32F0xx_HAL_Driver/Src/stm32f0xx_hal_i2c.c **** /**
3937:Drivers/STM32F0xx_HAL_Driver/Src/stm32f0xx_hal_i2c.c ****   * @brief  I2C Master complete process.
3938:Drivers/STM32F0xx_HAL_Driver/Src/stm32f0xx_hal_i2c.c ****   * @param  hi2c I2C handle.
3939:Drivers/STM32F0xx_HAL_Driver/Src/stm32f0xx_hal_i2c.c ****   * @param  ITFlags Interrupt flags to handle.
3940:Drivers/STM32F0xx_HAL_Driver/Src/stm32f0xx_hal_i2c.c ****   * @retval None
3941:Drivers/STM32F0xx_HAL_Driver/Src/stm32f0xx_hal_i2c.c ****   */
3942:Drivers/STM32F0xx_HAL_Driver/Src/stm32f0xx_hal_i2c.c **** static void I2C_ITMasterCplt(I2C_HandleTypeDef *hi2c, uint32_t ITFlags)
3943:Drivers/STM32F0xx_HAL_Driver/Src/stm32f0xx_hal_i2c.c **** {
 9692              		.loc 1 3943 1
 9693              		.cfi_startproc
 9694              		@ args = 0, pretend = 0, frame = 8
 9695              		@ frame_needed = 1, uses_anonymous_args = 0
 9696 0000 80B5     		push	{r7, lr}
 9697              	.LCFI162:
 9698              		.cfi_def_cfa_offset 8
 9699              		.cfi_offset 7, -8
 9700              		.cfi_offset 14, -4
 9701 0002 82B0     		sub	sp, sp, #8
 9702              	.LCFI163:
 9703              		.cfi_def_cfa_offset 16
 9704 0004 00AF     		add	r7, sp, #0
 9705              	.LCFI164:
 9706              		.cfi_def_cfa_register 7
 9707 0006 7860     		str	r0, [r7, #4]
 9708 0008 3960     		str	r1, [r7]
3944:Drivers/STM32F0xx_HAL_Driver/Src/stm32f0xx_hal_i2c.c ****   /* Clear STOP Flag */
3945:Drivers/STM32F0xx_HAL_Driver/Src/stm32f0xx_hal_i2c.c ****   __HAL_I2C_CLEAR_FLAG(hi2c, I2C_FLAG_STOPF);
 9709              		.loc 1 3945 3
 9710 000a 7B68     		ldr	r3, [r7, #4]
 9711 000c 1B68     		ldr	r3, [r3]
 9712 000e 2022     		movs	r2, #32
 9713 0010 DA61     		str	r2, [r3, #28]
3946:Drivers/STM32F0xx_HAL_Driver/Src/stm32f0xx_hal_i2c.c **** 
3947:Drivers/STM32F0xx_HAL_Driver/Src/stm32f0xx_hal_i2c.c ****   /* Clear Configuration Register 2 */
3948:Drivers/STM32F0xx_HAL_Driver/Src/stm32f0xx_hal_i2c.c ****   I2C_RESET_CR2(hi2c);
 9714              		.loc 1 3948 3
 9715 0012 7B68     		ldr	r3, [r7, #4]
 9716 0014 1B68     		ldr	r3, [r3]
 9717 0016 5A68     		ldr	r2, [r3, #4]
 9718 0018 7B68     		ldr	r3, [r7, #4]
 9719 001a 1B68     		ldr	r3, [r3]
 9720 001c 4549     		ldr	r1, .L443
 9721 001e 0A40     		ands	r2, r1
 9722 0020 5A60     		str	r2, [r3, #4]
3949:Drivers/STM32F0xx_HAL_Driver/Src/stm32f0xx_hal_i2c.c **** 
3950:Drivers/STM32F0xx_HAL_Driver/Src/stm32f0xx_hal_i2c.c ****   /* Reset handle parameters */
3951:Drivers/STM32F0xx_HAL_Driver/Src/stm32f0xx_hal_i2c.c ****   hi2c->PreviousState = I2C_STATE_NONE;
 9723              		.loc 1 3951 23
 9724 0022 7B68     		ldr	r3, [r7, #4]
 9725 0024 0022     		movs	r2, #0
 9726 0026 1A63     		str	r2, [r3, #48]
3952:Drivers/STM32F0xx_HAL_Driver/Src/stm32f0xx_hal_i2c.c ****   hi2c->XferISR       = NULL;
ARM GAS  C:\Users\ADMINI~1\AppData\Local\Temp\cc3zYV2m.s 			page 240


 9727              		.loc 1 3952 23
 9728 0028 7B68     		ldr	r3, [r7, #4]
 9729 002a 0022     		movs	r2, #0
 9730 002c 5A63     		str	r2, [r3, #52]
3953:Drivers/STM32F0xx_HAL_Driver/Src/stm32f0xx_hal_i2c.c ****   hi2c->XferOptions   = I2C_NO_OPTION_FRAME;
 9731              		.loc 1 3953 23
 9732 002e 7B68     		ldr	r3, [r7, #4]
 9733 0030 414A     		ldr	r2, .L443+4
 9734 0032 DA62     		str	r2, [r3, #44]
3954:Drivers/STM32F0xx_HAL_Driver/Src/stm32f0xx_hal_i2c.c **** 
3955:Drivers/STM32F0xx_HAL_Driver/Src/stm32f0xx_hal_i2c.c ****   if ((ITFlags & I2C_FLAG_AF) != RESET)
 9735              		.loc 1 3955 16
 9736 0034 3B68     		ldr	r3, [r7]
 9737 0036 1022     		movs	r2, #16
 9738 0038 1340     		ands	r3, r2
 9739              		.loc 1 3955 6
 9740 003a 09D0     		beq	.L435
3956:Drivers/STM32F0xx_HAL_Driver/Src/stm32f0xx_hal_i2c.c ****   {
3957:Drivers/STM32F0xx_HAL_Driver/Src/stm32f0xx_hal_i2c.c ****     /* Clear NACK Flag */
3958:Drivers/STM32F0xx_HAL_Driver/Src/stm32f0xx_hal_i2c.c ****     __HAL_I2C_CLEAR_FLAG(hi2c, I2C_FLAG_AF);
 9741              		.loc 1 3958 5
 9742 003c 7B68     		ldr	r3, [r7, #4]
 9743 003e 1B68     		ldr	r3, [r3]
 9744 0040 1022     		movs	r2, #16
 9745 0042 DA61     		str	r2, [r3, #28]
3959:Drivers/STM32F0xx_HAL_Driver/Src/stm32f0xx_hal_i2c.c **** 
3960:Drivers/STM32F0xx_HAL_Driver/Src/stm32f0xx_hal_i2c.c ****     /* Set acknowledge error code */
3961:Drivers/STM32F0xx_HAL_Driver/Src/stm32f0xx_hal_i2c.c ****     hi2c->ErrorCode |= HAL_I2C_ERROR_AF;
 9746              		.loc 1 3961 21
 9747 0044 7B68     		ldr	r3, [r7, #4]
 9748 0046 5B6C     		ldr	r3, [r3, #68]
 9749 0048 0422     		movs	r2, #4
 9750 004a 1A43     		orrs	r2, r3
 9751 004c 7B68     		ldr	r3, [r7, #4]
 9752 004e 5A64     		str	r2, [r3, #68]
 9753              	.L435:
3962:Drivers/STM32F0xx_HAL_Driver/Src/stm32f0xx_hal_i2c.c ****   }
3963:Drivers/STM32F0xx_HAL_Driver/Src/stm32f0xx_hal_i2c.c **** 
3964:Drivers/STM32F0xx_HAL_Driver/Src/stm32f0xx_hal_i2c.c ****   /* Flush TX register */
3965:Drivers/STM32F0xx_HAL_Driver/Src/stm32f0xx_hal_i2c.c ****   I2C_Flush_TXDR(hi2c);
 9754              		.loc 1 3965 3
 9755 0050 7B68     		ldr	r3, [r7, #4]
 9756 0052 1800     		movs	r0, r3
 9757 0054 FFF7FEFF 		bl	I2C_Flush_TXDR
3966:Drivers/STM32F0xx_HAL_Driver/Src/stm32f0xx_hal_i2c.c **** 
3967:Drivers/STM32F0xx_HAL_Driver/Src/stm32f0xx_hal_i2c.c ****   /* Disable Interrupts */
3968:Drivers/STM32F0xx_HAL_Driver/Src/stm32f0xx_hal_i2c.c ****   I2C_Disable_IRQ(hi2c, I2C_XFER_TX_IT | I2C_XFER_RX_IT);
 9758              		.loc 1 3968 3
 9759 0058 7B68     		ldr	r3, [r7, #4]
 9760 005a 0321     		movs	r1, #3
 9761 005c 1800     		movs	r0, r3
 9762 005e FFF7FEFF 		bl	I2C_Disable_IRQ
3969:Drivers/STM32F0xx_HAL_Driver/Src/stm32f0xx_hal_i2c.c **** 
3970:Drivers/STM32F0xx_HAL_Driver/Src/stm32f0xx_hal_i2c.c ****   /* Call the corresponding callback to inform upper layer of End of Transfer */
3971:Drivers/STM32F0xx_HAL_Driver/Src/stm32f0xx_hal_i2c.c ****   if ((hi2c->ErrorCode != HAL_I2C_ERROR_NONE) || (hi2c->State == HAL_I2C_STATE_ABORT))
 9763              		.loc 1 3971 12
 9764 0062 7B68     		ldr	r3, [r7, #4]
ARM GAS  C:\Users\ADMINI~1\AppData\Local\Temp\cc3zYV2m.s 			page 241


 9765 0064 5B6C     		ldr	r3, [r3, #68]
 9766              		.loc 1 3971 6
 9767 0066 002B     		cmp	r3, #0
 9768 0068 05D1     		bne	.L436
 9769              		.loc 1 3971 55 discriminator 1
 9770 006a 7B68     		ldr	r3, [r7, #4]
 9771 006c 4122     		movs	r2, #65
 9772 006e 9B5C     		ldrb	r3, [r3, r2]
 9773 0070 DBB2     		uxtb	r3, r3
 9774              		.loc 1 3971 47 discriminator 1
 9775 0072 602B     		cmp	r3, #96
 9776 0074 07D1     		bne	.L437
 9777              	.L436:
3972:Drivers/STM32F0xx_HAL_Driver/Src/stm32f0xx_hal_i2c.c ****   {
3973:Drivers/STM32F0xx_HAL_Driver/Src/stm32f0xx_hal_i2c.c ****     /* Call the corresponding callback to inform upper layer of End of Transfer */
3974:Drivers/STM32F0xx_HAL_Driver/Src/stm32f0xx_hal_i2c.c ****     I2C_ITError(hi2c, hi2c->ErrorCode);
 9778              		.loc 1 3974 5
 9779 0076 7B68     		ldr	r3, [r7, #4]
 9780 0078 5A6C     		ldr	r2, [r3, #68]
 9781 007a 7B68     		ldr	r3, [r7, #4]
 9782 007c 1100     		movs	r1, r2
 9783 007e 1800     		movs	r0, r3
 9784 0080 FFF7FEFF 		bl	I2C_ITError
3975:Drivers/STM32F0xx_HAL_Driver/Src/stm32f0xx_hal_i2c.c ****   }
3976:Drivers/STM32F0xx_HAL_Driver/Src/stm32f0xx_hal_i2c.c ****   /* hi2c->State == HAL_I2C_STATE_BUSY_TX */
3977:Drivers/STM32F0xx_HAL_Driver/Src/stm32f0xx_hal_i2c.c ****   else if (hi2c->State == HAL_I2C_STATE_BUSY_TX)
3978:Drivers/STM32F0xx_HAL_Driver/Src/stm32f0xx_hal_i2c.c ****   {
3979:Drivers/STM32F0xx_HAL_Driver/Src/stm32f0xx_hal_i2c.c ****     hi2c->State = HAL_I2C_STATE_READY;
3980:Drivers/STM32F0xx_HAL_Driver/Src/stm32f0xx_hal_i2c.c **** 
3981:Drivers/STM32F0xx_HAL_Driver/Src/stm32f0xx_hal_i2c.c ****     if (hi2c->Mode == HAL_I2C_MODE_MEM)
3982:Drivers/STM32F0xx_HAL_Driver/Src/stm32f0xx_hal_i2c.c ****     {
3983:Drivers/STM32F0xx_HAL_Driver/Src/stm32f0xx_hal_i2c.c ****       hi2c->Mode = HAL_I2C_MODE_NONE;
3984:Drivers/STM32F0xx_HAL_Driver/Src/stm32f0xx_hal_i2c.c **** 
3985:Drivers/STM32F0xx_HAL_Driver/Src/stm32f0xx_hal_i2c.c ****       /* Process Unlocked */
3986:Drivers/STM32F0xx_HAL_Driver/Src/stm32f0xx_hal_i2c.c ****       __HAL_UNLOCK(hi2c);
3987:Drivers/STM32F0xx_HAL_Driver/Src/stm32f0xx_hal_i2c.c **** 
3988:Drivers/STM32F0xx_HAL_Driver/Src/stm32f0xx_hal_i2c.c ****       /* Call the corresponding callback to inform upper layer of End of Transfer */
3989:Drivers/STM32F0xx_HAL_Driver/Src/stm32f0xx_hal_i2c.c ****       HAL_I2C_MemTxCpltCallback(hi2c);
3990:Drivers/STM32F0xx_HAL_Driver/Src/stm32f0xx_hal_i2c.c ****     }
3991:Drivers/STM32F0xx_HAL_Driver/Src/stm32f0xx_hal_i2c.c ****     else
3992:Drivers/STM32F0xx_HAL_Driver/Src/stm32f0xx_hal_i2c.c ****     {
3993:Drivers/STM32F0xx_HAL_Driver/Src/stm32f0xx_hal_i2c.c ****       hi2c->Mode = HAL_I2C_MODE_NONE;
3994:Drivers/STM32F0xx_HAL_Driver/Src/stm32f0xx_hal_i2c.c **** 
3995:Drivers/STM32F0xx_HAL_Driver/Src/stm32f0xx_hal_i2c.c ****       /* Process Unlocked */
3996:Drivers/STM32F0xx_HAL_Driver/Src/stm32f0xx_hal_i2c.c ****       __HAL_UNLOCK(hi2c);
3997:Drivers/STM32F0xx_HAL_Driver/Src/stm32f0xx_hal_i2c.c **** 
3998:Drivers/STM32F0xx_HAL_Driver/Src/stm32f0xx_hal_i2c.c ****       /* Call the corresponding callback to inform upper layer of End of Transfer */
3999:Drivers/STM32F0xx_HAL_Driver/Src/stm32f0xx_hal_i2c.c ****       HAL_I2C_MasterTxCpltCallback(hi2c);
4000:Drivers/STM32F0xx_HAL_Driver/Src/stm32f0xx_hal_i2c.c ****     }
4001:Drivers/STM32F0xx_HAL_Driver/Src/stm32f0xx_hal_i2c.c ****   }
4002:Drivers/STM32F0xx_HAL_Driver/Src/stm32f0xx_hal_i2c.c ****   /* hi2c->State == HAL_I2C_STATE_BUSY_RX */
4003:Drivers/STM32F0xx_HAL_Driver/Src/stm32f0xx_hal_i2c.c ****   else if (hi2c->State == HAL_I2C_STATE_BUSY_RX)
4004:Drivers/STM32F0xx_HAL_Driver/Src/stm32f0xx_hal_i2c.c ****   {
4005:Drivers/STM32F0xx_HAL_Driver/Src/stm32f0xx_hal_i2c.c ****     hi2c->State = HAL_I2C_STATE_READY;
4006:Drivers/STM32F0xx_HAL_Driver/Src/stm32f0xx_hal_i2c.c **** 
4007:Drivers/STM32F0xx_HAL_Driver/Src/stm32f0xx_hal_i2c.c ****     if (hi2c->Mode == HAL_I2C_MODE_MEM)
4008:Drivers/STM32F0xx_HAL_Driver/Src/stm32f0xx_hal_i2c.c ****     {
ARM GAS  C:\Users\ADMINI~1\AppData\Local\Temp\cc3zYV2m.s 			page 242


4009:Drivers/STM32F0xx_HAL_Driver/Src/stm32f0xx_hal_i2c.c ****       hi2c->Mode = HAL_I2C_MODE_NONE;
4010:Drivers/STM32F0xx_HAL_Driver/Src/stm32f0xx_hal_i2c.c **** 
4011:Drivers/STM32F0xx_HAL_Driver/Src/stm32f0xx_hal_i2c.c ****       /* Process Unlocked */
4012:Drivers/STM32F0xx_HAL_Driver/Src/stm32f0xx_hal_i2c.c ****       __HAL_UNLOCK(hi2c);
4013:Drivers/STM32F0xx_HAL_Driver/Src/stm32f0xx_hal_i2c.c **** 
4014:Drivers/STM32F0xx_HAL_Driver/Src/stm32f0xx_hal_i2c.c ****       HAL_I2C_MemRxCpltCallback(hi2c);
4015:Drivers/STM32F0xx_HAL_Driver/Src/stm32f0xx_hal_i2c.c ****     }
4016:Drivers/STM32F0xx_HAL_Driver/Src/stm32f0xx_hal_i2c.c ****     else
4017:Drivers/STM32F0xx_HAL_Driver/Src/stm32f0xx_hal_i2c.c ****     {
4018:Drivers/STM32F0xx_HAL_Driver/Src/stm32f0xx_hal_i2c.c ****       hi2c->Mode = HAL_I2C_MODE_NONE;
4019:Drivers/STM32F0xx_HAL_Driver/Src/stm32f0xx_hal_i2c.c **** 
4020:Drivers/STM32F0xx_HAL_Driver/Src/stm32f0xx_hal_i2c.c ****       /* Process Unlocked */
4021:Drivers/STM32F0xx_HAL_Driver/Src/stm32f0xx_hal_i2c.c ****       __HAL_UNLOCK(hi2c);
4022:Drivers/STM32F0xx_HAL_Driver/Src/stm32f0xx_hal_i2c.c **** 
4023:Drivers/STM32F0xx_HAL_Driver/Src/stm32f0xx_hal_i2c.c ****       HAL_I2C_MasterRxCpltCallback(hi2c);
4024:Drivers/STM32F0xx_HAL_Driver/Src/stm32f0xx_hal_i2c.c ****     }
4025:Drivers/STM32F0xx_HAL_Driver/Src/stm32f0xx_hal_i2c.c ****   }
4026:Drivers/STM32F0xx_HAL_Driver/Src/stm32f0xx_hal_i2c.c **** }
 9785              		.loc 1 4026 1
 9786 0084 52E0     		b	.L442
 9787              	.L437:
3977:Drivers/STM32F0xx_HAL_Driver/Src/stm32f0xx_hal_i2c.c ****   {
 9788              		.loc 1 3977 16
 9789 0086 7B68     		ldr	r3, [r7, #4]
 9790 0088 4122     		movs	r2, #65
 9791 008a 9B5C     		ldrb	r3, [r3, r2]
 9792 008c DBB2     		uxtb	r3, r3
3977:Drivers/STM32F0xx_HAL_Driver/Src/stm32f0xx_hal_i2c.c ****   {
 9793              		.loc 1 3977 11
 9794 008e 212B     		cmp	r3, #33
 9795 0090 23D1     		bne	.L439
3979:Drivers/STM32F0xx_HAL_Driver/Src/stm32f0xx_hal_i2c.c **** 
 9796              		.loc 1 3979 17
 9797 0092 7B68     		ldr	r3, [r7, #4]
 9798 0094 4122     		movs	r2, #65
 9799 0096 2021     		movs	r1, #32
 9800 0098 9954     		strb	r1, [r3, r2]
3981:Drivers/STM32F0xx_HAL_Driver/Src/stm32f0xx_hal_i2c.c ****     {
 9801              		.loc 1 3981 13
 9802 009a 7B68     		ldr	r3, [r7, #4]
 9803 009c 4222     		movs	r2, #66
 9804 009e 9B5C     		ldrb	r3, [r3, r2]
 9805 00a0 DBB2     		uxtb	r3, r3
3981:Drivers/STM32F0xx_HAL_Driver/Src/stm32f0xx_hal_i2c.c ****     {
 9806              		.loc 1 3981 8
 9807 00a2 402B     		cmp	r3, #64
 9808 00a4 0CD1     		bne	.L440
3983:Drivers/STM32F0xx_HAL_Driver/Src/stm32f0xx_hal_i2c.c **** 
 9809              		.loc 1 3983 18
 9810 00a6 7B68     		ldr	r3, [r7, #4]
 9811 00a8 4222     		movs	r2, #66
 9812 00aa 0021     		movs	r1, #0
 9813 00ac 9954     		strb	r1, [r3, r2]
3986:Drivers/STM32F0xx_HAL_Driver/Src/stm32f0xx_hal_i2c.c **** 
 9814              		.loc 1 3986 7
 9815 00ae 7B68     		ldr	r3, [r7, #4]
 9816 00b0 4022     		movs	r2, #64
ARM GAS  C:\Users\ADMINI~1\AppData\Local\Temp\cc3zYV2m.s 			page 243


 9817 00b2 0021     		movs	r1, #0
 9818 00b4 9954     		strb	r1, [r3, r2]
3989:Drivers/STM32F0xx_HAL_Driver/Src/stm32f0xx_hal_i2c.c ****     }
 9819              		.loc 1 3989 7
 9820 00b6 7B68     		ldr	r3, [r7, #4]
 9821 00b8 1800     		movs	r0, r3
 9822 00ba FFF7FEFF 		bl	HAL_I2C_MemTxCpltCallback
 9823              		.loc 1 4026 1
 9824 00be 35E0     		b	.L442
 9825              	.L440:
3993:Drivers/STM32F0xx_HAL_Driver/Src/stm32f0xx_hal_i2c.c **** 
 9826              		.loc 1 3993 18
 9827 00c0 7B68     		ldr	r3, [r7, #4]
 9828 00c2 4222     		movs	r2, #66
 9829 00c4 0021     		movs	r1, #0
 9830 00c6 9954     		strb	r1, [r3, r2]
3996:Drivers/STM32F0xx_HAL_Driver/Src/stm32f0xx_hal_i2c.c **** 
 9831              		.loc 1 3996 7
 9832 00c8 7B68     		ldr	r3, [r7, #4]
 9833 00ca 4022     		movs	r2, #64
 9834 00cc 0021     		movs	r1, #0
 9835 00ce 9954     		strb	r1, [r3, r2]
3999:Drivers/STM32F0xx_HAL_Driver/Src/stm32f0xx_hal_i2c.c ****     }
 9836              		.loc 1 3999 7
 9837 00d0 7B68     		ldr	r3, [r7, #4]
 9838 00d2 1800     		movs	r0, r3
 9839 00d4 FFF7FEFF 		bl	HAL_I2C_MasterTxCpltCallback
 9840              		.loc 1 4026 1
 9841 00d8 28E0     		b	.L442
 9842              	.L439:
4003:Drivers/STM32F0xx_HAL_Driver/Src/stm32f0xx_hal_i2c.c ****   {
 9843              		.loc 1 4003 16
 9844 00da 7B68     		ldr	r3, [r7, #4]
 9845 00dc 4122     		movs	r2, #65
 9846 00de 9B5C     		ldrb	r3, [r3, r2]
 9847 00e0 DBB2     		uxtb	r3, r3
4003:Drivers/STM32F0xx_HAL_Driver/Src/stm32f0xx_hal_i2c.c ****   {
 9848              		.loc 1 4003 11
 9849 00e2 222B     		cmp	r3, #34
 9850 00e4 22D1     		bne	.L442
4005:Drivers/STM32F0xx_HAL_Driver/Src/stm32f0xx_hal_i2c.c **** 
 9851              		.loc 1 4005 17
 9852 00e6 7B68     		ldr	r3, [r7, #4]
 9853 00e8 4122     		movs	r2, #65
 9854 00ea 2021     		movs	r1, #32
 9855 00ec 9954     		strb	r1, [r3, r2]
4007:Drivers/STM32F0xx_HAL_Driver/Src/stm32f0xx_hal_i2c.c ****     {
 9856              		.loc 1 4007 13
 9857 00ee 7B68     		ldr	r3, [r7, #4]
 9858 00f0 4222     		movs	r2, #66
 9859 00f2 9B5C     		ldrb	r3, [r3, r2]
 9860 00f4 DBB2     		uxtb	r3, r3
4007:Drivers/STM32F0xx_HAL_Driver/Src/stm32f0xx_hal_i2c.c ****     {
 9861              		.loc 1 4007 8
 9862 00f6 402B     		cmp	r3, #64
 9863 00f8 0CD1     		bne	.L441
4009:Drivers/STM32F0xx_HAL_Driver/Src/stm32f0xx_hal_i2c.c **** 
ARM GAS  C:\Users\ADMINI~1\AppData\Local\Temp\cc3zYV2m.s 			page 244


 9864              		.loc 1 4009 18
 9865 00fa 7B68     		ldr	r3, [r7, #4]
 9866 00fc 4222     		movs	r2, #66
 9867 00fe 0021     		movs	r1, #0
 9868 0100 9954     		strb	r1, [r3, r2]
4012:Drivers/STM32F0xx_HAL_Driver/Src/stm32f0xx_hal_i2c.c **** 
 9869              		.loc 1 4012 7
 9870 0102 7B68     		ldr	r3, [r7, #4]
 9871 0104 4022     		movs	r2, #64
 9872 0106 0021     		movs	r1, #0
 9873 0108 9954     		strb	r1, [r3, r2]
4014:Drivers/STM32F0xx_HAL_Driver/Src/stm32f0xx_hal_i2c.c ****     }
 9874              		.loc 1 4014 7
 9875 010a 7B68     		ldr	r3, [r7, #4]
 9876 010c 1800     		movs	r0, r3
 9877 010e FFF7FEFF 		bl	HAL_I2C_MemRxCpltCallback
 9878              		.loc 1 4026 1
 9879 0112 0BE0     		b	.L442
 9880              	.L441:
4018:Drivers/STM32F0xx_HAL_Driver/Src/stm32f0xx_hal_i2c.c **** 
 9881              		.loc 1 4018 18
 9882 0114 7B68     		ldr	r3, [r7, #4]
 9883 0116 4222     		movs	r2, #66
 9884 0118 0021     		movs	r1, #0
 9885 011a 9954     		strb	r1, [r3, r2]
4021:Drivers/STM32F0xx_HAL_Driver/Src/stm32f0xx_hal_i2c.c **** 
 9886              		.loc 1 4021 7
 9887 011c 7B68     		ldr	r3, [r7, #4]
 9888 011e 4022     		movs	r2, #64
 9889 0120 0021     		movs	r1, #0
 9890 0122 9954     		strb	r1, [r3, r2]
4023:Drivers/STM32F0xx_HAL_Driver/Src/stm32f0xx_hal_i2c.c ****     }
 9891              		.loc 1 4023 7
 9892 0124 7B68     		ldr	r3, [r7, #4]
 9893 0126 1800     		movs	r0, r3
 9894 0128 FFF7FEFF 		bl	HAL_I2C_MasterRxCpltCallback
 9895              	.L442:
 9896              		.loc 1 4026 1
 9897 012c C046     		nop
 9898 012e BD46     		mov	sp, r7
 9899 0130 02B0     		add	sp, sp, #8
 9900              		@ sp needed
 9901 0132 80BD     		pop	{r7, pc}
 9902              	.L444:
 9903              		.align	2
 9904              	.L443:
 9905 0134 00E800FE 		.word	-33495040
 9906 0138 0000FFFF 		.word	-65536
 9907              		.cfi_endproc
 9908              	.LFE91:
 9910              		.section	.text.I2C_ITSlaveCplt,"ax",%progbits
 9911              		.align	1
 9912              		.syntax unified
 9913              		.code	16
 9914              		.thumb_func
 9915              		.fpu softvfp
 9917              	I2C_ITSlaveCplt:
ARM GAS  C:\Users\ADMINI~1\AppData\Local\Temp\cc3zYV2m.s 			page 245


 9918              	.LFB92:
4027:Drivers/STM32F0xx_HAL_Driver/Src/stm32f0xx_hal_i2c.c **** 
4028:Drivers/STM32F0xx_HAL_Driver/Src/stm32f0xx_hal_i2c.c **** /**
4029:Drivers/STM32F0xx_HAL_Driver/Src/stm32f0xx_hal_i2c.c ****   * @brief  I2C Slave complete process.
4030:Drivers/STM32F0xx_HAL_Driver/Src/stm32f0xx_hal_i2c.c ****   * @param  hi2c I2C handle.
4031:Drivers/STM32F0xx_HAL_Driver/Src/stm32f0xx_hal_i2c.c ****   * @param  ITFlags Interrupt flags to handle.
4032:Drivers/STM32F0xx_HAL_Driver/Src/stm32f0xx_hal_i2c.c ****   * @retval None
4033:Drivers/STM32F0xx_HAL_Driver/Src/stm32f0xx_hal_i2c.c ****   */
4034:Drivers/STM32F0xx_HAL_Driver/Src/stm32f0xx_hal_i2c.c **** static void I2C_ITSlaveCplt(I2C_HandleTypeDef *hi2c, uint32_t ITFlags)
4035:Drivers/STM32F0xx_HAL_Driver/Src/stm32f0xx_hal_i2c.c **** {
 9919              		.loc 1 4035 1
 9920              		.cfi_startproc
 9921              		@ args = 0, pretend = 0, frame = 8
 9922              		@ frame_needed = 1, uses_anonymous_args = 0
 9923 0000 80B5     		push	{r7, lr}
 9924              	.LCFI165:
 9925              		.cfi_def_cfa_offset 8
 9926              		.cfi_offset 7, -8
 9927              		.cfi_offset 14, -4
 9928 0002 82B0     		sub	sp, sp, #8
 9929              	.LCFI166:
 9930              		.cfi_def_cfa_offset 16
 9931 0004 00AF     		add	r7, sp, #0
 9932              	.LCFI167:
 9933              		.cfi_def_cfa_register 7
 9934 0006 7860     		str	r0, [r7, #4]
 9935 0008 3960     		str	r1, [r7]
4036:Drivers/STM32F0xx_HAL_Driver/Src/stm32f0xx_hal_i2c.c ****   /* Clear STOP Flag */
4037:Drivers/STM32F0xx_HAL_Driver/Src/stm32f0xx_hal_i2c.c ****   __HAL_I2C_CLEAR_FLAG(hi2c, I2C_FLAG_STOPF);
 9936              		.loc 1 4037 3
 9937 000a 7B68     		ldr	r3, [r7, #4]
 9938 000c 1B68     		ldr	r3, [r3]
 9939 000e 2022     		movs	r2, #32
 9940 0010 DA61     		str	r2, [r3, #28]
4038:Drivers/STM32F0xx_HAL_Driver/Src/stm32f0xx_hal_i2c.c **** 
4039:Drivers/STM32F0xx_HAL_Driver/Src/stm32f0xx_hal_i2c.c ****   /* Clear ADDR flag */
4040:Drivers/STM32F0xx_HAL_Driver/Src/stm32f0xx_hal_i2c.c ****   __HAL_I2C_CLEAR_FLAG(hi2c, I2C_FLAG_ADDR);
 9941              		.loc 1 4040 3
 9942 0012 7B68     		ldr	r3, [r7, #4]
 9943 0014 1B68     		ldr	r3, [r3]
 9944 0016 0822     		movs	r2, #8
 9945 0018 DA61     		str	r2, [r3, #28]
4041:Drivers/STM32F0xx_HAL_Driver/Src/stm32f0xx_hal_i2c.c **** 
4042:Drivers/STM32F0xx_HAL_Driver/Src/stm32f0xx_hal_i2c.c ****   /* Disable all interrupts */
4043:Drivers/STM32F0xx_HAL_Driver/Src/stm32f0xx_hal_i2c.c ****   I2C_Disable_IRQ(hi2c, I2C_XFER_LISTEN_IT | I2C_XFER_TX_IT | I2C_XFER_RX_IT);
 9946              		.loc 1 4043 3
 9947 001a 7B68     		ldr	r3, [r7, #4]
 9948 001c 0721     		movs	r1, #7
 9949 001e 1800     		movs	r0, r3
 9950 0020 FFF7FEFF 		bl	I2C_Disable_IRQ
4044:Drivers/STM32F0xx_HAL_Driver/Src/stm32f0xx_hal_i2c.c **** 
4045:Drivers/STM32F0xx_HAL_Driver/Src/stm32f0xx_hal_i2c.c ****   /* Disable Address Acknowledge */
4046:Drivers/STM32F0xx_HAL_Driver/Src/stm32f0xx_hal_i2c.c ****   hi2c->Instance->CR2 |= I2C_CR2_NACK;
 9951              		.loc 1 4046 7
 9952 0024 7B68     		ldr	r3, [r7, #4]
 9953 0026 1B68     		ldr	r3, [r3]
 9954              		.loc 1 4046 23
ARM GAS  C:\Users\ADMINI~1\AppData\Local\Temp\cc3zYV2m.s 			page 246


 9955 0028 5A68     		ldr	r2, [r3, #4]
 9956              		.loc 1 4046 7
 9957 002a 7B68     		ldr	r3, [r7, #4]
 9958 002c 1B68     		ldr	r3, [r3]
 9959              		.loc 1 4046 23
 9960 002e 8021     		movs	r1, #128
 9961 0030 0902     		lsls	r1, r1, #8
 9962 0032 0A43     		orrs	r2, r1
 9963 0034 5A60     		str	r2, [r3, #4]
4047:Drivers/STM32F0xx_HAL_Driver/Src/stm32f0xx_hal_i2c.c **** 
4048:Drivers/STM32F0xx_HAL_Driver/Src/stm32f0xx_hal_i2c.c ****   /* Clear Configuration Register 2 */
4049:Drivers/STM32F0xx_HAL_Driver/Src/stm32f0xx_hal_i2c.c ****   I2C_RESET_CR2(hi2c);
 9964              		.loc 1 4049 3
 9965 0036 7B68     		ldr	r3, [r7, #4]
 9966 0038 1B68     		ldr	r3, [r3]
 9967 003a 5A68     		ldr	r2, [r3, #4]
 9968 003c 7B68     		ldr	r3, [r7, #4]
 9969 003e 1B68     		ldr	r3, [r3]
 9970 0040 5B49     		ldr	r1, .L457
 9971 0042 0A40     		ands	r2, r1
 9972 0044 5A60     		str	r2, [r3, #4]
4050:Drivers/STM32F0xx_HAL_Driver/Src/stm32f0xx_hal_i2c.c **** 
4051:Drivers/STM32F0xx_HAL_Driver/Src/stm32f0xx_hal_i2c.c ****   /* Flush TX register */
4052:Drivers/STM32F0xx_HAL_Driver/Src/stm32f0xx_hal_i2c.c ****   I2C_Flush_TXDR(hi2c);
 9973              		.loc 1 4052 3
 9974 0046 7B68     		ldr	r3, [r7, #4]
 9975 0048 1800     		movs	r0, r3
 9976 004a FFF7FEFF 		bl	I2C_Flush_TXDR
4053:Drivers/STM32F0xx_HAL_Driver/Src/stm32f0xx_hal_i2c.c **** 
4054:Drivers/STM32F0xx_HAL_Driver/Src/stm32f0xx_hal_i2c.c ****   /* If a DMA is ongoing, Update handle size context */
4055:Drivers/STM32F0xx_HAL_Driver/Src/stm32f0xx_hal_i2c.c ****   if (((hi2c->Instance->CR1 & I2C_CR1_TXDMAEN) == I2C_CR1_TXDMAEN) ||
 9977              		.loc 1 4055 13
 9978 004e 7B68     		ldr	r3, [r7, #4]
 9979 0050 1B68     		ldr	r3, [r3]
 9980              		.loc 1 4055 23
 9981 0052 1A68     		ldr	r2, [r3]
 9982              		.loc 1 4055 29
 9983 0054 8023     		movs	r3, #128
 9984 0056 DB01     		lsls	r3, r3, #7
 9985 0058 1A40     		ands	r2, r3
 9986              		.loc 1 4055 6
 9987 005a 8023     		movs	r3, #128
 9988 005c DB01     		lsls	r3, r3, #7
 9989 005e 9A42     		cmp	r2, r3
 9990 0060 09D0     		beq	.L446
4056:Drivers/STM32F0xx_HAL_Driver/Src/stm32f0xx_hal_i2c.c ****       ((hi2c->Instance->CR1 & I2C_CR1_RXDMAEN) == I2C_CR1_RXDMAEN))
 9991              		.loc 1 4056 13 discriminator 1
 9992 0062 7B68     		ldr	r3, [r7, #4]
 9993 0064 1B68     		ldr	r3, [r3]
 9994              		.loc 1 4056 23 discriminator 1
 9995 0066 1A68     		ldr	r2, [r3]
 9996              		.loc 1 4056 29 discriminator 1
 9997 0068 8023     		movs	r3, #128
 9998 006a 1B02     		lsls	r3, r3, #8
 9999 006c 1A40     		ands	r2, r3
4055:Drivers/STM32F0xx_HAL_Driver/Src/stm32f0xx_hal_i2c.c ****       ((hi2c->Instance->CR1 & I2C_CR1_RXDMAEN) == I2C_CR1_RXDMAEN))
 10000              		.loc 1 4055 68 discriminator 1
ARM GAS  C:\Users\ADMINI~1\AppData\Local\Temp\cc3zYV2m.s 			page 247


 10001 006e 8023     		movs	r3, #128
 10002 0070 1B02     		lsls	r3, r3, #8
 10003 0072 9A42     		cmp	r2, r3
 10004 0074 12D1     		bne	.L447
 10005              	.L446:
4057:Drivers/STM32F0xx_HAL_Driver/Src/stm32f0xx_hal_i2c.c ****   {
4058:Drivers/STM32F0xx_HAL_Driver/Src/stm32f0xx_hal_i2c.c ****     hi2c->XferCount = I2C_GET_DMA_REMAIN_DATA(hi2c);
 10006              		.loc 1 4058 23
 10007 0076 7B68     		ldr	r3, [r7, #4]
 10008 0078 4122     		movs	r2, #65
 10009 007a 9B5C     		ldrb	r3, [r3, r2]
 10010 007c DBB2     		uxtb	r3, r3
 10011              		.loc 1 4058 21
 10012 007e 212B     		cmp	r3, #33
 10013 0080 05D1     		bne	.L448
 10014              		.loc 1 4058 23 discriminator 1
 10015 0082 7B68     		ldr	r3, [r7, #4]
 10016 0084 9B6B     		ldr	r3, [r3, #56]
 10017 0086 1B68     		ldr	r3, [r3]
 10018 0088 5B68     		ldr	r3, [r3, #4]
 10019              		.loc 1 4058 21 discriminator 1
 10020 008a 9BB2     		uxth	r3, r3
 10021 008c 04E0     		b	.L449
 10022              	.L448:
 10023              		.loc 1 4058 23 discriminator 2
 10024 008e 7B68     		ldr	r3, [r7, #4]
 10025 0090 DB6B     		ldr	r3, [r3, #60]
 10026 0092 1B68     		ldr	r3, [r3]
 10027 0094 5B68     		ldr	r3, [r3, #4]
 10028              		.loc 1 4058 21 discriminator 2
 10029 0096 9BB2     		uxth	r3, r3
 10030              	.L449:
 10031              		.loc 1 4058 21 is_stmt 0 discriminator 4
 10032 0098 7A68     		ldr	r2, [r7, #4]
 10033 009a 5385     		strh	r3, [r2, #42]
 10034              	.L447:
4059:Drivers/STM32F0xx_HAL_Driver/Src/stm32f0xx_hal_i2c.c ****   }
4060:Drivers/STM32F0xx_HAL_Driver/Src/stm32f0xx_hal_i2c.c **** 
4061:Drivers/STM32F0xx_HAL_Driver/Src/stm32f0xx_hal_i2c.c ****   /* All data are not transferred, so set error code accordingly */
4062:Drivers/STM32F0xx_HAL_Driver/Src/stm32f0xx_hal_i2c.c ****   if (hi2c->XferCount != 0U)
 10035              		.loc 1 4062 11 is_stmt 1
 10036 009c 7B68     		ldr	r3, [r7, #4]
 10037 009e 5B8D     		ldrh	r3, [r3, #42]
 10038 00a0 9BB2     		uxth	r3, r3
 10039              		.loc 1 4062 6
 10040 00a2 002B     		cmp	r3, #0
 10041 00a4 05D0     		beq	.L450
4063:Drivers/STM32F0xx_HAL_Driver/Src/stm32f0xx_hal_i2c.c ****   {
4064:Drivers/STM32F0xx_HAL_Driver/Src/stm32f0xx_hal_i2c.c ****     /* Set ErrorCode corresponding to a Non-Acknowledge */
4065:Drivers/STM32F0xx_HAL_Driver/Src/stm32f0xx_hal_i2c.c ****     hi2c->ErrorCode |= HAL_I2C_ERROR_AF;
 10042              		.loc 1 4065 21
 10043 00a6 7B68     		ldr	r3, [r7, #4]
 10044 00a8 5B6C     		ldr	r3, [r3, #68]
 10045 00aa 0422     		movs	r2, #4
 10046 00ac 1A43     		orrs	r2, r3
 10047 00ae 7B68     		ldr	r3, [r7, #4]
 10048 00b0 5A64     		str	r2, [r3, #68]
ARM GAS  C:\Users\ADMINI~1\AppData\Local\Temp\cc3zYV2m.s 			page 248


 10049              	.L450:
4066:Drivers/STM32F0xx_HAL_Driver/Src/stm32f0xx_hal_i2c.c ****   }
4067:Drivers/STM32F0xx_HAL_Driver/Src/stm32f0xx_hal_i2c.c **** 
4068:Drivers/STM32F0xx_HAL_Driver/Src/stm32f0xx_hal_i2c.c ****   /* Store Last receive data if any */
4069:Drivers/STM32F0xx_HAL_Driver/Src/stm32f0xx_hal_i2c.c ****   if (((ITFlags & I2C_FLAG_RXNE) != RESET))
 10050              		.loc 1 4069 17
 10051 00b2 3B68     		ldr	r3, [r7]
 10052 00b4 0422     		movs	r2, #4
 10053 00b6 1340     		ands	r3, r2
 10054              		.loc 1 4069 6
 10055 00b8 20D0     		beq	.L451
4070:Drivers/STM32F0xx_HAL_Driver/Src/stm32f0xx_hal_i2c.c ****   {
4071:Drivers/STM32F0xx_HAL_Driver/Src/stm32f0xx_hal_i2c.c ****     /* Read data from RXDR */
4072:Drivers/STM32F0xx_HAL_Driver/Src/stm32f0xx_hal_i2c.c ****     (*hi2c->pBuffPtr++) = hi2c->Instance->RXDR;
 10056              		.loc 1 4072 31
 10057 00ba 7B68     		ldr	r3, [r7, #4]
 10058 00bc 1B68     		ldr	r3, [r3]
 10059              		.loc 1 4072 41
 10060 00be 586A     		ldr	r0, [r3, #36]
 10061              		.loc 1 4072 11
 10062 00c0 7B68     		ldr	r3, [r7, #4]
 10063 00c2 5B6A     		ldr	r3, [r3, #36]
 10064              		.loc 1 4072 21
 10065 00c4 591C     		adds	r1, r3, #1
 10066 00c6 7A68     		ldr	r2, [r7, #4]
 10067 00c8 5162     		str	r1, [r2, #36]
 10068              		.loc 1 4072 25
 10069 00ca C2B2     		uxtb	r2, r0
 10070 00cc 1A70     		strb	r2, [r3]
4073:Drivers/STM32F0xx_HAL_Driver/Src/stm32f0xx_hal_i2c.c **** 
4074:Drivers/STM32F0xx_HAL_Driver/Src/stm32f0xx_hal_i2c.c ****     if ((hi2c->XferSize > 0U))
 10071              		.loc 1 4074 14
 10072 00ce 7B68     		ldr	r3, [r7, #4]
 10073 00d0 1B8D     		ldrh	r3, [r3, #40]
 10074              		.loc 1 4074 8
 10075 00d2 002B     		cmp	r3, #0
 10076 00d4 12D0     		beq	.L451
4075:Drivers/STM32F0xx_HAL_Driver/Src/stm32f0xx_hal_i2c.c ****     {
4076:Drivers/STM32F0xx_HAL_Driver/Src/stm32f0xx_hal_i2c.c ****       hi2c->XferSize--;
 10077              		.loc 1 4076 11
 10078 00d6 7B68     		ldr	r3, [r7, #4]
 10079 00d8 1B8D     		ldrh	r3, [r3, #40]
 10080              		.loc 1 4076 21
 10081 00da 013B     		subs	r3, r3, #1
 10082 00dc 9AB2     		uxth	r2, r3
 10083 00de 7B68     		ldr	r3, [r7, #4]
 10084 00e0 1A85     		strh	r2, [r3, #40]
4077:Drivers/STM32F0xx_HAL_Driver/Src/stm32f0xx_hal_i2c.c ****       hi2c->XferCount--;
 10085              		.loc 1 4077 11
 10086 00e2 7B68     		ldr	r3, [r7, #4]
 10087 00e4 5B8D     		ldrh	r3, [r3, #42]
 10088 00e6 9BB2     		uxth	r3, r3
 10089              		.loc 1 4077 22
 10090 00e8 013B     		subs	r3, r3, #1
 10091 00ea 9AB2     		uxth	r2, r3
 10092 00ec 7B68     		ldr	r3, [r7, #4]
 10093 00ee 5A85     		strh	r2, [r3, #42]
ARM GAS  C:\Users\ADMINI~1\AppData\Local\Temp\cc3zYV2m.s 			page 249


4078:Drivers/STM32F0xx_HAL_Driver/Src/stm32f0xx_hal_i2c.c **** 
4079:Drivers/STM32F0xx_HAL_Driver/Src/stm32f0xx_hal_i2c.c ****       /* Set ErrorCode corresponding to a Non-Acknowledge */
4080:Drivers/STM32F0xx_HAL_Driver/Src/stm32f0xx_hal_i2c.c ****       hi2c->ErrorCode |= HAL_I2C_ERROR_AF;
 10094              		.loc 1 4080 23
 10095 00f0 7B68     		ldr	r3, [r7, #4]
 10096 00f2 5B6C     		ldr	r3, [r3, #68]
 10097 00f4 0422     		movs	r2, #4
 10098 00f6 1A43     		orrs	r2, r3
 10099 00f8 7B68     		ldr	r3, [r7, #4]
 10100 00fa 5A64     		str	r2, [r3, #68]
 10101              	.L451:
4081:Drivers/STM32F0xx_HAL_Driver/Src/stm32f0xx_hal_i2c.c ****     }
4082:Drivers/STM32F0xx_HAL_Driver/Src/stm32f0xx_hal_i2c.c ****   }
4083:Drivers/STM32F0xx_HAL_Driver/Src/stm32f0xx_hal_i2c.c **** 
4084:Drivers/STM32F0xx_HAL_Driver/Src/stm32f0xx_hal_i2c.c ****   hi2c->PreviousState = I2C_STATE_NONE;
 10102              		.loc 1 4084 23
 10103 00fc 7B68     		ldr	r3, [r7, #4]
 10104 00fe 0022     		movs	r2, #0
 10105 0100 1A63     		str	r2, [r3, #48]
4085:Drivers/STM32F0xx_HAL_Driver/Src/stm32f0xx_hal_i2c.c ****   hi2c->Mode = HAL_I2C_MODE_NONE;
 10106              		.loc 1 4085 14
 10107 0102 7B68     		ldr	r3, [r7, #4]
 10108 0104 4222     		movs	r2, #66
 10109 0106 0021     		movs	r1, #0
 10110 0108 9954     		strb	r1, [r3, r2]
4086:Drivers/STM32F0xx_HAL_Driver/Src/stm32f0xx_hal_i2c.c ****   hi2c->XferISR = NULL;
 10111              		.loc 1 4086 17
 10112 010a 7B68     		ldr	r3, [r7, #4]
 10113 010c 0022     		movs	r2, #0
 10114 010e 5A63     		str	r2, [r3, #52]
4087:Drivers/STM32F0xx_HAL_Driver/Src/stm32f0xx_hal_i2c.c **** 
4088:Drivers/STM32F0xx_HAL_Driver/Src/stm32f0xx_hal_i2c.c ****   if (hi2c->ErrorCode != HAL_I2C_ERROR_NONE)
 10115              		.loc 1 4088 11
 10116 0110 7B68     		ldr	r3, [r7, #4]
 10117 0112 5B6C     		ldr	r3, [r3, #68]
 10118              		.loc 1 4088 6
 10119 0114 002B     		cmp	r3, #0
 10120 0116 13D0     		beq	.L452
4089:Drivers/STM32F0xx_HAL_Driver/Src/stm32f0xx_hal_i2c.c ****   {
4090:Drivers/STM32F0xx_HAL_Driver/Src/stm32f0xx_hal_i2c.c ****     /* Call the corresponding callback to inform upper layer of End of Transfer */
4091:Drivers/STM32F0xx_HAL_Driver/Src/stm32f0xx_hal_i2c.c ****     I2C_ITError(hi2c, hi2c->ErrorCode);
 10121              		.loc 1 4091 5
 10122 0118 7B68     		ldr	r3, [r7, #4]
 10123 011a 5A6C     		ldr	r2, [r3, #68]
 10124 011c 7B68     		ldr	r3, [r7, #4]
 10125 011e 1100     		movs	r1, r2
 10126 0120 1800     		movs	r0, r3
 10127 0122 FFF7FEFF 		bl	I2C_ITError
4092:Drivers/STM32F0xx_HAL_Driver/Src/stm32f0xx_hal_i2c.c **** 
4093:Drivers/STM32F0xx_HAL_Driver/Src/stm32f0xx_hal_i2c.c ****     /* Call the Listen Complete callback, to inform upper layer of the end of Listen usecase */
4094:Drivers/STM32F0xx_HAL_Driver/Src/stm32f0xx_hal_i2c.c ****     if (hi2c->State == HAL_I2C_STATE_LISTEN)
 10128              		.loc 1 4094 13
 10129 0126 7B68     		ldr	r3, [r7, #4]
 10130 0128 4122     		movs	r2, #65
 10131 012a 9B5C     		ldrb	r3, [r3, r2]
 10132 012c DBB2     		uxtb	r3, r3
 10133              		.loc 1 4094 8
ARM GAS  C:\Users\ADMINI~1\AppData\Local\Temp\cc3zYV2m.s 			page 250


 10134 012e 282B     		cmp	r3, #40
 10135 0130 3AD1     		bne	.L456
4095:Drivers/STM32F0xx_HAL_Driver/Src/stm32f0xx_hal_i2c.c ****     {
4096:Drivers/STM32F0xx_HAL_Driver/Src/stm32f0xx_hal_i2c.c ****       /* Call I2C Listen complete process */
4097:Drivers/STM32F0xx_HAL_Driver/Src/stm32f0xx_hal_i2c.c ****       I2C_ITListenCplt(hi2c, ITFlags);
 10136              		.loc 1 4097 7
 10137 0132 3A68     		ldr	r2, [r7]
 10138 0134 7B68     		ldr	r3, [r7, #4]
 10139 0136 1100     		movs	r1, r2
 10140 0138 1800     		movs	r0, r3
 10141 013a FFF7FEFF 		bl	I2C_ITListenCplt
4098:Drivers/STM32F0xx_HAL_Driver/Src/stm32f0xx_hal_i2c.c ****     }
4099:Drivers/STM32F0xx_HAL_Driver/Src/stm32f0xx_hal_i2c.c ****   }
4100:Drivers/STM32F0xx_HAL_Driver/Src/stm32f0xx_hal_i2c.c ****   else if (hi2c->XferOptions != I2C_NO_OPTION_FRAME)
4101:Drivers/STM32F0xx_HAL_Driver/Src/stm32f0xx_hal_i2c.c ****   {
4102:Drivers/STM32F0xx_HAL_Driver/Src/stm32f0xx_hal_i2c.c ****     hi2c->XferOptions = I2C_NO_OPTION_FRAME;
4103:Drivers/STM32F0xx_HAL_Driver/Src/stm32f0xx_hal_i2c.c ****     hi2c->State = HAL_I2C_STATE_READY;
4104:Drivers/STM32F0xx_HAL_Driver/Src/stm32f0xx_hal_i2c.c **** 
4105:Drivers/STM32F0xx_HAL_Driver/Src/stm32f0xx_hal_i2c.c ****     /* Process Unlocked */
4106:Drivers/STM32F0xx_HAL_Driver/Src/stm32f0xx_hal_i2c.c ****     __HAL_UNLOCK(hi2c);
4107:Drivers/STM32F0xx_HAL_Driver/Src/stm32f0xx_hal_i2c.c **** 
4108:Drivers/STM32F0xx_HAL_Driver/Src/stm32f0xx_hal_i2c.c ****     /* Call the Listen Complete callback, to inform upper layer of the end of Listen usecase */
4109:Drivers/STM32F0xx_HAL_Driver/Src/stm32f0xx_hal_i2c.c ****     HAL_I2C_ListenCpltCallback(hi2c);
4110:Drivers/STM32F0xx_HAL_Driver/Src/stm32f0xx_hal_i2c.c ****   }
4111:Drivers/STM32F0xx_HAL_Driver/Src/stm32f0xx_hal_i2c.c ****   /* Call the corresponding callback to inform upper layer of End of Transfer */
4112:Drivers/STM32F0xx_HAL_Driver/Src/stm32f0xx_hal_i2c.c ****   else if (hi2c->State == HAL_I2C_STATE_BUSY_RX)
4113:Drivers/STM32F0xx_HAL_Driver/Src/stm32f0xx_hal_i2c.c ****   {
4114:Drivers/STM32F0xx_HAL_Driver/Src/stm32f0xx_hal_i2c.c ****     hi2c->State = HAL_I2C_STATE_READY;
4115:Drivers/STM32F0xx_HAL_Driver/Src/stm32f0xx_hal_i2c.c **** 
4116:Drivers/STM32F0xx_HAL_Driver/Src/stm32f0xx_hal_i2c.c ****     /* Process Unlocked */
4117:Drivers/STM32F0xx_HAL_Driver/Src/stm32f0xx_hal_i2c.c ****     __HAL_UNLOCK(hi2c);
4118:Drivers/STM32F0xx_HAL_Driver/Src/stm32f0xx_hal_i2c.c **** 
4119:Drivers/STM32F0xx_HAL_Driver/Src/stm32f0xx_hal_i2c.c ****     /* Call the Slave Rx Complete callback */
4120:Drivers/STM32F0xx_HAL_Driver/Src/stm32f0xx_hal_i2c.c ****     HAL_I2C_SlaveRxCpltCallback(hi2c);
4121:Drivers/STM32F0xx_HAL_Driver/Src/stm32f0xx_hal_i2c.c ****   }
4122:Drivers/STM32F0xx_HAL_Driver/Src/stm32f0xx_hal_i2c.c ****   else
4123:Drivers/STM32F0xx_HAL_Driver/Src/stm32f0xx_hal_i2c.c ****   {
4124:Drivers/STM32F0xx_HAL_Driver/Src/stm32f0xx_hal_i2c.c ****     hi2c->State = HAL_I2C_STATE_READY;
4125:Drivers/STM32F0xx_HAL_Driver/Src/stm32f0xx_hal_i2c.c **** 
4126:Drivers/STM32F0xx_HAL_Driver/Src/stm32f0xx_hal_i2c.c ****     /* Process Unlocked */
4127:Drivers/STM32F0xx_HAL_Driver/Src/stm32f0xx_hal_i2c.c ****     __HAL_UNLOCK(hi2c);
4128:Drivers/STM32F0xx_HAL_Driver/Src/stm32f0xx_hal_i2c.c **** 
4129:Drivers/STM32F0xx_HAL_Driver/Src/stm32f0xx_hal_i2c.c ****     /* Call the Slave Tx Complete callback */
4130:Drivers/STM32F0xx_HAL_Driver/Src/stm32f0xx_hal_i2c.c ****     HAL_I2C_SlaveTxCpltCallback(hi2c);
4131:Drivers/STM32F0xx_HAL_Driver/Src/stm32f0xx_hal_i2c.c ****   }
4132:Drivers/STM32F0xx_HAL_Driver/Src/stm32f0xx_hal_i2c.c **** }
 10142              		.loc 1 4132 1
 10143 013e 33E0     		b	.L456
 10144              	.L452:
4100:Drivers/STM32F0xx_HAL_Driver/Src/stm32f0xx_hal_i2c.c ****   {
 10145              		.loc 1 4100 16
 10146 0140 7B68     		ldr	r3, [r7, #4]
 10147 0142 DB6A     		ldr	r3, [r3, #44]
4100:Drivers/STM32F0xx_HAL_Driver/Src/stm32f0xx_hal_i2c.c ****   {
 10148              		.loc 1 4100 11
 10149 0144 1B4A     		ldr	r2, .L457+4
 10150 0146 9342     		cmp	r3, r2
ARM GAS  C:\Users\ADMINI~1\AppData\Local\Temp\cc3zYV2m.s 			page 251


 10151 0148 0FD0     		beq	.L454
4102:Drivers/STM32F0xx_HAL_Driver/Src/stm32f0xx_hal_i2c.c ****     hi2c->State = HAL_I2C_STATE_READY;
 10152              		.loc 1 4102 23
 10153 014a 7B68     		ldr	r3, [r7, #4]
 10154 014c 194A     		ldr	r2, .L457+4
 10155 014e DA62     		str	r2, [r3, #44]
4103:Drivers/STM32F0xx_HAL_Driver/Src/stm32f0xx_hal_i2c.c **** 
 10156              		.loc 1 4103 17
 10157 0150 7B68     		ldr	r3, [r7, #4]
 10158 0152 4122     		movs	r2, #65
 10159 0154 2021     		movs	r1, #32
 10160 0156 9954     		strb	r1, [r3, r2]
4106:Drivers/STM32F0xx_HAL_Driver/Src/stm32f0xx_hal_i2c.c **** 
 10161              		.loc 1 4106 5
 10162 0158 7B68     		ldr	r3, [r7, #4]
 10163 015a 4022     		movs	r2, #64
 10164 015c 0021     		movs	r1, #0
 10165 015e 9954     		strb	r1, [r3, r2]
4109:Drivers/STM32F0xx_HAL_Driver/Src/stm32f0xx_hal_i2c.c ****   }
 10166              		.loc 1 4109 5
 10167 0160 7B68     		ldr	r3, [r7, #4]
 10168 0162 1800     		movs	r0, r3
 10169 0164 FFF7FEFF 		bl	HAL_I2C_ListenCpltCallback
 10170              		.loc 1 4132 1
 10171 0168 1EE0     		b	.L456
 10172              	.L454:
4112:Drivers/STM32F0xx_HAL_Driver/Src/stm32f0xx_hal_i2c.c ****   {
 10173              		.loc 1 4112 16
 10174 016a 7B68     		ldr	r3, [r7, #4]
 10175 016c 4122     		movs	r2, #65
 10176 016e 9B5C     		ldrb	r3, [r3, r2]
 10177 0170 DBB2     		uxtb	r3, r3
4112:Drivers/STM32F0xx_HAL_Driver/Src/stm32f0xx_hal_i2c.c ****   {
 10178              		.loc 1 4112 11
 10179 0172 222B     		cmp	r3, #34
 10180 0174 0CD1     		bne	.L455
4114:Drivers/STM32F0xx_HAL_Driver/Src/stm32f0xx_hal_i2c.c **** 
 10181              		.loc 1 4114 17
 10182 0176 7B68     		ldr	r3, [r7, #4]
 10183 0178 4122     		movs	r2, #65
 10184 017a 2021     		movs	r1, #32
 10185 017c 9954     		strb	r1, [r3, r2]
4117:Drivers/STM32F0xx_HAL_Driver/Src/stm32f0xx_hal_i2c.c **** 
 10186              		.loc 1 4117 5
 10187 017e 7B68     		ldr	r3, [r7, #4]
 10188 0180 4022     		movs	r2, #64
 10189 0182 0021     		movs	r1, #0
 10190 0184 9954     		strb	r1, [r3, r2]
4120:Drivers/STM32F0xx_HAL_Driver/Src/stm32f0xx_hal_i2c.c ****   }
 10191              		.loc 1 4120 5
 10192 0186 7B68     		ldr	r3, [r7, #4]
 10193 0188 1800     		movs	r0, r3
 10194 018a FFF7FEFF 		bl	HAL_I2C_SlaveRxCpltCallback
 10195              		.loc 1 4132 1
 10196 018e 0BE0     		b	.L456
 10197              	.L455:
4124:Drivers/STM32F0xx_HAL_Driver/Src/stm32f0xx_hal_i2c.c **** 
ARM GAS  C:\Users\ADMINI~1\AppData\Local\Temp\cc3zYV2m.s 			page 252


 10198              		.loc 1 4124 17
 10199 0190 7B68     		ldr	r3, [r7, #4]
 10200 0192 4122     		movs	r2, #65
 10201 0194 2021     		movs	r1, #32
 10202 0196 9954     		strb	r1, [r3, r2]
4127:Drivers/STM32F0xx_HAL_Driver/Src/stm32f0xx_hal_i2c.c **** 
 10203              		.loc 1 4127 5
 10204 0198 7B68     		ldr	r3, [r7, #4]
 10205 019a 4022     		movs	r2, #64
 10206 019c 0021     		movs	r1, #0
 10207 019e 9954     		strb	r1, [r3, r2]
4130:Drivers/STM32F0xx_HAL_Driver/Src/stm32f0xx_hal_i2c.c ****   }
 10208              		.loc 1 4130 5
 10209 01a0 7B68     		ldr	r3, [r7, #4]
 10210 01a2 1800     		movs	r0, r3
 10211 01a4 FFF7FEFF 		bl	HAL_I2C_SlaveTxCpltCallback
 10212              	.L456:
 10213              		.loc 1 4132 1
 10214 01a8 C046     		nop
 10215 01aa BD46     		mov	sp, r7
 10216 01ac 02B0     		add	sp, sp, #8
 10217              		@ sp needed
 10218 01ae 80BD     		pop	{r7, pc}
 10219              	.L458:
 10220              		.align	2
 10221              	.L457:
 10222 01b0 00E800FE 		.word	-33495040
 10223 01b4 0000FFFF 		.word	-65536
 10224              		.cfi_endproc
 10225              	.LFE92:
 10227              		.section	.text.I2C_ITListenCplt,"ax",%progbits
 10228              		.align	1
 10229              		.syntax unified
 10230              		.code	16
 10231              		.thumb_func
 10232              		.fpu softvfp
 10234              	I2C_ITListenCplt:
 10235              	.LFB93:
4133:Drivers/STM32F0xx_HAL_Driver/Src/stm32f0xx_hal_i2c.c **** 
4134:Drivers/STM32F0xx_HAL_Driver/Src/stm32f0xx_hal_i2c.c **** /**
4135:Drivers/STM32F0xx_HAL_Driver/Src/stm32f0xx_hal_i2c.c ****   * @brief  I2C Listen complete process.
4136:Drivers/STM32F0xx_HAL_Driver/Src/stm32f0xx_hal_i2c.c ****   * @param  hi2c I2C handle.
4137:Drivers/STM32F0xx_HAL_Driver/Src/stm32f0xx_hal_i2c.c ****   * @param  ITFlags Interrupt flags to handle.
4138:Drivers/STM32F0xx_HAL_Driver/Src/stm32f0xx_hal_i2c.c ****   * @retval None
4139:Drivers/STM32F0xx_HAL_Driver/Src/stm32f0xx_hal_i2c.c ****   */
4140:Drivers/STM32F0xx_HAL_Driver/Src/stm32f0xx_hal_i2c.c **** static void I2C_ITListenCplt(I2C_HandleTypeDef *hi2c, uint32_t ITFlags)
4141:Drivers/STM32F0xx_HAL_Driver/Src/stm32f0xx_hal_i2c.c **** {
 10236              		.loc 1 4141 1
 10237              		.cfi_startproc
 10238              		@ args = 0, pretend = 0, frame = 8
 10239              		@ frame_needed = 1, uses_anonymous_args = 0
 10240 0000 80B5     		push	{r7, lr}
 10241              	.LCFI168:
 10242              		.cfi_def_cfa_offset 8
 10243              		.cfi_offset 7, -8
 10244              		.cfi_offset 14, -4
 10245 0002 82B0     		sub	sp, sp, #8
ARM GAS  C:\Users\ADMINI~1\AppData\Local\Temp\cc3zYV2m.s 			page 253


 10246              	.LCFI169:
 10247              		.cfi_def_cfa_offset 16
 10248 0004 00AF     		add	r7, sp, #0
 10249              	.LCFI170:
 10250              		.cfi_def_cfa_register 7
 10251 0006 7860     		str	r0, [r7, #4]
 10252 0008 3960     		str	r1, [r7]
4142:Drivers/STM32F0xx_HAL_Driver/Src/stm32f0xx_hal_i2c.c ****   /* Reset handle parameters */
4143:Drivers/STM32F0xx_HAL_Driver/Src/stm32f0xx_hal_i2c.c ****   hi2c->XferOptions = I2C_NO_OPTION_FRAME;
 10253              		.loc 1 4143 21
 10254 000a 7B68     		ldr	r3, [r7, #4]
 10255 000c 244A     		ldr	r2, .L461
 10256 000e DA62     		str	r2, [r3, #44]
4144:Drivers/STM32F0xx_HAL_Driver/Src/stm32f0xx_hal_i2c.c ****   hi2c->PreviousState = I2C_STATE_NONE;
 10257              		.loc 1 4144 23
 10258 0010 7B68     		ldr	r3, [r7, #4]
 10259 0012 0022     		movs	r2, #0
 10260 0014 1A63     		str	r2, [r3, #48]
4145:Drivers/STM32F0xx_HAL_Driver/Src/stm32f0xx_hal_i2c.c ****   hi2c->State = HAL_I2C_STATE_READY;
 10261              		.loc 1 4145 15
 10262 0016 7B68     		ldr	r3, [r7, #4]
 10263 0018 4122     		movs	r2, #65
 10264 001a 2021     		movs	r1, #32
 10265 001c 9954     		strb	r1, [r3, r2]
4146:Drivers/STM32F0xx_HAL_Driver/Src/stm32f0xx_hal_i2c.c ****   hi2c->Mode = HAL_I2C_MODE_NONE;
 10266              		.loc 1 4146 14
 10267 001e 7B68     		ldr	r3, [r7, #4]
 10268 0020 4222     		movs	r2, #66
 10269 0022 0021     		movs	r1, #0
 10270 0024 9954     		strb	r1, [r3, r2]
4147:Drivers/STM32F0xx_HAL_Driver/Src/stm32f0xx_hal_i2c.c ****   hi2c->XferISR = NULL;
 10271              		.loc 1 4147 17
 10272 0026 7B68     		ldr	r3, [r7, #4]
 10273 0028 0022     		movs	r2, #0
 10274 002a 5A63     		str	r2, [r3, #52]
4148:Drivers/STM32F0xx_HAL_Driver/Src/stm32f0xx_hal_i2c.c **** 
4149:Drivers/STM32F0xx_HAL_Driver/Src/stm32f0xx_hal_i2c.c ****   /* Store Last receive data if any */
4150:Drivers/STM32F0xx_HAL_Driver/Src/stm32f0xx_hal_i2c.c ****   if (((ITFlags & I2C_FLAG_RXNE) != RESET))
 10275              		.loc 1 4150 17
 10276 002c 3B68     		ldr	r3, [r7]
 10277 002e 0422     		movs	r2, #4
 10278 0030 1340     		ands	r3, r2
 10279              		.loc 1 4150 6
 10280 0032 20D0     		beq	.L460
4151:Drivers/STM32F0xx_HAL_Driver/Src/stm32f0xx_hal_i2c.c ****   {
4152:Drivers/STM32F0xx_HAL_Driver/Src/stm32f0xx_hal_i2c.c ****     /* Read data from RXDR */
4153:Drivers/STM32F0xx_HAL_Driver/Src/stm32f0xx_hal_i2c.c ****     (*hi2c->pBuffPtr++) = hi2c->Instance->RXDR;
 10281              		.loc 1 4153 31
 10282 0034 7B68     		ldr	r3, [r7, #4]
 10283 0036 1B68     		ldr	r3, [r3]
 10284              		.loc 1 4153 41
 10285 0038 586A     		ldr	r0, [r3, #36]
 10286              		.loc 1 4153 11
 10287 003a 7B68     		ldr	r3, [r7, #4]
 10288 003c 5B6A     		ldr	r3, [r3, #36]
 10289              		.loc 1 4153 21
 10290 003e 591C     		adds	r1, r3, #1
ARM GAS  C:\Users\ADMINI~1\AppData\Local\Temp\cc3zYV2m.s 			page 254


 10291 0040 7A68     		ldr	r2, [r7, #4]
 10292 0042 5162     		str	r1, [r2, #36]
 10293              		.loc 1 4153 25
 10294 0044 C2B2     		uxtb	r2, r0
 10295 0046 1A70     		strb	r2, [r3]
4154:Drivers/STM32F0xx_HAL_Driver/Src/stm32f0xx_hal_i2c.c **** 
4155:Drivers/STM32F0xx_HAL_Driver/Src/stm32f0xx_hal_i2c.c ****     if ((hi2c->XferSize > 0U))
 10296              		.loc 1 4155 14
 10297 0048 7B68     		ldr	r3, [r7, #4]
 10298 004a 1B8D     		ldrh	r3, [r3, #40]
 10299              		.loc 1 4155 8
 10300 004c 002B     		cmp	r3, #0
 10301 004e 12D0     		beq	.L460
4156:Drivers/STM32F0xx_HAL_Driver/Src/stm32f0xx_hal_i2c.c ****     {
4157:Drivers/STM32F0xx_HAL_Driver/Src/stm32f0xx_hal_i2c.c ****       hi2c->XferSize--;
 10302              		.loc 1 4157 11
 10303 0050 7B68     		ldr	r3, [r7, #4]
 10304 0052 1B8D     		ldrh	r3, [r3, #40]
 10305              		.loc 1 4157 21
 10306 0054 013B     		subs	r3, r3, #1
 10307 0056 9AB2     		uxth	r2, r3
 10308 0058 7B68     		ldr	r3, [r7, #4]
 10309 005a 1A85     		strh	r2, [r3, #40]
4158:Drivers/STM32F0xx_HAL_Driver/Src/stm32f0xx_hal_i2c.c ****       hi2c->XferCount--;
 10310              		.loc 1 4158 11
 10311 005c 7B68     		ldr	r3, [r7, #4]
 10312 005e 5B8D     		ldrh	r3, [r3, #42]
 10313 0060 9BB2     		uxth	r3, r3
 10314              		.loc 1 4158 22
 10315 0062 013B     		subs	r3, r3, #1
 10316 0064 9AB2     		uxth	r2, r3
 10317 0066 7B68     		ldr	r3, [r7, #4]
 10318 0068 5A85     		strh	r2, [r3, #42]
4159:Drivers/STM32F0xx_HAL_Driver/Src/stm32f0xx_hal_i2c.c **** 
4160:Drivers/STM32F0xx_HAL_Driver/Src/stm32f0xx_hal_i2c.c ****       /* Set ErrorCode corresponding to a Non-Acknowledge */
4161:Drivers/STM32F0xx_HAL_Driver/Src/stm32f0xx_hal_i2c.c ****       hi2c->ErrorCode |= HAL_I2C_ERROR_AF;
 10319              		.loc 1 4161 23
 10320 006a 7B68     		ldr	r3, [r7, #4]
 10321 006c 5B6C     		ldr	r3, [r3, #68]
 10322 006e 0422     		movs	r2, #4
 10323 0070 1A43     		orrs	r2, r3
 10324 0072 7B68     		ldr	r3, [r7, #4]
 10325 0074 5A64     		str	r2, [r3, #68]
 10326              	.L460:
4162:Drivers/STM32F0xx_HAL_Driver/Src/stm32f0xx_hal_i2c.c ****     }
4163:Drivers/STM32F0xx_HAL_Driver/Src/stm32f0xx_hal_i2c.c ****   }
4164:Drivers/STM32F0xx_HAL_Driver/Src/stm32f0xx_hal_i2c.c **** 
4165:Drivers/STM32F0xx_HAL_Driver/Src/stm32f0xx_hal_i2c.c ****   /* Disable all Interrupts*/
4166:Drivers/STM32F0xx_HAL_Driver/Src/stm32f0xx_hal_i2c.c ****   I2C_Disable_IRQ(hi2c, I2C_XFER_LISTEN_IT | I2C_XFER_RX_IT | I2C_XFER_TX_IT);
 10327              		.loc 1 4166 3
 10328 0076 7B68     		ldr	r3, [r7, #4]
 10329 0078 0721     		movs	r1, #7
 10330 007a 1800     		movs	r0, r3
 10331 007c FFF7FEFF 		bl	I2C_Disable_IRQ
4167:Drivers/STM32F0xx_HAL_Driver/Src/stm32f0xx_hal_i2c.c **** 
4168:Drivers/STM32F0xx_HAL_Driver/Src/stm32f0xx_hal_i2c.c ****   /* Clear NACK Flag */
4169:Drivers/STM32F0xx_HAL_Driver/Src/stm32f0xx_hal_i2c.c ****   __HAL_I2C_CLEAR_FLAG(hi2c, I2C_FLAG_AF);
ARM GAS  C:\Users\ADMINI~1\AppData\Local\Temp\cc3zYV2m.s 			page 255


 10332              		.loc 1 4169 3
 10333 0080 7B68     		ldr	r3, [r7, #4]
 10334 0082 1B68     		ldr	r3, [r3]
 10335 0084 1022     		movs	r2, #16
 10336 0086 DA61     		str	r2, [r3, #28]
4170:Drivers/STM32F0xx_HAL_Driver/Src/stm32f0xx_hal_i2c.c **** 
4171:Drivers/STM32F0xx_HAL_Driver/Src/stm32f0xx_hal_i2c.c ****   /* Process Unlocked */
4172:Drivers/STM32F0xx_HAL_Driver/Src/stm32f0xx_hal_i2c.c ****   __HAL_UNLOCK(hi2c);
 10337              		.loc 1 4172 3
 10338 0088 7B68     		ldr	r3, [r7, #4]
 10339 008a 4022     		movs	r2, #64
 10340 008c 0021     		movs	r1, #0
 10341 008e 9954     		strb	r1, [r3, r2]
4173:Drivers/STM32F0xx_HAL_Driver/Src/stm32f0xx_hal_i2c.c **** 
4174:Drivers/STM32F0xx_HAL_Driver/Src/stm32f0xx_hal_i2c.c ****   /* Call the Listen Complete callback, to inform upper layer of the end of Listen usecase */
4175:Drivers/STM32F0xx_HAL_Driver/Src/stm32f0xx_hal_i2c.c ****   HAL_I2C_ListenCpltCallback(hi2c);
 10342              		.loc 1 4175 3
 10343 0090 7B68     		ldr	r3, [r7, #4]
 10344 0092 1800     		movs	r0, r3
 10345 0094 FFF7FEFF 		bl	HAL_I2C_ListenCpltCallback
4176:Drivers/STM32F0xx_HAL_Driver/Src/stm32f0xx_hal_i2c.c **** }
 10346              		.loc 1 4176 1
 10347 0098 C046     		nop
 10348 009a BD46     		mov	sp, r7
 10349 009c 02B0     		add	sp, sp, #8
 10350              		@ sp needed
 10351 009e 80BD     		pop	{r7, pc}
 10352              	.L462:
 10353              		.align	2
 10354              	.L461:
 10355 00a0 0000FFFF 		.word	-65536
 10356              		.cfi_endproc
 10357              	.LFE93:
 10359              		.section	.text.I2C_ITError,"ax",%progbits
 10360              		.align	1
 10361              		.syntax unified
 10362              		.code	16
 10363              		.thumb_func
 10364              		.fpu softvfp
 10366              	I2C_ITError:
 10367              	.LFB94:
4177:Drivers/STM32F0xx_HAL_Driver/Src/stm32f0xx_hal_i2c.c **** 
4178:Drivers/STM32F0xx_HAL_Driver/Src/stm32f0xx_hal_i2c.c **** /**
4179:Drivers/STM32F0xx_HAL_Driver/Src/stm32f0xx_hal_i2c.c ****   * @brief  I2C interrupts error process.
4180:Drivers/STM32F0xx_HAL_Driver/Src/stm32f0xx_hal_i2c.c ****   * @param  hi2c I2C handle.
4181:Drivers/STM32F0xx_HAL_Driver/Src/stm32f0xx_hal_i2c.c ****   * @param  ErrorCode Error code to handle.
4182:Drivers/STM32F0xx_HAL_Driver/Src/stm32f0xx_hal_i2c.c ****   * @retval None
4183:Drivers/STM32F0xx_HAL_Driver/Src/stm32f0xx_hal_i2c.c ****   */
4184:Drivers/STM32F0xx_HAL_Driver/Src/stm32f0xx_hal_i2c.c **** static void I2C_ITError(I2C_HandleTypeDef *hi2c, uint32_t ErrorCode)
4185:Drivers/STM32F0xx_HAL_Driver/Src/stm32f0xx_hal_i2c.c **** {
 10368              		.loc 1 4185 1
 10369              		.cfi_startproc
 10370              		@ args = 0, pretend = 0, frame = 8
 10371              		@ frame_needed = 1, uses_anonymous_args = 0
 10372 0000 80B5     		push	{r7, lr}
 10373              	.LCFI171:
 10374              		.cfi_def_cfa_offset 8
ARM GAS  C:\Users\ADMINI~1\AppData\Local\Temp\cc3zYV2m.s 			page 256


 10375              		.cfi_offset 7, -8
 10376              		.cfi_offset 14, -4
 10377 0002 82B0     		sub	sp, sp, #8
 10378              	.LCFI172:
 10379              		.cfi_def_cfa_offset 16
 10380 0004 00AF     		add	r7, sp, #0
 10381              	.LCFI173:
 10382              		.cfi_def_cfa_register 7
 10383 0006 7860     		str	r0, [r7, #4]
 10384 0008 3960     		str	r1, [r7]
4186:Drivers/STM32F0xx_HAL_Driver/Src/stm32f0xx_hal_i2c.c ****   /* Reset handle parameters */
4187:Drivers/STM32F0xx_HAL_Driver/Src/stm32f0xx_hal_i2c.c ****   hi2c->Mode          = HAL_I2C_MODE_NONE;
 10385              		.loc 1 4187 23
 10386 000a 7B68     		ldr	r3, [r7, #4]
 10387 000c 4222     		movs	r2, #66
 10388 000e 0021     		movs	r1, #0
 10389 0010 9954     		strb	r1, [r3, r2]
4188:Drivers/STM32F0xx_HAL_Driver/Src/stm32f0xx_hal_i2c.c ****   hi2c->XferOptions   = I2C_NO_OPTION_FRAME;
 10390              		.loc 1 4188 23
 10391 0012 7B68     		ldr	r3, [r7, #4]
 10392 0014 594A     		ldr	r2, .L473
 10393 0016 DA62     		str	r2, [r3, #44]
4189:Drivers/STM32F0xx_HAL_Driver/Src/stm32f0xx_hal_i2c.c ****   hi2c->XferCount     = 0U;
 10394              		.loc 1 4189 23
 10395 0018 7B68     		ldr	r3, [r7, #4]
 10396 001a 0022     		movs	r2, #0
 10397 001c 5A85     		strh	r2, [r3, #42]
4190:Drivers/STM32F0xx_HAL_Driver/Src/stm32f0xx_hal_i2c.c **** 
4191:Drivers/STM32F0xx_HAL_Driver/Src/stm32f0xx_hal_i2c.c ****   /* Set new error code */
4192:Drivers/STM32F0xx_HAL_Driver/Src/stm32f0xx_hal_i2c.c ****   hi2c->ErrorCode |= ErrorCode;
 10398              		.loc 1 4192 19
 10399 001e 7B68     		ldr	r3, [r7, #4]
 10400 0020 5A6C     		ldr	r2, [r3, #68]
 10401 0022 3B68     		ldr	r3, [r7]
 10402 0024 1A43     		orrs	r2, r3
 10403 0026 7B68     		ldr	r3, [r7, #4]
 10404 0028 5A64     		str	r2, [r3, #68]
4193:Drivers/STM32F0xx_HAL_Driver/Src/stm32f0xx_hal_i2c.c **** 
4194:Drivers/STM32F0xx_HAL_Driver/Src/stm32f0xx_hal_i2c.c ****   /* Disable Interrupts */
4195:Drivers/STM32F0xx_HAL_Driver/Src/stm32f0xx_hal_i2c.c ****   if ((hi2c->State == HAL_I2C_STATE_LISTEN)         ||
 10405              		.loc 1 4195 12
 10406 002a 7B68     		ldr	r3, [r7, #4]
 10407 002c 4122     		movs	r2, #65
 10408 002e 9B5C     		ldrb	r3, [r3, r2]
 10409 0030 DBB2     		uxtb	r3, r3
 10410              		.loc 1 4195 6
 10411 0032 282B     		cmp	r3, #40
 10412 0034 0BD0     		beq	.L464
4196:Drivers/STM32F0xx_HAL_Driver/Src/stm32f0xx_hal_i2c.c ****       (hi2c->State == HAL_I2C_STATE_BUSY_TX_LISTEN) ||
 10413              		.loc 1 4196 12 discriminator 1
 10414 0036 7B68     		ldr	r3, [r7, #4]
 10415 0038 4122     		movs	r2, #65
 10416 003a 9B5C     		ldrb	r3, [r3, r2]
 10417 003c DBB2     		uxtb	r3, r3
4195:Drivers/STM32F0xx_HAL_Driver/Src/stm32f0xx_hal_i2c.c ****       (hi2c->State == HAL_I2C_STATE_BUSY_TX_LISTEN) ||
 10418              		.loc 1 4195 53 discriminator 1
 10419 003e 292B     		cmp	r3, #41
ARM GAS  C:\Users\ADMINI~1\AppData\Local\Temp\cc3zYV2m.s 			page 257


 10420 0040 05D0     		beq	.L464
4197:Drivers/STM32F0xx_HAL_Driver/Src/stm32f0xx_hal_i2c.c ****       (hi2c->State == HAL_I2C_STATE_BUSY_RX_LISTEN))
 10421              		.loc 1 4197 12
 10422 0042 7B68     		ldr	r3, [r7, #4]
 10423 0044 4122     		movs	r2, #65
 10424 0046 9B5C     		ldrb	r3, [r3, r2]
 10425 0048 DBB2     		uxtb	r3, r3
4196:Drivers/STM32F0xx_HAL_Driver/Src/stm32f0xx_hal_i2c.c ****       (hi2c->State == HAL_I2C_STATE_BUSY_TX_LISTEN) ||
 10426              		.loc 1 4196 53
 10427 004a 2A2B     		cmp	r3, #42
 10428 004c 0FD1     		bne	.L465
 10429              	.L464:
4198:Drivers/STM32F0xx_HAL_Driver/Src/stm32f0xx_hal_i2c.c ****   {
4199:Drivers/STM32F0xx_HAL_Driver/Src/stm32f0xx_hal_i2c.c ****     /* Disable all interrupts, except interrupts related to LISTEN state */
4200:Drivers/STM32F0xx_HAL_Driver/Src/stm32f0xx_hal_i2c.c ****     I2C_Disable_IRQ(hi2c, I2C_XFER_RX_IT | I2C_XFER_TX_IT);
 10430              		.loc 1 4200 5
 10431 004e 7B68     		ldr	r3, [r7, #4]
 10432 0050 0321     		movs	r1, #3
 10433 0052 1800     		movs	r0, r3
 10434 0054 FFF7FEFF 		bl	I2C_Disable_IRQ
4201:Drivers/STM32F0xx_HAL_Driver/Src/stm32f0xx_hal_i2c.c **** 
4202:Drivers/STM32F0xx_HAL_Driver/Src/stm32f0xx_hal_i2c.c ****     /* keep HAL_I2C_STATE_LISTEN if set */
4203:Drivers/STM32F0xx_HAL_Driver/Src/stm32f0xx_hal_i2c.c ****     hi2c->State         = HAL_I2C_STATE_LISTEN;
 10435              		.loc 1 4203 25
 10436 0058 7B68     		ldr	r3, [r7, #4]
 10437 005a 4122     		movs	r2, #65
 10438 005c 2821     		movs	r1, #40
 10439 005e 9954     		strb	r1, [r3, r2]
4204:Drivers/STM32F0xx_HAL_Driver/Src/stm32f0xx_hal_i2c.c ****     hi2c->PreviousState = I2C_STATE_NONE;
 10440              		.loc 1 4204 25
 10441 0060 7B68     		ldr	r3, [r7, #4]
 10442 0062 0022     		movs	r2, #0
 10443 0064 1A63     		str	r2, [r3, #48]
4205:Drivers/STM32F0xx_HAL_Driver/Src/stm32f0xx_hal_i2c.c ****     hi2c->XferISR       = I2C_Slave_ISR_IT;
 10444              		.loc 1 4205 25
 10445 0066 7B68     		ldr	r3, [r7, #4]
 10446 0068 454A     		ldr	r2, .L473+4
 10447 006a 5A63     		str	r2, [r3, #52]
 10448 006c 14E0     		b	.L466
 10449              	.L465:
4206:Drivers/STM32F0xx_HAL_Driver/Src/stm32f0xx_hal_i2c.c ****   }
4207:Drivers/STM32F0xx_HAL_Driver/Src/stm32f0xx_hal_i2c.c ****   else
4208:Drivers/STM32F0xx_HAL_Driver/Src/stm32f0xx_hal_i2c.c ****   {
4209:Drivers/STM32F0xx_HAL_Driver/Src/stm32f0xx_hal_i2c.c ****     /* Disable all interrupts */
4210:Drivers/STM32F0xx_HAL_Driver/Src/stm32f0xx_hal_i2c.c ****     I2C_Disable_IRQ(hi2c, I2C_XFER_LISTEN_IT | I2C_XFER_RX_IT | I2C_XFER_TX_IT);
 10450              		.loc 1 4210 5
 10451 006e 7B68     		ldr	r3, [r7, #4]
 10452 0070 0721     		movs	r1, #7
 10453 0072 1800     		movs	r0, r3
 10454 0074 FFF7FEFF 		bl	I2C_Disable_IRQ
4211:Drivers/STM32F0xx_HAL_Driver/Src/stm32f0xx_hal_i2c.c **** 
4212:Drivers/STM32F0xx_HAL_Driver/Src/stm32f0xx_hal_i2c.c ****     /* If state is an abort treatment on goind, don't change state */
4213:Drivers/STM32F0xx_HAL_Driver/Src/stm32f0xx_hal_i2c.c ****     /* This change will be do later */
4214:Drivers/STM32F0xx_HAL_Driver/Src/stm32f0xx_hal_i2c.c ****     if (hi2c->State != HAL_I2C_STATE_ABORT)
 10455              		.loc 1 4214 13
 10456 0078 7B68     		ldr	r3, [r7, #4]
 10457 007a 4122     		movs	r2, #65
ARM GAS  C:\Users\ADMINI~1\AppData\Local\Temp\cc3zYV2m.s 			page 258


 10458 007c 9B5C     		ldrb	r3, [r3, r2]
 10459 007e DBB2     		uxtb	r3, r3
 10460              		.loc 1 4214 8
 10461 0080 602B     		cmp	r3, #96
 10462 0082 03D0     		beq	.L467
4215:Drivers/STM32F0xx_HAL_Driver/Src/stm32f0xx_hal_i2c.c ****     {
4216:Drivers/STM32F0xx_HAL_Driver/Src/stm32f0xx_hal_i2c.c ****       /* Set HAL_I2C_STATE_READY */
4217:Drivers/STM32F0xx_HAL_Driver/Src/stm32f0xx_hal_i2c.c ****       hi2c->State         = HAL_I2C_STATE_READY;
 10463              		.loc 1 4217 27
 10464 0084 7B68     		ldr	r3, [r7, #4]
 10465 0086 4122     		movs	r2, #65
 10466 0088 2021     		movs	r1, #32
 10467 008a 9954     		strb	r1, [r3, r2]
 10468              	.L467:
4218:Drivers/STM32F0xx_HAL_Driver/Src/stm32f0xx_hal_i2c.c ****     }
4219:Drivers/STM32F0xx_HAL_Driver/Src/stm32f0xx_hal_i2c.c ****     hi2c->PreviousState = I2C_STATE_NONE;
 10469              		.loc 1 4219 25
 10470 008c 7B68     		ldr	r3, [r7, #4]
 10471 008e 0022     		movs	r2, #0
 10472 0090 1A63     		str	r2, [r3, #48]
4220:Drivers/STM32F0xx_HAL_Driver/Src/stm32f0xx_hal_i2c.c ****     hi2c->XferISR       = NULL;
 10473              		.loc 1 4220 25
 10474 0092 7B68     		ldr	r3, [r7, #4]
 10475 0094 0022     		movs	r2, #0
 10476 0096 5A63     		str	r2, [r3, #52]
 10477              	.L466:
4221:Drivers/STM32F0xx_HAL_Driver/Src/stm32f0xx_hal_i2c.c ****   }
4222:Drivers/STM32F0xx_HAL_Driver/Src/stm32f0xx_hal_i2c.c **** 
4223:Drivers/STM32F0xx_HAL_Driver/Src/stm32f0xx_hal_i2c.c ****   /* Abort DMA TX transfer if any */
4224:Drivers/STM32F0xx_HAL_Driver/Src/stm32f0xx_hal_i2c.c ****   if ((hi2c->Instance->CR1 & I2C_CR1_TXDMAEN) == I2C_CR1_TXDMAEN)
 10478              		.loc 1 4224 12
 10479 0098 7B68     		ldr	r3, [r7, #4]
 10480 009a 1B68     		ldr	r3, [r3]
 10481              		.loc 1 4224 22
 10482 009c 1A68     		ldr	r2, [r3]
 10483              		.loc 1 4224 28
 10484 009e 8023     		movs	r3, #128
 10485 00a0 DB01     		lsls	r3, r3, #7
 10486 00a2 1A40     		ands	r2, r3
 10487              		.loc 1 4224 6
 10488 00a4 8023     		movs	r3, #128
 10489 00a6 DB01     		lsls	r3, r3, #7
 10490 00a8 9A42     		cmp	r2, r3
 10491 00aa 1ED1     		bne	.L468
4225:Drivers/STM32F0xx_HAL_Driver/Src/stm32f0xx_hal_i2c.c ****   {
4226:Drivers/STM32F0xx_HAL_Driver/Src/stm32f0xx_hal_i2c.c ****     hi2c->Instance->CR1 &= ~I2C_CR1_TXDMAEN;
 10492              		.loc 1 4226 9
 10493 00ac 7B68     		ldr	r3, [r7, #4]
 10494 00ae 1B68     		ldr	r3, [r3]
 10495              		.loc 1 4226 25
 10496 00b0 1A68     		ldr	r2, [r3]
 10497              		.loc 1 4226 9
 10498 00b2 7B68     		ldr	r3, [r7, #4]
 10499 00b4 1B68     		ldr	r3, [r3]
 10500              		.loc 1 4226 25
 10501 00b6 3349     		ldr	r1, .L473+8
 10502 00b8 0A40     		ands	r2, r1
ARM GAS  C:\Users\ADMINI~1\AppData\Local\Temp\cc3zYV2m.s 			page 259


 10503 00ba 1A60     		str	r2, [r3]
4227:Drivers/STM32F0xx_HAL_Driver/Src/stm32f0xx_hal_i2c.c **** 
4228:Drivers/STM32F0xx_HAL_Driver/Src/stm32f0xx_hal_i2c.c ****     /* Set the I2C DMA Abort callback :
4229:Drivers/STM32F0xx_HAL_Driver/Src/stm32f0xx_hal_i2c.c ****        will lead to call HAL_I2C_ErrorCallback() at end of DMA abort procedure */
4230:Drivers/STM32F0xx_HAL_Driver/Src/stm32f0xx_hal_i2c.c ****     hi2c->hdmatx->XferAbortCallback = I2C_DMAAbort;
 10504              		.loc 1 4230 9
 10505 00bc 7B68     		ldr	r3, [r7, #4]
 10506 00be 9B6B     		ldr	r3, [r3, #56]
 10507              		.loc 1 4230 37
 10508 00c0 314A     		ldr	r2, .L473+12
 10509 00c2 5A63     		str	r2, [r3, #52]
4231:Drivers/STM32F0xx_HAL_Driver/Src/stm32f0xx_hal_i2c.c **** 
4232:Drivers/STM32F0xx_HAL_Driver/Src/stm32f0xx_hal_i2c.c ****     /* Process Unlocked */
4233:Drivers/STM32F0xx_HAL_Driver/Src/stm32f0xx_hal_i2c.c ****     __HAL_UNLOCK(hi2c);
 10510              		.loc 1 4233 5
 10511 00c4 7B68     		ldr	r3, [r7, #4]
 10512 00c6 4022     		movs	r2, #64
 10513 00c8 0021     		movs	r1, #0
 10514 00ca 9954     		strb	r1, [r3, r2]
4234:Drivers/STM32F0xx_HAL_Driver/Src/stm32f0xx_hal_i2c.c **** 
4235:Drivers/STM32F0xx_HAL_Driver/Src/stm32f0xx_hal_i2c.c ****     /* Abort DMA TX */
4236:Drivers/STM32F0xx_HAL_Driver/Src/stm32f0xx_hal_i2c.c ****     if (HAL_DMA_Abort_IT(hi2c->hdmatx) != HAL_OK)
 10515              		.loc 1 4236 9
 10516 00cc 7B68     		ldr	r3, [r7, #4]
 10517 00ce 9B6B     		ldr	r3, [r3, #56]
 10518 00d0 1800     		movs	r0, r3
 10519 00d2 FFF7FEFF 		bl	HAL_DMA_Abort_IT
 10520 00d6 031E     		subs	r3, r0, #0
 10521              		.loc 1 4236 8
 10522 00d8 4BD0     		beq	.L472
4237:Drivers/STM32F0xx_HAL_Driver/Src/stm32f0xx_hal_i2c.c ****     {
4238:Drivers/STM32F0xx_HAL_Driver/Src/stm32f0xx_hal_i2c.c ****       /* Call Directly XferAbortCallback function in case of error */
4239:Drivers/STM32F0xx_HAL_Driver/Src/stm32f0xx_hal_i2c.c ****       hi2c->hdmatx->XferAbortCallback(hi2c->hdmatx);
 10523              		.loc 1 4239 11
 10524 00da 7B68     		ldr	r3, [r7, #4]
 10525 00dc 9B6B     		ldr	r3, [r3, #56]
 10526              		.loc 1 4239 19
 10527 00de 5A6B     		ldr	r2, [r3, #52]
 10528              		.loc 1 4239 43
 10529 00e0 7B68     		ldr	r3, [r7, #4]
 10530 00e2 9B6B     		ldr	r3, [r3, #56]
 10531              		.loc 1 4239 7
 10532 00e4 1800     		movs	r0, r3
 10533 00e6 9047     		blx	r2
 10534              	.LVL1:
4240:Drivers/STM32F0xx_HAL_Driver/Src/stm32f0xx_hal_i2c.c ****     }
4241:Drivers/STM32F0xx_HAL_Driver/Src/stm32f0xx_hal_i2c.c ****   }
4242:Drivers/STM32F0xx_HAL_Driver/Src/stm32f0xx_hal_i2c.c ****   /* Abort DMA RX transfer if any */
4243:Drivers/STM32F0xx_HAL_Driver/Src/stm32f0xx_hal_i2c.c ****   else if ((hi2c->Instance->CR1 & I2C_CR1_RXDMAEN) == I2C_CR1_RXDMAEN)
4244:Drivers/STM32F0xx_HAL_Driver/Src/stm32f0xx_hal_i2c.c ****   {
4245:Drivers/STM32F0xx_HAL_Driver/Src/stm32f0xx_hal_i2c.c ****     hi2c->Instance->CR1 &= ~I2C_CR1_RXDMAEN;
4246:Drivers/STM32F0xx_HAL_Driver/Src/stm32f0xx_hal_i2c.c **** 
4247:Drivers/STM32F0xx_HAL_Driver/Src/stm32f0xx_hal_i2c.c ****     /* Set the I2C DMA Abort callback :
4248:Drivers/STM32F0xx_HAL_Driver/Src/stm32f0xx_hal_i2c.c ****        will lead to call HAL_I2C_ErrorCallback() at end of DMA abort procedure */
4249:Drivers/STM32F0xx_HAL_Driver/Src/stm32f0xx_hal_i2c.c ****     hi2c->hdmarx->XferAbortCallback = I2C_DMAAbort;
4250:Drivers/STM32F0xx_HAL_Driver/Src/stm32f0xx_hal_i2c.c **** 
4251:Drivers/STM32F0xx_HAL_Driver/Src/stm32f0xx_hal_i2c.c ****     /* Process Unlocked */
ARM GAS  C:\Users\ADMINI~1\AppData\Local\Temp\cc3zYV2m.s 			page 260


4252:Drivers/STM32F0xx_HAL_Driver/Src/stm32f0xx_hal_i2c.c ****     __HAL_UNLOCK(hi2c);
4253:Drivers/STM32F0xx_HAL_Driver/Src/stm32f0xx_hal_i2c.c **** 
4254:Drivers/STM32F0xx_HAL_Driver/Src/stm32f0xx_hal_i2c.c ****     /* Abort DMA RX */
4255:Drivers/STM32F0xx_HAL_Driver/Src/stm32f0xx_hal_i2c.c ****     if (HAL_DMA_Abort_IT(hi2c->hdmarx) != HAL_OK)
4256:Drivers/STM32F0xx_HAL_Driver/Src/stm32f0xx_hal_i2c.c ****     {
4257:Drivers/STM32F0xx_HAL_Driver/Src/stm32f0xx_hal_i2c.c ****       /* Call Directly hi2c->hdmarx->XferAbortCallback function in case of error */
4258:Drivers/STM32F0xx_HAL_Driver/Src/stm32f0xx_hal_i2c.c ****       hi2c->hdmarx->XferAbortCallback(hi2c->hdmarx);
4259:Drivers/STM32F0xx_HAL_Driver/Src/stm32f0xx_hal_i2c.c ****     }
4260:Drivers/STM32F0xx_HAL_Driver/Src/stm32f0xx_hal_i2c.c ****   }
4261:Drivers/STM32F0xx_HAL_Driver/Src/stm32f0xx_hal_i2c.c ****   else if (hi2c->State == HAL_I2C_STATE_ABORT)
4262:Drivers/STM32F0xx_HAL_Driver/Src/stm32f0xx_hal_i2c.c ****   {
4263:Drivers/STM32F0xx_HAL_Driver/Src/stm32f0xx_hal_i2c.c ****     hi2c->State = HAL_I2C_STATE_READY;
4264:Drivers/STM32F0xx_HAL_Driver/Src/stm32f0xx_hal_i2c.c **** 
4265:Drivers/STM32F0xx_HAL_Driver/Src/stm32f0xx_hal_i2c.c ****     /* Process Unlocked */
4266:Drivers/STM32F0xx_HAL_Driver/Src/stm32f0xx_hal_i2c.c ****     __HAL_UNLOCK(hi2c);
4267:Drivers/STM32F0xx_HAL_Driver/Src/stm32f0xx_hal_i2c.c **** 
4268:Drivers/STM32F0xx_HAL_Driver/Src/stm32f0xx_hal_i2c.c ****     /* Call the corresponding callback to inform upper layer of End of Transfer */
4269:Drivers/STM32F0xx_HAL_Driver/Src/stm32f0xx_hal_i2c.c ****     HAL_I2C_AbortCpltCallback(hi2c);
4270:Drivers/STM32F0xx_HAL_Driver/Src/stm32f0xx_hal_i2c.c ****   }
4271:Drivers/STM32F0xx_HAL_Driver/Src/stm32f0xx_hal_i2c.c ****   else
4272:Drivers/STM32F0xx_HAL_Driver/Src/stm32f0xx_hal_i2c.c ****   {
4273:Drivers/STM32F0xx_HAL_Driver/Src/stm32f0xx_hal_i2c.c ****     /* Process Unlocked */
4274:Drivers/STM32F0xx_HAL_Driver/Src/stm32f0xx_hal_i2c.c ****     __HAL_UNLOCK(hi2c);
4275:Drivers/STM32F0xx_HAL_Driver/Src/stm32f0xx_hal_i2c.c **** 
4276:Drivers/STM32F0xx_HAL_Driver/Src/stm32f0xx_hal_i2c.c ****     /* Call the corresponding callback to inform upper layer of End of Transfer */
4277:Drivers/STM32F0xx_HAL_Driver/Src/stm32f0xx_hal_i2c.c ****     HAL_I2C_ErrorCallback(hi2c);
4278:Drivers/STM32F0xx_HAL_Driver/Src/stm32f0xx_hal_i2c.c ****   }
4279:Drivers/STM32F0xx_HAL_Driver/Src/stm32f0xx_hal_i2c.c **** }
 10535              		.loc 1 4279 1
 10536 00e8 43E0     		b	.L472
 10537              	.L468:
4243:Drivers/STM32F0xx_HAL_Driver/Src/stm32f0xx_hal_i2c.c ****   {
 10538              		.loc 1 4243 17
 10539 00ea 7B68     		ldr	r3, [r7, #4]
 10540 00ec 1B68     		ldr	r3, [r3]
4243:Drivers/STM32F0xx_HAL_Driver/Src/stm32f0xx_hal_i2c.c ****   {
 10541              		.loc 1 4243 27
 10542 00ee 1A68     		ldr	r2, [r3]
4243:Drivers/STM32F0xx_HAL_Driver/Src/stm32f0xx_hal_i2c.c ****   {
 10543              		.loc 1 4243 33
 10544 00f0 8023     		movs	r3, #128
 10545 00f2 1B02     		lsls	r3, r3, #8
 10546 00f4 1A40     		ands	r2, r3
4243:Drivers/STM32F0xx_HAL_Driver/Src/stm32f0xx_hal_i2c.c ****   {
 10547              		.loc 1 4243 11
 10548 00f6 8023     		movs	r3, #128
 10549 00f8 1B02     		lsls	r3, r3, #8
 10550 00fa 9A42     		cmp	r2, r3
 10551 00fc 1ED1     		bne	.L470
4245:Drivers/STM32F0xx_HAL_Driver/Src/stm32f0xx_hal_i2c.c **** 
 10552              		.loc 1 4245 9
 10553 00fe 7B68     		ldr	r3, [r7, #4]
 10554 0100 1B68     		ldr	r3, [r3]
4245:Drivers/STM32F0xx_HAL_Driver/Src/stm32f0xx_hal_i2c.c **** 
 10555              		.loc 1 4245 25
 10556 0102 1A68     		ldr	r2, [r3]
4245:Drivers/STM32F0xx_HAL_Driver/Src/stm32f0xx_hal_i2c.c **** 
ARM GAS  C:\Users\ADMINI~1\AppData\Local\Temp\cc3zYV2m.s 			page 261


 10557              		.loc 1 4245 9
 10558 0104 7B68     		ldr	r3, [r7, #4]
 10559 0106 1B68     		ldr	r3, [r3]
4245:Drivers/STM32F0xx_HAL_Driver/Src/stm32f0xx_hal_i2c.c **** 
 10560              		.loc 1 4245 25
 10561 0108 2049     		ldr	r1, .L473+16
 10562 010a 0A40     		ands	r2, r1
 10563 010c 1A60     		str	r2, [r3]
4249:Drivers/STM32F0xx_HAL_Driver/Src/stm32f0xx_hal_i2c.c **** 
 10564              		.loc 1 4249 9
 10565 010e 7B68     		ldr	r3, [r7, #4]
 10566 0110 DB6B     		ldr	r3, [r3, #60]
4249:Drivers/STM32F0xx_HAL_Driver/Src/stm32f0xx_hal_i2c.c **** 
 10567              		.loc 1 4249 37
 10568 0112 1D4A     		ldr	r2, .L473+12
 10569 0114 5A63     		str	r2, [r3, #52]
4252:Drivers/STM32F0xx_HAL_Driver/Src/stm32f0xx_hal_i2c.c **** 
 10570              		.loc 1 4252 5
 10571 0116 7B68     		ldr	r3, [r7, #4]
 10572 0118 4022     		movs	r2, #64
 10573 011a 0021     		movs	r1, #0
 10574 011c 9954     		strb	r1, [r3, r2]
4255:Drivers/STM32F0xx_HAL_Driver/Src/stm32f0xx_hal_i2c.c ****     {
 10575              		.loc 1 4255 9
 10576 011e 7B68     		ldr	r3, [r7, #4]
 10577 0120 DB6B     		ldr	r3, [r3, #60]
 10578 0122 1800     		movs	r0, r3
 10579 0124 FFF7FEFF 		bl	HAL_DMA_Abort_IT
 10580 0128 031E     		subs	r3, r0, #0
4255:Drivers/STM32F0xx_HAL_Driver/Src/stm32f0xx_hal_i2c.c ****     {
 10581              		.loc 1 4255 8
 10582 012a 22D0     		beq	.L472
4258:Drivers/STM32F0xx_HAL_Driver/Src/stm32f0xx_hal_i2c.c ****     }
 10583              		.loc 1 4258 11
 10584 012c 7B68     		ldr	r3, [r7, #4]
 10585 012e DB6B     		ldr	r3, [r3, #60]
4258:Drivers/STM32F0xx_HAL_Driver/Src/stm32f0xx_hal_i2c.c ****     }
 10586              		.loc 1 4258 19
 10587 0130 5A6B     		ldr	r2, [r3, #52]
4258:Drivers/STM32F0xx_HAL_Driver/Src/stm32f0xx_hal_i2c.c ****     }
 10588              		.loc 1 4258 43
 10589 0132 7B68     		ldr	r3, [r7, #4]
 10590 0134 DB6B     		ldr	r3, [r3, #60]
4258:Drivers/STM32F0xx_HAL_Driver/Src/stm32f0xx_hal_i2c.c ****     }
 10591              		.loc 1 4258 7
 10592 0136 1800     		movs	r0, r3
 10593 0138 9047     		blx	r2
 10594              	.LVL2:
 10595              		.loc 1 4279 1
 10596 013a 1AE0     		b	.L472
 10597              	.L470:
4261:Drivers/STM32F0xx_HAL_Driver/Src/stm32f0xx_hal_i2c.c ****   {
 10598              		.loc 1 4261 16
 10599 013c 7B68     		ldr	r3, [r7, #4]
 10600 013e 4122     		movs	r2, #65
 10601 0140 9B5C     		ldrb	r3, [r3, r2]
 10602 0142 DBB2     		uxtb	r3, r3
ARM GAS  C:\Users\ADMINI~1\AppData\Local\Temp\cc3zYV2m.s 			page 262


4261:Drivers/STM32F0xx_HAL_Driver/Src/stm32f0xx_hal_i2c.c ****   {
 10603              		.loc 1 4261 11
 10604 0144 602B     		cmp	r3, #96
 10605 0146 0CD1     		bne	.L471
4263:Drivers/STM32F0xx_HAL_Driver/Src/stm32f0xx_hal_i2c.c **** 
 10606              		.loc 1 4263 17
 10607 0148 7B68     		ldr	r3, [r7, #4]
 10608 014a 4122     		movs	r2, #65
 10609 014c 2021     		movs	r1, #32
 10610 014e 9954     		strb	r1, [r3, r2]
4266:Drivers/STM32F0xx_HAL_Driver/Src/stm32f0xx_hal_i2c.c **** 
 10611              		.loc 1 4266 5
 10612 0150 7B68     		ldr	r3, [r7, #4]
 10613 0152 4022     		movs	r2, #64
 10614 0154 0021     		movs	r1, #0
 10615 0156 9954     		strb	r1, [r3, r2]
4269:Drivers/STM32F0xx_HAL_Driver/Src/stm32f0xx_hal_i2c.c ****   }
 10616              		.loc 1 4269 5
 10617 0158 7B68     		ldr	r3, [r7, #4]
 10618 015a 1800     		movs	r0, r3
 10619 015c FFF7FEFF 		bl	HAL_I2C_AbortCpltCallback
 10620              		.loc 1 4279 1
 10621 0160 07E0     		b	.L472
 10622              	.L471:
4274:Drivers/STM32F0xx_HAL_Driver/Src/stm32f0xx_hal_i2c.c **** 
 10623              		.loc 1 4274 5
 10624 0162 7B68     		ldr	r3, [r7, #4]
 10625 0164 4022     		movs	r2, #64
 10626 0166 0021     		movs	r1, #0
 10627 0168 9954     		strb	r1, [r3, r2]
4277:Drivers/STM32F0xx_HAL_Driver/Src/stm32f0xx_hal_i2c.c ****   }
 10628              		.loc 1 4277 5
 10629 016a 7B68     		ldr	r3, [r7, #4]
 10630 016c 1800     		movs	r0, r3
 10631 016e FFF7FEFF 		bl	HAL_I2C_ErrorCallback
 10632              	.L472:
 10633              		.loc 1 4279 1
 10634 0172 C046     		nop
 10635 0174 BD46     		mov	sp, r7
 10636 0176 02B0     		add	sp, sp, #8
 10637              		@ sp needed
 10638 0178 80BD     		pop	{r7, pc}
 10639              	.L474:
 10640 017a C046     		.align	2
 10641              	.L473:
 10642 017c 0000FFFF 		.word	-65536
 10643 0180 00000000 		.word	I2C_Slave_ISR_IT
 10644 0184 FFBFFFFF 		.word	-16385
 10645 0188 00000000 		.word	I2C_DMAAbort
 10646 018c FF7FFFFF 		.word	-32769
 10647              		.cfi_endproc
 10648              	.LFE94:
 10650              		.section	.text.I2C_Flush_TXDR,"ax",%progbits
 10651              		.align	1
 10652              		.syntax unified
 10653              		.code	16
 10654              		.thumb_func
ARM GAS  C:\Users\ADMINI~1\AppData\Local\Temp\cc3zYV2m.s 			page 263


 10655              		.fpu softvfp
 10657              	I2C_Flush_TXDR:
 10658              	.LFB95:
4280:Drivers/STM32F0xx_HAL_Driver/Src/stm32f0xx_hal_i2c.c **** 
4281:Drivers/STM32F0xx_HAL_Driver/Src/stm32f0xx_hal_i2c.c **** /**
4282:Drivers/STM32F0xx_HAL_Driver/Src/stm32f0xx_hal_i2c.c ****   * @brief  I2C Tx data register flush process.
4283:Drivers/STM32F0xx_HAL_Driver/Src/stm32f0xx_hal_i2c.c ****   * @param  hi2c I2C handle.
4284:Drivers/STM32F0xx_HAL_Driver/Src/stm32f0xx_hal_i2c.c ****   * @retval None
4285:Drivers/STM32F0xx_HAL_Driver/Src/stm32f0xx_hal_i2c.c ****   */
4286:Drivers/STM32F0xx_HAL_Driver/Src/stm32f0xx_hal_i2c.c **** static void I2C_Flush_TXDR(I2C_HandleTypeDef *hi2c)
4287:Drivers/STM32F0xx_HAL_Driver/Src/stm32f0xx_hal_i2c.c **** {
 10659              		.loc 1 4287 1
 10660              		.cfi_startproc
 10661              		@ args = 0, pretend = 0, frame = 8
 10662              		@ frame_needed = 1, uses_anonymous_args = 0
 10663 0000 80B5     		push	{r7, lr}
 10664              	.LCFI174:
 10665              		.cfi_def_cfa_offset 8
 10666              		.cfi_offset 7, -8
 10667              		.cfi_offset 14, -4
 10668 0002 82B0     		sub	sp, sp, #8
 10669              	.LCFI175:
 10670              		.cfi_def_cfa_offset 16
 10671 0004 00AF     		add	r7, sp, #0
 10672              	.LCFI176:
 10673              		.cfi_def_cfa_register 7
 10674 0006 7860     		str	r0, [r7, #4]
4288:Drivers/STM32F0xx_HAL_Driver/Src/stm32f0xx_hal_i2c.c ****   /* If a pending TXIS flag is set */
4289:Drivers/STM32F0xx_HAL_Driver/Src/stm32f0xx_hal_i2c.c ****   /* Write a dummy data in TXDR to clear it */
4290:Drivers/STM32F0xx_HAL_Driver/Src/stm32f0xx_hal_i2c.c ****   if (__HAL_I2C_GET_FLAG(hi2c, I2C_FLAG_TXIS) != RESET)
 10675              		.loc 1 4290 7
 10676 0008 7B68     		ldr	r3, [r7, #4]
 10677 000a 1B68     		ldr	r3, [r3]
 10678 000c 9B69     		ldr	r3, [r3, #24]
 10679 000e 0222     		movs	r2, #2
 10680 0010 1340     		ands	r3, r2
 10681              		.loc 1 4290 6
 10682 0012 022B     		cmp	r3, #2
 10683 0014 03D1     		bne	.L476
4291:Drivers/STM32F0xx_HAL_Driver/Src/stm32f0xx_hal_i2c.c ****   {
4292:Drivers/STM32F0xx_HAL_Driver/Src/stm32f0xx_hal_i2c.c ****     hi2c->Instance->TXDR = 0x00U;
 10684              		.loc 1 4292 9
 10685 0016 7B68     		ldr	r3, [r7, #4]
 10686 0018 1B68     		ldr	r3, [r3]
 10687              		.loc 1 4292 26
 10688 001a 0022     		movs	r2, #0
 10689 001c 9A62     		str	r2, [r3, #40]
 10690              	.L476:
4293:Drivers/STM32F0xx_HAL_Driver/Src/stm32f0xx_hal_i2c.c ****   }
4294:Drivers/STM32F0xx_HAL_Driver/Src/stm32f0xx_hal_i2c.c **** 
4295:Drivers/STM32F0xx_HAL_Driver/Src/stm32f0xx_hal_i2c.c ****   /* Flush TX register if not empty */
4296:Drivers/STM32F0xx_HAL_Driver/Src/stm32f0xx_hal_i2c.c ****   if (__HAL_I2C_GET_FLAG(hi2c, I2C_FLAG_TXE) == RESET)
 10691              		.loc 1 4296 7
 10692 001e 7B68     		ldr	r3, [r7, #4]
 10693 0020 1B68     		ldr	r3, [r3]
 10694 0022 9B69     		ldr	r3, [r3, #24]
 10695 0024 0122     		movs	r2, #1
ARM GAS  C:\Users\ADMINI~1\AppData\Local\Temp\cc3zYV2m.s 			page 264


 10696 0026 1340     		ands	r3, r2
 10697              		.loc 1 4296 6
 10698 0028 012B     		cmp	r3, #1
 10699 002a 07D0     		beq	.L478
4297:Drivers/STM32F0xx_HAL_Driver/Src/stm32f0xx_hal_i2c.c ****   {
4298:Drivers/STM32F0xx_HAL_Driver/Src/stm32f0xx_hal_i2c.c ****     __HAL_I2C_CLEAR_FLAG(hi2c, I2C_FLAG_TXE);
 10700              		.loc 1 4298 5
 10701 002c 7B68     		ldr	r3, [r7, #4]
 10702 002e 1B68     		ldr	r3, [r3]
 10703 0030 9A69     		ldr	r2, [r3, #24]
 10704 0032 7B68     		ldr	r3, [r7, #4]
 10705 0034 1B68     		ldr	r3, [r3]
 10706 0036 0121     		movs	r1, #1
 10707 0038 0A43     		orrs	r2, r1
 10708 003a 9A61     		str	r2, [r3, #24]
 10709              	.L478:
4299:Drivers/STM32F0xx_HAL_Driver/Src/stm32f0xx_hal_i2c.c ****   }
4300:Drivers/STM32F0xx_HAL_Driver/Src/stm32f0xx_hal_i2c.c **** }
 10710              		.loc 1 4300 1
 10711 003c C046     		nop
 10712 003e BD46     		mov	sp, r7
 10713 0040 02B0     		add	sp, sp, #8
 10714              		@ sp needed
 10715 0042 80BD     		pop	{r7, pc}
 10716              		.cfi_endproc
 10717              	.LFE95:
 10719              		.section	.text.I2C_DMAMasterTransmitCplt,"ax",%progbits
 10720              		.align	1
 10721              		.syntax unified
 10722              		.code	16
 10723              		.thumb_func
 10724              		.fpu softvfp
 10726              	I2C_DMAMasterTransmitCplt:
 10727              	.LFB96:
4301:Drivers/STM32F0xx_HAL_Driver/Src/stm32f0xx_hal_i2c.c **** 
4302:Drivers/STM32F0xx_HAL_Driver/Src/stm32f0xx_hal_i2c.c **** /**
4303:Drivers/STM32F0xx_HAL_Driver/Src/stm32f0xx_hal_i2c.c ****   * @brief  DMA I2C master transmit process complete callback.
4304:Drivers/STM32F0xx_HAL_Driver/Src/stm32f0xx_hal_i2c.c ****   * @param  hdma DMA handle
4305:Drivers/STM32F0xx_HAL_Driver/Src/stm32f0xx_hal_i2c.c ****   * @retval None
4306:Drivers/STM32F0xx_HAL_Driver/Src/stm32f0xx_hal_i2c.c ****   */
4307:Drivers/STM32F0xx_HAL_Driver/Src/stm32f0xx_hal_i2c.c **** static void I2C_DMAMasterTransmitCplt(DMA_HandleTypeDef *hdma)
4308:Drivers/STM32F0xx_HAL_Driver/Src/stm32f0xx_hal_i2c.c **** {
 10728              		.loc 1 4308 1
 10729              		.cfi_startproc
 10730              		@ args = 0, pretend = 0, frame = 16
 10731              		@ frame_needed = 1, uses_anonymous_args = 0
 10732 0000 80B5     		push	{r7, lr}
 10733              	.LCFI177:
 10734              		.cfi_def_cfa_offset 8
 10735              		.cfi_offset 7, -8
 10736              		.cfi_offset 14, -4
 10737 0002 84B0     		sub	sp, sp, #16
 10738              	.LCFI178:
 10739              		.cfi_def_cfa_offset 24
 10740 0004 00AF     		add	r7, sp, #0
 10741              	.LCFI179:
 10742              		.cfi_def_cfa_register 7
ARM GAS  C:\Users\ADMINI~1\AppData\Local\Temp\cc3zYV2m.s 			page 265


 10743 0006 7860     		str	r0, [r7, #4]
4309:Drivers/STM32F0xx_HAL_Driver/Src/stm32f0xx_hal_i2c.c ****   I2C_HandleTypeDef *hi2c = (I2C_HandleTypeDef *)((DMA_HandleTypeDef *)hdma)->Parent;
 10744              		.loc 1 4309 22
 10745 0008 7B68     		ldr	r3, [r7, #4]
 10746 000a 5B6A     		ldr	r3, [r3, #36]
 10747 000c FB60     		str	r3, [r7, #12]
4310:Drivers/STM32F0xx_HAL_Driver/Src/stm32f0xx_hal_i2c.c **** 
4311:Drivers/STM32F0xx_HAL_Driver/Src/stm32f0xx_hal_i2c.c ****   /* Disable DMA Request */
4312:Drivers/STM32F0xx_HAL_Driver/Src/stm32f0xx_hal_i2c.c ****   hi2c->Instance->CR1 &= ~I2C_CR1_TXDMAEN;
 10748              		.loc 1 4312 7
 10749 000e FB68     		ldr	r3, [r7, #12]
 10750 0010 1B68     		ldr	r3, [r3]
 10751              		.loc 1 4312 23
 10752 0012 1A68     		ldr	r2, [r3]
 10753              		.loc 1 4312 7
 10754 0014 FB68     		ldr	r3, [r7, #12]
 10755 0016 1B68     		ldr	r3, [r3]
 10756              		.loc 1 4312 23
 10757 0018 1C49     		ldr	r1, .L485
 10758 001a 0A40     		ands	r2, r1
 10759 001c 1A60     		str	r2, [r3]
4313:Drivers/STM32F0xx_HAL_Driver/Src/stm32f0xx_hal_i2c.c **** 
4314:Drivers/STM32F0xx_HAL_Driver/Src/stm32f0xx_hal_i2c.c ****   /* If last transfer, enable STOP interrupt */
4315:Drivers/STM32F0xx_HAL_Driver/Src/stm32f0xx_hal_i2c.c ****   if (hi2c->XferCount == 0U)
 10760              		.loc 1 4315 11
 10761 001e FB68     		ldr	r3, [r7, #12]
 10762 0020 5B8D     		ldrh	r3, [r3, #42]
 10763 0022 9BB2     		uxth	r3, r3
 10764              		.loc 1 4315 6
 10765 0024 002B     		cmp	r3, #0
 10766 0026 05D1     		bne	.L480
4316:Drivers/STM32F0xx_HAL_Driver/Src/stm32f0xx_hal_i2c.c ****   {
4317:Drivers/STM32F0xx_HAL_Driver/Src/stm32f0xx_hal_i2c.c ****     /* Enable STOP interrupt */
4318:Drivers/STM32F0xx_HAL_Driver/Src/stm32f0xx_hal_i2c.c ****     I2C_Enable_IRQ(hi2c, I2C_XFER_CPLT_IT);
 10767              		.loc 1 4318 5
 10768 0028 FB68     		ldr	r3, [r7, #12]
 10769 002a 1221     		movs	r1, #18
 10770 002c 1800     		movs	r0, r3
 10771 002e FFF7FEFF 		bl	I2C_Enable_IRQ
4319:Drivers/STM32F0xx_HAL_Driver/Src/stm32f0xx_hal_i2c.c ****   }
4320:Drivers/STM32F0xx_HAL_Driver/Src/stm32f0xx_hal_i2c.c ****   /* else prepare a new DMA transfer and enable TCReload interrupt */
4321:Drivers/STM32F0xx_HAL_Driver/Src/stm32f0xx_hal_i2c.c ****   else
4322:Drivers/STM32F0xx_HAL_Driver/Src/stm32f0xx_hal_i2c.c ****   {
4323:Drivers/STM32F0xx_HAL_Driver/Src/stm32f0xx_hal_i2c.c ****     /* Update Buffer pointer */
4324:Drivers/STM32F0xx_HAL_Driver/Src/stm32f0xx_hal_i2c.c ****     hi2c->pBuffPtr += hi2c->XferSize;
4325:Drivers/STM32F0xx_HAL_Driver/Src/stm32f0xx_hal_i2c.c **** 
4326:Drivers/STM32F0xx_HAL_Driver/Src/stm32f0xx_hal_i2c.c ****     /* Set the XferSize to transfer */
4327:Drivers/STM32F0xx_HAL_Driver/Src/stm32f0xx_hal_i2c.c ****     if (hi2c->XferCount > MAX_NBYTE_SIZE)
4328:Drivers/STM32F0xx_HAL_Driver/Src/stm32f0xx_hal_i2c.c ****     {
4329:Drivers/STM32F0xx_HAL_Driver/Src/stm32f0xx_hal_i2c.c ****       hi2c->XferSize = MAX_NBYTE_SIZE;
4330:Drivers/STM32F0xx_HAL_Driver/Src/stm32f0xx_hal_i2c.c ****     }
4331:Drivers/STM32F0xx_HAL_Driver/Src/stm32f0xx_hal_i2c.c ****     else
4332:Drivers/STM32F0xx_HAL_Driver/Src/stm32f0xx_hal_i2c.c ****     {
4333:Drivers/STM32F0xx_HAL_Driver/Src/stm32f0xx_hal_i2c.c ****       hi2c->XferSize = hi2c->XferCount;
4334:Drivers/STM32F0xx_HAL_Driver/Src/stm32f0xx_hal_i2c.c ****     }
4335:Drivers/STM32F0xx_HAL_Driver/Src/stm32f0xx_hal_i2c.c **** 
4336:Drivers/STM32F0xx_HAL_Driver/Src/stm32f0xx_hal_i2c.c ****     /* Enable the DMA channel */
ARM GAS  C:\Users\ADMINI~1\AppData\Local\Temp\cc3zYV2m.s 			page 266


4337:Drivers/STM32F0xx_HAL_Driver/Src/stm32f0xx_hal_i2c.c ****     HAL_DMA_Start_IT(hi2c->hdmatx, (uint32_t)hi2c->pBuffPtr, (uint32_t)&hi2c->Instance->TXDR, hi2c-
4338:Drivers/STM32F0xx_HAL_Driver/Src/stm32f0xx_hal_i2c.c **** 
4339:Drivers/STM32F0xx_HAL_Driver/Src/stm32f0xx_hal_i2c.c ****     /* Enable TC interrupts */
4340:Drivers/STM32F0xx_HAL_Driver/Src/stm32f0xx_hal_i2c.c ****     I2C_Enable_IRQ(hi2c, I2C_XFER_RELOAD_IT);
4341:Drivers/STM32F0xx_HAL_Driver/Src/stm32f0xx_hal_i2c.c ****   }
4342:Drivers/STM32F0xx_HAL_Driver/Src/stm32f0xx_hal_i2c.c **** }
 10772              		.loc 1 4342 1
 10773 0032 26E0     		b	.L484
 10774              	.L480:
4324:Drivers/STM32F0xx_HAL_Driver/Src/stm32f0xx_hal_i2c.c **** 
 10775              		.loc 1 4324 20
 10776 0034 FB68     		ldr	r3, [r7, #12]
 10777 0036 5B6A     		ldr	r3, [r3, #36]
4324:Drivers/STM32F0xx_HAL_Driver/Src/stm32f0xx_hal_i2c.c **** 
 10778              		.loc 1 4324 27
 10779 0038 FA68     		ldr	r2, [r7, #12]
 10780 003a 128D     		ldrh	r2, [r2, #40]
4324:Drivers/STM32F0xx_HAL_Driver/Src/stm32f0xx_hal_i2c.c **** 
 10781              		.loc 1 4324 20
 10782 003c 9A18     		adds	r2, r3, r2
 10783 003e FB68     		ldr	r3, [r7, #12]
 10784 0040 5A62     		str	r2, [r3, #36]
4327:Drivers/STM32F0xx_HAL_Driver/Src/stm32f0xx_hal_i2c.c ****     {
 10785              		.loc 1 4327 13
 10786 0042 FB68     		ldr	r3, [r7, #12]
 10787 0044 5B8D     		ldrh	r3, [r3, #42]
 10788 0046 9BB2     		uxth	r3, r3
4327:Drivers/STM32F0xx_HAL_Driver/Src/stm32f0xx_hal_i2c.c ****     {
 10789              		.loc 1 4327 8
 10790 0048 FF2B     		cmp	r3, #255
 10791 004a 03D9     		bls	.L482
4329:Drivers/STM32F0xx_HAL_Driver/Src/stm32f0xx_hal_i2c.c ****     }
 10792              		.loc 1 4329 22
 10793 004c FB68     		ldr	r3, [r7, #12]
 10794 004e FF22     		movs	r2, #255
 10795 0050 1A85     		strh	r2, [r3, #40]
 10796 0052 04E0     		b	.L483
 10797              	.L482:
4333:Drivers/STM32F0xx_HAL_Driver/Src/stm32f0xx_hal_i2c.c ****     }
 10798              		.loc 1 4333 28
 10799 0054 FB68     		ldr	r3, [r7, #12]
 10800 0056 5B8D     		ldrh	r3, [r3, #42]
 10801 0058 9AB2     		uxth	r2, r3
4333:Drivers/STM32F0xx_HAL_Driver/Src/stm32f0xx_hal_i2c.c ****     }
 10802              		.loc 1 4333 22
 10803 005a FB68     		ldr	r3, [r7, #12]
 10804 005c 1A85     		strh	r2, [r3, #40]
 10805              	.L483:
4337:Drivers/STM32F0xx_HAL_Driver/Src/stm32f0xx_hal_i2c.c **** 
 10806              		.loc 1 4337 5
 10807 005e FB68     		ldr	r3, [r7, #12]
 10808 0060 986B     		ldr	r0, [r3, #56]
4337:Drivers/STM32F0xx_HAL_Driver/Src/stm32f0xx_hal_i2c.c **** 
 10809              		.loc 1 4337 50
 10810 0062 FB68     		ldr	r3, [r7, #12]
 10811 0064 5B6A     		ldr	r3, [r3, #36]
4337:Drivers/STM32F0xx_HAL_Driver/Src/stm32f0xx_hal_i2c.c **** 
ARM GAS  C:\Users\ADMINI~1\AppData\Local\Temp\cc3zYV2m.s 			page 267


 10812              		.loc 1 4337 5
 10813 0066 1900     		movs	r1, r3
4337:Drivers/STM32F0xx_HAL_Driver/Src/stm32f0xx_hal_i2c.c **** 
 10814              		.loc 1 4337 77
 10815 0068 FB68     		ldr	r3, [r7, #12]
 10816 006a 1B68     		ldr	r3, [r3]
4337:Drivers/STM32F0xx_HAL_Driver/Src/stm32f0xx_hal_i2c.c **** 
 10817              		.loc 1 4337 72
 10818 006c 2833     		adds	r3, r3, #40
4337:Drivers/STM32F0xx_HAL_Driver/Src/stm32f0xx_hal_i2c.c **** 
 10819              		.loc 1 4337 5
 10820 006e 1A00     		movs	r2, r3
4337:Drivers/STM32F0xx_HAL_Driver/Src/stm32f0xx_hal_i2c.c **** 
 10821              		.loc 1 4337 99
 10822 0070 FB68     		ldr	r3, [r7, #12]
 10823 0072 1B8D     		ldrh	r3, [r3, #40]
4337:Drivers/STM32F0xx_HAL_Driver/Src/stm32f0xx_hal_i2c.c **** 
 10824              		.loc 1 4337 5
 10825 0074 FFF7FEFF 		bl	HAL_DMA_Start_IT
4340:Drivers/STM32F0xx_HAL_Driver/Src/stm32f0xx_hal_i2c.c ****   }
 10826              		.loc 1 4340 5
 10827 0078 FB68     		ldr	r3, [r7, #12]
 10828 007a 1221     		movs	r1, #18
 10829 007c 1800     		movs	r0, r3
 10830 007e FFF7FEFF 		bl	I2C_Enable_IRQ
 10831              	.L484:
 10832              		.loc 1 4342 1
 10833 0082 C046     		nop
 10834 0084 BD46     		mov	sp, r7
 10835 0086 04B0     		add	sp, sp, #16
 10836              		@ sp needed
 10837 0088 80BD     		pop	{r7, pc}
 10838              	.L486:
 10839 008a C046     		.align	2
 10840              	.L485:
 10841 008c FFBFFFFF 		.word	-16385
 10842              		.cfi_endproc
 10843              	.LFE96:
 10845              		.section	.text.I2C_DMASlaveTransmitCplt,"ax",%progbits
 10846              		.align	1
 10847              		.syntax unified
 10848              		.code	16
 10849              		.thumb_func
 10850              		.fpu softvfp
 10852              	I2C_DMASlaveTransmitCplt:
 10853              	.LFB97:
4343:Drivers/STM32F0xx_HAL_Driver/Src/stm32f0xx_hal_i2c.c **** 
4344:Drivers/STM32F0xx_HAL_Driver/Src/stm32f0xx_hal_i2c.c **** /**
4345:Drivers/STM32F0xx_HAL_Driver/Src/stm32f0xx_hal_i2c.c ****   * @brief  DMA I2C slave transmit process complete callback.
4346:Drivers/STM32F0xx_HAL_Driver/Src/stm32f0xx_hal_i2c.c ****   * @param  hdma DMA handle
4347:Drivers/STM32F0xx_HAL_Driver/Src/stm32f0xx_hal_i2c.c ****   * @retval None
4348:Drivers/STM32F0xx_HAL_Driver/Src/stm32f0xx_hal_i2c.c ****   */
4349:Drivers/STM32F0xx_HAL_Driver/Src/stm32f0xx_hal_i2c.c **** static void I2C_DMASlaveTransmitCplt(DMA_HandleTypeDef *hdma)
4350:Drivers/STM32F0xx_HAL_Driver/Src/stm32f0xx_hal_i2c.c **** {
 10854              		.loc 1 4350 1
 10855              		.cfi_startproc
 10856              		@ args = 0, pretend = 0, frame = 8
ARM GAS  C:\Users\ADMINI~1\AppData\Local\Temp\cc3zYV2m.s 			page 268


 10857              		@ frame_needed = 1, uses_anonymous_args = 0
 10858 0000 80B5     		push	{r7, lr}
 10859              	.LCFI180:
 10860              		.cfi_def_cfa_offset 8
 10861              		.cfi_offset 7, -8
 10862              		.cfi_offset 14, -4
 10863 0002 82B0     		sub	sp, sp, #8
 10864              	.LCFI181:
 10865              		.cfi_def_cfa_offset 16
 10866 0004 00AF     		add	r7, sp, #0
 10867              	.LCFI182:
 10868              		.cfi_def_cfa_register 7
 10869 0006 7860     		str	r0, [r7, #4]
4351:Drivers/STM32F0xx_HAL_Driver/Src/stm32f0xx_hal_i2c.c ****   /* Prevent unused argument(s) compilation warning */
4352:Drivers/STM32F0xx_HAL_Driver/Src/stm32f0xx_hal_i2c.c ****   UNUSED(hdma);
4353:Drivers/STM32F0xx_HAL_Driver/Src/stm32f0xx_hal_i2c.c **** 
4354:Drivers/STM32F0xx_HAL_Driver/Src/stm32f0xx_hal_i2c.c ****   /* No specific action, Master fully manage the generation of STOP condition */
4355:Drivers/STM32F0xx_HAL_Driver/Src/stm32f0xx_hal_i2c.c ****   /* Mean that this generation can arrive at any time, at the end or during DMA process */
4356:Drivers/STM32F0xx_HAL_Driver/Src/stm32f0xx_hal_i2c.c ****   /* So STOP condition should be manage through Interrupt treatment */
4357:Drivers/STM32F0xx_HAL_Driver/Src/stm32f0xx_hal_i2c.c **** }
 10870              		.loc 1 4357 1
 10871 0008 C046     		nop
 10872 000a BD46     		mov	sp, r7
 10873 000c 02B0     		add	sp, sp, #8
 10874              		@ sp needed
 10875 000e 80BD     		pop	{r7, pc}
 10876              		.cfi_endproc
 10877              	.LFE97:
 10879              		.section	.text.I2C_DMAMasterReceiveCplt,"ax",%progbits
 10880              		.align	1
 10881              		.syntax unified
 10882              		.code	16
 10883              		.thumb_func
 10884              		.fpu softvfp
 10886              	I2C_DMAMasterReceiveCplt:
 10887              	.LFB98:
4358:Drivers/STM32F0xx_HAL_Driver/Src/stm32f0xx_hal_i2c.c **** 
4359:Drivers/STM32F0xx_HAL_Driver/Src/stm32f0xx_hal_i2c.c **** /**
4360:Drivers/STM32F0xx_HAL_Driver/Src/stm32f0xx_hal_i2c.c ****   * @brief DMA I2C master receive process complete callback.
4361:Drivers/STM32F0xx_HAL_Driver/Src/stm32f0xx_hal_i2c.c ****   * @param  hdma DMA handle
4362:Drivers/STM32F0xx_HAL_Driver/Src/stm32f0xx_hal_i2c.c ****   * @retval None
4363:Drivers/STM32F0xx_HAL_Driver/Src/stm32f0xx_hal_i2c.c ****   */
4364:Drivers/STM32F0xx_HAL_Driver/Src/stm32f0xx_hal_i2c.c **** static void I2C_DMAMasterReceiveCplt(DMA_HandleTypeDef *hdma)
4365:Drivers/STM32F0xx_HAL_Driver/Src/stm32f0xx_hal_i2c.c **** {
 10888              		.loc 1 4365 1
 10889              		.cfi_startproc
 10890              		@ args = 0, pretend = 0, frame = 16
 10891              		@ frame_needed = 1, uses_anonymous_args = 0
 10892 0000 80B5     		push	{r7, lr}
 10893              	.LCFI183:
 10894              		.cfi_def_cfa_offset 8
 10895              		.cfi_offset 7, -8
 10896              		.cfi_offset 14, -4
 10897 0002 84B0     		sub	sp, sp, #16
 10898              	.LCFI184:
 10899              		.cfi_def_cfa_offset 24
 10900 0004 00AF     		add	r7, sp, #0
ARM GAS  C:\Users\ADMINI~1\AppData\Local\Temp\cc3zYV2m.s 			page 269


 10901              	.LCFI185:
 10902              		.cfi_def_cfa_register 7
 10903 0006 7860     		str	r0, [r7, #4]
4366:Drivers/STM32F0xx_HAL_Driver/Src/stm32f0xx_hal_i2c.c ****   I2C_HandleTypeDef *hi2c = (I2C_HandleTypeDef *)((DMA_HandleTypeDef *)hdma)->Parent;
 10904              		.loc 1 4366 22
 10905 0008 7B68     		ldr	r3, [r7, #4]
 10906 000a 5B6A     		ldr	r3, [r3, #36]
 10907 000c FB60     		str	r3, [r7, #12]
4367:Drivers/STM32F0xx_HAL_Driver/Src/stm32f0xx_hal_i2c.c **** 
4368:Drivers/STM32F0xx_HAL_Driver/Src/stm32f0xx_hal_i2c.c ****   /* Disable DMA Request */
4369:Drivers/STM32F0xx_HAL_Driver/Src/stm32f0xx_hal_i2c.c ****   hi2c->Instance->CR1 &= ~I2C_CR1_RXDMAEN;
 10908              		.loc 1 4369 7
 10909 000e FB68     		ldr	r3, [r7, #12]
 10910 0010 1B68     		ldr	r3, [r3]
 10911              		.loc 1 4369 23
 10912 0012 1A68     		ldr	r2, [r3]
 10913              		.loc 1 4369 7
 10914 0014 FB68     		ldr	r3, [r7, #12]
 10915 0016 1B68     		ldr	r3, [r3]
 10916              		.loc 1 4369 23
 10917 0018 1C49     		ldr	r1, .L494
 10918 001a 0A40     		ands	r2, r1
 10919 001c 1A60     		str	r2, [r3]
4370:Drivers/STM32F0xx_HAL_Driver/Src/stm32f0xx_hal_i2c.c **** 
4371:Drivers/STM32F0xx_HAL_Driver/Src/stm32f0xx_hal_i2c.c ****   /* If last transfer, enable STOP interrupt */
4372:Drivers/STM32F0xx_HAL_Driver/Src/stm32f0xx_hal_i2c.c ****   if (hi2c->XferCount == 0U)
 10920              		.loc 1 4372 11
 10921 001e FB68     		ldr	r3, [r7, #12]
 10922 0020 5B8D     		ldrh	r3, [r3, #42]
 10923 0022 9BB2     		uxth	r3, r3
 10924              		.loc 1 4372 6
 10925 0024 002B     		cmp	r3, #0
 10926 0026 05D1     		bne	.L489
4373:Drivers/STM32F0xx_HAL_Driver/Src/stm32f0xx_hal_i2c.c ****   {
4374:Drivers/STM32F0xx_HAL_Driver/Src/stm32f0xx_hal_i2c.c ****     /* Enable STOP interrupt */
4375:Drivers/STM32F0xx_HAL_Driver/Src/stm32f0xx_hal_i2c.c ****     I2C_Enable_IRQ(hi2c, I2C_XFER_CPLT_IT);
 10927              		.loc 1 4375 5
 10928 0028 FB68     		ldr	r3, [r7, #12]
 10929 002a 1221     		movs	r1, #18
 10930 002c 1800     		movs	r0, r3
 10931 002e FFF7FEFF 		bl	I2C_Enable_IRQ
4376:Drivers/STM32F0xx_HAL_Driver/Src/stm32f0xx_hal_i2c.c ****   }
4377:Drivers/STM32F0xx_HAL_Driver/Src/stm32f0xx_hal_i2c.c ****   /* else prepare a new DMA transfer and enable TCReload interrupt */
4378:Drivers/STM32F0xx_HAL_Driver/Src/stm32f0xx_hal_i2c.c ****   else
4379:Drivers/STM32F0xx_HAL_Driver/Src/stm32f0xx_hal_i2c.c ****   {
4380:Drivers/STM32F0xx_HAL_Driver/Src/stm32f0xx_hal_i2c.c ****     /* Update Buffer pointer */
4381:Drivers/STM32F0xx_HAL_Driver/Src/stm32f0xx_hal_i2c.c ****     hi2c->pBuffPtr += hi2c->XferSize;
4382:Drivers/STM32F0xx_HAL_Driver/Src/stm32f0xx_hal_i2c.c **** 
4383:Drivers/STM32F0xx_HAL_Driver/Src/stm32f0xx_hal_i2c.c ****     /* Set the XferSize to transfer */
4384:Drivers/STM32F0xx_HAL_Driver/Src/stm32f0xx_hal_i2c.c ****     if (hi2c->XferCount > MAX_NBYTE_SIZE)
4385:Drivers/STM32F0xx_HAL_Driver/Src/stm32f0xx_hal_i2c.c ****     {
4386:Drivers/STM32F0xx_HAL_Driver/Src/stm32f0xx_hal_i2c.c ****       hi2c->XferSize = MAX_NBYTE_SIZE;
4387:Drivers/STM32F0xx_HAL_Driver/Src/stm32f0xx_hal_i2c.c ****     }
4388:Drivers/STM32F0xx_HAL_Driver/Src/stm32f0xx_hal_i2c.c ****     else
4389:Drivers/STM32F0xx_HAL_Driver/Src/stm32f0xx_hal_i2c.c ****     {
4390:Drivers/STM32F0xx_HAL_Driver/Src/stm32f0xx_hal_i2c.c ****       hi2c->XferSize = hi2c->XferCount;
4391:Drivers/STM32F0xx_HAL_Driver/Src/stm32f0xx_hal_i2c.c ****     }
ARM GAS  C:\Users\ADMINI~1\AppData\Local\Temp\cc3zYV2m.s 			page 270


4392:Drivers/STM32F0xx_HAL_Driver/Src/stm32f0xx_hal_i2c.c **** 
4393:Drivers/STM32F0xx_HAL_Driver/Src/stm32f0xx_hal_i2c.c ****     /* Enable the DMA channel */
4394:Drivers/STM32F0xx_HAL_Driver/Src/stm32f0xx_hal_i2c.c ****     HAL_DMA_Start_IT(hi2c->hdmarx, (uint32_t)&hi2c->Instance->RXDR, (uint32_t)hi2c->pBuffPtr, hi2c-
4395:Drivers/STM32F0xx_HAL_Driver/Src/stm32f0xx_hal_i2c.c **** 
4396:Drivers/STM32F0xx_HAL_Driver/Src/stm32f0xx_hal_i2c.c ****     /* Enable TC interrupts */
4397:Drivers/STM32F0xx_HAL_Driver/Src/stm32f0xx_hal_i2c.c ****     I2C_Enable_IRQ(hi2c, I2C_XFER_RELOAD_IT);
4398:Drivers/STM32F0xx_HAL_Driver/Src/stm32f0xx_hal_i2c.c ****   }
4399:Drivers/STM32F0xx_HAL_Driver/Src/stm32f0xx_hal_i2c.c **** }
 10932              		.loc 1 4399 1
 10933 0032 26E0     		b	.L493
 10934              	.L489:
4381:Drivers/STM32F0xx_HAL_Driver/Src/stm32f0xx_hal_i2c.c **** 
 10935              		.loc 1 4381 20
 10936 0034 FB68     		ldr	r3, [r7, #12]
 10937 0036 5B6A     		ldr	r3, [r3, #36]
4381:Drivers/STM32F0xx_HAL_Driver/Src/stm32f0xx_hal_i2c.c **** 
 10938              		.loc 1 4381 27
 10939 0038 FA68     		ldr	r2, [r7, #12]
 10940 003a 128D     		ldrh	r2, [r2, #40]
4381:Drivers/STM32F0xx_HAL_Driver/Src/stm32f0xx_hal_i2c.c **** 
 10941              		.loc 1 4381 20
 10942 003c 9A18     		adds	r2, r3, r2
 10943 003e FB68     		ldr	r3, [r7, #12]
 10944 0040 5A62     		str	r2, [r3, #36]
4384:Drivers/STM32F0xx_HAL_Driver/Src/stm32f0xx_hal_i2c.c ****     {
 10945              		.loc 1 4384 13
 10946 0042 FB68     		ldr	r3, [r7, #12]
 10947 0044 5B8D     		ldrh	r3, [r3, #42]
 10948 0046 9BB2     		uxth	r3, r3
4384:Drivers/STM32F0xx_HAL_Driver/Src/stm32f0xx_hal_i2c.c ****     {
 10949              		.loc 1 4384 8
 10950 0048 FF2B     		cmp	r3, #255
 10951 004a 03D9     		bls	.L491
4386:Drivers/STM32F0xx_HAL_Driver/Src/stm32f0xx_hal_i2c.c ****     }
 10952              		.loc 1 4386 22
 10953 004c FB68     		ldr	r3, [r7, #12]
 10954 004e FF22     		movs	r2, #255
 10955 0050 1A85     		strh	r2, [r3, #40]
 10956 0052 04E0     		b	.L492
 10957              	.L491:
4390:Drivers/STM32F0xx_HAL_Driver/Src/stm32f0xx_hal_i2c.c ****     }
 10958              		.loc 1 4390 28
 10959 0054 FB68     		ldr	r3, [r7, #12]
 10960 0056 5B8D     		ldrh	r3, [r3, #42]
 10961 0058 9AB2     		uxth	r2, r3
4390:Drivers/STM32F0xx_HAL_Driver/Src/stm32f0xx_hal_i2c.c ****     }
 10962              		.loc 1 4390 22
 10963 005a FB68     		ldr	r3, [r7, #12]
 10964 005c 1A85     		strh	r2, [r3, #40]
 10965              	.L492:
4394:Drivers/STM32F0xx_HAL_Driver/Src/stm32f0xx_hal_i2c.c **** 
 10966              		.loc 1 4394 5
 10967 005e FB68     		ldr	r3, [r7, #12]
 10968 0060 D86B     		ldr	r0, [r3, #60]
4394:Drivers/STM32F0xx_HAL_Driver/Src/stm32f0xx_hal_i2c.c **** 
 10969              		.loc 1 4394 51
 10970 0062 FB68     		ldr	r3, [r7, #12]
ARM GAS  C:\Users\ADMINI~1\AppData\Local\Temp\cc3zYV2m.s 			page 271


 10971 0064 1B68     		ldr	r3, [r3]
4394:Drivers/STM32F0xx_HAL_Driver/Src/stm32f0xx_hal_i2c.c **** 
 10972              		.loc 1 4394 46
 10973 0066 2433     		adds	r3, r3, #36
4394:Drivers/STM32F0xx_HAL_Driver/Src/stm32f0xx_hal_i2c.c **** 
 10974              		.loc 1 4394 5
 10975 0068 1900     		movs	r1, r3
4394:Drivers/STM32F0xx_HAL_Driver/Src/stm32f0xx_hal_i2c.c **** 
 10976              		.loc 1 4394 83
 10977 006a FB68     		ldr	r3, [r7, #12]
 10978 006c 5B6A     		ldr	r3, [r3, #36]
4394:Drivers/STM32F0xx_HAL_Driver/Src/stm32f0xx_hal_i2c.c **** 
 10979              		.loc 1 4394 5
 10980 006e 1A00     		movs	r2, r3
4394:Drivers/STM32F0xx_HAL_Driver/Src/stm32f0xx_hal_i2c.c **** 
 10981              		.loc 1 4394 99
 10982 0070 FB68     		ldr	r3, [r7, #12]
 10983 0072 1B8D     		ldrh	r3, [r3, #40]
4394:Drivers/STM32F0xx_HAL_Driver/Src/stm32f0xx_hal_i2c.c **** 
 10984              		.loc 1 4394 5
 10985 0074 FFF7FEFF 		bl	HAL_DMA_Start_IT
4397:Drivers/STM32F0xx_HAL_Driver/Src/stm32f0xx_hal_i2c.c ****   }
 10986              		.loc 1 4397 5
 10987 0078 FB68     		ldr	r3, [r7, #12]
 10988 007a 1221     		movs	r1, #18
 10989 007c 1800     		movs	r0, r3
 10990 007e FFF7FEFF 		bl	I2C_Enable_IRQ
 10991              	.L493:
 10992              		.loc 1 4399 1
 10993 0082 C046     		nop
 10994 0084 BD46     		mov	sp, r7
 10995 0086 04B0     		add	sp, sp, #16
 10996              		@ sp needed
 10997 0088 80BD     		pop	{r7, pc}
 10998              	.L495:
 10999 008a C046     		.align	2
 11000              	.L494:
 11001 008c FF7FFFFF 		.word	-32769
 11002              		.cfi_endproc
 11003              	.LFE98:
 11005              		.section	.text.I2C_DMASlaveReceiveCplt,"ax",%progbits
 11006              		.align	1
 11007              		.syntax unified
 11008              		.code	16
 11009              		.thumb_func
 11010              		.fpu softvfp
 11012              	I2C_DMASlaveReceiveCplt:
 11013              	.LFB99:
4400:Drivers/STM32F0xx_HAL_Driver/Src/stm32f0xx_hal_i2c.c **** 
4401:Drivers/STM32F0xx_HAL_Driver/Src/stm32f0xx_hal_i2c.c **** /**
4402:Drivers/STM32F0xx_HAL_Driver/Src/stm32f0xx_hal_i2c.c ****   * @brief  DMA I2C slave receive process complete callback.
4403:Drivers/STM32F0xx_HAL_Driver/Src/stm32f0xx_hal_i2c.c ****   * @param  hdma DMA handle
4404:Drivers/STM32F0xx_HAL_Driver/Src/stm32f0xx_hal_i2c.c ****   * @retval None
4405:Drivers/STM32F0xx_HAL_Driver/Src/stm32f0xx_hal_i2c.c ****   */
4406:Drivers/STM32F0xx_HAL_Driver/Src/stm32f0xx_hal_i2c.c **** static void I2C_DMASlaveReceiveCplt(DMA_HandleTypeDef *hdma)
4407:Drivers/STM32F0xx_HAL_Driver/Src/stm32f0xx_hal_i2c.c **** {
 11014              		.loc 1 4407 1
ARM GAS  C:\Users\ADMINI~1\AppData\Local\Temp\cc3zYV2m.s 			page 272


 11015              		.cfi_startproc
 11016              		@ args = 0, pretend = 0, frame = 8
 11017              		@ frame_needed = 1, uses_anonymous_args = 0
 11018 0000 80B5     		push	{r7, lr}
 11019              	.LCFI186:
 11020              		.cfi_def_cfa_offset 8
 11021              		.cfi_offset 7, -8
 11022              		.cfi_offset 14, -4
 11023 0002 82B0     		sub	sp, sp, #8
 11024              	.LCFI187:
 11025              		.cfi_def_cfa_offset 16
 11026 0004 00AF     		add	r7, sp, #0
 11027              	.LCFI188:
 11028              		.cfi_def_cfa_register 7
 11029 0006 7860     		str	r0, [r7, #4]
4408:Drivers/STM32F0xx_HAL_Driver/Src/stm32f0xx_hal_i2c.c ****   /* Prevent unused argument(s) compilation warning */
4409:Drivers/STM32F0xx_HAL_Driver/Src/stm32f0xx_hal_i2c.c ****   UNUSED(hdma);
4410:Drivers/STM32F0xx_HAL_Driver/Src/stm32f0xx_hal_i2c.c **** 
4411:Drivers/STM32F0xx_HAL_Driver/Src/stm32f0xx_hal_i2c.c ****   /* No specific action, Master fully manage the generation of STOP condition */
4412:Drivers/STM32F0xx_HAL_Driver/Src/stm32f0xx_hal_i2c.c ****   /* Mean that this generation can arrive at any time, at the end or during DMA process */
4413:Drivers/STM32F0xx_HAL_Driver/Src/stm32f0xx_hal_i2c.c ****   /* So STOP condition should be manage through Interrupt treatment */
4414:Drivers/STM32F0xx_HAL_Driver/Src/stm32f0xx_hal_i2c.c **** }
 11030              		.loc 1 4414 1
 11031 0008 C046     		nop
 11032 000a BD46     		mov	sp, r7
 11033 000c 02B0     		add	sp, sp, #8
 11034              		@ sp needed
 11035 000e 80BD     		pop	{r7, pc}
 11036              		.cfi_endproc
 11037              	.LFE99:
 11039              		.section	.text.I2C_DMAError,"ax",%progbits
 11040              		.align	1
 11041              		.syntax unified
 11042              		.code	16
 11043              		.thumb_func
 11044              		.fpu softvfp
 11046              	I2C_DMAError:
 11047              	.LFB100:
4415:Drivers/STM32F0xx_HAL_Driver/Src/stm32f0xx_hal_i2c.c **** 
4416:Drivers/STM32F0xx_HAL_Driver/Src/stm32f0xx_hal_i2c.c **** /**
4417:Drivers/STM32F0xx_HAL_Driver/Src/stm32f0xx_hal_i2c.c ****   * @brief  DMA I2C communication error callback.
4418:Drivers/STM32F0xx_HAL_Driver/Src/stm32f0xx_hal_i2c.c ****   * @param hdma DMA handle
4419:Drivers/STM32F0xx_HAL_Driver/Src/stm32f0xx_hal_i2c.c ****   * @retval None
4420:Drivers/STM32F0xx_HAL_Driver/Src/stm32f0xx_hal_i2c.c ****   */
4421:Drivers/STM32F0xx_HAL_Driver/Src/stm32f0xx_hal_i2c.c **** static void I2C_DMAError(DMA_HandleTypeDef *hdma)
4422:Drivers/STM32F0xx_HAL_Driver/Src/stm32f0xx_hal_i2c.c **** {
 11048              		.loc 1 4422 1
 11049              		.cfi_startproc
 11050              		@ args = 0, pretend = 0, frame = 16
 11051              		@ frame_needed = 1, uses_anonymous_args = 0
 11052 0000 80B5     		push	{r7, lr}
 11053              	.LCFI189:
 11054              		.cfi_def_cfa_offset 8
 11055              		.cfi_offset 7, -8
 11056              		.cfi_offset 14, -4
 11057 0002 84B0     		sub	sp, sp, #16
 11058              	.LCFI190:
ARM GAS  C:\Users\ADMINI~1\AppData\Local\Temp\cc3zYV2m.s 			page 273


 11059              		.cfi_def_cfa_offset 24
 11060 0004 00AF     		add	r7, sp, #0
 11061              	.LCFI191:
 11062              		.cfi_def_cfa_register 7
 11063 0006 7860     		str	r0, [r7, #4]
4423:Drivers/STM32F0xx_HAL_Driver/Src/stm32f0xx_hal_i2c.c ****   I2C_HandleTypeDef *hi2c = (I2C_HandleTypeDef *)((DMA_HandleTypeDef *)hdma)->Parent;
 11064              		.loc 1 4423 22
 11065 0008 7B68     		ldr	r3, [r7, #4]
 11066 000a 5B6A     		ldr	r3, [r3, #36]
 11067 000c FB60     		str	r3, [r7, #12]
4424:Drivers/STM32F0xx_HAL_Driver/Src/stm32f0xx_hal_i2c.c **** 
4425:Drivers/STM32F0xx_HAL_Driver/Src/stm32f0xx_hal_i2c.c ****   /* Disable Acknowledge */
4426:Drivers/STM32F0xx_HAL_Driver/Src/stm32f0xx_hal_i2c.c ****   hi2c->Instance->CR2 |= I2C_CR2_NACK;
 11068              		.loc 1 4426 7
 11069 000e FB68     		ldr	r3, [r7, #12]
 11070 0010 1B68     		ldr	r3, [r3]
 11071              		.loc 1 4426 23
 11072 0012 5A68     		ldr	r2, [r3, #4]
 11073              		.loc 1 4426 7
 11074 0014 FB68     		ldr	r3, [r7, #12]
 11075 0016 1B68     		ldr	r3, [r3]
 11076              		.loc 1 4426 23
 11077 0018 8021     		movs	r1, #128
 11078 001a 0902     		lsls	r1, r1, #8
 11079 001c 0A43     		orrs	r2, r1
 11080 001e 5A60     		str	r2, [r3, #4]
4427:Drivers/STM32F0xx_HAL_Driver/Src/stm32f0xx_hal_i2c.c **** 
4428:Drivers/STM32F0xx_HAL_Driver/Src/stm32f0xx_hal_i2c.c ****   /* Call the corresponding callback to inform upper layer of End of Transfer */
4429:Drivers/STM32F0xx_HAL_Driver/Src/stm32f0xx_hal_i2c.c ****   I2C_ITError(hi2c, HAL_I2C_ERROR_DMA);
 11081              		.loc 1 4429 3
 11082 0020 FB68     		ldr	r3, [r7, #12]
 11083 0022 1021     		movs	r1, #16
 11084 0024 1800     		movs	r0, r3
 11085 0026 FFF7FEFF 		bl	I2C_ITError
4430:Drivers/STM32F0xx_HAL_Driver/Src/stm32f0xx_hal_i2c.c **** }
 11086              		.loc 1 4430 1
 11087 002a C046     		nop
 11088 002c BD46     		mov	sp, r7
 11089 002e 04B0     		add	sp, sp, #16
 11090              		@ sp needed
 11091 0030 80BD     		pop	{r7, pc}
 11092              		.cfi_endproc
 11093              	.LFE100:
 11095              		.section	.text.I2C_DMAAbort,"ax",%progbits
 11096              		.align	1
 11097              		.syntax unified
 11098              		.code	16
 11099              		.thumb_func
 11100              		.fpu softvfp
 11102              	I2C_DMAAbort:
 11103              	.LFB101:
4431:Drivers/STM32F0xx_HAL_Driver/Src/stm32f0xx_hal_i2c.c **** 
4432:Drivers/STM32F0xx_HAL_Driver/Src/stm32f0xx_hal_i2c.c **** /**
4433:Drivers/STM32F0xx_HAL_Driver/Src/stm32f0xx_hal_i2c.c ****   * @brief DMA I2C communication abort callback
4434:Drivers/STM32F0xx_HAL_Driver/Src/stm32f0xx_hal_i2c.c ****   *        (To be called at end of DMA Abort procedure).
4435:Drivers/STM32F0xx_HAL_Driver/Src/stm32f0xx_hal_i2c.c ****   * @param hdma DMA handle.
4436:Drivers/STM32F0xx_HAL_Driver/Src/stm32f0xx_hal_i2c.c ****   * @retval None
ARM GAS  C:\Users\ADMINI~1\AppData\Local\Temp\cc3zYV2m.s 			page 274


4437:Drivers/STM32F0xx_HAL_Driver/Src/stm32f0xx_hal_i2c.c ****   */
4438:Drivers/STM32F0xx_HAL_Driver/Src/stm32f0xx_hal_i2c.c **** static void I2C_DMAAbort(DMA_HandleTypeDef *hdma)
4439:Drivers/STM32F0xx_HAL_Driver/Src/stm32f0xx_hal_i2c.c **** {
 11104              		.loc 1 4439 1
 11105              		.cfi_startproc
 11106              		@ args = 0, pretend = 0, frame = 16
 11107              		@ frame_needed = 1, uses_anonymous_args = 0
 11108 0000 80B5     		push	{r7, lr}
 11109              	.LCFI192:
 11110              		.cfi_def_cfa_offset 8
 11111              		.cfi_offset 7, -8
 11112              		.cfi_offset 14, -4
 11113 0002 84B0     		sub	sp, sp, #16
 11114              	.LCFI193:
 11115              		.cfi_def_cfa_offset 24
 11116 0004 00AF     		add	r7, sp, #0
 11117              	.LCFI194:
 11118              		.cfi_def_cfa_register 7
 11119 0006 7860     		str	r0, [r7, #4]
4440:Drivers/STM32F0xx_HAL_Driver/Src/stm32f0xx_hal_i2c.c ****   I2C_HandleTypeDef *hi2c = (I2C_HandleTypeDef *)((DMA_HandleTypeDef *)hdma)->Parent;
 11120              		.loc 1 4440 22
 11121 0008 7B68     		ldr	r3, [r7, #4]
 11122 000a 5B6A     		ldr	r3, [r3, #36]
 11123 000c FB60     		str	r3, [r7, #12]
4441:Drivers/STM32F0xx_HAL_Driver/Src/stm32f0xx_hal_i2c.c **** 
4442:Drivers/STM32F0xx_HAL_Driver/Src/stm32f0xx_hal_i2c.c ****   /* Disable Acknowledge */
4443:Drivers/STM32F0xx_HAL_Driver/Src/stm32f0xx_hal_i2c.c ****   hi2c->Instance->CR2 |= I2C_CR2_NACK;
 11124              		.loc 1 4443 7
 11125 000e FB68     		ldr	r3, [r7, #12]
 11126 0010 1B68     		ldr	r3, [r3]
 11127              		.loc 1 4443 23
 11128 0012 5A68     		ldr	r2, [r3, #4]
 11129              		.loc 1 4443 7
 11130 0014 FB68     		ldr	r3, [r7, #12]
 11131 0016 1B68     		ldr	r3, [r3]
 11132              		.loc 1 4443 23
 11133 0018 8021     		movs	r1, #128
 11134 001a 0902     		lsls	r1, r1, #8
 11135 001c 0A43     		orrs	r2, r1
 11136 001e 5A60     		str	r2, [r3, #4]
4444:Drivers/STM32F0xx_HAL_Driver/Src/stm32f0xx_hal_i2c.c **** 
4445:Drivers/STM32F0xx_HAL_Driver/Src/stm32f0xx_hal_i2c.c ****   /* Reset AbortCpltCallback */
4446:Drivers/STM32F0xx_HAL_Driver/Src/stm32f0xx_hal_i2c.c ****   hi2c->hdmatx->XferAbortCallback = NULL;
 11137              		.loc 1 4446 7
 11138 0020 FB68     		ldr	r3, [r7, #12]
 11139 0022 9B6B     		ldr	r3, [r3, #56]
 11140              		.loc 1 4446 35
 11141 0024 0022     		movs	r2, #0
 11142 0026 5A63     		str	r2, [r3, #52]
4447:Drivers/STM32F0xx_HAL_Driver/Src/stm32f0xx_hal_i2c.c ****   hi2c->hdmarx->XferAbortCallback = NULL;
 11143              		.loc 1 4447 7
 11144 0028 FB68     		ldr	r3, [r7, #12]
 11145 002a DB6B     		ldr	r3, [r3, #60]
 11146              		.loc 1 4447 35
 11147 002c 0022     		movs	r2, #0
 11148 002e 5A63     		str	r2, [r3, #52]
4448:Drivers/STM32F0xx_HAL_Driver/Src/stm32f0xx_hal_i2c.c **** 
ARM GAS  C:\Users\ADMINI~1\AppData\Local\Temp\cc3zYV2m.s 			page 275


4449:Drivers/STM32F0xx_HAL_Driver/Src/stm32f0xx_hal_i2c.c ****   /* Check if come from abort from user */
4450:Drivers/STM32F0xx_HAL_Driver/Src/stm32f0xx_hal_i2c.c ****   if (hi2c->State == HAL_I2C_STATE_ABORT)
 11149              		.loc 1 4450 11
 11150 0030 FB68     		ldr	r3, [r7, #12]
 11151 0032 4122     		movs	r2, #65
 11152 0034 9B5C     		ldrb	r3, [r3, r2]
 11153 0036 DBB2     		uxtb	r3, r3
 11154              		.loc 1 4450 6
 11155 0038 602B     		cmp	r3, #96
 11156 003a 08D1     		bne	.L499
4451:Drivers/STM32F0xx_HAL_Driver/Src/stm32f0xx_hal_i2c.c ****   {
4452:Drivers/STM32F0xx_HAL_Driver/Src/stm32f0xx_hal_i2c.c ****     hi2c->State = HAL_I2C_STATE_READY;
 11157              		.loc 1 4452 17
 11158 003c FB68     		ldr	r3, [r7, #12]
 11159 003e 4122     		movs	r2, #65
 11160 0040 2021     		movs	r1, #32
 11161 0042 9954     		strb	r1, [r3, r2]
4453:Drivers/STM32F0xx_HAL_Driver/Src/stm32f0xx_hal_i2c.c **** 
4454:Drivers/STM32F0xx_HAL_Driver/Src/stm32f0xx_hal_i2c.c ****     /* Call the corresponding callback to inform upper layer of End of Transfer */
4455:Drivers/STM32F0xx_HAL_Driver/Src/stm32f0xx_hal_i2c.c ****     HAL_I2C_AbortCpltCallback(hi2c);
 11162              		.loc 1 4455 5
 11163 0044 FB68     		ldr	r3, [r7, #12]
 11164 0046 1800     		movs	r0, r3
 11165 0048 FFF7FEFF 		bl	HAL_I2C_AbortCpltCallback
4456:Drivers/STM32F0xx_HAL_Driver/Src/stm32f0xx_hal_i2c.c ****   }
4457:Drivers/STM32F0xx_HAL_Driver/Src/stm32f0xx_hal_i2c.c ****   else
4458:Drivers/STM32F0xx_HAL_Driver/Src/stm32f0xx_hal_i2c.c ****   {
4459:Drivers/STM32F0xx_HAL_Driver/Src/stm32f0xx_hal_i2c.c ****     /* Call the corresponding callback to inform upper layer of End of Transfer */
4460:Drivers/STM32F0xx_HAL_Driver/Src/stm32f0xx_hal_i2c.c ****     HAL_I2C_ErrorCallback(hi2c);
4461:Drivers/STM32F0xx_HAL_Driver/Src/stm32f0xx_hal_i2c.c ****   }
4462:Drivers/STM32F0xx_HAL_Driver/Src/stm32f0xx_hal_i2c.c **** }
 11166              		.loc 1 4462 1
 11167 004c 03E0     		b	.L501
 11168              	.L499:
4460:Drivers/STM32F0xx_HAL_Driver/Src/stm32f0xx_hal_i2c.c ****   }
 11169              		.loc 1 4460 5
 11170 004e FB68     		ldr	r3, [r7, #12]
 11171 0050 1800     		movs	r0, r3
 11172 0052 FFF7FEFF 		bl	HAL_I2C_ErrorCallback
 11173              	.L501:
 11174              		.loc 1 4462 1
 11175 0056 C046     		nop
 11176 0058 BD46     		mov	sp, r7
 11177 005a 04B0     		add	sp, sp, #16
 11178              		@ sp needed
 11179 005c 80BD     		pop	{r7, pc}
 11180              		.cfi_endproc
 11181              	.LFE101:
 11183              		.section	.text.I2C_WaitOnFlagUntilTimeout,"ax",%progbits
 11184              		.align	1
 11185              		.syntax unified
 11186              		.code	16
 11187              		.thumb_func
 11188              		.fpu softvfp
 11190              	I2C_WaitOnFlagUntilTimeout:
 11191              	.LFB102:
4463:Drivers/STM32F0xx_HAL_Driver/Src/stm32f0xx_hal_i2c.c **** 
ARM GAS  C:\Users\ADMINI~1\AppData\Local\Temp\cc3zYV2m.s 			page 276


4464:Drivers/STM32F0xx_HAL_Driver/Src/stm32f0xx_hal_i2c.c **** /**
4465:Drivers/STM32F0xx_HAL_Driver/Src/stm32f0xx_hal_i2c.c ****   * @brief  This function handles I2C Communication Timeout.
4466:Drivers/STM32F0xx_HAL_Driver/Src/stm32f0xx_hal_i2c.c ****   * @param  hi2c Pointer to a I2C_HandleTypeDef structure that contains
4467:Drivers/STM32F0xx_HAL_Driver/Src/stm32f0xx_hal_i2c.c ****   *                the configuration information for the specified I2C.
4468:Drivers/STM32F0xx_HAL_Driver/Src/stm32f0xx_hal_i2c.c ****   * @param  Flag Specifies the I2C flag to check.
4469:Drivers/STM32F0xx_HAL_Driver/Src/stm32f0xx_hal_i2c.c ****   * @param  Status The new Flag status (SET or RESET).
4470:Drivers/STM32F0xx_HAL_Driver/Src/stm32f0xx_hal_i2c.c ****   * @param  Timeout Timeout duration
4471:Drivers/STM32F0xx_HAL_Driver/Src/stm32f0xx_hal_i2c.c ****   * @param  Tickstart Tick start value
4472:Drivers/STM32F0xx_HAL_Driver/Src/stm32f0xx_hal_i2c.c ****   * @retval HAL status
4473:Drivers/STM32F0xx_HAL_Driver/Src/stm32f0xx_hal_i2c.c ****   */
4474:Drivers/STM32F0xx_HAL_Driver/Src/stm32f0xx_hal_i2c.c **** static HAL_StatusTypeDef I2C_WaitOnFlagUntilTimeout(I2C_HandleTypeDef *hi2c, uint32_t Flag, FlagSta
4475:Drivers/STM32F0xx_HAL_Driver/Src/stm32f0xx_hal_i2c.c **** {
 11192              		.loc 1 4475 1
 11193              		.cfi_startproc
 11194              		@ args = 4, pretend = 0, frame = 16
 11195              		@ frame_needed = 1, uses_anonymous_args = 0
 11196 0000 80B5     		push	{r7, lr}
 11197              	.LCFI195:
 11198              		.cfi_def_cfa_offset 8
 11199              		.cfi_offset 7, -8
 11200              		.cfi_offset 14, -4
 11201 0002 84B0     		sub	sp, sp, #16
 11202              	.LCFI196:
 11203              		.cfi_def_cfa_offset 24
 11204 0004 00AF     		add	r7, sp, #0
 11205              	.LCFI197:
 11206              		.cfi_def_cfa_register 7
 11207 0006 F860     		str	r0, [r7, #12]
 11208 0008 B960     		str	r1, [r7, #8]
 11209 000a 3B60     		str	r3, [r7]
 11210 000c FB1D     		adds	r3, r7, #7
 11211 000e 1A70     		strb	r2, [r3]
4476:Drivers/STM32F0xx_HAL_Driver/Src/stm32f0xx_hal_i2c.c ****   while (__HAL_I2C_GET_FLAG(hi2c, Flag) == Status)
 11212              		.loc 1 4476 9
 11213 0010 1BE0     		b	.L503
 11214              	.L506:
4477:Drivers/STM32F0xx_HAL_Driver/Src/stm32f0xx_hal_i2c.c ****   {
4478:Drivers/STM32F0xx_HAL_Driver/Src/stm32f0xx_hal_i2c.c ****     /* Check for the Timeout */
4479:Drivers/STM32F0xx_HAL_Driver/Src/stm32f0xx_hal_i2c.c ****     if (Timeout != HAL_MAX_DELAY)
 11215              		.loc 1 4479 8
 11216 0012 3B68     		ldr	r3, [r7]
 11217 0014 0133     		adds	r3, r3, #1
 11218 0016 18D0     		beq	.L503
4480:Drivers/STM32F0xx_HAL_Driver/Src/stm32f0xx_hal_i2c.c ****     {
4481:Drivers/STM32F0xx_HAL_Driver/Src/stm32f0xx_hal_i2c.c ****       if ((Timeout == 0U) || ((HAL_GetTick() - Tickstart) > Timeout))
 11219              		.loc 1 4481 10
 11220 0018 3B68     		ldr	r3, [r7]
 11221 001a 002B     		cmp	r3, #0
 11222 001c 07D0     		beq	.L504
 11223              		.loc 1 4481 32 discriminator 1
 11224 001e FFF7FEFF 		bl	HAL_GetTick
 11225 0022 0200     		movs	r2, r0
 11226              		.loc 1 4481 46 discriminator 1
 11227 0024 BB69     		ldr	r3, [r7, #24]
 11228 0026 D31A     		subs	r3, r2, r3
 11229              		.loc 1 4481 27 discriminator 1
 11230 0028 3A68     		ldr	r2, [r7]
ARM GAS  C:\Users\ADMINI~1\AppData\Local\Temp\cc3zYV2m.s 			page 277


 11231 002a 9A42     		cmp	r2, r3
 11232 002c 0DD2     		bcs	.L503
 11233              	.L504:
4482:Drivers/STM32F0xx_HAL_Driver/Src/stm32f0xx_hal_i2c.c ****       {
4483:Drivers/STM32F0xx_HAL_Driver/Src/stm32f0xx_hal_i2c.c ****         hi2c->State = HAL_I2C_STATE_READY;
 11234              		.loc 1 4483 21
 11235 002e FB68     		ldr	r3, [r7, #12]
 11236 0030 4122     		movs	r2, #65
 11237 0032 2021     		movs	r1, #32
 11238 0034 9954     		strb	r1, [r3, r2]
4484:Drivers/STM32F0xx_HAL_Driver/Src/stm32f0xx_hal_i2c.c ****         hi2c->Mode = HAL_I2C_MODE_NONE;
 11239              		.loc 1 4484 20
 11240 0036 FB68     		ldr	r3, [r7, #12]
 11241 0038 4222     		movs	r2, #66
 11242 003a 0021     		movs	r1, #0
 11243 003c 9954     		strb	r1, [r3, r2]
4485:Drivers/STM32F0xx_HAL_Driver/Src/stm32f0xx_hal_i2c.c **** 
4486:Drivers/STM32F0xx_HAL_Driver/Src/stm32f0xx_hal_i2c.c ****         /* Process Unlocked */
4487:Drivers/STM32F0xx_HAL_Driver/Src/stm32f0xx_hal_i2c.c ****         __HAL_UNLOCK(hi2c);
 11244              		.loc 1 4487 9
 11245 003e FB68     		ldr	r3, [r7, #12]
 11246 0040 4022     		movs	r2, #64
 11247 0042 0021     		movs	r1, #0
 11248 0044 9954     		strb	r1, [r3, r2]
4488:Drivers/STM32F0xx_HAL_Driver/Src/stm32f0xx_hal_i2c.c ****         return HAL_TIMEOUT;
 11249              		.loc 1 4488 16
 11250 0046 0323     		movs	r3, #3
 11251 0048 0FE0     		b	.L505
 11252              	.L503:
4476:Drivers/STM32F0xx_HAL_Driver/Src/stm32f0xx_hal_i2c.c ****   {
 11253              		.loc 1 4476 10
 11254 004a FB68     		ldr	r3, [r7, #12]
 11255 004c 1B68     		ldr	r3, [r3]
 11256 004e 9B69     		ldr	r3, [r3, #24]
 11257 0050 BA68     		ldr	r2, [r7, #8]
 11258 0052 1340     		ands	r3, r2
 11259 0054 BA68     		ldr	r2, [r7, #8]
 11260 0056 D31A     		subs	r3, r2, r3
 11261 0058 5A42     		rsbs	r2, r3, #0
 11262 005a 5341     		adcs	r3, r3, r2
 11263 005c DBB2     		uxtb	r3, r3
 11264 005e 1A00     		movs	r2, r3
4476:Drivers/STM32F0xx_HAL_Driver/Src/stm32f0xx_hal_i2c.c ****   {
 11265              		.loc 1 4476 41
 11266 0060 FB1D     		adds	r3, r7, #7
 11267 0062 1B78     		ldrb	r3, [r3]
4476:Drivers/STM32F0xx_HAL_Driver/Src/stm32f0xx_hal_i2c.c ****   {
 11268              		.loc 1 4476 9
 11269 0064 9A42     		cmp	r2, r3
 11270 0066 D4D0     		beq	.L506
4489:Drivers/STM32F0xx_HAL_Driver/Src/stm32f0xx_hal_i2c.c ****       }
4490:Drivers/STM32F0xx_HAL_Driver/Src/stm32f0xx_hal_i2c.c ****     }
4491:Drivers/STM32F0xx_HAL_Driver/Src/stm32f0xx_hal_i2c.c ****   }
4492:Drivers/STM32F0xx_HAL_Driver/Src/stm32f0xx_hal_i2c.c ****   return HAL_OK;
 11271              		.loc 1 4492 10
 11272 0068 0023     		movs	r3, #0
 11273              	.L505:
ARM GAS  C:\Users\ADMINI~1\AppData\Local\Temp\cc3zYV2m.s 			page 278


4493:Drivers/STM32F0xx_HAL_Driver/Src/stm32f0xx_hal_i2c.c **** }
 11274              		.loc 1 4493 1
 11275 006a 1800     		movs	r0, r3
 11276 006c BD46     		mov	sp, r7
 11277 006e 04B0     		add	sp, sp, #16
 11278              		@ sp needed
 11279 0070 80BD     		pop	{r7, pc}
 11280              		.cfi_endproc
 11281              	.LFE102:
 11283              		.section	.text.I2C_WaitOnTXISFlagUntilTimeout,"ax",%progbits
 11284              		.align	1
 11285              		.syntax unified
 11286              		.code	16
 11287              		.thumb_func
 11288              		.fpu softvfp
 11290              	I2C_WaitOnTXISFlagUntilTimeout:
 11291              	.LFB103:
4494:Drivers/STM32F0xx_HAL_Driver/Src/stm32f0xx_hal_i2c.c **** 
4495:Drivers/STM32F0xx_HAL_Driver/Src/stm32f0xx_hal_i2c.c **** /**
4496:Drivers/STM32F0xx_HAL_Driver/Src/stm32f0xx_hal_i2c.c ****   * @brief  This function handles I2C Communication Timeout for specific usage of TXIS flag.
4497:Drivers/STM32F0xx_HAL_Driver/Src/stm32f0xx_hal_i2c.c ****   * @param  hi2c Pointer to a I2C_HandleTypeDef structure that contains
4498:Drivers/STM32F0xx_HAL_Driver/Src/stm32f0xx_hal_i2c.c ****   *                the configuration information for the specified I2C.
4499:Drivers/STM32F0xx_HAL_Driver/Src/stm32f0xx_hal_i2c.c ****   * @param  Timeout Timeout duration
4500:Drivers/STM32F0xx_HAL_Driver/Src/stm32f0xx_hal_i2c.c ****   * @param  Tickstart Tick start value
4501:Drivers/STM32F0xx_HAL_Driver/Src/stm32f0xx_hal_i2c.c ****   * @retval HAL status
4502:Drivers/STM32F0xx_HAL_Driver/Src/stm32f0xx_hal_i2c.c ****   */
4503:Drivers/STM32F0xx_HAL_Driver/Src/stm32f0xx_hal_i2c.c **** static HAL_StatusTypeDef I2C_WaitOnTXISFlagUntilTimeout(I2C_HandleTypeDef *hi2c, uint32_t Timeout, 
4504:Drivers/STM32F0xx_HAL_Driver/Src/stm32f0xx_hal_i2c.c **** {
 11292              		.loc 1 4504 1
 11293              		.cfi_startproc
 11294              		@ args = 0, pretend = 0, frame = 16
 11295              		@ frame_needed = 1, uses_anonymous_args = 0
 11296 0000 80B5     		push	{r7, lr}
 11297              	.LCFI198:
 11298              		.cfi_def_cfa_offset 8
 11299              		.cfi_offset 7, -8
 11300              		.cfi_offset 14, -4
 11301 0002 84B0     		sub	sp, sp, #16
 11302              	.LCFI199:
 11303              		.cfi_def_cfa_offset 24
 11304 0004 00AF     		add	r7, sp, #0
 11305              	.LCFI200:
 11306              		.cfi_def_cfa_register 7
 11307 0006 F860     		str	r0, [r7, #12]
 11308 0008 B960     		str	r1, [r7, #8]
 11309 000a 7A60     		str	r2, [r7, #4]
4505:Drivers/STM32F0xx_HAL_Driver/Src/stm32f0xx_hal_i2c.c ****   while (__HAL_I2C_GET_FLAG(hi2c, I2C_FLAG_TXIS) == RESET)
 11310              		.loc 1 4505 9
 11311 000c 2BE0     		b	.L508
 11312              	.L512:
4506:Drivers/STM32F0xx_HAL_Driver/Src/stm32f0xx_hal_i2c.c ****   {
4507:Drivers/STM32F0xx_HAL_Driver/Src/stm32f0xx_hal_i2c.c ****     /* Check if a NACK is detected */
4508:Drivers/STM32F0xx_HAL_Driver/Src/stm32f0xx_hal_i2c.c ****     if (I2C_IsAcknowledgeFailed(hi2c, Timeout, Tickstart) != HAL_OK)
 11313              		.loc 1 4508 9
 11314 000e 7A68     		ldr	r2, [r7, #4]
 11315 0010 B968     		ldr	r1, [r7, #8]
 11316 0012 FB68     		ldr	r3, [r7, #12]
ARM GAS  C:\Users\ADMINI~1\AppData\Local\Temp\cc3zYV2m.s 			page 279


 11317 0014 1800     		movs	r0, r3
 11318 0016 FFF7FEFF 		bl	I2C_IsAcknowledgeFailed
 11319 001a 031E     		subs	r3, r0, #0
 11320              		.loc 1 4508 8
 11321 001c 01D0     		beq	.L509
4509:Drivers/STM32F0xx_HAL_Driver/Src/stm32f0xx_hal_i2c.c ****     {
4510:Drivers/STM32F0xx_HAL_Driver/Src/stm32f0xx_hal_i2c.c ****       return HAL_ERROR;
 11322              		.loc 1 4510 14
 11323 001e 0123     		movs	r3, #1
 11324 0020 29E0     		b	.L510
 11325              	.L509:
4511:Drivers/STM32F0xx_HAL_Driver/Src/stm32f0xx_hal_i2c.c ****     }
4512:Drivers/STM32F0xx_HAL_Driver/Src/stm32f0xx_hal_i2c.c **** 
4513:Drivers/STM32F0xx_HAL_Driver/Src/stm32f0xx_hal_i2c.c ****     /* Check for the Timeout */
4514:Drivers/STM32F0xx_HAL_Driver/Src/stm32f0xx_hal_i2c.c ****     if (Timeout != HAL_MAX_DELAY)
 11326              		.loc 1 4514 8
 11327 0022 BB68     		ldr	r3, [r7, #8]
 11328 0024 0133     		adds	r3, r3, #1
 11329 0026 1ED0     		beq	.L508
4515:Drivers/STM32F0xx_HAL_Driver/Src/stm32f0xx_hal_i2c.c ****     {
4516:Drivers/STM32F0xx_HAL_Driver/Src/stm32f0xx_hal_i2c.c ****       if ((Timeout == 0U) || ((HAL_GetTick() - Tickstart) > Timeout))
 11330              		.loc 1 4516 10
 11331 0028 BB68     		ldr	r3, [r7, #8]
 11332 002a 002B     		cmp	r3, #0
 11333 002c 07D0     		beq	.L511
 11334              		.loc 1 4516 32 discriminator 1
 11335 002e FFF7FEFF 		bl	HAL_GetTick
 11336 0032 0200     		movs	r2, r0
 11337              		.loc 1 4516 46 discriminator 1
 11338 0034 7B68     		ldr	r3, [r7, #4]
 11339 0036 D31A     		subs	r3, r2, r3
 11340              		.loc 1 4516 27 discriminator 1
 11341 0038 BA68     		ldr	r2, [r7, #8]
 11342 003a 9A42     		cmp	r2, r3
 11343 003c 13D2     		bcs	.L508
 11344              	.L511:
4517:Drivers/STM32F0xx_HAL_Driver/Src/stm32f0xx_hal_i2c.c ****       {
4518:Drivers/STM32F0xx_HAL_Driver/Src/stm32f0xx_hal_i2c.c ****         hi2c->ErrorCode |= HAL_I2C_ERROR_TIMEOUT;
 11345              		.loc 1 4518 25
 11346 003e FB68     		ldr	r3, [r7, #12]
 11347 0040 5B6C     		ldr	r3, [r3, #68]
 11348 0042 2022     		movs	r2, #32
 11349 0044 1A43     		orrs	r2, r3
 11350 0046 FB68     		ldr	r3, [r7, #12]
 11351 0048 5A64     		str	r2, [r3, #68]
4519:Drivers/STM32F0xx_HAL_Driver/Src/stm32f0xx_hal_i2c.c ****         hi2c->State = HAL_I2C_STATE_READY;
 11352              		.loc 1 4519 21
 11353 004a FB68     		ldr	r3, [r7, #12]
 11354 004c 4122     		movs	r2, #65
 11355 004e 2021     		movs	r1, #32
 11356 0050 9954     		strb	r1, [r3, r2]
4520:Drivers/STM32F0xx_HAL_Driver/Src/stm32f0xx_hal_i2c.c ****         hi2c->Mode = HAL_I2C_MODE_NONE;
 11357              		.loc 1 4520 20
 11358 0052 FB68     		ldr	r3, [r7, #12]
 11359 0054 4222     		movs	r2, #66
 11360 0056 0021     		movs	r1, #0
 11361 0058 9954     		strb	r1, [r3, r2]
ARM GAS  C:\Users\ADMINI~1\AppData\Local\Temp\cc3zYV2m.s 			page 280


4521:Drivers/STM32F0xx_HAL_Driver/Src/stm32f0xx_hal_i2c.c **** 
4522:Drivers/STM32F0xx_HAL_Driver/Src/stm32f0xx_hal_i2c.c ****         /* Process Unlocked */
4523:Drivers/STM32F0xx_HAL_Driver/Src/stm32f0xx_hal_i2c.c ****         __HAL_UNLOCK(hi2c);
 11362              		.loc 1 4523 9
 11363 005a FB68     		ldr	r3, [r7, #12]
 11364 005c 4022     		movs	r2, #64
 11365 005e 0021     		movs	r1, #0
 11366 0060 9954     		strb	r1, [r3, r2]
4524:Drivers/STM32F0xx_HAL_Driver/Src/stm32f0xx_hal_i2c.c **** 
4525:Drivers/STM32F0xx_HAL_Driver/Src/stm32f0xx_hal_i2c.c ****         return HAL_TIMEOUT;
 11367              		.loc 1 4525 16
 11368 0062 0323     		movs	r3, #3
 11369 0064 07E0     		b	.L510
 11370              	.L508:
4505:Drivers/STM32F0xx_HAL_Driver/Src/stm32f0xx_hal_i2c.c ****   {
 11371              		.loc 1 4505 10
 11372 0066 FB68     		ldr	r3, [r7, #12]
 11373 0068 1B68     		ldr	r3, [r3]
 11374 006a 9B69     		ldr	r3, [r3, #24]
 11375 006c 0222     		movs	r2, #2
 11376 006e 1340     		ands	r3, r2
4505:Drivers/STM32F0xx_HAL_Driver/Src/stm32f0xx_hal_i2c.c ****   {
 11377              		.loc 1 4505 9
 11378 0070 022B     		cmp	r3, #2
 11379 0072 CCD1     		bne	.L512
4526:Drivers/STM32F0xx_HAL_Driver/Src/stm32f0xx_hal_i2c.c ****       }
4527:Drivers/STM32F0xx_HAL_Driver/Src/stm32f0xx_hal_i2c.c ****     }
4528:Drivers/STM32F0xx_HAL_Driver/Src/stm32f0xx_hal_i2c.c ****   }
4529:Drivers/STM32F0xx_HAL_Driver/Src/stm32f0xx_hal_i2c.c ****   return HAL_OK;
 11380              		.loc 1 4529 10
 11381 0074 0023     		movs	r3, #0
 11382              	.L510:
4530:Drivers/STM32F0xx_HAL_Driver/Src/stm32f0xx_hal_i2c.c **** }
 11383              		.loc 1 4530 1
 11384 0076 1800     		movs	r0, r3
 11385 0078 BD46     		mov	sp, r7
 11386 007a 04B0     		add	sp, sp, #16
 11387              		@ sp needed
 11388 007c 80BD     		pop	{r7, pc}
 11389              		.cfi_endproc
 11390              	.LFE103:
 11392              		.section	.text.I2C_WaitOnSTOPFlagUntilTimeout,"ax",%progbits
 11393              		.align	1
 11394              		.syntax unified
 11395              		.code	16
 11396              		.thumb_func
 11397              		.fpu softvfp
 11399              	I2C_WaitOnSTOPFlagUntilTimeout:
 11400              	.LFB104:
4531:Drivers/STM32F0xx_HAL_Driver/Src/stm32f0xx_hal_i2c.c **** 
4532:Drivers/STM32F0xx_HAL_Driver/Src/stm32f0xx_hal_i2c.c **** /**
4533:Drivers/STM32F0xx_HAL_Driver/Src/stm32f0xx_hal_i2c.c ****   * @brief  This function handles I2C Communication Timeout for specific usage of STOP flag.
4534:Drivers/STM32F0xx_HAL_Driver/Src/stm32f0xx_hal_i2c.c ****   * @param  hi2c Pointer to a I2C_HandleTypeDef structure that contains
4535:Drivers/STM32F0xx_HAL_Driver/Src/stm32f0xx_hal_i2c.c ****   *                the configuration information for the specified I2C.
4536:Drivers/STM32F0xx_HAL_Driver/Src/stm32f0xx_hal_i2c.c ****   * @param  Timeout Timeout duration
4537:Drivers/STM32F0xx_HAL_Driver/Src/stm32f0xx_hal_i2c.c ****   * @param  Tickstart Tick start value
4538:Drivers/STM32F0xx_HAL_Driver/Src/stm32f0xx_hal_i2c.c ****   * @retval HAL status
ARM GAS  C:\Users\ADMINI~1\AppData\Local\Temp\cc3zYV2m.s 			page 281


4539:Drivers/STM32F0xx_HAL_Driver/Src/stm32f0xx_hal_i2c.c ****   */
4540:Drivers/STM32F0xx_HAL_Driver/Src/stm32f0xx_hal_i2c.c **** static HAL_StatusTypeDef I2C_WaitOnSTOPFlagUntilTimeout(I2C_HandleTypeDef *hi2c, uint32_t Timeout, 
4541:Drivers/STM32F0xx_HAL_Driver/Src/stm32f0xx_hal_i2c.c **** {
 11401              		.loc 1 4541 1
 11402              		.cfi_startproc
 11403              		@ args = 0, pretend = 0, frame = 16
 11404              		@ frame_needed = 1, uses_anonymous_args = 0
 11405 0000 80B5     		push	{r7, lr}
 11406              	.LCFI201:
 11407              		.cfi_def_cfa_offset 8
 11408              		.cfi_offset 7, -8
 11409              		.cfi_offset 14, -4
 11410 0002 84B0     		sub	sp, sp, #16
 11411              	.LCFI202:
 11412              		.cfi_def_cfa_offset 24
 11413 0004 00AF     		add	r7, sp, #0
 11414              	.LCFI203:
 11415              		.cfi_def_cfa_register 7
 11416 0006 F860     		str	r0, [r7, #12]
 11417 0008 B960     		str	r1, [r7, #8]
 11418 000a 7A60     		str	r2, [r7, #4]
4542:Drivers/STM32F0xx_HAL_Driver/Src/stm32f0xx_hal_i2c.c ****   while (__HAL_I2C_GET_FLAG(hi2c, I2C_FLAG_STOPF) == RESET)
 11419              		.loc 1 4542 9
 11420 000c 28E0     		b	.L514
 11421              	.L518:
4543:Drivers/STM32F0xx_HAL_Driver/Src/stm32f0xx_hal_i2c.c ****   {
4544:Drivers/STM32F0xx_HAL_Driver/Src/stm32f0xx_hal_i2c.c ****     /* Check if a NACK is detected */
4545:Drivers/STM32F0xx_HAL_Driver/Src/stm32f0xx_hal_i2c.c ****     if (I2C_IsAcknowledgeFailed(hi2c, Timeout, Tickstart) != HAL_OK)
 11422              		.loc 1 4545 9
 11423 000e 7A68     		ldr	r2, [r7, #4]
 11424 0010 B968     		ldr	r1, [r7, #8]
 11425 0012 FB68     		ldr	r3, [r7, #12]
 11426 0014 1800     		movs	r0, r3
 11427 0016 FFF7FEFF 		bl	I2C_IsAcknowledgeFailed
 11428 001a 031E     		subs	r3, r0, #0
 11429              		.loc 1 4545 8
 11430 001c 01D0     		beq	.L515
4546:Drivers/STM32F0xx_HAL_Driver/Src/stm32f0xx_hal_i2c.c ****     {
4547:Drivers/STM32F0xx_HAL_Driver/Src/stm32f0xx_hal_i2c.c ****       return HAL_ERROR;
 11431              		.loc 1 4547 14
 11432 001e 0123     		movs	r3, #1
 11433 0020 26E0     		b	.L516
 11434              	.L515:
4548:Drivers/STM32F0xx_HAL_Driver/Src/stm32f0xx_hal_i2c.c ****     }
4549:Drivers/STM32F0xx_HAL_Driver/Src/stm32f0xx_hal_i2c.c **** 
4550:Drivers/STM32F0xx_HAL_Driver/Src/stm32f0xx_hal_i2c.c ****     /* Check for the Timeout */
4551:Drivers/STM32F0xx_HAL_Driver/Src/stm32f0xx_hal_i2c.c ****     if ((Timeout == 0U) || ((HAL_GetTick() - Tickstart) > Timeout))
 11435              		.loc 1 4551 8
 11436 0022 BB68     		ldr	r3, [r7, #8]
 11437 0024 002B     		cmp	r3, #0
 11438 0026 07D0     		beq	.L517
 11439              		.loc 1 4551 30 discriminator 1
 11440 0028 FFF7FEFF 		bl	HAL_GetTick
 11441 002c 0200     		movs	r2, r0
 11442              		.loc 1 4551 44 discriminator 1
 11443 002e 7B68     		ldr	r3, [r7, #4]
 11444 0030 D31A     		subs	r3, r2, r3
ARM GAS  C:\Users\ADMINI~1\AppData\Local\Temp\cc3zYV2m.s 			page 282


 11445              		.loc 1 4551 25 discriminator 1
 11446 0032 BA68     		ldr	r2, [r7, #8]
 11447 0034 9A42     		cmp	r2, r3
 11448 0036 13D2     		bcs	.L514
 11449              	.L517:
4552:Drivers/STM32F0xx_HAL_Driver/Src/stm32f0xx_hal_i2c.c ****     {
4553:Drivers/STM32F0xx_HAL_Driver/Src/stm32f0xx_hal_i2c.c ****       hi2c->ErrorCode |= HAL_I2C_ERROR_TIMEOUT;
 11450              		.loc 1 4553 23
 11451 0038 FB68     		ldr	r3, [r7, #12]
 11452 003a 5B6C     		ldr	r3, [r3, #68]
 11453 003c 2022     		movs	r2, #32
 11454 003e 1A43     		orrs	r2, r3
 11455 0040 FB68     		ldr	r3, [r7, #12]
 11456 0042 5A64     		str	r2, [r3, #68]
4554:Drivers/STM32F0xx_HAL_Driver/Src/stm32f0xx_hal_i2c.c ****       hi2c->State = HAL_I2C_STATE_READY;
 11457              		.loc 1 4554 19
 11458 0044 FB68     		ldr	r3, [r7, #12]
 11459 0046 4122     		movs	r2, #65
 11460 0048 2021     		movs	r1, #32
 11461 004a 9954     		strb	r1, [r3, r2]
4555:Drivers/STM32F0xx_HAL_Driver/Src/stm32f0xx_hal_i2c.c ****       hi2c->Mode = HAL_I2C_MODE_NONE;
 11462              		.loc 1 4555 18
 11463 004c FB68     		ldr	r3, [r7, #12]
 11464 004e 4222     		movs	r2, #66
 11465 0050 0021     		movs	r1, #0
 11466 0052 9954     		strb	r1, [r3, r2]
4556:Drivers/STM32F0xx_HAL_Driver/Src/stm32f0xx_hal_i2c.c **** 
4557:Drivers/STM32F0xx_HAL_Driver/Src/stm32f0xx_hal_i2c.c ****       /* Process Unlocked */
4558:Drivers/STM32F0xx_HAL_Driver/Src/stm32f0xx_hal_i2c.c ****       __HAL_UNLOCK(hi2c);
 11467              		.loc 1 4558 7
 11468 0054 FB68     		ldr	r3, [r7, #12]
 11469 0056 4022     		movs	r2, #64
 11470 0058 0021     		movs	r1, #0
 11471 005a 9954     		strb	r1, [r3, r2]
4559:Drivers/STM32F0xx_HAL_Driver/Src/stm32f0xx_hal_i2c.c **** 
4560:Drivers/STM32F0xx_HAL_Driver/Src/stm32f0xx_hal_i2c.c ****       return HAL_TIMEOUT;
 11472              		.loc 1 4560 14
 11473 005c 0323     		movs	r3, #3
 11474 005e 07E0     		b	.L516
 11475              	.L514:
4542:Drivers/STM32F0xx_HAL_Driver/Src/stm32f0xx_hal_i2c.c ****   {
 11476              		.loc 1 4542 10
 11477 0060 FB68     		ldr	r3, [r7, #12]
 11478 0062 1B68     		ldr	r3, [r3]
 11479 0064 9B69     		ldr	r3, [r3, #24]
 11480 0066 2022     		movs	r2, #32
 11481 0068 1340     		ands	r3, r2
4542:Drivers/STM32F0xx_HAL_Driver/Src/stm32f0xx_hal_i2c.c ****   {
 11482              		.loc 1 4542 9
 11483 006a 202B     		cmp	r3, #32
 11484 006c CFD1     		bne	.L518
4561:Drivers/STM32F0xx_HAL_Driver/Src/stm32f0xx_hal_i2c.c ****     }
4562:Drivers/STM32F0xx_HAL_Driver/Src/stm32f0xx_hal_i2c.c ****   }
4563:Drivers/STM32F0xx_HAL_Driver/Src/stm32f0xx_hal_i2c.c ****   return HAL_OK;
 11485              		.loc 1 4563 10
 11486 006e 0023     		movs	r3, #0
 11487              	.L516:
ARM GAS  C:\Users\ADMINI~1\AppData\Local\Temp\cc3zYV2m.s 			page 283


4564:Drivers/STM32F0xx_HAL_Driver/Src/stm32f0xx_hal_i2c.c **** }
 11488              		.loc 1 4564 1
 11489 0070 1800     		movs	r0, r3
 11490 0072 BD46     		mov	sp, r7
 11491 0074 04B0     		add	sp, sp, #16
 11492              		@ sp needed
 11493 0076 80BD     		pop	{r7, pc}
 11494              		.cfi_endproc
 11495              	.LFE104:
 11497              		.section	.text.I2C_WaitOnRXNEFlagUntilTimeout,"ax",%progbits
 11498              		.align	1
 11499              		.syntax unified
 11500              		.code	16
 11501              		.thumb_func
 11502              		.fpu softvfp
 11504              	I2C_WaitOnRXNEFlagUntilTimeout:
 11505              	.LFB105:
4565:Drivers/STM32F0xx_HAL_Driver/Src/stm32f0xx_hal_i2c.c **** 
4566:Drivers/STM32F0xx_HAL_Driver/Src/stm32f0xx_hal_i2c.c **** /**
4567:Drivers/STM32F0xx_HAL_Driver/Src/stm32f0xx_hal_i2c.c ****   * @brief  This function handles I2C Communication Timeout for specific usage of RXNE flag.
4568:Drivers/STM32F0xx_HAL_Driver/Src/stm32f0xx_hal_i2c.c ****   * @param  hi2c Pointer to a I2C_HandleTypeDef structure that contains
4569:Drivers/STM32F0xx_HAL_Driver/Src/stm32f0xx_hal_i2c.c ****   *                the configuration information for the specified I2C.
4570:Drivers/STM32F0xx_HAL_Driver/Src/stm32f0xx_hal_i2c.c ****   * @param  Timeout Timeout duration
4571:Drivers/STM32F0xx_HAL_Driver/Src/stm32f0xx_hal_i2c.c ****   * @param  Tickstart Tick start value
4572:Drivers/STM32F0xx_HAL_Driver/Src/stm32f0xx_hal_i2c.c ****   * @retval HAL status
4573:Drivers/STM32F0xx_HAL_Driver/Src/stm32f0xx_hal_i2c.c ****   */
4574:Drivers/STM32F0xx_HAL_Driver/Src/stm32f0xx_hal_i2c.c **** static HAL_StatusTypeDef I2C_WaitOnRXNEFlagUntilTimeout(I2C_HandleTypeDef *hi2c, uint32_t Timeout, 
4575:Drivers/STM32F0xx_HAL_Driver/Src/stm32f0xx_hal_i2c.c **** {
 11506              		.loc 1 4575 1
 11507              		.cfi_startproc
 11508              		@ args = 0, pretend = 0, frame = 16
 11509              		@ frame_needed = 1, uses_anonymous_args = 0
 11510 0000 80B5     		push	{r7, lr}
 11511              	.LCFI204:
 11512              		.cfi_def_cfa_offset 8
 11513              		.cfi_offset 7, -8
 11514              		.cfi_offset 14, -4
 11515 0002 84B0     		sub	sp, sp, #16
 11516              	.LCFI205:
 11517              		.cfi_def_cfa_offset 24
 11518 0004 00AF     		add	r7, sp, #0
 11519              	.LCFI206:
 11520              		.cfi_def_cfa_register 7
 11521 0006 F860     		str	r0, [r7, #12]
 11522 0008 B960     		str	r1, [r7, #8]
 11523 000a 7A60     		str	r2, [r7, #4]
4576:Drivers/STM32F0xx_HAL_Driver/Src/stm32f0xx_hal_i2c.c ****   while (__HAL_I2C_GET_FLAG(hi2c, I2C_FLAG_RXNE) == RESET)
 11524              		.loc 1 4576 9
 11525 000c 48E0     		b	.L520
 11526              	.L525:
4577:Drivers/STM32F0xx_HAL_Driver/Src/stm32f0xx_hal_i2c.c ****   {
4578:Drivers/STM32F0xx_HAL_Driver/Src/stm32f0xx_hal_i2c.c ****     /* Check if a NACK is detected */
4579:Drivers/STM32F0xx_HAL_Driver/Src/stm32f0xx_hal_i2c.c ****     if (I2C_IsAcknowledgeFailed(hi2c, Timeout, Tickstart) != HAL_OK)
 11527              		.loc 1 4579 9
 11528 000e 7A68     		ldr	r2, [r7, #4]
 11529 0010 B968     		ldr	r1, [r7, #8]
 11530 0012 FB68     		ldr	r3, [r7, #12]
ARM GAS  C:\Users\ADMINI~1\AppData\Local\Temp\cc3zYV2m.s 			page 284


 11531 0014 1800     		movs	r0, r3
 11532 0016 FFF7FEFF 		bl	I2C_IsAcknowledgeFailed
 11533 001a 031E     		subs	r3, r0, #0
 11534              		.loc 1 4579 8
 11535 001c 01D0     		beq	.L521
4580:Drivers/STM32F0xx_HAL_Driver/Src/stm32f0xx_hal_i2c.c ****     {
4581:Drivers/STM32F0xx_HAL_Driver/Src/stm32f0xx_hal_i2c.c ****       return HAL_ERROR;
 11536              		.loc 1 4581 14
 11537 001e 0123     		movs	r3, #1
 11538 0020 46E0     		b	.L522
 11539              	.L521:
4582:Drivers/STM32F0xx_HAL_Driver/Src/stm32f0xx_hal_i2c.c ****     }
4583:Drivers/STM32F0xx_HAL_Driver/Src/stm32f0xx_hal_i2c.c **** 
4584:Drivers/STM32F0xx_HAL_Driver/Src/stm32f0xx_hal_i2c.c ****     /* Check if a STOPF is detected */
4585:Drivers/STM32F0xx_HAL_Driver/Src/stm32f0xx_hal_i2c.c ****     if (__HAL_I2C_GET_FLAG(hi2c, I2C_FLAG_STOPF) == SET)
 11540              		.loc 1 4585 9
 11541 0022 FB68     		ldr	r3, [r7, #12]
 11542 0024 1B68     		ldr	r3, [r3]
 11543 0026 9B69     		ldr	r3, [r3, #24]
 11544 0028 2022     		movs	r2, #32
 11545 002a 1340     		ands	r3, r2
 11546              		.loc 1 4585 8
 11547 002c 202B     		cmp	r3, #32
 11548 002e 1CD1     		bne	.L523
4586:Drivers/STM32F0xx_HAL_Driver/Src/stm32f0xx_hal_i2c.c ****     {
4587:Drivers/STM32F0xx_HAL_Driver/Src/stm32f0xx_hal_i2c.c ****       /* Clear STOP Flag */
4588:Drivers/STM32F0xx_HAL_Driver/Src/stm32f0xx_hal_i2c.c ****       __HAL_I2C_CLEAR_FLAG(hi2c, I2C_FLAG_STOPF);
 11549              		.loc 1 4588 7
 11550 0030 FB68     		ldr	r3, [r7, #12]
 11551 0032 1B68     		ldr	r3, [r3]
 11552 0034 2022     		movs	r2, #32
 11553 0036 DA61     		str	r2, [r3, #28]
4589:Drivers/STM32F0xx_HAL_Driver/Src/stm32f0xx_hal_i2c.c **** 
4590:Drivers/STM32F0xx_HAL_Driver/Src/stm32f0xx_hal_i2c.c ****       /* Clear Configuration Register 2 */
4591:Drivers/STM32F0xx_HAL_Driver/Src/stm32f0xx_hal_i2c.c ****       I2C_RESET_CR2(hi2c);
 11554              		.loc 1 4591 7
 11555 0038 FB68     		ldr	r3, [r7, #12]
 11556 003a 1B68     		ldr	r3, [r3]
 11557 003c 5A68     		ldr	r2, [r3, #4]
 11558 003e FB68     		ldr	r3, [r7, #12]
 11559 0040 1B68     		ldr	r3, [r3]
 11560 0042 1D49     		ldr	r1, .L526
 11561 0044 0A40     		ands	r2, r1
 11562 0046 5A60     		str	r2, [r3, #4]
4592:Drivers/STM32F0xx_HAL_Driver/Src/stm32f0xx_hal_i2c.c **** 
4593:Drivers/STM32F0xx_HAL_Driver/Src/stm32f0xx_hal_i2c.c ****       hi2c->ErrorCode = HAL_I2C_ERROR_NONE;
 11563              		.loc 1 4593 23
 11564 0048 FB68     		ldr	r3, [r7, #12]
 11565 004a 0022     		movs	r2, #0
 11566 004c 5A64     		str	r2, [r3, #68]
4594:Drivers/STM32F0xx_HAL_Driver/Src/stm32f0xx_hal_i2c.c ****       hi2c->State = HAL_I2C_STATE_READY;
 11567              		.loc 1 4594 19
 11568 004e FB68     		ldr	r3, [r7, #12]
 11569 0050 4122     		movs	r2, #65
 11570 0052 2021     		movs	r1, #32
 11571 0054 9954     		strb	r1, [r3, r2]
4595:Drivers/STM32F0xx_HAL_Driver/Src/stm32f0xx_hal_i2c.c ****       hi2c->Mode = HAL_I2C_MODE_NONE;
ARM GAS  C:\Users\ADMINI~1\AppData\Local\Temp\cc3zYV2m.s 			page 285


 11572              		.loc 1 4595 18
 11573 0056 FB68     		ldr	r3, [r7, #12]
 11574 0058 4222     		movs	r2, #66
 11575 005a 0021     		movs	r1, #0
 11576 005c 9954     		strb	r1, [r3, r2]
4596:Drivers/STM32F0xx_HAL_Driver/Src/stm32f0xx_hal_i2c.c **** 
4597:Drivers/STM32F0xx_HAL_Driver/Src/stm32f0xx_hal_i2c.c ****       /* Process Unlocked */
4598:Drivers/STM32F0xx_HAL_Driver/Src/stm32f0xx_hal_i2c.c ****       __HAL_UNLOCK(hi2c);
 11577              		.loc 1 4598 7
 11578 005e FB68     		ldr	r3, [r7, #12]
 11579 0060 4022     		movs	r2, #64
 11580 0062 0021     		movs	r1, #0
 11581 0064 9954     		strb	r1, [r3, r2]
4599:Drivers/STM32F0xx_HAL_Driver/Src/stm32f0xx_hal_i2c.c **** 
4600:Drivers/STM32F0xx_HAL_Driver/Src/stm32f0xx_hal_i2c.c ****       return HAL_ERROR;
 11582              		.loc 1 4600 14
 11583 0066 0123     		movs	r3, #1
 11584 0068 22E0     		b	.L522
 11585              	.L523:
4601:Drivers/STM32F0xx_HAL_Driver/Src/stm32f0xx_hal_i2c.c ****     }
4602:Drivers/STM32F0xx_HAL_Driver/Src/stm32f0xx_hal_i2c.c **** 
4603:Drivers/STM32F0xx_HAL_Driver/Src/stm32f0xx_hal_i2c.c ****     /* Check for the Timeout */
4604:Drivers/STM32F0xx_HAL_Driver/Src/stm32f0xx_hal_i2c.c ****     if ((Timeout == 0U) || ((HAL_GetTick() - Tickstart) > Timeout))
 11586              		.loc 1 4604 8
 11587 006a BB68     		ldr	r3, [r7, #8]
 11588 006c 002B     		cmp	r3, #0
 11589 006e 07D0     		beq	.L524
 11590              		.loc 1 4604 30 discriminator 1
 11591 0070 FFF7FEFF 		bl	HAL_GetTick
 11592 0074 0200     		movs	r2, r0
 11593              		.loc 1 4604 44 discriminator 1
 11594 0076 7B68     		ldr	r3, [r7, #4]
 11595 0078 D31A     		subs	r3, r2, r3
 11596              		.loc 1 4604 25 discriminator 1
 11597 007a BA68     		ldr	r2, [r7, #8]
 11598 007c 9A42     		cmp	r2, r3
 11599 007e 0FD2     		bcs	.L520
 11600              	.L524:
4605:Drivers/STM32F0xx_HAL_Driver/Src/stm32f0xx_hal_i2c.c ****     {
4606:Drivers/STM32F0xx_HAL_Driver/Src/stm32f0xx_hal_i2c.c ****       hi2c->ErrorCode |= HAL_I2C_ERROR_TIMEOUT;
 11601              		.loc 1 4606 23
 11602 0080 FB68     		ldr	r3, [r7, #12]
 11603 0082 5B6C     		ldr	r3, [r3, #68]
 11604 0084 2022     		movs	r2, #32
 11605 0086 1A43     		orrs	r2, r3
 11606 0088 FB68     		ldr	r3, [r7, #12]
 11607 008a 5A64     		str	r2, [r3, #68]
4607:Drivers/STM32F0xx_HAL_Driver/Src/stm32f0xx_hal_i2c.c ****       hi2c->State = HAL_I2C_STATE_READY;
 11608              		.loc 1 4607 19
 11609 008c FB68     		ldr	r3, [r7, #12]
 11610 008e 4122     		movs	r2, #65
 11611 0090 2021     		movs	r1, #32
 11612 0092 9954     		strb	r1, [r3, r2]
4608:Drivers/STM32F0xx_HAL_Driver/Src/stm32f0xx_hal_i2c.c **** 
4609:Drivers/STM32F0xx_HAL_Driver/Src/stm32f0xx_hal_i2c.c ****       /* Process Unlocked */
4610:Drivers/STM32F0xx_HAL_Driver/Src/stm32f0xx_hal_i2c.c ****       __HAL_UNLOCK(hi2c);
 11613              		.loc 1 4610 7
ARM GAS  C:\Users\ADMINI~1\AppData\Local\Temp\cc3zYV2m.s 			page 286


 11614 0094 FB68     		ldr	r3, [r7, #12]
 11615 0096 4022     		movs	r2, #64
 11616 0098 0021     		movs	r1, #0
 11617 009a 9954     		strb	r1, [r3, r2]
4611:Drivers/STM32F0xx_HAL_Driver/Src/stm32f0xx_hal_i2c.c **** 
4612:Drivers/STM32F0xx_HAL_Driver/Src/stm32f0xx_hal_i2c.c ****       return HAL_TIMEOUT;
 11618              		.loc 1 4612 14
 11619 009c 0323     		movs	r3, #3
 11620 009e 07E0     		b	.L522
 11621              	.L520:
4576:Drivers/STM32F0xx_HAL_Driver/Src/stm32f0xx_hal_i2c.c ****   {
 11622              		.loc 1 4576 10
 11623 00a0 FB68     		ldr	r3, [r7, #12]
 11624 00a2 1B68     		ldr	r3, [r3]
 11625 00a4 9B69     		ldr	r3, [r3, #24]
 11626 00a6 0422     		movs	r2, #4
 11627 00a8 1340     		ands	r3, r2
4576:Drivers/STM32F0xx_HAL_Driver/Src/stm32f0xx_hal_i2c.c ****   {
 11628              		.loc 1 4576 9
 11629 00aa 042B     		cmp	r3, #4
 11630 00ac AFD1     		bne	.L525
4613:Drivers/STM32F0xx_HAL_Driver/Src/stm32f0xx_hal_i2c.c ****     }
4614:Drivers/STM32F0xx_HAL_Driver/Src/stm32f0xx_hal_i2c.c ****   }
4615:Drivers/STM32F0xx_HAL_Driver/Src/stm32f0xx_hal_i2c.c ****   return HAL_OK;
 11631              		.loc 1 4615 10
 11632 00ae 0023     		movs	r3, #0
 11633              	.L522:
4616:Drivers/STM32F0xx_HAL_Driver/Src/stm32f0xx_hal_i2c.c **** }
 11634              		.loc 1 4616 1
 11635 00b0 1800     		movs	r0, r3
 11636 00b2 BD46     		mov	sp, r7
 11637 00b4 04B0     		add	sp, sp, #16
 11638              		@ sp needed
 11639 00b6 80BD     		pop	{r7, pc}
 11640              	.L527:
 11641              		.align	2
 11642              	.L526:
 11643 00b8 00E800FE 		.word	-33495040
 11644              		.cfi_endproc
 11645              	.LFE105:
 11647              		.section	.text.I2C_IsAcknowledgeFailed,"ax",%progbits
 11648              		.align	1
 11649              		.syntax unified
 11650              		.code	16
 11651              		.thumb_func
 11652              		.fpu softvfp
 11654              	I2C_IsAcknowledgeFailed:
 11655              	.LFB106:
4617:Drivers/STM32F0xx_HAL_Driver/Src/stm32f0xx_hal_i2c.c **** 
4618:Drivers/STM32F0xx_HAL_Driver/Src/stm32f0xx_hal_i2c.c **** /**
4619:Drivers/STM32F0xx_HAL_Driver/Src/stm32f0xx_hal_i2c.c ****   * @brief  This function handles Acknowledge failed detection during an I2C Communication.
4620:Drivers/STM32F0xx_HAL_Driver/Src/stm32f0xx_hal_i2c.c ****   * @param  hi2c Pointer to a I2C_HandleTypeDef structure that contains
4621:Drivers/STM32F0xx_HAL_Driver/Src/stm32f0xx_hal_i2c.c ****   *                the configuration information for the specified I2C.
4622:Drivers/STM32F0xx_HAL_Driver/Src/stm32f0xx_hal_i2c.c ****   * @param  Timeout Timeout duration
4623:Drivers/STM32F0xx_HAL_Driver/Src/stm32f0xx_hal_i2c.c ****   * @param  Tickstart Tick start value
4624:Drivers/STM32F0xx_HAL_Driver/Src/stm32f0xx_hal_i2c.c ****   * @retval HAL status
4625:Drivers/STM32F0xx_HAL_Driver/Src/stm32f0xx_hal_i2c.c ****   */
ARM GAS  C:\Users\ADMINI~1\AppData\Local\Temp\cc3zYV2m.s 			page 287


4626:Drivers/STM32F0xx_HAL_Driver/Src/stm32f0xx_hal_i2c.c **** static HAL_StatusTypeDef I2C_IsAcknowledgeFailed(I2C_HandleTypeDef *hi2c, uint32_t Timeout, uint32_
4627:Drivers/STM32F0xx_HAL_Driver/Src/stm32f0xx_hal_i2c.c **** {
 11656              		.loc 1 4627 1
 11657              		.cfi_startproc
 11658              		@ args = 0, pretend = 0, frame = 16
 11659              		@ frame_needed = 1, uses_anonymous_args = 0
 11660 0000 80B5     		push	{r7, lr}
 11661              	.LCFI207:
 11662              		.cfi_def_cfa_offset 8
 11663              		.cfi_offset 7, -8
 11664              		.cfi_offset 14, -4
 11665 0002 84B0     		sub	sp, sp, #16
 11666              	.LCFI208:
 11667              		.cfi_def_cfa_offset 24
 11668 0004 00AF     		add	r7, sp, #0
 11669              	.LCFI209:
 11670              		.cfi_def_cfa_register 7
 11671 0006 F860     		str	r0, [r7, #12]
 11672 0008 B960     		str	r1, [r7, #8]
 11673 000a 7A60     		str	r2, [r7, #4]
4628:Drivers/STM32F0xx_HAL_Driver/Src/stm32f0xx_hal_i2c.c ****   if (__HAL_I2C_GET_FLAG(hi2c, I2C_FLAG_AF) == SET)
 11674              		.loc 1 4628 7
 11675 000c FB68     		ldr	r3, [r7, #12]
 11676 000e 1B68     		ldr	r3, [r3]
 11677 0010 9B69     		ldr	r3, [r3, #24]
 11678 0012 1022     		movs	r2, #16
 11679 0014 1340     		ands	r3, r2
 11680              		.loc 1 4628 6
 11681 0016 102B     		cmp	r3, #16
 11682 0018 48D1     		bne	.L529
4629:Drivers/STM32F0xx_HAL_Driver/Src/stm32f0xx_hal_i2c.c ****   {
4630:Drivers/STM32F0xx_HAL_Driver/Src/stm32f0xx_hal_i2c.c ****     /* Wait until STOP Flag is reset */
4631:Drivers/STM32F0xx_HAL_Driver/Src/stm32f0xx_hal_i2c.c ****     /* AutoEnd should be initiate after AF */
4632:Drivers/STM32F0xx_HAL_Driver/Src/stm32f0xx_hal_i2c.c ****     while (__HAL_I2C_GET_FLAG(hi2c, I2C_FLAG_STOPF) == RESET)
 11683              		.loc 1 4632 11
 11684 001a 1BE0     		b	.L530
 11685              	.L533:
4633:Drivers/STM32F0xx_HAL_Driver/Src/stm32f0xx_hal_i2c.c ****     {
4634:Drivers/STM32F0xx_HAL_Driver/Src/stm32f0xx_hal_i2c.c ****       /* Check for the Timeout */
4635:Drivers/STM32F0xx_HAL_Driver/Src/stm32f0xx_hal_i2c.c ****       if (Timeout != HAL_MAX_DELAY)
 11686              		.loc 1 4635 10
 11687 001c BB68     		ldr	r3, [r7, #8]
 11688 001e 0133     		adds	r3, r3, #1
 11689 0020 18D0     		beq	.L530
4636:Drivers/STM32F0xx_HAL_Driver/Src/stm32f0xx_hal_i2c.c ****       {
4637:Drivers/STM32F0xx_HAL_Driver/Src/stm32f0xx_hal_i2c.c ****         if ((Timeout == 0U) || ((HAL_GetTick() - Tickstart) > Timeout))
 11690              		.loc 1 4637 12
 11691 0022 BB68     		ldr	r3, [r7, #8]
 11692 0024 002B     		cmp	r3, #0
 11693 0026 07D0     		beq	.L531
 11694              		.loc 1 4637 34 discriminator 1
 11695 0028 FFF7FEFF 		bl	HAL_GetTick
 11696 002c 0200     		movs	r2, r0
 11697              		.loc 1 4637 48 discriminator 1
 11698 002e 7B68     		ldr	r3, [r7, #4]
 11699 0030 D31A     		subs	r3, r2, r3
 11700              		.loc 1 4637 29 discriminator 1
ARM GAS  C:\Users\ADMINI~1\AppData\Local\Temp\cc3zYV2m.s 			page 288


 11701 0032 BA68     		ldr	r2, [r7, #8]
 11702 0034 9A42     		cmp	r2, r3
 11703 0036 0DD2     		bcs	.L530
 11704              	.L531:
4638:Drivers/STM32F0xx_HAL_Driver/Src/stm32f0xx_hal_i2c.c ****         {
4639:Drivers/STM32F0xx_HAL_Driver/Src/stm32f0xx_hal_i2c.c ****           hi2c->State = HAL_I2C_STATE_READY;
 11705              		.loc 1 4639 23
 11706 0038 FB68     		ldr	r3, [r7, #12]
 11707 003a 4122     		movs	r2, #65
 11708 003c 2021     		movs	r1, #32
 11709 003e 9954     		strb	r1, [r3, r2]
4640:Drivers/STM32F0xx_HAL_Driver/Src/stm32f0xx_hal_i2c.c ****           hi2c->Mode = HAL_I2C_MODE_NONE;
 11710              		.loc 1 4640 22
 11711 0040 FB68     		ldr	r3, [r7, #12]
 11712 0042 4222     		movs	r2, #66
 11713 0044 0021     		movs	r1, #0
 11714 0046 9954     		strb	r1, [r3, r2]
4641:Drivers/STM32F0xx_HAL_Driver/Src/stm32f0xx_hal_i2c.c **** 
4642:Drivers/STM32F0xx_HAL_Driver/Src/stm32f0xx_hal_i2c.c ****           /* Process Unlocked */
4643:Drivers/STM32F0xx_HAL_Driver/Src/stm32f0xx_hal_i2c.c ****           __HAL_UNLOCK(hi2c);
 11715              		.loc 1 4643 11
 11716 0048 FB68     		ldr	r3, [r7, #12]
 11717 004a 4022     		movs	r2, #64
 11718 004c 0021     		movs	r1, #0
 11719 004e 9954     		strb	r1, [r3, r2]
4644:Drivers/STM32F0xx_HAL_Driver/Src/stm32f0xx_hal_i2c.c ****           return HAL_TIMEOUT;
 11720              		.loc 1 4644 18
 11721 0050 0323     		movs	r3, #3
 11722 0052 2CE0     		b	.L532
 11723              	.L530:
4632:Drivers/STM32F0xx_HAL_Driver/Src/stm32f0xx_hal_i2c.c ****     {
 11724              		.loc 1 4632 12
 11725 0054 FB68     		ldr	r3, [r7, #12]
 11726 0056 1B68     		ldr	r3, [r3]
 11727 0058 9B69     		ldr	r3, [r3, #24]
 11728 005a 2022     		movs	r2, #32
 11729 005c 1340     		ands	r3, r2
4632:Drivers/STM32F0xx_HAL_Driver/Src/stm32f0xx_hal_i2c.c ****     {
 11730              		.loc 1 4632 11
 11731 005e 202B     		cmp	r3, #32
 11732 0060 DCD1     		bne	.L533
4645:Drivers/STM32F0xx_HAL_Driver/Src/stm32f0xx_hal_i2c.c ****         }
4646:Drivers/STM32F0xx_HAL_Driver/Src/stm32f0xx_hal_i2c.c ****       }
4647:Drivers/STM32F0xx_HAL_Driver/Src/stm32f0xx_hal_i2c.c ****     }
4648:Drivers/STM32F0xx_HAL_Driver/Src/stm32f0xx_hal_i2c.c **** 
4649:Drivers/STM32F0xx_HAL_Driver/Src/stm32f0xx_hal_i2c.c ****     /* Clear NACKF Flag */
4650:Drivers/STM32F0xx_HAL_Driver/Src/stm32f0xx_hal_i2c.c ****     __HAL_I2C_CLEAR_FLAG(hi2c, I2C_FLAG_AF);
 11733              		.loc 1 4650 5
 11734 0062 FB68     		ldr	r3, [r7, #12]
 11735 0064 1B68     		ldr	r3, [r3]
 11736 0066 1022     		movs	r2, #16
 11737 0068 DA61     		str	r2, [r3, #28]
4651:Drivers/STM32F0xx_HAL_Driver/Src/stm32f0xx_hal_i2c.c **** 
4652:Drivers/STM32F0xx_HAL_Driver/Src/stm32f0xx_hal_i2c.c ****     /* Clear STOP Flag */
4653:Drivers/STM32F0xx_HAL_Driver/Src/stm32f0xx_hal_i2c.c ****     __HAL_I2C_CLEAR_FLAG(hi2c, I2C_FLAG_STOPF);
 11738              		.loc 1 4653 5
 11739 006a FB68     		ldr	r3, [r7, #12]
ARM GAS  C:\Users\ADMINI~1\AppData\Local\Temp\cc3zYV2m.s 			page 289


 11740 006c 1B68     		ldr	r3, [r3]
 11741 006e 2022     		movs	r2, #32
 11742 0070 DA61     		str	r2, [r3, #28]
4654:Drivers/STM32F0xx_HAL_Driver/Src/stm32f0xx_hal_i2c.c **** 
4655:Drivers/STM32F0xx_HAL_Driver/Src/stm32f0xx_hal_i2c.c ****     /* Flush TX register */
4656:Drivers/STM32F0xx_HAL_Driver/Src/stm32f0xx_hal_i2c.c ****     I2C_Flush_TXDR(hi2c);
 11743              		.loc 1 4656 5
 11744 0072 FB68     		ldr	r3, [r7, #12]
 11745 0074 1800     		movs	r0, r3
 11746 0076 FFF7FEFF 		bl	I2C_Flush_TXDR
4657:Drivers/STM32F0xx_HAL_Driver/Src/stm32f0xx_hal_i2c.c **** 
4658:Drivers/STM32F0xx_HAL_Driver/Src/stm32f0xx_hal_i2c.c ****     /* Clear Configuration Register 2 */
4659:Drivers/STM32F0xx_HAL_Driver/Src/stm32f0xx_hal_i2c.c ****     I2C_RESET_CR2(hi2c);
 11747              		.loc 1 4659 5
 11748 007a FB68     		ldr	r3, [r7, #12]
 11749 007c 1B68     		ldr	r3, [r3]
 11750 007e 5A68     		ldr	r2, [r3, #4]
 11751 0080 FB68     		ldr	r3, [r7, #12]
 11752 0082 1B68     		ldr	r3, [r3]
 11753 0084 0C49     		ldr	r1, .L534
 11754 0086 0A40     		ands	r2, r1
 11755 0088 5A60     		str	r2, [r3, #4]
4660:Drivers/STM32F0xx_HAL_Driver/Src/stm32f0xx_hal_i2c.c **** 
4661:Drivers/STM32F0xx_HAL_Driver/Src/stm32f0xx_hal_i2c.c ****     hi2c->ErrorCode = HAL_I2C_ERROR_AF;
 11756              		.loc 1 4661 21
 11757 008a FB68     		ldr	r3, [r7, #12]
 11758 008c 0422     		movs	r2, #4
 11759 008e 5A64     		str	r2, [r3, #68]
4662:Drivers/STM32F0xx_HAL_Driver/Src/stm32f0xx_hal_i2c.c ****     hi2c->State = HAL_I2C_STATE_READY;
 11760              		.loc 1 4662 17
 11761 0090 FB68     		ldr	r3, [r7, #12]
 11762 0092 4122     		movs	r2, #65
 11763 0094 2021     		movs	r1, #32
 11764 0096 9954     		strb	r1, [r3, r2]
4663:Drivers/STM32F0xx_HAL_Driver/Src/stm32f0xx_hal_i2c.c ****     hi2c->Mode = HAL_I2C_MODE_NONE;
 11765              		.loc 1 4663 16
 11766 0098 FB68     		ldr	r3, [r7, #12]
 11767 009a 4222     		movs	r2, #66
 11768 009c 0021     		movs	r1, #0
 11769 009e 9954     		strb	r1, [r3, r2]
4664:Drivers/STM32F0xx_HAL_Driver/Src/stm32f0xx_hal_i2c.c **** 
4665:Drivers/STM32F0xx_HAL_Driver/Src/stm32f0xx_hal_i2c.c ****     /* Process Unlocked */
4666:Drivers/STM32F0xx_HAL_Driver/Src/stm32f0xx_hal_i2c.c ****     __HAL_UNLOCK(hi2c);
 11770              		.loc 1 4666 5
 11771 00a0 FB68     		ldr	r3, [r7, #12]
 11772 00a2 4022     		movs	r2, #64
 11773 00a4 0021     		movs	r1, #0
 11774 00a6 9954     		strb	r1, [r3, r2]
4667:Drivers/STM32F0xx_HAL_Driver/Src/stm32f0xx_hal_i2c.c **** 
4668:Drivers/STM32F0xx_HAL_Driver/Src/stm32f0xx_hal_i2c.c ****     return HAL_ERROR;
 11775              		.loc 1 4668 12
 11776 00a8 0123     		movs	r3, #1
 11777 00aa 00E0     		b	.L532
 11778              	.L529:
4669:Drivers/STM32F0xx_HAL_Driver/Src/stm32f0xx_hal_i2c.c ****   }
4670:Drivers/STM32F0xx_HAL_Driver/Src/stm32f0xx_hal_i2c.c ****   return HAL_OK;
 11779              		.loc 1 4670 10
ARM GAS  C:\Users\ADMINI~1\AppData\Local\Temp\cc3zYV2m.s 			page 290


 11780 00ac 0023     		movs	r3, #0
 11781              	.L532:
4671:Drivers/STM32F0xx_HAL_Driver/Src/stm32f0xx_hal_i2c.c **** }
 11782              		.loc 1 4671 1
 11783 00ae 1800     		movs	r0, r3
 11784 00b0 BD46     		mov	sp, r7
 11785 00b2 04B0     		add	sp, sp, #16
 11786              		@ sp needed
 11787 00b4 80BD     		pop	{r7, pc}
 11788              	.L535:
 11789 00b6 C046     		.align	2
 11790              	.L534:
 11791 00b8 00E800FE 		.word	-33495040
 11792              		.cfi_endproc
 11793              	.LFE106:
 11795              		.section	.text.I2C_TransferConfig,"ax",%progbits
 11796              		.align	1
 11797              		.syntax unified
 11798              		.code	16
 11799              		.thumb_func
 11800              		.fpu softvfp
 11802              	I2C_TransferConfig:
 11803              	.LFB107:
4672:Drivers/STM32F0xx_HAL_Driver/Src/stm32f0xx_hal_i2c.c **** 
4673:Drivers/STM32F0xx_HAL_Driver/Src/stm32f0xx_hal_i2c.c **** /**
4674:Drivers/STM32F0xx_HAL_Driver/Src/stm32f0xx_hal_i2c.c ****   * @brief  Handles I2Cx communication when starting transfer or during transfer (TC or TCR flag ar
4675:Drivers/STM32F0xx_HAL_Driver/Src/stm32f0xx_hal_i2c.c ****   * @param  hi2c I2C handle.
4676:Drivers/STM32F0xx_HAL_Driver/Src/stm32f0xx_hal_i2c.c ****   * @param  DevAddress Specifies the slave address to be programmed.
4677:Drivers/STM32F0xx_HAL_Driver/Src/stm32f0xx_hal_i2c.c ****   * @param  Size Specifies the number of bytes to be programmed.
4678:Drivers/STM32F0xx_HAL_Driver/Src/stm32f0xx_hal_i2c.c ****   *   This parameter must be a value between 0 and 255.
4679:Drivers/STM32F0xx_HAL_Driver/Src/stm32f0xx_hal_i2c.c ****   * @param  Mode New state of the I2C START condition generation.
4680:Drivers/STM32F0xx_HAL_Driver/Src/stm32f0xx_hal_i2c.c ****   *   This parameter can be one of the following values:
4681:Drivers/STM32F0xx_HAL_Driver/Src/stm32f0xx_hal_i2c.c ****   *     @arg @ref I2C_RELOAD_MODE Enable Reload mode .
4682:Drivers/STM32F0xx_HAL_Driver/Src/stm32f0xx_hal_i2c.c ****   *     @arg @ref I2C_AUTOEND_MODE Enable Automatic end mode.
4683:Drivers/STM32F0xx_HAL_Driver/Src/stm32f0xx_hal_i2c.c ****   *     @arg @ref I2C_SOFTEND_MODE Enable Software end mode.
4684:Drivers/STM32F0xx_HAL_Driver/Src/stm32f0xx_hal_i2c.c ****   * @param  Request New state of the I2C START condition generation.
4685:Drivers/STM32F0xx_HAL_Driver/Src/stm32f0xx_hal_i2c.c ****   *   This parameter can be one of the following values:
4686:Drivers/STM32F0xx_HAL_Driver/Src/stm32f0xx_hal_i2c.c ****   *     @arg @ref I2C_NO_STARTSTOP Don't Generate stop and start condition.
4687:Drivers/STM32F0xx_HAL_Driver/Src/stm32f0xx_hal_i2c.c ****   *     @arg @ref I2C_GENERATE_STOP Generate stop condition (Size should be set to 0).
4688:Drivers/STM32F0xx_HAL_Driver/Src/stm32f0xx_hal_i2c.c ****   *     @arg @ref I2C_GENERATE_START_READ Generate Restart for read request.
4689:Drivers/STM32F0xx_HAL_Driver/Src/stm32f0xx_hal_i2c.c ****   *     @arg @ref I2C_GENERATE_START_WRITE Generate Restart for write request.
4690:Drivers/STM32F0xx_HAL_Driver/Src/stm32f0xx_hal_i2c.c ****   * @retval None
4691:Drivers/STM32F0xx_HAL_Driver/Src/stm32f0xx_hal_i2c.c ****   */
4692:Drivers/STM32F0xx_HAL_Driver/Src/stm32f0xx_hal_i2c.c **** static void I2C_TransferConfig(I2C_HandleTypeDef *hi2c,  uint16_t DevAddress, uint8_t Size, uint32_
4693:Drivers/STM32F0xx_HAL_Driver/Src/stm32f0xx_hal_i2c.c **** {
 11804              		.loc 1 4693 1
 11805              		.cfi_startproc
 11806              		@ args = 4, pretend = 0, frame = 24
 11807              		@ frame_needed = 1, uses_anonymous_args = 0
 11808 0000 90B5     		push	{r4, r7, lr}
 11809              	.LCFI210:
 11810              		.cfi_def_cfa_offset 12
 11811              		.cfi_offset 4, -12
 11812              		.cfi_offset 7, -8
 11813              		.cfi_offset 14, -4
 11814 0002 87B0     		sub	sp, sp, #28
 11815              	.LCFI211:
ARM GAS  C:\Users\ADMINI~1\AppData\Local\Temp\cc3zYV2m.s 			page 291


 11816              		.cfi_def_cfa_offset 40
 11817 0004 00AF     		add	r7, sp, #0
 11818              	.LCFI212:
 11819              		.cfi_def_cfa_register 7
 11820 0006 F860     		str	r0, [r7, #12]
 11821 0008 0800     		movs	r0, r1
 11822 000a 1100     		movs	r1, r2
 11823 000c 7B60     		str	r3, [r7, #4]
 11824 000e 0A24     		movs	r4, #10
 11825 0010 3B19     		adds	r3, r7, r4
 11826 0012 021C     		adds	r2, r0, #0
 11827 0014 1A80     		strh	r2, [r3]
 11828 0016 0920     		movs	r0, #9
 11829 0018 3B18     		adds	r3, r7, r0
 11830 001a 0A1C     		adds	r2, r1, #0
 11831 001c 1A70     		strb	r2, [r3]
4694:Drivers/STM32F0xx_HAL_Driver/Src/stm32f0xx_hal_i2c.c ****   uint32_t tmpreg = 0U;
 11832              		.loc 1 4694 12
 11833 001e 0023     		movs	r3, #0
 11834 0020 7B61     		str	r3, [r7, #20]
4695:Drivers/STM32F0xx_HAL_Driver/Src/stm32f0xx_hal_i2c.c **** 
4696:Drivers/STM32F0xx_HAL_Driver/Src/stm32f0xx_hal_i2c.c ****   /* Check the parameters */
4697:Drivers/STM32F0xx_HAL_Driver/Src/stm32f0xx_hal_i2c.c ****   assert_param(IS_I2C_ALL_INSTANCE(hi2c->Instance));
4698:Drivers/STM32F0xx_HAL_Driver/Src/stm32f0xx_hal_i2c.c ****   assert_param(IS_TRANSFER_MODE(Mode));
4699:Drivers/STM32F0xx_HAL_Driver/Src/stm32f0xx_hal_i2c.c ****   assert_param(IS_TRANSFER_REQUEST(Request));
4700:Drivers/STM32F0xx_HAL_Driver/Src/stm32f0xx_hal_i2c.c **** 
4701:Drivers/STM32F0xx_HAL_Driver/Src/stm32f0xx_hal_i2c.c ****   /* Get the CR2 register value */
4702:Drivers/STM32F0xx_HAL_Driver/Src/stm32f0xx_hal_i2c.c ****   tmpreg = hi2c->Instance->CR2;
 11835              		.loc 1 4702 16
 11836 0022 FB68     		ldr	r3, [r7, #12]
 11837 0024 1B68     		ldr	r3, [r3]
 11838              		.loc 1 4702 10
 11839 0026 5B68     		ldr	r3, [r3, #4]
 11840 0028 7B61     		str	r3, [r7, #20]
4703:Drivers/STM32F0xx_HAL_Driver/Src/stm32f0xx_hal_i2c.c **** 
4704:Drivers/STM32F0xx_HAL_Driver/Src/stm32f0xx_hal_i2c.c ****   /* clear tmpreg specific bits */
4705:Drivers/STM32F0xx_HAL_Driver/Src/stm32f0xx_hal_i2c.c ****   tmpreg &= (uint32_t)~((uint32_t)(I2C_CR2_SADD | I2C_CR2_NBYTES | I2C_CR2_RELOAD | I2C_CR2_AUTOEND
 11841              		.loc 1 4705 10
 11842 002a 7B69     		ldr	r3, [r7, #20]
 11843 002c 0E4A     		ldr	r2, .L537
 11844 002e 1340     		ands	r3, r2
 11845 0030 7B61     		str	r3, [r7, #20]
4706:Drivers/STM32F0xx_HAL_Driver/Src/stm32f0xx_hal_i2c.c **** 
4707:Drivers/STM32F0xx_HAL_Driver/Src/stm32f0xx_hal_i2c.c ****   /* update tmpreg */
4708:Drivers/STM32F0xx_HAL_Driver/Src/stm32f0xx_hal_i2c.c ****   tmpreg |= (uint32_t)(((uint32_t)DevAddress & I2C_CR2_SADD) | (((uint32_t)Size << 16) & I2C_CR2_NB
 11846              		.loc 1 4708 46
 11847 0032 3B19     		adds	r3, r7, r4
 11848 0034 1B88     		ldrh	r3, [r3]
 11849 0036 9B05     		lsls	r3, r3, #22
 11850 0038 9A0D     		lsrs	r2, r3, #22
 11851              		.loc 1 4708 66
 11852 003a 3B18     		adds	r3, r7, r0
 11853 003c 1B78     		ldrb	r3, [r3]
 11854              		.loc 1 4708 81
 11855 003e 1904     		lsls	r1, r3, #16
 11856              		.loc 1 4708 88
 11857 0040 FF23     		movs	r3, #255
ARM GAS  C:\Users\ADMINI~1\AppData\Local\Temp\cc3zYV2m.s 			page 292


 11858 0042 1B04     		lsls	r3, r3, #16
 11859 0044 0B40     		ands	r3, r1
 11860              		.loc 1 4708 62
 11861 0046 1A43     		orrs	r2, r3
 11862              		.loc 1 4708 106
 11863 0048 7B68     		ldr	r3, [r7, #4]
 11864 004a 1A43     		orrs	r2, r3
 11865              		.loc 1 4708 13
 11866 004c BB6A     		ldr	r3, [r7, #40]
 11867 004e 1343     		orrs	r3, r2
 11868              		.loc 1 4708 10
 11869 0050 7A69     		ldr	r2, [r7, #20]
 11870 0052 1343     		orrs	r3, r2
 11871 0054 7B61     		str	r3, [r7, #20]
4709:Drivers/STM32F0xx_HAL_Driver/Src/stm32f0xx_hal_i2c.c ****                        (uint32_t)Mode | (uint32_t)Request);
4710:Drivers/STM32F0xx_HAL_Driver/Src/stm32f0xx_hal_i2c.c **** 
4711:Drivers/STM32F0xx_HAL_Driver/Src/stm32f0xx_hal_i2c.c ****   /* update CR2 register */
4712:Drivers/STM32F0xx_HAL_Driver/Src/stm32f0xx_hal_i2c.c ****   hi2c->Instance->CR2 = tmpreg;
 11872              		.loc 1 4712 7
 11873 0056 FB68     		ldr	r3, [r7, #12]
 11874 0058 1B68     		ldr	r3, [r3]
 11875              		.loc 1 4712 23
 11876 005a 7A69     		ldr	r2, [r7, #20]
 11877 005c 5A60     		str	r2, [r3, #4]
4713:Drivers/STM32F0xx_HAL_Driver/Src/stm32f0xx_hal_i2c.c **** }
 11878              		.loc 1 4713 1
 11879 005e C046     		nop
 11880 0060 BD46     		mov	sp, r7
 11881 0062 07B0     		add	sp, sp, #28
 11882              		@ sp needed
 11883 0064 90BD     		pop	{r4, r7, pc}
 11884              	.L538:
 11885 0066 C046     		.align	2
 11886              	.L537:
 11887 0068 009800FC 		.word	-67069952
 11888              		.cfi_endproc
 11889              	.LFE107:
 11891              		.section	.text.I2C_Enable_IRQ,"ax",%progbits
 11892              		.align	1
 11893              		.syntax unified
 11894              		.code	16
 11895              		.thumb_func
 11896              		.fpu softvfp
 11898              	I2C_Enable_IRQ:
 11899              	.LFB108:
4714:Drivers/STM32F0xx_HAL_Driver/Src/stm32f0xx_hal_i2c.c **** 
4715:Drivers/STM32F0xx_HAL_Driver/Src/stm32f0xx_hal_i2c.c **** /**
4716:Drivers/STM32F0xx_HAL_Driver/Src/stm32f0xx_hal_i2c.c ****   * @brief  Manage the enabling of Interrupts.
4717:Drivers/STM32F0xx_HAL_Driver/Src/stm32f0xx_hal_i2c.c ****   * @param  hi2c Pointer to a I2C_HandleTypeDef structure that contains
4718:Drivers/STM32F0xx_HAL_Driver/Src/stm32f0xx_hal_i2c.c ****   *                the configuration information for the specified I2C.
4719:Drivers/STM32F0xx_HAL_Driver/Src/stm32f0xx_hal_i2c.c ****   * @param  InterruptRequest Value of @ref I2C_Interrupt_configuration_definition.
4720:Drivers/STM32F0xx_HAL_Driver/Src/stm32f0xx_hal_i2c.c ****   * @retval HAL status
4721:Drivers/STM32F0xx_HAL_Driver/Src/stm32f0xx_hal_i2c.c ****   */
4722:Drivers/STM32F0xx_HAL_Driver/Src/stm32f0xx_hal_i2c.c **** static HAL_StatusTypeDef I2C_Enable_IRQ(I2C_HandleTypeDef *hi2c, uint16_t InterruptRequest)
4723:Drivers/STM32F0xx_HAL_Driver/Src/stm32f0xx_hal_i2c.c **** {
 11900              		.loc 1 4723 1
 11901              		.cfi_startproc
ARM GAS  C:\Users\ADMINI~1\AppData\Local\Temp\cc3zYV2m.s 			page 293


 11902              		@ args = 0, pretend = 0, frame = 16
 11903              		@ frame_needed = 1, uses_anonymous_args = 0
 11904 0000 80B5     		push	{r7, lr}
 11905              	.LCFI213:
 11906              		.cfi_def_cfa_offset 8
 11907              		.cfi_offset 7, -8
 11908              		.cfi_offset 14, -4
 11909 0002 84B0     		sub	sp, sp, #16
 11910              	.LCFI214:
 11911              		.cfi_def_cfa_offset 24
 11912 0004 00AF     		add	r7, sp, #0
 11913              	.LCFI215:
 11914              		.cfi_def_cfa_register 7
 11915 0006 7860     		str	r0, [r7, #4]
 11916 0008 0A00     		movs	r2, r1
 11917 000a BB1C     		adds	r3, r7, #2
 11918 000c 1A80     		strh	r2, [r3]
4724:Drivers/STM32F0xx_HAL_Driver/Src/stm32f0xx_hal_i2c.c ****   uint32_t tmpisr = 0U;
 11919              		.loc 1 4724 12
 11920 000e 0023     		movs	r3, #0
 11921 0010 FB60     		str	r3, [r7, #12]
4725:Drivers/STM32F0xx_HAL_Driver/Src/stm32f0xx_hal_i2c.c **** 
4726:Drivers/STM32F0xx_HAL_Driver/Src/stm32f0xx_hal_i2c.c ****   if ((hi2c->XferISR == I2C_Master_ISR_DMA) || \
 11922              		.loc 1 4726 12
 11923 0012 7B68     		ldr	r3, [r7, #4]
 11924 0014 5A6B     		ldr	r2, [r3, #52]
 11925              		.loc 1 4726 6
 11926 0016 314B     		ldr	r3, .L551
 11927 0018 9A42     		cmp	r2, r3
 11928 001a 04D0     		beq	.L540
4727:Drivers/STM32F0xx_HAL_Driver/Src/stm32f0xx_hal_i2c.c ****       (hi2c->XferISR == I2C_Slave_ISR_DMA))
 11929              		.loc 1 4727 12 discriminator 1
 11930 001c 7B68     		ldr	r3, [r7, #4]
 11931 001e 5A6B     		ldr	r2, [r3, #52]
4726:Drivers/STM32F0xx_HAL_Driver/Src/stm32f0xx_hal_i2c.c ****       (hi2c->XferISR == I2C_Slave_ISR_DMA))
 11932              		.loc 1 4726 45 discriminator 1
 11933 0020 2F4B     		ldr	r3, .L551+4
 11934 0022 9A42     		cmp	r2, r3
 11935 0024 27D1     		bne	.L541
 11936              	.L540:
4728:Drivers/STM32F0xx_HAL_Driver/Src/stm32f0xx_hal_i2c.c ****   {
4729:Drivers/STM32F0xx_HAL_Driver/Src/stm32f0xx_hal_i2c.c ****     if ((InterruptRequest & I2C_XFER_LISTEN_IT) == I2C_XFER_LISTEN_IT)
 11937              		.loc 1 4729 27
 11938 0026 BB1C     		adds	r3, r7, #2
 11939 0028 1B88     		ldrh	r3, [r3]
 11940 002a 0422     		movs	r2, #4
 11941 002c 1340     		ands	r3, r2
 11942              		.loc 1 4729 8
 11943 002e 03D0     		beq	.L542
4730:Drivers/STM32F0xx_HAL_Driver/Src/stm32f0xx_hal_i2c.c ****     {
4731:Drivers/STM32F0xx_HAL_Driver/Src/stm32f0xx_hal_i2c.c ****       /* Enable ERR, STOP, NACK and ADDR interrupts */
4732:Drivers/STM32F0xx_HAL_Driver/Src/stm32f0xx_hal_i2c.c ****       tmpisr |= I2C_IT_ADDRI | I2C_IT_STOPI | I2C_IT_NACKI | I2C_IT_ERRI;
 11944              		.loc 1 4732 14
 11945 0030 FB68     		ldr	r3, [r7, #12]
 11946 0032 B822     		movs	r2, #184
 11947 0034 1343     		orrs	r3, r2
 11948 0036 FB60     		str	r3, [r7, #12]
ARM GAS  C:\Users\ADMINI~1\AppData\Local\Temp\cc3zYV2m.s 			page 294


 11949              	.L542:
4733:Drivers/STM32F0xx_HAL_Driver/Src/stm32f0xx_hal_i2c.c ****     }
4734:Drivers/STM32F0xx_HAL_Driver/Src/stm32f0xx_hal_i2c.c **** 
4735:Drivers/STM32F0xx_HAL_Driver/Src/stm32f0xx_hal_i2c.c ****     if ((InterruptRequest & I2C_XFER_ERROR_IT) == I2C_XFER_ERROR_IT)
 11950              		.loc 1 4735 27
 11951 0038 BB1C     		adds	r3, r7, #2
 11952 003a 1B88     		ldrh	r3, [r3]
 11953 003c 1122     		movs	r2, #17
 11954 003e 1340     		ands	r3, r2
 11955              		.loc 1 4735 8
 11956 0040 112B     		cmp	r3, #17
 11957 0042 03D1     		bne	.L543
4736:Drivers/STM32F0xx_HAL_Driver/Src/stm32f0xx_hal_i2c.c ****     {
4737:Drivers/STM32F0xx_HAL_Driver/Src/stm32f0xx_hal_i2c.c ****       /* Enable ERR and NACK interrupts */
4738:Drivers/STM32F0xx_HAL_Driver/Src/stm32f0xx_hal_i2c.c ****       tmpisr |= I2C_IT_ERRI | I2C_IT_NACKI;
 11958              		.loc 1 4738 14
 11959 0044 FB68     		ldr	r3, [r7, #12]
 11960 0046 9022     		movs	r2, #144
 11961 0048 1343     		orrs	r3, r2
 11962 004a FB60     		str	r3, [r7, #12]
 11963              	.L543:
4739:Drivers/STM32F0xx_HAL_Driver/Src/stm32f0xx_hal_i2c.c ****     }
4740:Drivers/STM32F0xx_HAL_Driver/Src/stm32f0xx_hal_i2c.c **** 
4741:Drivers/STM32F0xx_HAL_Driver/Src/stm32f0xx_hal_i2c.c ****     if ((InterruptRequest & I2C_XFER_CPLT_IT) == I2C_XFER_CPLT_IT)
 11964              		.loc 1 4741 27
 11965 004c BB1C     		adds	r3, r7, #2
 11966 004e 1B88     		ldrh	r3, [r3]
 11967 0050 1222     		movs	r2, #18
 11968 0052 1340     		ands	r3, r2
 11969              		.loc 1 4741 8
 11970 0054 122B     		cmp	r3, #18
 11971 0056 03D1     		bne	.L544
4742:Drivers/STM32F0xx_HAL_Driver/Src/stm32f0xx_hal_i2c.c ****     {
4743:Drivers/STM32F0xx_HAL_Driver/Src/stm32f0xx_hal_i2c.c ****       /* Enable STOP interrupts */
4744:Drivers/STM32F0xx_HAL_Driver/Src/stm32f0xx_hal_i2c.c ****       tmpisr |= I2C_IT_STOPI;
 11972              		.loc 1 4744 14
 11973 0058 FB68     		ldr	r3, [r7, #12]
 11974 005a 2022     		movs	r2, #32
 11975 005c 1343     		orrs	r3, r2
 11976 005e FB60     		str	r3, [r7, #12]
 11977              	.L544:
4745:Drivers/STM32F0xx_HAL_Driver/Src/stm32f0xx_hal_i2c.c ****     }
4746:Drivers/STM32F0xx_HAL_Driver/Src/stm32f0xx_hal_i2c.c **** 
4747:Drivers/STM32F0xx_HAL_Driver/Src/stm32f0xx_hal_i2c.c ****     if ((InterruptRequest & I2C_XFER_RELOAD_IT) == I2C_XFER_RELOAD_IT)
 11978              		.loc 1 4747 27
 11979 0060 BB1C     		adds	r3, r7, #2
 11980 0062 1B88     		ldrh	r3, [r3]
 11981 0064 1222     		movs	r2, #18
 11982 0066 1340     		ands	r3, r2
 11983              		.loc 1 4747 8
 11984 0068 122B     		cmp	r3, #18
 11985 006a 29D1     		bne	.L546
4748:Drivers/STM32F0xx_HAL_Driver/Src/stm32f0xx_hal_i2c.c ****     {
4749:Drivers/STM32F0xx_HAL_Driver/Src/stm32f0xx_hal_i2c.c ****       /* Enable TC interrupts */
4750:Drivers/STM32F0xx_HAL_Driver/Src/stm32f0xx_hal_i2c.c ****       tmpisr |= I2C_IT_TCI;
 11986              		.loc 1 4750 14
 11987 006c FB68     		ldr	r3, [r7, #12]
ARM GAS  C:\Users\ADMINI~1\AppData\Local\Temp\cc3zYV2m.s 			page 295


 11988 006e 4022     		movs	r2, #64
 11989 0070 1343     		orrs	r3, r2
 11990 0072 FB60     		str	r3, [r7, #12]
4747:Drivers/STM32F0xx_HAL_Driver/Src/stm32f0xx_hal_i2c.c ****     {
 11991              		.loc 1 4747 8
 11992 0074 24E0     		b	.L546
 11993              	.L541:
4751:Drivers/STM32F0xx_HAL_Driver/Src/stm32f0xx_hal_i2c.c ****     }
4752:Drivers/STM32F0xx_HAL_Driver/Src/stm32f0xx_hal_i2c.c ****   }
4753:Drivers/STM32F0xx_HAL_Driver/Src/stm32f0xx_hal_i2c.c ****   else
4754:Drivers/STM32F0xx_HAL_Driver/Src/stm32f0xx_hal_i2c.c ****   {
4755:Drivers/STM32F0xx_HAL_Driver/Src/stm32f0xx_hal_i2c.c ****     if ((InterruptRequest & I2C_XFER_LISTEN_IT) == I2C_XFER_LISTEN_IT)
 11994              		.loc 1 4755 27
 11995 0076 BB1C     		adds	r3, r7, #2
 11996 0078 1B88     		ldrh	r3, [r3]
 11997 007a 0422     		movs	r2, #4
 11998 007c 1340     		ands	r3, r2
 11999              		.loc 1 4755 8
 12000 007e 03D0     		beq	.L547
4756:Drivers/STM32F0xx_HAL_Driver/Src/stm32f0xx_hal_i2c.c ****     {
4757:Drivers/STM32F0xx_HAL_Driver/Src/stm32f0xx_hal_i2c.c ****       /* Enable ERR, STOP, NACK, and ADDR interrupts */
4758:Drivers/STM32F0xx_HAL_Driver/Src/stm32f0xx_hal_i2c.c ****       tmpisr |= I2C_IT_ADDRI | I2C_IT_STOPI | I2C_IT_NACKI | I2C_IT_ERRI;
 12001              		.loc 1 4758 14
 12002 0080 FB68     		ldr	r3, [r7, #12]
 12003 0082 B822     		movs	r2, #184
 12004 0084 1343     		orrs	r3, r2
 12005 0086 FB60     		str	r3, [r7, #12]
 12006              	.L547:
4759:Drivers/STM32F0xx_HAL_Driver/Src/stm32f0xx_hal_i2c.c ****     }
4760:Drivers/STM32F0xx_HAL_Driver/Src/stm32f0xx_hal_i2c.c **** 
4761:Drivers/STM32F0xx_HAL_Driver/Src/stm32f0xx_hal_i2c.c ****     if ((InterruptRequest & I2C_XFER_TX_IT) == I2C_XFER_TX_IT)
 12007              		.loc 1 4761 27
 12008 0088 BB1C     		adds	r3, r7, #2
 12009 008a 1B88     		ldrh	r3, [r3]
 12010 008c 0122     		movs	r2, #1
 12011 008e 1340     		ands	r3, r2
 12012              		.loc 1 4761 8
 12013 0090 03D0     		beq	.L548
4762:Drivers/STM32F0xx_HAL_Driver/Src/stm32f0xx_hal_i2c.c ****     {
4763:Drivers/STM32F0xx_HAL_Driver/Src/stm32f0xx_hal_i2c.c ****       /* Enable ERR, TC, STOP, NACK and RXI interrupts */
4764:Drivers/STM32F0xx_HAL_Driver/Src/stm32f0xx_hal_i2c.c ****       tmpisr |= I2C_IT_ERRI | I2C_IT_TCI | I2C_IT_STOPI | I2C_IT_NACKI | I2C_IT_TXI;
 12014              		.loc 1 4764 14
 12015 0092 FB68     		ldr	r3, [r7, #12]
 12016 0094 F222     		movs	r2, #242
 12017 0096 1343     		orrs	r3, r2
 12018 0098 FB60     		str	r3, [r7, #12]
 12019              	.L548:
4765:Drivers/STM32F0xx_HAL_Driver/Src/stm32f0xx_hal_i2c.c ****     }
4766:Drivers/STM32F0xx_HAL_Driver/Src/stm32f0xx_hal_i2c.c **** 
4767:Drivers/STM32F0xx_HAL_Driver/Src/stm32f0xx_hal_i2c.c ****     if ((InterruptRequest & I2C_XFER_RX_IT) == I2C_XFER_RX_IT)
 12020              		.loc 1 4767 27
 12021 009a BB1C     		adds	r3, r7, #2
 12022 009c 1B88     		ldrh	r3, [r3]
 12023 009e 0222     		movs	r2, #2
 12024 00a0 1340     		ands	r3, r2
 12025              		.loc 1 4767 8
 12026 00a2 03D0     		beq	.L549
ARM GAS  C:\Users\ADMINI~1\AppData\Local\Temp\cc3zYV2m.s 			page 296


4768:Drivers/STM32F0xx_HAL_Driver/Src/stm32f0xx_hal_i2c.c ****     {
4769:Drivers/STM32F0xx_HAL_Driver/Src/stm32f0xx_hal_i2c.c ****       /* Enable ERR, TC, STOP, NACK and TXI interrupts */
4770:Drivers/STM32F0xx_HAL_Driver/Src/stm32f0xx_hal_i2c.c ****       tmpisr |= I2C_IT_ERRI | I2C_IT_TCI | I2C_IT_STOPI | I2C_IT_NACKI | I2C_IT_RXI;
 12027              		.loc 1 4770 14
 12028 00a4 FB68     		ldr	r3, [r7, #12]
 12029 00a6 F422     		movs	r2, #244
 12030 00a8 1343     		orrs	r3, r2
 12031 00aa FB60     		str	r3, [r7, #12]
 12032              	.L549:
4771:Drivers/STM32F0xx_HAL_Driver/Src/stm32f0xx_hal_i2c.c ****     }
4772:Drivers/STM32F0xx_HAL_Driver/Src/stm32f0xx_hal_i2c.c **** 
4773:Drivers/STM32F0xx_HAL_Driver/Src/stm32f0xx_hal_i2c.c ****     if ((InterruptRequest & I2C_XFER_CPLT_IT) == I2C_XFER_CPLT_IT)
 12033              		.loc 1 4773 27
 12034 00ac BB1C     		adds	r3, r7, #2
 12035 00ae 1B88     		ldrh	r3, [r3]
 12036 00b0 1222     		movs	r2, #18
 12037 00b2 1340     		ands	r3, r2
 12038              		.loc 1 4773 8
 12039 00b4 122B     		cmp	r3, #18
 12040 00b6 03D1     		bne	.L546
4774:Drivers/STM32F0xx_HAL_Driver/Src/stm32f0xx_hal_i2c.c ****     {
4775:Drivers/STM32F0xx_HAL_Driver/Src/stm32f0xx_hal_i2c.c ****       /* Enable STOP interrupts */
4776:Drivers/STM32F0xx_HAL_Driver/Src/stm32f0xx_hal_i2c.c ****       tmpisr |= I2C_IT_STOPI;
 12041              		.loc 1 4776 14
 12042 00b8 FB68     		ldr	r3, [r7, #12]
 12043 00ba 2022     		movs	r2, #32
 12044 00bc 1343     		orrs	r3, r2
 12045 00be FB60     		str	r3, [r7, #12]
 12046              	.L546:
4777:Drivers/STM32F0xx_HAL_Driver/Src/stm32f0xx_hal_i2c.c ****     }
4778:Drivers/STM32F0xx_HAL_Driver/Src/stm32f0xx_hal_i2c.c ****   }
4779:Drivers/STM32F0xx_HAL_Driver/Src/stm32f0xx_hal_i2c.c **** 
4780:Drivers/STM32F0xx_HAL_Driver/Src/stm32f0xx_hal_i2c.c ****   /* Enable interrupts only at the end */
4781:Drivers/STM32F0xx_HAL_Driver/Src/stm32f0xx_hal_i2c.c ****   /* to avoid the risk of I2C interrupt handle execution before */
4782:Drivers/STM32F0xx_HAL_Driver/Src/stm32f0xx_hal_i2c.c ****   /* all interrupts requested done */
4783:Drivers/STM32F0xx_HAL_Driver/Src/stm32f0xx_hal_i2c.c ****   __HAL_I2C_ENABLE_IT(hi2c, tmpisr);
 12047              		.loc 1 4783 3
 12048 00c0 7B68     		ldr	r3, [r7, #4]
 12049 00c2 1B68     		ldr	r3, [r3]
 12050 00c4 1968     		ldr	r1, [r3]
 12051 00c6 7B68     		ldr	r3, [r7, #4]
 12052 00c8 1B68     		ldr	r3, [r3]
 12053 00ca FA68     		ldr	r2, [r7, #12]
 12054 00cc 0A43     		orrs	r2, r1
 12055 00ce 1A60     		str	r2, [r3]
4784:Drivers/STM32F0xx_HAL_Driver/Src/stm32f0xx_hal_i2c.c **** 
4785:Drivers/STM32F0xx_HAL_Driver/Src/stm32f0xx_hal_i2c.c ****   return HAL_OK;
 12056              		.loc 1 4785 10
 12057 00d0 0023     		movs	r3, #0
4786:Drivers/STM32F0xx_HAL_Driver/Src/stm32f0xx_hal_i2c.c **** }
 12058              		.loc 1 4786 1
 12059 00d2 1800     		movs	r0, r3
 12060 00d4 BD46     		mov	sp, r7
 12061 00d6 04B0     		add	sp, sp, #16
 12062              		@ sp needed
 12063 00d8 80BD     		pop	{r7, pc}
 12064              	.L552:
ARM GAS  C:\Users\ADMINI~1\AppData\Local\Temp\cc3zYV2m.s 			page 297


 12065 00da C046     		.align	2
 12066              	.L551:
 12067 00dc 00000000 		.word	I2C_Master_ISR_DMA
 12068 00e0 00000000 		.word	I2C_Slave_ISR_DMA
 12069              		.cfi_endproc
 12070              	.LFE108:
 12072              		.section	.text.I2C_Disable_IRQ,"ax",%progbits
 12073              		.align	1
 12074              		.syntax unified
 12075              		.code	16
 12076              		.thumb_func
 12077              		.fpu softvfp
 12079              	I2C_Disable_IRQ:
 12080              	.LFB109:
4787:Drivers/STM32F0xx_HAL_Driver/Src/stm32f0xx_hal_i2c.c **** 
4788:Drivers/STM32F0xx_HAL_Driver/Src/stm32f0xx_hal_i2c.c **** /**
4789:Drivers/STM32F0xx_HAL_Driver/Src/stm32f0xx_hal_i2c.c ****   * @brief  Manage the disabling of Interrupts.
4790:Drivers/STM32F0xx_HAL_Driver/Src/stm32f0xx_hal_i2c.c ****   * @param  hi2c Pointer to a I2C_HandleTypeDef structure that contains
4791:Drivers/STM32F0xx_HAL_Driver/Src/stm32f0xx_hal_i2c.c ****   *                the configuration information for the specified I2C.
4792:Drivers/STM32F0xx_HAL_Driver/Src/stm32f0xx_hal_i2c.c ****   * @param  InterruptRequest Value of @ref I2C_Interrupt_configuration_definition.
4793:Drivers/STM32F0xx_HAL_Driver/Src/stm32f0xx_hal_i2c.c ****   * @retval HAL status
4794:Drivers/STM32F0xx_HAL_Driver/Src/stm32f0xx_hal_i2c.c ****   */
4795:Drivers/STM32F0xx_HAL_Driver/Src/stm32f0xx_hal_i2c.c **** static HAL_StatusTypeDef I2C_Disable_IRQ(I2C_HandleTypeDef *hi2c, uint16_t InterruptRequest)
4796:Drivers/STM32F0xx_HAL_Driver/Src/stm32f0xx_hal_i2c.c **** {
 12081              		.loc 1 4796 1
 12082              		.cfi_startproc
 12083              		@ args = 0, pretend = 0, frame = 16
 12084              		@ frame_needed = 1, uses_anonymous_args = 0
 12085 0000 80B5     		push	{r7, lr}
 12086              	.LCFI216:
 12087              		.cfi_def_cfa_offset 8
 12088              		.cfi_offset 7, -8
 12089              		.cfi_offset 14, -4
 12090 0002 84B0     		sub	sp, sp, #16
 12091              	.LCFI217:
 12092              		.cfi_def_cfa_offset 24
 12093 0004 00AF     		add	r7, sp, #0
 12094              	.LCFI218:
 12095              		.cfi_def_cfa_register 7
 12096 0006 7860     		str	r0, [r7, #4]
 12097 0008 0A00     		movs	r2, r1
 12098 000a BB1C     		adds	r3, r7, #2
 12099 000c 1A80     		strh	r2, [r3]
4797:Drivers/STM32F0xx_HAL_Driver/Src/stm32f0xx_hal_i2c.c ****   uint32_t tmpisr = 0U;
 12100              		.loc 1 4797 12
 12101 000e 0023     		movs	r3, #0
 12102 0010 FB60     		str	r3, [r7, #12]
4798:Drivers/STM32F0xx_HAL_Driver/Src/stm32f0xx_hal_i2c.c **** 
4799:Drivers/STM32F0xx_HAL_Driver/Src/stm32f0xx_hal_i2c.c ****   if ((InterruptRequest & I2C_XFER_TX_IT) == I2C_XFER_TX_IT)
 12103              		.loc 1 4799 25
 12104 0012 BB1C     		adds	r3, r7, #2
 12105 0014 1B88     		ldrh	r3, [r3]
 12106 0016 0122     		movs	r2, #1
 12107 0018 1340     		ands	r3, r2
 12108              		.loc 1 4799 6
 12109 001a 10D0     		beq	.L554
4800:Drivers/STM32F0xx_HAL_Driver/Src/stm32f0xx_hal_i2c.c ****   {
ARM GAS  C:\Users\ADMINI~1\AppData\Local\Temp\cc3zYV2m.s 			page 298


4801:Drivers/STM32F0xx_HAL_Driver/Src/stm32f0xx_hal_i2c.c ****     /* Disable TC and TXI interrupts */
4802:Drivers/STM32F0xx_HAL_Driver/Src/stm32f0xx_hal_i2c.c ****     tmpisr |= I2C_IT_TCI | I2C_IT_TXI;
 12110              		.loc 1 4802 12
 12111 001c FB68     		ldr	r3, [r7, #12]
 12112 001e 4222     		movs	r2, #66
 12113 0020 1343     		orrs	r3, r2
 12114 0022 FB60     		str	r3, [r7, #12]
4803:Drivers/STM32F0xx_HAL_Driver/Src/stm32f0xx_hal_i2c.c **** 
4804:Drivers/STM32F0xx_HAL_Driver/Src/stm32f0xx_hal_i2c.c ****     if ((hi2c->State & HAL_I2C_STATE_LISTEN) != HAL_I2C_STATE_LISTEN)
 12115              		.loc 1 4804 14
 12116 0024 7B68     		ldr	r3, [r7, #4]
 12117 0026 4122     		movs	r2, #65
 12118 0028 9B5C     		ldrb	r3, [r3, r2]
 12119 002a DBB2     		uxtb	r3, r3
 12120              		.loc 1 4804 22
 12121 002c 1A00     		movs	r2, r3
 12122 002e 2823     		movs	r3, #40
 12123 0030 1340     		ands	r3, r2
 12124              		.loc 1 4804 8
 12125 0032 282B     		cmp	r3, #40
 12126 0034 03D0     		beq	.L554
4805:Drivers/STM32F0xx_HAL_Driver/Src/stm32f0xx_hal_i2c.c ****     {
4806:Drivers/STM32F0xx_HAL_Driver/Src/stm32f0xx_hal_i2c.c ****       /* Disable NACK and STOP interrupts */
4807:Drivers/STM32F0xx_HAL_Driver/Src/stm32f0xx_hal_i2c.c ****       tmpisr |= I2C_IT_STOPI | I2C_IT_NACKI | I2C_IT_ERRI;
 12127              		.loc 1 4807 14
 12128 0036 FB68     		ldr	r3, [r7, #12]
 12129 0038 B022     		movs	r2, #176
 12130 003a 1343     		orrs	r3, r2
 12131 003c FB60     		str	r3, [r7, #12]
 12132              	.L554:
4808:Drivers/STM32F0xx_HAL_Driver/Src/stm32f0xx_hal_i2c.c ****     }
4809:Drivers/STM32F0xx_HAL_Driver/Src/stm32f0xx_hal_i2c.c ****   }
4810:Drivers/STM32F0xx_HAL_Driver/Src/stm32f0xx_hal_i2c.c **** 
4811:Drivers/STM32F0xx_HAL_Driver/Src/stm32f0xx_hal_i2c.c ****   if ((InterruptRequest & I2C_XFER_RX_IT) == I2C_XFER_RX_IT)
 12133              		.loc 1 4811 25
 12134 003e BB1C     		adds	r3, r7, #2
 12135 0040 1B88     		ldrh	r3, [r3]
 12136 0042 0222     		movs	r2, #2
 12137 0044 1340     		ands	r3, r2
 12138              		.loc 1 4811 6
 12139 0046 10D0     		beq	.L555
4812:Drivers/STM32F0xx_HAL_Driver/Src/stm32f0xx_hal_i2c.c ****   {
4813:Drivers/STM32F0xx_HAL_Driver/Src/stm32f0xx_hal_i2c.c ****     /* Disable TC and RXI interrupts */
4814:Drivers/STM32F0xx_HAL_Driver/Src/stm32f0xx_hal_i2c.c ****     tmpisr |= I2C_IT_TCI | I2C_IT_RXI;
 12140              		.loc 1 4814 12
 12141 0048 FB68     		ldr	r3, [r7, #12]
 12142 004a 4422     		movs	r2, #68
 12143 004c 1343     		orrs	r3, r2
 12144 004e FB60     		str	r3, [r7, #12]
4815:Drivers/STM32F0xx_HAL_Driver/Src/stm32f0xx_hal_i2c.c **** 
4816:Drivers/STM32F0xx_HAL_Driver/Src/stm32f0xx_hal_i2c.c ****     if ((hi2c->State & HAL_I2C_STATE_LISTEN) != HAL_I2C_STATE_LISTEN)
 12145              		.loc 1 4816 14
 12146 0050 7B68     		ldr	r3, [r7, #4]
 12147 0052 4122     		movs	r2, #65
 12148 0054 9B5C     		ldrb	r3, [r3, r2]
 12149 0056 DBB2     		uxtb	r3, r3
 12150              		.loc 1 4816 22
ARM GAS  C:\Users\ADMINI~1\AppData\Local\Temp\cc3zYV2m.s 			page 299


 12151 0058 1A00     		movs	r2, r3
 12152 005a 2823     		movs	r3, #40
 12153 005c 1340     		ands	r3, r2
 12154              		.loc 1 4816 8
 12155 005e 282B     		cmp	r3, #40
 12156 0060 03D0     		beq	.L555
4817:Drivers/STM32F0xx_HAL_Driver/Src/stm32f0xx_hal_i2c.c ****     {
4818:Drivers/STM32F0xx_HAL_Driver/Src/stm32f0xx_hal_i2c.c ****       /* Disable NACK and STOP interrupts */
4819:Drivers/STM32F0xx_HAL_Driver/Src/stm32f0xx_hal_i2c.c ****       tmpisr |= I2C_IT_STOPI | I2C_IT_NACKI | I2C_IT_ERRI;
 12157              		.loc 1 4819 14
 12158 0062 FB68     		ldr	r3, [r7, #12]
 12159 0064 B022     		movs	r2, #176
 12160 0066 1343     		orrs	r3, r2
 12161 0068 FB60     		str	r3, [r7, #12]
 12162              	.L555:
4820:Drivers/STM32F0xx_HAL_Driver/Src/stm32f0xx_hal_i2c.c ****     }
4821:Drivers/STM32F0xx_HAL_Driver/Src/stm32f0xx_hal_i2c.c ****   }
4822:Drivers/STM32F0xx_HAL_Driver/Src/stm32f0xx_hal_i2c.c **** 
4823:Drivers/STM32F0xx_HAL_Driver/Src/stm32f0xx_hal_i2c.c ****   if ((InterruptRequest & I2C_XFER_LISTEN_IT) == I2C_XFER_LISTEN_IT)
 12163              		.loc 1 4823 25
 12164 006a BB1C     		adds	r3, r7, #2
 12165 006c 1B88     		ldrh	r3, [r3]
 12166 006e 0422     		movs	r2, #4
 12167 0070 1340     		ands	r3, r2
 12168              		.loc 1 4823 6
 12169 0072 03D0     		beq	.L556
4824:Drivers/STM32F0xx_HAL_Driver/Src/stm32f0xx_hal_i2c.c ****   {
4825:Drivers/STM32F0xx_HAL_Driver/Src/stm32f0xx_hal_i2c.c ****     /* Disable ADDR, NACK and STOP interrupts */
4826:Drivers/STM32F0xx_HAL_Driver/Src/stm32f0xx_hal_i2c.c ****     tmpisr |= I2C_IT_ADDRI | I2C_IT_STOPI | I2C_IT_NACKI | I2C_IT_ERRI;
 12170              		.loc 1 4826 12
 12171 0074 FB68     		ldr	r3, [r7, #12]
 12172 0076 B822     		movs	r2, #184
 12173 0078 1343     		orrs	r3, r2
 12174 007a FB60     		str	r3, [r7, #12]
 12175              	.L556:
4827:Drivers/STM32F0xx_HAL_Driver/Src/stm32f0xx_hal_i2c.c ****   }
4828:Drivers/STM32F0xx_HAL_Driver/Src/stm32f0xx_hal_i2c.c **** 
4829:Drivers/STM32F0xx_HAL_Driver/Src/stm32f0xx_hal_i2c.c ****   if ((InterruptRequest & I2C_XFER_ERROR_IT) == I2C_XFER_ERROR_IT)
 12176              		.loc 1 4829 25
 12177 007c BB1C     		adds	r3, r7, #2
 12178 007e 1B88     		ldrh	r3, [r3]
 12179 0080 1122     		movs	r2, #17
 12180 0082 1340     		ands	r3, r2
 12181              		.loc 1 4829 6
 12182 0084 112B     		cmp	r3, #17
 12183 0086 03D1     		bne	.L557
4830:Drivers/STM32F0xx_HAL_Driver/Src/stm32f0xx_hal_i2c.c ****   {
4831:Drivers/STM32F0xx_HAL_Driver/Src/stm32f0xx_hal_i2c.c ****     /* Enable ERR and NACK interrupts */
4832:Drivers/STM32F0xx_HAL_Driver/Src/stm32f0xx_hal_i2c.c ****     tmpisr |= I2C_IT_ERRI | I2C_IT_NACKI;
 12184              		.loc 1 4832 12
 12185 0088 FB68     		ldr	r3, [r7, #12]
 12186 008a 9022     		movs	r2, #144
 12187 008c 1343     		orrs	r3, r2
 12188 008e FB60     		str	r3, [r7, #12]
 12189              	.L557:
4833:Drivers/STM32F0xx_HAL_Driver/Src/stm32f0xx_hal_i2c.c ****   }
4834:Drivers/STM32F0xx_HAL_Driver/Src/stm32f0xx_hal_i2c.c **** 
ARM GAS  C:\Users\ADMINI~1\AppData\Local\Temp\cc3zYV2m.s 			page 300


4835:Drivers/STM32F0xx_HAL_Driver/Src/stm32f0xx_hal_i2c.c ****   if ((InterruptRequest & I2C_XFER_CPLT_IT) == I2C_XFER_CPLT_IT)
 12190              		.loc 1 4835 25
 12191 0090 BB1C     		adds	r3, r7, #2
 12192 0092 1B88     		ldrh	r3, [r3]
 12193 0094 1222     		movs	r2, #18
 12194 0096 1340     		ands	r3, r2
 12195              		.loc 1 4835 6
 12196 0098 122B     		cmp	r3, #18
 12197 009a 03D1     		bne	.L558
4836:Drivers/STM32F0xx_HAL_Driver/Src/stm32f0xx_hal_i2c.c ****   {
4837:Drivers/STM32F0xx_HAL_Driver/Src/stm32f0xx_hal_i2c.c ****     /* Enable STOP interrupts */
4838:Drivers/STM32F0xx_HAL_Driver/Src/stm32f0xx_hal_i2c.c ****     tmpisr |= I2C_IT_STOPI;
 12198              		.loc 1 4838 12
 12199 009c FB68     		ldr	r3, [r7, #12]
 12200 009e 2022     		movs	r2, #32
 12201 00a0 1343     		orrs	r3, r2
 12202 00a2 FB60     		str	r3, [r7, #12]
 12203              	.L558:
4839:Drivers/STM32F0xx_HAL_Driver/Src/stm32f0xx_hal_i2c.c ****   }
4840:Drivers/STM32F0xx_HAL_Driver/Src/stm32f0xx_hal_i2c.c **** 
4841:Drivers/STM32F0xx_HAL_Driver/Src/stm32f0xx_hal_i2c.c ****   if ((InterruptRequest & I2C_XFER_RELOAD_IT) == I2C_XFER_RELOAD_IT)
 12204              		.loc 1 4841 25
 12205 00a4 BB1C     		adds	r3, r7, #2
 12206 00a6 1B88     		ldrh	r3, [r3]
 12207 00a8 1222     		movs	r2, #18
 12208 00aa 1340     		ands	r3, r2
 12209              		.loc 1 4841 6
 12210 00ac 122B     		cmp	r3, #18
 12211 00ae 03D1     		bne	.L559
4842:Drivers/STM32F0xx_HAL_Driver/Src/stm32f0xx_hal_i2c.c ****   {
4843:Drivers/STM32F0xx_HAL_Driver/Src/stm32f0xx_hal_i2c.c ****     /* Enable TC interrupts */
4844:Drivers/STM32F0xx_HAL_Driver/Src/stm32f0xx_hal_i2c.c ****     tmpisr |= I2C_IT_TCI;
 12212              		.loc 1 4844 12
 12213 00b0 FB68     		ldr	r3, [r7, #12]
 12214 00b2 4022     		movs	r2, #64
 12215 00b4 1343     		orrs	r3, r2
 12216 00b6 FB60     		str	r3, [r7, #12]
 12217              	.L559:
4845:Drivers/STM32F0xx_HAL_Driver/Src/stm32f0xx_hal_i2c.c ****   }
4846:Drivers/STM32F0xx_HAL_Driver/Src/stm32f0xx_hal_i2c.c **** 
4847:Drivers/STM32F0xx_HAL_Driver/Src/stm32f0xx_hal_i2c.c ****   /* Disable interrupts only at the end */
4848:Drivers/STM32F0xx_HAL_Driver/Src/stm32f0xx_hal_i2c.c ****   /* to avoid a breaking situation like at "t" time */
4849:Drivers/STM32F0xx_HAL_Driver/Src/stm32f0xx_hal_i2c.c ****   /* all disable interrupts request are not done */
4850:Drivers/STM32F0xx_HAL_Driver/Src/stm32f0xx_hal_i2c.c ****   __HAL_I2C_DISABLE_IT(hi2c, tmpisr);
 12218              		.loc 1 4850 3
 12219 00b8 7B68     		ldr	r3, [r7, #4]
 12220 00ba 1B68     		ldr	r3, [r3]
 12221 00bc 1A68     		ldr	r2, [r3]
 12222 00be FB68     		ldr	r3, [r7, #12]
 12223 00c0 D943     		mvns	r1, r3
 12224 00c2 7B68     		ldr	r3, [r7, #4]
 12225 00c4 1B68     		ldr	r3, [r3]
 12226 00c6 0A40     		ands	r2, r1
 12227 00c8 1A60     		str	r2, [r3]
4851:Drivers/STM32F0xx_HAL_Driver/Src/stm32f0xx_hal_i2c.c **** 
4852:Drivers/STM32F0xx_HAL_Driver/Src/stm32f0xx_hal_i2c.c ****   return HAL_OK;
 12228              		.loc 1 4852 10
ARM GAS  C:\Users\ADMINI~1\AppData\Local\Temp\cc3zYV2m.s 			page 301


 12229 00ca 0023     		movs	r3, #0
4853:Drivers/STM32F0xx_HAL_Driver/Src/stm32f0xx_hal_i2c.c **** }
 12230              		.loc 1 4853 1
 12231 00cc 1800     		movs	r0, r3
 12232 00ce BD46     		mov	sp, r7
 12233 00d0 04B0     		add	sp, sp, #16
 12234              		@ sp needed
 12235 00d2 80BD     		pop	{r7, pc}
 12236              		.cfi_endproc
 12237              	.LFE109:
 12239              		.text
 12240              	.Letext0:
 12241              		.file 2 "c:\\program files (x86)\\gnu tools arm embedded\\9 2019-q4-major\\arm-none-eabi\\include\
 12242              		.file 3 "c:\\program files (x86)\\gnu tools arm embedded\\9 2019-q4-major\\arm-none-eabi\\include\
 12243              		.file 4 "Drivers/CMSIS/Device/ST/STM32F0xx/Include/system_stm32f0xx.h"
 12244              		.file 5 "Drivers/CMSIS/Device/ST/STM32F0xx/Include/stm32f091xc.h"
 12245              		.file 6 "Drivers/CMSIS/Device/ST/STM32F0xx/Include/stm32f0xx.h"
 12246              		.file 7 "c:\\program files (x86)\\gnu tools arm embedded\\9 2019-q4-major\\arm-none-eabi\\include\
 12247              		.file 8 "c:\\program files (x86)\\gnu tools arm embedded\\9 2019-q4-major\\arm-none-eabi\\include\
 12248              		.file 9 "c:\\program files (x86)\\gnu tools arm embedded\\9 2019-q4-major\\lib\\gcc\\arm-none-eabi
 12249              		.file 10 "c:\\program files (x86)\\gnu tools arm embedded\\9 2019-q4-major\\arm-none-eabi\\include
 12250              		.file 11 "Drivers/STM32F0xx_HAL_Driver/Inc/stm32f0xx_hal_def.h"
 12251              		.file 12 "Drivers/STM32F0xx_HAL_Driver/Inc/stm32f0xx_hal_dma.h"
 12252              		.file 13 "Drivers/STM32F0xx_HAL_Driver/Inc/stm32f0xx_hal_i2c.h"
ARM GAS  C:\Users\ADMINI~1\AppData\Local\Temp\cc3zYV2m.s 			page 302


DEFINED SYMBOLS
                            *ABS*:00000000 stm32f0xx_hal_i2c.c
C:\Users\ADMINI~1\AppData\Local\Temp\cc3zYV2m.s:16     .text.HAL_I2C_Init:00000000 $t
C:\Users\ADMINI~1\AppData\Local\Temp\cc3zYV2m.s:24     .text.HAL_I2C_Init:00000000 HAL_I2C_Init
C:\Users\ADMINI~1\AppData\Local\Temp\cc3zYV2m.s:351    .text.HAL_I2C_MspInit:00000000 HAL_I2C_MspInit
C:\Users\ADMINI~1\AppData\Local\Temp\cc3zYV2m.s:250    .text.HAL_I2C_Init:00000120 $d
C:\Users\ADMINI~1\AppData\Local\Temp\cc3zYV2m.s:257    .text.HAL_I2C_DeInit:00000000 $t
C:\Users\ADMINI~1\AppData\Local\Temp\cc3zYV2m.s:264    .text.HAL_I2C_DeInit:00000000 HAL_I2C_DeInit
C:\Users\ADMINI~1\AppData\Local\Temp\cc3zYV2m.s:386    .text.HAL_I2C_MspDeInit:00000000 HAL_I2C_MspDeInit
C:\Users\ADMINI~1\AppData\Local\Temp\cc3zYV2m.s:344    .text.HAL_I2C_MspInit:00000000 $t
C:\Users\ADMINI~1\AppData\Local\Temp\cc3zYV2m.s:379    .text.HAL_I2C_MspDeInit:00000000 $t
C:\Users\ADMINI~1\AppData\Local\Temp\cc3zYV2m.s:414    .text.HAL_I2C_Master_Transmit:00000000 $t
C:\Users\ADMINI~1\AppData\Local\Temp\cc3zYV2m.s:421    .text.HAL_I2C_Master_Transmit:00000000 HAL_I2C_Master_Transmit
C:\Users\ADMINI~1\AppData\Local\Temp\cc3zYV2m.s:11190  .text.I2C_WaitOnFlagUntilTimeout:00000000 I2C_WaitOnFlagUntilTimeout
C:\Users\ADMINI~1\AppData\Local\Temp\cc3zYV2m.s:11802  .text.I2C_TransferConfig:00000000 I2C_TransferConfig
C:\Users\ADMINI~1\AppData\Local\Temp\cc3zYV2m.s:11290  .text.I2C_WaitOnTXISFlagUntilTimeout:00000000 I2C_WaitOnTXISFlagUntilTimeout
C:\Users\ADMINI~1\AppData\Local\Temp\cc3zYV2m.s:11399  .text.I2C_WaitOnSTOPFlagUntilTimeout:00000000 I2C_WaitOnSTOPFlagUntilTimeout
C:\Users\ADMINI~1\AppData\Local\Temp\cc3zYV2m.s:791    .text.HAL_I2C_Master_Transmit:00000224 $d
C:\Users\ADMINI~1\AppData\Local\Temp\cc3zYV2m.s:796    .text.HAL_I2C_Master_Receive:00000000 $t
C:\Users\ADMINI~1\AppData\Local\Temp\cc3zYV2m.s:803    .text.HAL_I2C_Master_Receive:00000000 HAL_I2C_Master_Receive
C:\Users\ADMINI~1\AppData\Local\Temp\cc3zYV2m.s:11504  .text.I2C_WaitOnRXNEFlagUntilTimeout:00000000 I2C_WaitOnRXNEFlagUntilTimeout
C:\Users\ADMINI~1\AppData\Local\Temp\cc3zYV2m.s:1174   .text.HAL_I2C_Master_Receive:00000224 $d
C:\Users\ADMINI~1\AppData\Local\Temp\cc3zYV2m.s:1179   .text.HAL_I2C_Slave_Transmit:00000000 $t
C:\Users\ADMINI~1\AppData\Local\Temp\cc3zYV2m.s:1186   .text.HAL_I2C_Slave_Transmit:00000000 HAL_I2C_Slave_Transmit
C:\Users\ADMINI~1\AppData\Local\Temp\cc3zYV2m.s:1582   .text.HAL_I2C_Slave_Transmit:0000022c $d
C:\Users\ADMINI~1\AppData\Local\Temp\cc3zYV2m.s:1587   .text.HAL_I2C_Slave_Receive:00000000 $t
C:\Users\ADMINI~1\AppData\Local\Temp\cc3zYV2m.s:1594   .text.HAL_I2C_Slave_Receive:00000000 HAL_I2C_Slave_Receive
C:\Users\ADMINI~1\AppData\Local\Temp\cc3zYV2m.s:1982   .text.HAL_I2C_Slave_Receive:0000021c $d
C:\Users\ADMINI~1\AppData\Local\Temp\cc3zYV2m.s:1987   .text.HAL_I2C_Master_Transmit_IT:00000000 $t
C:\Users\ADMINI~1\AppData\Local\Temp\cc3zYV2m.s:1994   .text.HAL_I2C_Master_Transmit_IT:00000000 HAL_I2C_Master_Transmit_IT
C:\Users\ADMINI~1\AppData\Local\Temp\cc3zYV2m.s:11898  .text.I2C_Enable_IRQ:00000000 I2C_Enable_IRQ
C:\Users\ADMINI~1\AppData\Local\Temp\cc3zYV2m.s:2168   .text.HAL_I2C_Master_Transmit_IT:000000f4 $d
C:\Users\ADMINI~1\AppData\Local\Temp\cc3zYV2m.s:7693   .text.I2C_Master_ISR_IT:00000000 I2C_Master_ISR_IT
C:\Users\ADMINI~1\AppData\Local\Temp\cc3zYV2m.s:2174   .text.HAL_I2C_Master_Receive_IT:00000000 $t
C:\Users\ADMINI~1\AppData\Local\Temp\cc3zYV2m.s:2181   .text.HAL_I2C_Master_Receive_IT:00000000 HAL_I2C_Master_Receive_IT
C:\Users\ADMINI~1\AppData\Local\Temp\cc3zYV2m.s:2355   .text.HAL_I2C_Master_Receive_IT:000000f4 $d
C:\Users\ADMINI~1\AppData\Local\Temp\cc3zYV2m.s:2361   .text.HAL_I2C_Slave_Transmit_IT:00000000 $t
C:\Users\ADMINI~1\AppData\Local\Temp\cc3zYV2m.s:2368   .text.HAL_I2C_Slave_Transmit_IT:00000000 HAL_I2C_Slave_Transmit_IT
C:\Users\ADMINI~1\AppData\Local\Temp\cc3zYV2m.s:2488   .text.HAL_I2C_Slave_Transmit_IT:0000009c $d
C:\Users\ADMINI~1\AppData\Local\Temp\cc3zYV2m.s:8115   .text.I2C_Slave_ISR_IT:00000000 I2C_Slave_ISR_IT
C:\Users\ADMINI~1\AppData\Local\Temp\cc3zYV2m.s:2495   .text.HAL_I2C_Slave_Receive_IT:00000000 $t
C:\Users\ADMINI~1\AppData\Local\Temp\cc3zYV2m.s:2502   .text.HAL_I2C_Slave_Receive_IT:00000000 HAL_I2C_Slave_Receive_IT
C:\Users\ADMINI~1\AppData\Local\Temp\cc3zYV2m.s:2622   .text.HAL_I2C_Slave_Receive_IT:0000009c $d
C:\Users\ADMINI~1\AppData\Local\Temp\cc3zYV2m.s:2629   .text.HAL_I2C_Master_Transmit_DMA:00000000 $t
C:\Users\ADMINI~1\AppData\Local\Temp\cc3zYV2m.s:2636   .text.HAL_I2C_Master_Transmit_DMA:00000000 HAL_I2C_Master_Transmit_DMA
C:\Users\ADMINI~1\AppData\Local\Temp\cc3zYV2m.s:2916   .text.HAL_I2C_Master_Transmit_DMA:00000190 $d
C:\Users\ADMINI~1\AppData\Local\Temp\cc3zYV2m.s:8474   .text.I2C_Master_ISR_DMA:00000000 I2C_Master_ISR_DMA
C:\Users\ADMINI~1\AppData\Local\Temp\cc3zYV2m.s:10726  .text.I2C_DMAMasterTransmitCplt:00000000 I2C_DMAMasterTransmitCplt
C:\Users\ADMINI~1\AppData\Local\Temp\cc3zYV2m.s:11046  .text.I2C_DMAError:00000000 I2C_DMAError
C:\Users\ADMINI~1\AppData\Local\Temp\cc3zYV2m.s:2925   .text.HAL_I2C_Master_Receive_DMA:00000000 $t
C:\Users\ADMINI~1\AppData\Local\Temp\cc3zYV2m.s:2932   .text.HAL_I2C_Master_Receive_DMA:00000000 HAL_I2C_Master_Receive_DMA
C:\Users\ADMINI~1\AppData\Local\Temp\cc3zYV2m.s:3212   .text.HAL_I2C_Master_Receive_DMA:00000190 $d
C:\Users\ADMINI~1\AppData\Local\Temp\cc3zYV2m.s:10886  .text.I2C_DMAMasterReceiveCplt:00000000 I2C_DMAMasterReceiveCplt
C:\Users\ADMINI~1\AppData\Local\Temp\cc3zYV2m.s:3221   .text.HAL_I2C_Slave_Transmit_DMA:00000000 $t
C:\Users\ADMINI~1\AppData\Local\Temp\cc3zYV2m.s:3228   .text.HAL_I2C_Slave_Transmit_DMA:00000000 HAL_I2C_Slave_Transmit_DMA
C:\Users\ADMINI~1\AppData\Local\Temp\cc3zYV2m.s:3415   .text.HAL_I2C_Slave_Transmit_DMA:000000f4 $d
C:\Users\ADMINI~1\AppData\Local\Temp\cc3zYV2m.s:8740   .text.I2C_Slave_ISR_DMA:00000000 I2C_Slave_ISR_DMA
ARM GAS  C:\Users\ADMINI~1\AppData\Local\Temp\cc3zYV2m.s 			page 303


C:\Users\ADMINI~1\AppData\Local\Temp\cc3zYV2m.s:10852  .text.I2C_DMASlaveTransmitCplt:00000000 I2C_DMASlaveTransmitCplt
C:\Users\ADMINI~1\AppData\Local\Temp\cc3zYV2m.s:3424   .text.HAL_I2C_Slave_Receive_DMA:00000000 $t
C:\Users\ADMINI~1\AppData\Local\Temp\cc3zYV2m.s:3431   .text.HAL_I2C_Slave_Receive_DMA:00000000 HAL_I2C_Slave_Receive_DMA
C:\Users\ADMINI~1\AppData\Local\Temp\cc3zYV2m.s:3618   .text.HAL_I2C_Slave_Receive_DMA:000000f4 $d
C:\Users\ADMINI~1\AppData\Local\Temp\cc3zYV2m.s:11012  .text.I2C_DMASlaveReceiveCplt:00000000 I2C_DMASlaveReceiveCplt
C:\Users\ADMINI~1\AppData\Local\Temp\cc3zYV2m.s:3627   .text.HAL_I2C_Mem_Write:00000000 $t
C:\Users\ADMINI~1\AppData\Local\Temp\cc3zYV2m.s:3634   .text.HAL_I2C_Mem_Write:00000000 HAL_I2C_Mem_Write
C:\Users\ADMINI~1\AppData\Local\Temp\cc3zYV2m.s:8904   .text.I2C_RequestMemoryWrite:00000000 I2C_RequestMemoryWrite
C:\Users\ADMINI~1\AppData\Local\Temp\cc3zYV2m.s:4061   .text.HAL_I2C_Mem_Write:0000027c $d
C:\Users\ADMINI~1\AppData\Local\Temp\cc3zYV2m.s:4066   .text.HAL_I2C_Mem_Read:00000000 $t
C:\Users\ADMINI~1\AppData\Local\Temp\cc3zYV2m.s:4073   .text.HAL_I2C_Mem_Read:00000000 HAL_I2C_Mem_Read
C:\Users\ADMINI~1\AppData\Local\Temp\cc3zYV2m.s:9073   .text.I2C_RequestMemoryRead:00000000 I2C_RequestMemoryRead
C:\Users\ADMINI~1\AppData\Local\Temp\cc3zYV2m.s:4496   .text.HAL_I2C_Mem_Read:0000027c $d
C:\Users\ADMINI~1\AppData\Local\Temp\cc3zYV2m.s:4501   .text.HAL_I2C_Mem_Write_IT:00000000 $t
C:\Users\ADMINI~1\AppData\Local\Temp\cc3zYV2m.s:4508   .text.HAL_I2C_Mem_Write_IT:00000000 HAL_I2C_Mem_Write_IT
C:\Users\ADMINI~1\AppData\Local\Temp\cc3zYV2m.s:4751   .text.HAL_I2C_Mem_Write_IT:0000015c $d
C:\Users\ADMINI~1\AppData\Local\Temp\cc3zYV2m.s:4757   .text.HAL_I2C_Mem_Read_IT:00000000 $t
C:\Users\ADMINI~1\AppData\Local\Temp\cc3zYV2m.s:4764   .text.HAL_I2C_Mem_Read_IT:00000000 HAL_I2C_Mem_Read_IT
C:\Users\ADMINI~1\AppData\Local\Temp\cc3zYV2m.s:5008   .text.HAL_I2C_Mem_Read_IT:00000160 $d
C:\Users\ADMINI~1\AppData\Local\Temp\cc3zYV2m.s:5014   .text.HAL_I2C_Mem_Write_DMA:00000000 $t
C:\Users\ADMINI~1\AppData\Local\Temp\cc3zYV2m.s:5021   .text.HAL_I2C_Mem_Write_DMA:00000000 HAL_I2C_Mem_Write_DMA
C:\Users\ADMINI~1\AppData\Local\Temp\cc3zYV2m.s:5329   .text.HAL_I2C_Mem_Write_DMA:000001b8 $d
C:\Users\ADMINI~1\AppData\Local\Temp\cc3zYV2m.s:5337   .text.HAL_I2C_Mem_Read_DMA:00000000 $t
C:\Users\ADMINI~1\AppData\Local\Temp\cc3zYV2m.s:5344   .text.HAL_I2C_Mem_Read_DMA:00000000 HAL_I2C_Mem_Read_DMA
C:\Users\ADMINI~1\AppData\Local\Temp\cc3zYV2m.s:5653   .text.HAL_I2C_Mem_Read_DMA:000001b8 $d
C:\Users\ADMINI~1\AppData\Local\Temp\cc3zYV2m.s:5661   .text.HAL_I2C_IsDeviceReady:00000000 $t
C:\Users\ADMINI~1\AppData\Local\Temp\cc3zYV2m.s:5668   .text.HAL_I2C_IsDeviceReady:00000000 HAL_I2C_IsDeviceReady
C:\Users\ADMINI~1\AppData\Local\Temp\cc3zYV2m.s:5993   .text.HAL_I2C_IsDeviceReady:000001cc $d
C:\Users\ADMINI~1\AppData\Local\Temp\cc3zYV2m.s:5998   .text.HAL_I2C_Master_Sequential_Transmit_IT:00000000 $t
C:\Users\ADMINI~1\AppData\Local\Temp\cc3zYV2m.s:6005   .text.HAL_I2C_Master_Sequential_Transmit_IT:00000000 HAL_I2C_Master_Sequential_Transmit_IT
C:\Users\ADMINI~1\AppData\Local\Temp\cc3zYV2m.s:6176   .text.HAL_I2C_Master_Sequential_Transmit_IT:000000ec $d
C:\Users\ADMINI~1\AppData\Local\Temp\cc3zYV2m.s:6181   .text.HAL_I2C_Master_Sequential_Receive_IT:00000000 $t
C:\Users\ADMINI~1\AppData\Local\Temp\cc3zYV2m.s:6188   .text.HAL_I2C_Master_Sequential_Receive_IT:00000000 HAL_I2C_Master_Sequential_Receive_IT
C:\Users\ADMINI~1\AppData\Local\Temp\cc3zYV2m.s:6359   .text.HAL_I2C_Master_Sequential_Receive_IT:000000ec $d
C:\Users\ADMINI~1\AppData\Local\Temp\cc3zYV2m.s:6364   .text.HAL_I2C_Slave_Sequential_Transmit_IT:00000000 $t
C:\Users\ADMINI~1\AppData\Local\Temp\cc3zYV2m.s:6371   .text.HAL_I2C_Slave_Sequential_Transmit_IT:00000000 HAL_I2C_Slave_Sequential_Transmit_IT
C:\Users\ADMINI~1\AppData\Local\Temp\cc3zYV2m.s:12079  .text.I2C_Disable_IRQ:00000000 I2C_Disable_IRQ
C:\Users\ADMINI~1\AppData\Local\Temp\cc3zYV2m.s:6545   .text.HAL_I2C_Slave_Sequential_Transmit_IT:000000ec $d
C:\Users\ADMINI~1\AppData\Local\Temp\cc3zYV2m.s:6551   .text.HAL_I2C_Slave_Sequential_Receive_IT:00000000 $t
C:\Users\ADMINI~1\AppData\Local\Temp\cc3zYV2m.s:6558   .text.HAL_I2C_Slave_Sequential_Receive_IT:00000000 HAL_I2C_Slave_Sequential_Receive_IT
C:\Users\ADMINI~1\AppData\Local\Temp\cc3zYV2m.s:6732   .text.HAL_I2C_Slave_Sequential_Receive_IT:000000ec $d
C:\Users\ADMINI~1\AppData\Local\Temp\cc3zYV2m.s:6738   .text.HAL_I2C_EnableListen_IT:00000000 $t
C:\Users\ADMINI~1\AppData\Local\Temp\cc3zYV2m.s:6745   .text.HAL_I2C_EnableListen_IT:00000000 HAL_I2C_EnableListen_IT
C:\Users\ADMINI~1\AppData\Local\Temp\cc3zYV2m.s:6801   .text.HAL_I2C_EnableListen_IT:0000003c $d
C:\Users\ADMINI~1\AppData\Local\Temp\cc3zYV2m.s:6806   .text.HAL_I2C_DisableListen_IT:00000000 $t
C:\Users\ADMINI~1\AppData\Local\Temp\cc3zYV2m.s:6813   .text.HAL_I2C_DisableListen_IT:00000000 HAL_I2C_DisableListen_IT
C:\Users\ADMINI~1\AppData\Local\Temp\cc3zYV2m.s:6899   .text.HAL_I2C_Master_Abort_IT:00000000 $t
C:\Users\ADMINI~1\AppData\Local\Temp\cc3zYV2m.s:6906   .text.HAL_I2C_Master_Abort_IT:00000000 HAL_I2C_Master_Abort_IT
C:\Users\ADMINI~1\AppData\Local\Temp\cc3zYV2m.s:7004   .text.HAL_I2C_EV_IRQHandler:00000000 $t
C:\Users\ADMINI~1\AppData\Local\Temp\cc3zYV2m.s:7011   .text.HAL_I2C_EV_IRQHandler:00000000 HAL_I2C_EV_IRQHandler
C:\Users\ADMINI~1\AppData\Local\Temp\cc3zYV2m.s:7067   .text.HAL_I2C_ER_IRQHandler:00000000 $t
C:\Users\ADMINI~1\AppData\Local\Temp\cc3zYV2m.s:7074   .text.HAL_I2C_ER_IRQHandler:00000000 HAL_I2C_ER_IRQHandler
C:\Users\ADMINI~1\AppData\Local\Temp\cc3zYV2m.s:10366  .text.I2C_ITError:00000000 I2C_ITError
C:\Users\ADMINI~1\AppData\Local\Temp\cc3zYV2m.s:7211   .text.HAL_I2C_MasterTxCpltCallback:00000000 $t
C:\Users\ADMINI~1\AppData\Local\Temp\cc3zYV2m.s:7218   .text.HAL_I2C_MasterTxCpltCallback:00000000 HAL_I2C_MasterTxCpltCallback
C:\Users\ADMINI~1\AppData\Local\Temp\cc3zYV2m.s:7246   .text.HAL_I2C_MasterRxCpltCallback:00000000 $t
C:\Users\ADMINI~1\AppData\Local\Temp\cc3zYV2m.s:7253   .text.HAL_I2C_MasterRxCpltCallback:00000000 HAL_I2C_MasterRxCpltCallback
ARM GAS  C:\Users\ADMINI~1\AppData\Local\Temp\cc3zYV2m.s 			page 304


C:\Users\ADMINI~1\AppData\Local\Temp\cc3zYV2m.s:7281   .text.HAL_I2C_SlaveTxCpltCallback:00000000 $t
C:\Users\ADMINI~1\AppData\Local\Temp\cc3zYV2m.s:7288   .text.HAL_I2C_SlaveTxCpltCallback:00000000 HAL_I2C_SlaveTxCpltCallback
C:\Users\ADMINI~1\AppData\Local\Temp\cc3zYV2m.s:7316   .text.HAL_I2C_SlaveRxCpltCallback:00000000 $t
C:\Users\ADMINI~1\AppData\Local\Temp\cc3zYV2m.s:7323   .text.HAL_I2C_SlaveRxCpltCallback:00000000 HAL_I2C_SlaveRxCpltCallback
C:\Users\ADMINI~1\AppData\Local\Temp\cc3zYV2m.s:7351   .text.HAL_I2C_AddrCallback:00000000 $t
C:\Users\ADMINI~1\AppData\Local\Temp\cc3zYV2m.s:7358   .text.HAL_I2C_AddrCallback:00000000 HAL_I2C_AddrCallback
C:\Users\ADMINI~1\AppData\Local\Temp\cc3zYV2m.s:7394   .text.HAL_I2C_ListenCpltCallback:00000000 $t
C:\Users\ADMINI~1\AppData\Local\Temp\cc3zYV2m.s:7401   .text.HAL_I2C_ListenCpltCallback:00000000 HAL_I2C_ListenCpltCallback
C:\Users\ADMINI~1\AppData\Local\Temp\cc3zYV2m.s:7429   .text.HAL_I2C_MemTxCpltCallback:00000000 $t
C:\Users\ADMINI~1\AppData\Local\Temp\cc3zYV2m.s:7436   .text.HAL_I2C_MemTxCpltCallback:00000000 HAL_I2C_MemTxCpltCallback
C:\Users\ADMINI~1\AppData\Local\Temp\cc3zYV2m.s:7464   .text.HAL_I2C_MemRxCpltCallback:00000000 $t
C:\Users\ADMINI~1\AppData\Local\Temp\cc3zYV2m.s:7471   .text.HAL_I2C_MemRxCpltCallback:00000000 HAL_I2C_MemRxCpltCallback
C:\Users\ADMINI~1\AppData\Local\Temp\cc3zYV2m.s:7499   .text.HAL_I2C_ErrorCallback:00000000 $t
C:\Users\ADMINI~1\AppData\Local\Temp\cc3zYV2m.s:7506   .text.HAL_I2C_ErrorCallback:00000000 HAL_I2C_ErrorCallback
C:\Users\ADMINI~1\AppData\Local\Temp\cc3zYV2m.s:7534   .text.HAL_I2C_AbortCpltCallback:00000000 $t
C:\Users\ADMINI~1\AppData\Local\Temp\cc3zYV2m.s:7541   .text.HAL_I2C_AbortCpltCallback:00000000 HAL_I2C_AbortCpltCallback
C:\Users\ADMINI~1\AppData\Local\Temp\cc3zYV2m.s:7569   .text.HAL_I2C_GetState:00000000 $t
C:\Users\ADMINI~1\AppData\Local\Temp\cc3zYV2m.s:7576   .text.HAL_I2C_GetState:00000000 HAL_I2C_GetState
C:\Users\ADMINI~1\AppData\Local\Temp\cc3zYV2m.s:7609   .text.HAL_I2C_GetMode:00000000 $t
C:\Users\ADMINI~1\AppData\Local\Temp\cc3zYV2m.s:7616   .text.HAL_I2C_GetMode:00000000 HAL_I2C_GetMode
C:\Users\ADMINI~1\AppData\Local\Temp\cc3zYV2m.s:7649   .text.HAL_I2C_GetError:00000000 $t
C:\Users\ADMINI~1\AppData\Local\Temp\cc3zYV2m.s:7656   .text.HAL_I2C_GetError:00000000 HAL_I2C_GetError
C:\Users\ADMINI~1\AppData\Local\Temp\cc3zYV2m.s:7687   .text.I2C_Master_ISR_IT:00000000 $t
C:\Users\ADMINI~1\AppData\Local\Temp\cc3zYV2m.s:10657  .text.I2C_Flush_TXDR:00000000 I2C_Flush_TXDR
C:\Users\ADMINI~1\AppData\Local\Temp\cc3zYV2m.s:9480   .text.I2C_ITMasterSequentialCplt:00000000 I2C_ITMasterSequentialCplt
C:\Users\ADMINI~1\AppData\Local\Temp\cc3zYV2m.s:9690   .text.I2C_ITMasterCplt:00000000 I2C_ITMasterCplt
C:\Users\ADMINI~1\AppData\Local\Temp\cc3zYV2m.s:8104   .text.I2C_Master_ISR_IT:00000244 $d
C:\Users\ADMINI~1\AppData\Local\Temp\cc3zYV2m.s:8109   .text.I2C_Slave_ISR_IT:00000000 $t
C:\Users\ADMINI~1\AppData\Local\Temp\cc3zYV2m.s:10234  .text.I2C_ITListenCplt:00000000 I2C_ITListenCplt
C:\Users\ADMINI~1\AppData\Local\Temp\cc3zYV2m.s:9585   .text.I2C_ITSlaveSequentialCplt:00000000 I2C_ITSlaveSequentialCplt
C:\Users\ADMINI~1\AppData\Local\Temp\cc3zYV2m.s:9240   .text.I2C_ITAddrCplt:00000000 I2C_ITAddrCplt
C:\Users\ADMINI~1\AppData\Local\Temp\cc3zYV2m.s:9917   .text.I2C_ITSlaveCplt:00000000 I2C_ITSlaveCplt
C:\Users\ADMINI~1\AppData\Local\Temp\cc3zYV2m.s:8463   .text.I2C_Slave_ISR_IT:000001dc $d
C:\Users\ADMINI~1\AppData\Local\Temp\cc3zYV2m.s:8468   .text.I2C_Master_ISR_DMA:00000000 $t
C:\Users\ADMINI~1\AppData\Local\Temp\cc3zYV2m.s:8734   .text.I2C_Slave_ISR_DMA:00000000 $t
C:\Users\ADMINI~1\AppData\Local\Temp\cc3zYV2m.s:8898   .text.I2C_RequestMemoryWrite:00000000 $t
C:\Users\ADMINI~1\AppData\Local\Temp\cc3zYV2m.s:9067   .text.I2C_RequestMemoryRead:00000000 $t
C:\Users\ADMINI~1\AppData\Local\Temp\cc3zYV2m.s:9234   .text.I2C_ITAddrCplt:00000000 $t
C:\Users\ADMINI~1\AppData\Local\Temp\cc3zYV2m.s:9474   .text.I2C_ITMasterSequentialCplt:00000000 $t
C:\Users\ADMINI~1\AppData\Local\Temp\cc3zYV2m.s:9579   .text.I2C_ITSlaveSequentialCplt:00000000 $t
C:\Users\ADMINI~1\AppData\Local\Temp\cc3zYV2m.s:9684   .text.I2C_ITMasterCplt:00000000 $t
C:\Users\ADMINI~1\AppData\Local\Temp\cc3zYV2m.s:9905   .text.I2C_ITMasterCplt:00000134 $d
C:\Users\ADMINI~1\AppData\Local\Temp\cc3zYV2m.s:9911   .text.I2C_ITSlaveCplt:00000000 $t
C:\Users\ADMINI~1\AppData\Local\Temp\cc3zYV2m.s:10222  .text.I2C_ITSlaveCplt:000001b0 $d
C:\Users\ADMINI~1\AppData\Local\Temp\cc3zYV2m.s:10228  .text.I2C_ITListenCplt:00000000 $t
C:\Users\ADMINI~1\AppData\Local\Temp\cc3zYV2m.s:10355  .text.I2C_ITListenCplt:000000a0 $d
C:\Users\ADMINI~1\AppData\Local\Temp\cc3zYV2m.s:10360  .text.I2C_ITError:00000000 $t
C:\Users\ADMINI~1\AppData\Local\Temp\cc3zYV2m.s:10642  .text.I2C_ITError:0000017c $d
C:\Users\ADMINI~1\AppData\Local\Temp\cc3zYV2m.s:11102  .text.I2C_DMAAbort:00000000 I2C_DMAAbort
C:\Users\ADMINI~1\AppData\Local\Temp\cc3zYV2m.s:10651  .text.I2C_Flush_TXDR:00000000 $t
C:\Users\ADMINI~1\AppData\Local\Temp\cc3zYV2m.s:10720  .text.I2C_DMAMasterTransmitCplt:00000000 $t
C:\Users\ADMINI~1\AppData\Local\Temp\cc3zYV2m.s:10841  .text.I2C_DMAMasterTransmitCplt:0000008c $d
C:\Users\ADMINI~1\AppData\Local\Temp\cc3zYV2m.s:10846  .text.I2C_DMASlaveTransmitCplt:00000000 $t
C:\Users\ADMINI~1\AppData\Local\Temp\cc3zYV2m.s:10880  .text.I2C_DMAMasterReceiveCplt:00000000 $t
C:\Users\ADMINI~1\AppData\Local\Temp\cc3zYV2m.s:11001  .text.I2C_DMAMasterReceiveCplt:0000008c $d
C:\Users\ADMINI~1\AppData\Local\Temp\cc3zYV2m.s:11006  .text.I2C_DMASlaveReceiveCplt:00000000 $t
C:\Users\ADMINI~1\AppData\Local\Temp\cc3zYV2m.s:11040  .text.I2C_DMAError:00000000 $t
ARM GAS  C:\Users\ADMINI~1\AppData\Local\Temp\cc3zYV2m.s 			page 305


C:\Users\ADMINI~1\AppData\Local\Temp\cc3zYV2m.s:11096  .text.I2C_DMAAbort:00000000 $t
C:\Users\ADMINI~1\AppData\Local\Temp\cc3zYV2m.s:11184  .text.I2C_WaitOnFlagUntilTimeout:00000000 $t
C:\Users\ADMINI~1\AppData\Local\Temp\cc3zYV2m.s:11284  .text.I2C_WaitOnTXISFlagUntilTimeout:00000000 $t
C:\Users\ADMINI~1\AppData\Local\Temp\cc3zYV2m.s:11654  .text.I2C_IsAcknowledgeFailed:00000000 I2C_IsAcknowledgeFailed
C:\Users\ADMINI~1\AppData\Local\Temp\cc3zYV2m.s:11393  .text.I2C_WaitOnSTOPFlagUntilTimeout:00000000 $t
C:\Users\ADMINI~1\AppData\Local\Temp\cc3zYV2m.s:11498  .text.I2C_WaitOnRXNEFlagUntilTimeout:00000000 $t
C:\Users\ADMINI~1\AppData\Local\Temp\cc3zYV2m.s:11643  .text.I2C_WaitOnRXNEFlagUntilTimeout:000000b8 $d
C:\Users\ADMINI~1\AppData\Local\Temp\cc3zYV2m.s:11648  .text.I2C_IsAcknowledgeFailed:00000000 $t
C:\Users\ADMINI~1\AppData\Local\Temp\cc3zYV2m.s:11791  .text.I2C_IsAcknowledgeFailed:000000b8 $d
C:\Users\ADMINI~1\AppData\Local\Temp\cc3zYV2m.s:11796  .text.I2C_TransferConfig:00000000 $t
C:\Users\ADMINI~1\AppData\Local\Temp\cc3zYV2m.s:11887  .text.I2C_TransferConfig:00000068 $d
C:\Users\ADMINI~1\AppData\Local\Temp\cc3zYV2m.s:11892  .text.I2C_Enable_IRQ:00000000 $t
C:\Users\ADMINI~1\AppData\Local\Temp\cc3zYV2m.s:12067  .text.I2C_Enable_IRQ:000000dc $d
C:\Users\ADMINI~1\AppData\Local\Temp\cc3zYV2m.s:12073  .text.I2C_Disable_IRQ:00000000 $t

UNDEFINED SYMBOLS
HAL_GetTick
HAL_DMA_Start_IT
HAL_DMA_Abort_IT
