ARM GAS  C:\Users\Vulca\AppData\Local\Temp\ccgcmgtb.s 			page 1


   1              		.cpu cortex-m0
   2              		.eabi_attribute 20, 1
   3              		.eabi_attribute 21, 1
   4              		.eabi_attribute 23, 3
   5              		.eabi_attribute 24, 1
   6              		.eabi_attribute 25, 1
   7              		.eabi_attribute 26, 1
   8              		.eabi_attribute 30, 1
   9              		.eabi_attribute 34, 0
  10              		.eabi_attribute 18, 4
  11              		.file	"stm32f0xx_hal_dma.c"
  12              		.text
  13              	.Ltext0:
  14              		.cfi_sections	.debug_frame
  15              		.section	.text.DMA_SetConfig,"ax",%progbits
  16              		.align	1
  17              		.arch armv6s-m
  18              		.syntax unified
  19              		.code	16
  20              		.thumb_func
  21              		.fpu softvfp
  23              	DMA_SetConfig:
  24              	.LVL0:
  25              	.LFB52:
  26              		.file 1 "Drivers/STM32F0xx_HAL_Driver/Src/stm32f0xx_hal_dma.c"
   1:Drivers/STM32F0xx_HAL_Driver/Src/stm32f0xx_hal_dma.c **** /**
   2:Drivers/STM32F0xx_HAL_Driver/Src/stm32f0xx_hal_dma.c ****   ******************************************************************************
   3:Drivers/STM32F0xx_HAL_Driver/Src/stm32f0xx_hal_dma.c ****   * @file    stm32f0xx_hal_dma.c
   4:Drivers/STM32F0xx_HAL_Driver/Src/stm32f0xx_hal_dma.c ****   * @author  MCD Application Team
   5:Drivers/STM32F0xx_HAL_Driver/Src/stm32f0xx_hal_dma.c ****   * @brief   DMA HAL module driver.
   6:Drivers/STM32F0xx_HAL_Driver/Src/stm32f0xx_hal_dma.c ****   *    
   7:Drivers/STM32F0xx_HAL_Driver/Src/stm32f0xx_hal_dma.c ****   *         This file provides firmware functions to manage the following 
   8:Drivers/STM32F0xx_HAL_Driver/Src/stm32f0xx_hal_dma.c ****   *         functionalities of the Direct Memory Access (DMA) peripheral:
   9:Drivers/STM32F0xx_HAL_Driver/Src/stm32f0xx_hal_dma.c ****   *           + Initialization and de-initialization functions
  10:Drivers/STM32F0xx_HAL_Driver/Src/stm32f0xx_hal_dma.c ****   *           + IO operation functions
  11:Drivers/STM32F0xx_HAL_Driver/Src/stm32f0xx_hal_dma.c ****   *           + Peripheral State and errors functions
  12:Drivers/STM32F0xx_HAL_Driver/Src/stm32f0xx_hal_dma.c ****   @verbatim     
  13:Drivers/STM32F0xx_HAL_Driver/Src/stm32f0xx_hal_dma.c ****   ==============================================================================      
  14:Drivers/STM32F0xx_HAL_Driver/Src/stm32f0xx_hal_dma.c ****                         ##### How to use this driver #####
  15:Drivers/STM32F0xx_HAL_Driver/Src/stm32f0xx_hal_dma.c ****   ============================================================================== 
  16:Drivers/STM32F0xx_HAL_Driver/Src/stm32f0xx_hal_dma.c ****   [..]
  17:Drivers/STM32F0xx_HAL_Driver/Src/stm32f0xx_hal_dma.c ****    (#) Enable and configure the peripheral to be connected to the DMA Channel
  18:Drivers/STM32F0xx_HAL_Driver/Src/stm32f0xx_hal_dma.c ****        (except for internal SRAM / FLASH memories: no initialization is 
  19:Drivers/STM32F0xx_HAL_Driver/Src/stm32f0xx_hal_dma.c ****        necessary). Please refer to Reference manual for connection between peripherals
  20:Drivers/STM32F0xx_HAL_Driver/Src/stm32f0xx_hal_dma.c ****        and DMA requests .
  21:Drivers/STM32F0xx_HAL_Driver/Src/stm32f0xx_hal_dma.c **** 
  22:Drivers/STM32F0xx_HAL_Driver/Src/stm32f0xx_hal_dma.c ****    (#) For a given Channel, program the required configuration through the following parameters:   
  23:Drivers/STM32F0xx_HAL_Driver/Src/stm32f0xx_hal_dma.c ****        Transfer Direction, Source and Destination data formats, 
  24:Drivers/STM32F0xx_HAL_Driver/Src/stm32f0xx_hal_dma.c ****        Circular or Normal mode, Channel Priority level, Source and Destination Increment mode, 
  25:Drivers/STM32F0xx_HAL_Driver/Src/stm32f0xx_hal_dma.c ****        using HAL_DMA_Init() function.
  26:Drivers/STM32F0xx_HAL_Driver/Src/stm32f0xx_hal_dma.c **** 
  27:Drivers/STM32F0xx_HAL_Driver/Src/stm32f0xx_hal_dma.c ****    (#) Use HAL_DMA_GetState() function to return the DMA state and HAL_DMA_GetError() in case of er
  28:Drivers/STM32F0xx_HAL_Driver/Src/stm32f0xx_hal_dma.c ****        detection.
  29:Drivers/STM32F0xx_HAL_Driver/Src/stm32f0xx_hal_dma.c ****                     
  30:Drivers/STM32F0xx_HAL_Driver/Src/stm32f0xx_hal_dma.c ****    (#) Use HAL_DMA_Abort() function to abort the current transfer
  31:Drivers/STM32F0xx_HAL_Driver/Src/stm32f0xx_hal_dma.c ****                    
  32:Drivers/STM32F0xx_HAL_Driver/Src/stm32f0xx_hal_dma.c ****      -@-   In Memory-to-Memory transfer mode, Circular mode is not allowed.
ARM GAS  C:\Users\Vulca\AppData\Local\Temp\ccgcmgtb.s 			page 2


  33:Drivers/STM32F0xx_HAL_Driver/Src/stm32f0xx_hal_dma.c ****      *** Polling mode IO operation ***
  34:Drivers/STM32F0xx_HAL_Driver/Src/stm32f0xx_hal_dma.c ****      =================================   
  35:Drivers/STM32F0xx_HAL_Driver/Src/stm32f0xx_hal_dma.c ****     [..] 
  36:Drivers/STM32F0xx_HAL_Driver/Src/stm32f0xx_hal_dma.c ****       (+) Use HAL_DMA_Start() to start DMA transfer after the configuration of Source 
  37:Drivers/STM32F0xx_HAL_Driver/Src/stm32f0xx_hal_dma.c ****           address and destination address and the Length of data to be transferred
  38:Drivers/STM32F0xx_HAL_Driver/Src/stm32f0xx_hal_dma.c ****       (+) Use HAL_DMA_PollForTransfer() to poll for the end of current transfer, in this  
  39:Drivers/STM32F0xx_HAL_Driver/Src/stm32f0xx_hal_dma.c ****           case a fixed Timeout can be configured by User depending from his application.
  40:Drivers/STM32F0xx_HAL_Driver/Src/stm32f0xx_hal_dma.c **** 
  41:Drivers/STM32F0xx_HAL_Driver/Src/stm32f0xx_hal_dma.c ****      *** Interrupt mode IO operation ***    
  42:Drivers/STM32F0xx_HAL_Driver/Src/stm32f0xx_hal_dma.c ****      =================================== 
  43:Drivers/STM32F0xx_HAL_Driver/Src/stm32f0xx_hal_dma.c ****     [..]
  44:Drivers/STM32F0xx_HAL_Driver/Src/stm32f0xx_hal_dma.c ****       (+) Configure the DMA interrupt priority using HAL_NVIC_SetPriority()
  45:Drivers/STM32F0xx_HAL_Driver/Src/stm32f0xx_hal_dma.c ****       (+) Enable the DMA IRQ handler using HAL_NVIC_EnableIRQ() 
  46:Drivers/STM32F0xx_HAL_Driver/Src/stm32f0xx_hal_dma.c ****       (+) Use HAL_DMA_Start_IT() to start DMA transfer after the configuration of  
  47:Drivers/STM32F0xx_HAL_Driver/Src/stm32f0xx_hal_dma.c ****           Source address and destination address and the Length of data to be transferred. 
  48:Drivers/STM32F0xx_HAL_Driver/Src/stm32f0xx_hal_dma.c ****           In this case the DMA interrupt is configured 
  49:Drivers/STM32F0xx_HAL_Driver/Src/stm32f0xx_hal_dma.c ****       (+) Use HAL_DMA_Channel_IRQHandler() called under DMA_IRQHandler() Interrupt subroutine
  50:Drivers/STM32F0xx_HAL_Driver/Src/stm32f0xx_hal_dma.c ****       (+) At the end of data transfer HAL_DMA_IRQHandler() function is executed and user can 
  51:Drivers/STM32F0xx_HAL_Driver/Src/stm32f0xx_hal_dma.c ****           add his own function by customization of function pointer XferCpltCallback and 
  52:Drivers/STM32F0xx_HAL_Driver/Src/stm32f0xx_hal_dma.c ****           XferErrorCallback (i.e a member of DMA handle structure). 
  53:Drivers/STM32F0xx_HAL_Driver/Src/stm32f0xx_hal_dma.c **** 
  54:Drivers/STM32F0xx_HAL_Driver/Src/stm32f0xx_hal_dma.c ****      *** DMA HAL driver macros list ***
  55:Drivers/STM32F0xx_HAL_Driver/Src/stm32f0xx_hal_dma.c ****      ============================================= 
  56:Drivers/STM32F0xx_HAL_Driver/Src/stm32f0xx_hal_dma.c ****      [..]
  57:Drivers/STM32F0xx_HAL_Driver/Src/stm32f0xx_hal_dma.c ****        Below the list of most used macros in DMA HAL driver.
  58:Drivers/STM32F0xx_HAL_Driver/Src/stm32f0xx_hal_dma.c **** 
  59:Drivers/STM32F0xx_HAL_Driver/Src/stm32f0xx_hal_dma.c ****      [..] 
  60:Drivers/STM32F0xx_HAL_Driver/Src/stm32f0xx_hal_dma.c ****       (@) You can refer to the DMA HAL driver header file for more useful macros  
  61:Drivers/STM32F0xx_HAL_Driver/Src/stm32f0xx_hal_dma.c **** 
  62:Drivers/STM32F0xx_HAL_Driver/Src/stm32f0xx_hal_dma.c ****   @endverbatim
  63:Drivers/STM32F0xx_HAL_Driver/Src/stm32f0xx_hal_dma.c ****   ******************************************************************************
  64:Drivers/STM32F0xx_HAL_Driver/Src/stm32f0xx_hal_dma.c ****   * @attention
  65:Drivers/STM32F0xx_HAL_Driver/Src/stm32f0xx_hal_dma.c ****   *
  66:Drivers/STM32F0xx_HAL_Driver/Src/stm32f0xx_hal_dma.c ****   * <h2><center>&copy; Copyright (c) 2016 STMicroelectronics.
  67:Drivers/STM32F0xx_HAL_Driver/Src/stm32f0xx_hal_dma.c ****   * All rights reserved.</center></h2>
  68:Drivers/STM32F0xx_HAL_Driver/Src/stm32f0xx_hal_dma.c ****   *
  69:Drivers/STM32F0xx_HAL_Driver/Src/stm32f0xx_hal_dma.c ****   * This software component is licensed by ST under BSD 3-Clause license,
  70:Drivers/STM32F0xx_HAL_Driver/Src/stm32f0xx_hal_dma.c ****   * the "License"; You may not use this file except in compliance with the
  71:Drivers/STM32F0xx_HAL_Driver/Src/stm32f0xx_hal_dma.c ****   * License. You may obtain a copy of the License at:
  72:Drivers/STM32F0xx_HAL_Driver/Src/stm32f0xx_hal_dma.c ****   *                        opensource.org/licenses/BSD-3-Clause
  73:Drivers/STM32F0xx_HAL_Driver/Src/stm32f0xx_hal_dma.c ****   *
  74:Drivers/STM32F0xx_HAL_Driver/Src/stm32f0xx_hal_dma.c ****   ******************************************************************************
  75:Drivers/STM32F0xx_HAL_Driver/Src/stm32f0xx_hal_dma.c ****   */
  76:Drivers/STM32F0xx_HAL_Driver/Src/stm32f0xx_hal_dma.c **** 
  77:Drivers/STM32F0xx_HAL_Driver/Src/stm32f0xx_hal_dma.c **** /* Includes ------------------------------------------------------------------*/
  78:Drivers/STM32F0xx_HAL_Driver/Src/stm32f0xx_hal_dma.c **** #include "stm32f0xx_hal.h"
  79:Drivers/STM32F0xx_HAL_Driver/Src/stm32f0xx_hal_dma.c **** 
  80:Drivers/STM32F0xx_HAL_Driver/Src/stm32f0xx_hal_dma.c **** /** @addtogroup STM32F0xx_HAL_Driver
  81:Drivers/STM32F0xx_HAL_Driver/Src/stm32f0xx_hal_dma.c ****   * @{
  82:Drivers/STM32F0xx_HAL_Driver/Src/stm32f0xx_hal_dma.c ****   */
  83:Drivers/STM32F0xx_HAL_Driver/Src/stm32f0xx_hal_dma.c **** 
  84:Drivers/STM32F0xx_HAL_Driver/Src/stm32f0xx_hal_dma.c **** 
  85:Drivers/STM32F0xx_HAL_Driver/Src/stm32f0xx_hal_dma.c **** /** @defgroup DMA DMA
  86:Drivers/STM32F0xx_HAL_Driver/Src/stm32f0xx_hal_dma.c ****   * @brief DMA HAL module driver
  87:Drivers/STM32F0xx_HAL_Driver/Src/stm32f0xx_hal_dma.c ****   * @{
  88:Drivers/STM32F0xx_HAL_Driver/Src/stm32f0xx_hal_dma.c ****   */
  89:Drivers/STM32F0xx_HAL_Driver/Src/stm32f0xx_hal_dma.c **** 
ARM GAS  C:\Users\Vulca\AppData\Local\Temp\ccgcmgtb.s 			page 3


  90:Drivers/STM32F0xx_HAL_Driver/Src/stm32f0xx_hal_dma.c **** #ifdef HAL_DMA_MODULE_ENABLED
  91:Drivers/STM32F0xx_HAL_Driver/Src/stm32f0xx_hal_dma.c **** 
  92:Drivers/STM32F0xx_HAL_Driver/Src/stm32f0xx_hal_dma.c **** /* Private typedef -----------------------------------------------------------*/
  93:Drivers/STM32F0xx_HAL_Driver/Src/stm32f0xx_hal_dma.c **** /* Private define ------------------------------------------------------------*/
  94:Drivers/STM32F0xx_HAL_Driver/Src/stm32f0xx_hal_dma.c **** /* Private macro -------------------------------------------------------------*/
  95:Drivers/STM32F0xx_HAL_Driver/Src/stm32f0xx_hal_dma.c **** /* Private variables ---------------------------------------------------------*/
  96:Drivers/STM32F0xx_HAL_Driver/Src/stm32f0xx_hal_dma.c **** /* Private function prototypes -----------------------------------------------*/
  97:Drivers/STM32F0xx_HAL_Driver/Src/stm32f0xx_hal_dma.c **** /** @defgroup DMA_Private_Functions DMA Private Functions
  98:Drivers/STM32F0xx_HAL_Driver/Src/stm32f0xx_hal_dma.c ****   * @{
  99:Drivers/STM32F0xx_HAL_Driver/Src/stm32f0xx_hal_dma.c ****   */
 100:Drivers/STM32F0xx_HAL_Driver/Src/stm32f0xx_hal_dma.c **** static void DMA_SetConfig(DMA_HandleTypeDef *hdma, uint32_t SrcAddress, uint32_t DstAddress, uint32
 101:Drivers/STM32F0xx_HAL_Driver/Src/stm32f0xx_hal_dma.c **** static void DMA_CalcBaseAndBitshift(DMA_HandleTypeDef *hdma);
 102:Drivers/STM32F0xx_HAL_Driver/Src/stm32f0xx_hal_dma.c **** /**
 103:Drivers/STM32F0xx_HAL_Driver/Src/stm32f0xx_hal_dma.c ****   * @}
 104:Drivers/STM32F0xx_HAL_Driver/Src/stm32f0xx_hal_dma.c ****   */
 105:Drivers/STM32F0xx_HAL_Driver/Src/stm32f0xx_hal_dma.c **** 
 106:Drivers/STM32F0xx_HAL_Driver/Src/stm32f0xx_hal_dma.c **** /* Exported functions ---------------------------------------------------------*/
 107:Drivers/STM32F0xx_HAL_Driver/Src/stm32f0xx_hal_dma.c **** 
 108:Drivers/STM32F0xx_HAL_Driver/Src/stm32f0xx_hal_dma.c **** /** @defgroup DMA_Exported_Functions DMA Exported Functions
 109:Drivers/STM32F0xx_HAL_Driver/Src/stm32f0xx_hal_dma.c ****   * @{
 110:Drivers/STM32F0xx_HAL_Driver/Src/stm32f0xx_hal_dma.c ****   */
 111:Drivers/STM32F0xx_HAL_Driver/Src/stm32f0xx_hal_dma.c **** 
 112:Drivers/STM32F0xx_HAL_Driver/Src/stm32f0xx_hal_dma.c **** /** @defgroup DMA_Exported_Functions_Group1 Initialization and de-initialization functions
 113:Drivers/STM32F0xx_HAL_Driver/Src/stm32f0xx_hal_dma.c ****  *  @brief   Initialization and de-initialization functions 
 114:Drivers/STM32F0xx_HAL_Driver/Src/stm32f0xx_hal_dma.c ****  *
 115:Drivers/STM32F0xx_HAL_Driver/Src/stm32f0xx_hal_dma.c **** @verbatim   
 116:Drivers/STM32F0xx_HAL_Driver/Src/stm32f0xx_hal_dma.c ****  ===============================================================================
 117:Drivers/STM32F0xx_HAL_Driver/Src/stm32f0xx_hal_dma.c ****              ##### Initialization and de-initialization functions  #####
 118:Drivers/STM32F0xx_HAL_Driver/Src/stm32f0xx_hal_dma.c ****  ===============================================================================  
 119:Drivers/STM32F0xx_HAL_Driver/Src/stm32f0xx_hal_dma.c ****     [..]
 120:Drivers/STM32F0xx_HAL_Driver/Src/stm32f0xx_hal_dma.c ****     This section provides functions allowing to initialize the DMA Channel source
 121:Drivers/STM32F0xx_HAL_Driver/Src/stm32f0xx_hal_dma.c ****     and destination addresses, incrementation and data sizes, transfer direction, 
 122:Drivers/STM32F0xx_HAL_Driver/Src/stm32f0xx_hal_dma.c ****     circular/normal mode selection, memory-to-memory mode selection and Channel priority value.
 123:Drivers/STM32F0xx_HAL_Driver/Src/stm32f0xx_hal_dma.c ****     [..]
 124:Drivers/STM32F0xx_HAL_Driver/Src/stm32f0xx_hal_dma.c ****     The HAL_DMA_Init() function follows the DMA configuration procedures as described in
 125:Drivers/STM32F0xx_HAL_Driver/Src/stm32f0xx_hal_dma.c ****     reference manual.  
 126:Drivers/STM32F0xx_HAL_Driver/Src/stm32f0xx_hal_dma.c **** 
 127:Drivers/STM32F0xx_HAL_Driver/Src/stm32f0xx_hal_dma.c **** @endverbatim
 128:Drivers/STM32F0xx_HAL_Driver/Src/stm32f0xx_hal_dma.c ****   * @{
 129:Drivers/STM32F0xx_HAL_Driver/Src/stm32f0xx_hal_dma.c ****   */
 130:Drivers/STM32F0xx_HAL_Driver/Src/stm32f0xx_hal_dma.c ****   
 131:Drivers/STM32F0xx_HAL_Driver/Src/stm32f0xx_hal_dma.c **** /**
 132:Drivers/STM32F0xx_HAL_Driver/Src/stm32f0xx_hal_dma.c ****   * @brief  Initialize the DMA according to the specified
 133:Drivers/STM32F0xx_HAL_Driver/Src/stm32f0xx_hal_dma.c ****   *         parameters in the DMA_InitTypeDef and initialize the associated handle.
 134:Drivers/STM32F0xx_HAL_Driver/Src/stm32f0xx_hal_dma.c ****   * @param  hdma Pointer to a DMA_HandleTypeDef structure that contains
 135:Drivers/STM32F0xx_HAL_Driver/Src/stm32f0xx_hal_dma.c ****   *               the configuration information for the specified DMA Channel.  
 136:Drivers/STM32F0xx_HAL_Driver/Src/stm32f0xx_hal_dma.c ****   * @retval HAL status
 137:Drivers/STM32F0xx_HAL_Driver/Src/stm32f0xx_hal_dma.c ****   */
 138:Drivers/STM32F0xx_HAL_Driver/Src/stm32f0xx_hal_dma.c **** HAL_StatusTypeDef HAL_DMA_Init(DMA_HandleTypeDef *hdma)
 139:Drivers/STM32F0xx_HAL_Driver/Src/stm32f0xx_hal_dma.c **** { 
 140:Drivers/STM32F0xx_HAL_Driver/Src/stm32f0xx_hal_dma.c ****   uint32_t tmp = 0U;
 141:Drivers/STM32F0xx_HAL_Driver/Src/stm32f0xx_hal_dma.c ****   
 142:Drivers/STM32F0xx_HAL_Driver/Src/stm32f0xx_hal_dma.c ****   /* Check the DMA handle allocation */
 143:Drivers/STM32F0xx_HAL_Driver/Src/stm32f0xx_hal_dma.c ****   if(NULL == hdma)
 144:Drivers/STM32F0xx_HAL_Driver/Src/stm32f0xx_hal_dma.c ****   {
 145:Drivers/STM32F0xx_HAL_Driver/Src/stm32f0xx_hal_dma.c ****     return HAL_ERROR;
 146:Drivers/STM32F0xx_HAL_Driver/Src/stm32f0xx_hal_dma.c ****   }
ARM GAS  C:\Users\Vulca\AppData\Local\Temp\ccgcmgtb.s 			page 4


 147:Drivers/STM32F0xx_HAL_Driver/Src/stm32f0xx_hal_dma.c ****   
 148:Drivers/STM32F0xx_HAL_Driver/Src/stm32f0xx_hal_dma.c ****   /* Check the parameters */
 149:Drivers/STM32F0xx_HAL_Driver/Src/stm32f0xx_hal_dma.c ****   assert_param(IS_DMA_ALL_INSTANCE(hdma->Instance));
 150:Drivers/STM32F0xx_HAL_Driver/Src/stm32f0xx_hal_dma.c ****   assert_param(IS_DMA_DIRECTION(hdma->Init.Direction));
 151:Drivers/STM32F0xx_HAL_Driver/Src/stm32f0xx_hal_dma.c ****   assert_param(IS_DMA_PERIPHERAL_INC_STATE(hdma->Init.PeriphInc));
 152:Drivers/STM32F0xx_HAL_Driver/Src/stm32f0xx_hal_dma.c ****   assert_param(IS_DMA_MEMORY_INC_STATE(hdma->Init.MemInc));
 153:Drivers/STM32F0xx_HAL_Driver/Src/stm32f0xx_hal_dma.c ****   assert_param(IS_DMA_PERIPHERAL_DATA_SIZE(hdma->Init.PeriphDataAlignment));
 154:Drivers/STM32F0xx_HAL_Driver/Src/stm32f0xx_hal_dma.c ****   assert_param(IS_DMA_MEMORY_DATA_SIZE(hdma->Init.MemDataAlignment));
 155:Drivers/STM32F0xx_HAL_Driver/Src/stm32f0xx_hal_dma.c ****   assert_param(IS_DMA_MODE(hdma->Init.Mode));
 156:Drivers/STM32F0xx_HAL_Driver/Src/stm32f0xx_hal_dma.c ****   assert_param(IS_DMA_PRIORITY(hdma->Init.Priority));
 157:Drivers/STM32F0xx_HAL_Driver/Src/stm32f0xx_hal_dma.c ****   
 158:Drivers/STM32F0xx_HAL_Driver/Src/stm32f0xx_hal_dma.c ****   /* Change DMA peripheral state */
 159:Drivers/STM32F0xx_HAL_Driver/Src/stm32f0xx_hal_dma.c ****   hdma->State = HAL_DMA_STATE_BUSY;
 160:Drivers/STM32F0xx_HAL_Driver/Src/stm32f0xx_hal_dma.c **** 
 161:Drivers/STM32F0xx_HAL_Driver/Src/stm32f0xx_hal_dma.c ****   /* Get the CR register value */
 162:Drivers/STM32F0xx_HAL_Driver/Src/stm32f0xx_hal_dma.c ****   tmp = hdma->Instance->CCR;
 163:Drivers/STM32F0xx_HAL_Driver/Src/stm32f0xx_hal_dma.c ****   
 164:Drivers/STM32F0xx_HAL_Driver/Src/stm32f0xx_hal_dma.c ****   /* Clear PL, MSIZE, PSIZE, MINC, PINC, CIRC, DIR bits */
 165:Drivers/STM32F0xx_HAL_Driver/Src/stm32f0xx_hal_dma.c ****   tmp &= ((uint32_t)~(DMA_CCR_PL    | DMA_CCR_MSIZE  | DMA_CCR_PSIZE  | \
 166:Drivers/STM32F0xx_HAL_Driver/Src/stm32f0xx_hal_dma.c ****                       DMA_CCR_MINC  | DMA_CCR_PINC   | DMA_CCR_CIRC   | \
 167:Drivers/STM32F0xx_HAL_Driver/Src/stm32f0xx_hal_dma.c ****                       DMA_CCR_DIR));
 168:Drivers/STM32F0xx_HAL_Driver/Src/stm32f0xx_hal_dma.c ****   
 169:Drivers/STM32F0xx_HAL_Driver/Src/stm32f0xx_hal_dma.c ****   /* Prepare the DMA Channel configuration */
 170:Drivers/STM32F0xx_HAL_Driver/Src/stm32f0xx_hal_dma.c ****   tmp |=  hdma->Init.Direction        |
 171:Drivers/STM32F0xx_HAL_Driver/Src/stm32f0xx_hal_dma.c ****           hdma->Init.PeriphInc           | hdma->Init.MemInc           |
 172:Drivers/STM32F0xx_HAL_Driver/Src/stm32f0xx_hal_dma.c ****           hdma->Init.PeriphDataAlignment | hdma->Init.MemDataAlignment |
 173:Drivers/STM32F0xx_HAL_Driver/Src/stm32f0xx_hal_dma.c ****           hdma->Init.Mode                | hdma->Init.Priority;
 174:Drivers/STM32F0xx_HAL_Driver/Src/stm32f0xx_hal_dma.c **** 
 175:Drivers/STM32F0xx_HAL_Driver/Src/stm32f0xx_hal_dma.c ****   /* Write to DMA Channel CR register */
 176:Drivers/STM32F0xx_HAL_Driver/Src/stm32f0xx_hal_dma.c ****   hdma->Instance->CCR = tmp;  
 177:Drivers/STM32F0xx_HAL_Driver/Src/stm32f0xx_hal_dma.c ****   
 178:Drivers/STM32F0xx_HAL_Driver/Src/stm32f0xx_hal_dma.c ****   /* Initialize DmaBaseAddress and ChannelIndex parameters used 
 179:Drivers/STM32F0xx_HAL_Driver/Src/stm32f0xx_hal_dma.c ****      by HAL_DMA_IRQHandler() and HAL_DMA_PollForTransfer() */
 180:Drivers/STM32F0xx_HAL_Driver/Src/stm32f0xx_hal_dma.c ****   DMA_CalcBaseAndBitshift(hdma);
 181:Drivers/STM32F0xx_HAL_Driver/Src/stm32f0xx_hal_dma.c ****   
 182:Drivers/STM32F0xx_HAL_Driver/Src/stm32f0xx_hal_dma.c ****   /* Initialise the error code */
 183:Drivers/STM32F0xx_HAL_Driver/Src/stm32f0xx_hal_dma.c ****   hdma->ErrorCode = HAL_DMA_ERROR_NONE;
 184:Drivers/STM32F0xx_HAL_Driver/Src/stm32f0xx_hal_dma.c **** 
 185:Drivers/STM32F0xx_HAL_Driver/Src/stm32f0xx_hal_dma.c ****   /* Initialize the DMA state*/
 186:Drivers/STM32F0xx_HAL_Driver/Src/stm32f0xx_hal_dma.c ****   hdma->State = HAL_DMA_STATE_READY;
 187:Drivers/STM32F0xx_HAL_Driver/Src/stm32f0xx_hal_dma.c ****   
 188:Drivers/STM32F0xx_HAL_Driver/Src/stm32f0xx_hal_dma.c ****   /* Allocate lock resource and initialize it */
 189:Drivers/STM32F0xx_HAL_Driver/Src/stm32f0xx_hal_dma.c ****   hdma->Lock = HAL_UNLOCKED;
 190:Drivers/STM32F0xx_HAL_Driver/Src/stm32f0xx_hal_dma.c ****   
 191:Drivers/STM32F0xx_HAL_Driver/Src/stm32f0xx_hal_dma.c ****   return HAL_OK;
 192:Drivers/STM32F0xx_HAL_Driver/Src/stm32f0xx_hal_dma.c **** }  
 193:Drivers/STM32F0xx_HAL_Driver/Src/stm32f0xx_hal_dma.c ****   
 194:Drivers/STM32F0xx_HAL_Driver/Src/stm32f0xx_hal_dma.c **** /**
 195:Drivers/STM32F0xx_HAL_Driver/Src/stm32f0xx_hal_dma.c ****   * @brief  DeInitialize the DMA peripheral 
 196:Drivers/STM32F0xx_HAL_Driver/Src/stm32f0xx_hal_dma.c ****   * @param  hdma pointer to a DMA_HandleTypeDef structure that contains
 197:Drivers/STM32F0xx_HAL_Driver/Src/stm32f0xx_hal_dma.c ****   *               the configuration information for the specified DMA Channel.  
 198:Drivers/STM32F0xx_HAL_Driver/Src/stm32f0xx_hal_dma.c ****   * @retval HAL status
 199:Drivers/STM32F0xx_HAL_Driver/Src/stm32f0xx_hal_dma.c ****   */
 200:Drivers/STM32F0xx_HAL_Driver/Src/stm32f0xx_hal_dma.c **** HAL_StatusTypeDef HAL_DMA_DeInit(DMA_HandleTypeDef *hdma)
 201:Drivers/STM32F0xx_HAL_Driver/Src/stm32f0xx_hal_dma.c **** {
 202:Drivers/STM32F0xx_HAL_Driver/Src/stm32f0xx_hal_dma.c ****   /* Check the DMA handle allocation */
 203:Drivers/STM32F0xx_HAL_Driver/Src/stm32f0xx_hal_dma.c ****   if(NULL == hdma)
ARM GAS  C:\Users\Vulca\AppData\Local\Temp\ccgcmgtb.s 			page 5


 204:Drivers/STM32F0xx_HAL_Driver/Src/stm32f0xx_hal_dma.c ****   {
 205:Drivers/STM32F0xx_HAL_Driver/Src/stm32f0xx_hal_dma.c ****     return HAL_ERROR;
 206:Drivers/STM32F0xx_HAL_Driver/Src/stm32f0xx_hal_dma.c ****   }
 207:Drivers/STM32F0xx_HAL_Driver/Src/stm32f0xx_hal_dma.c ****   
 208:Drivers/STM32F0xx_HAL_Driver/Src/stm32f0xx_hal_dma.c ****   /* Check the parameters */
 209:Drivers/STM32F0xx_HAL_Driver/Src/stm32f0xx_hal_dma.c ****   assert_param(IS_DMA_ALL_INSTANCE(hdma->Instance));
 210:Drivers/STM32F0xx_HAL_Driver/Src/stm32f0xx_hal_dma.c **** 
 211:Drivers/STM32F0xx_HAL_Driver/Src/stm32f0xx_hal_dma.c ****   /* Disable the selected DMA Channelx */
 212:Drivers/STM32F0xx_HAL_Driver/Src/stm32f0xx_hal_dma.c ****   hdma->Instance->CCR &= ~DMA_CCR_EN;
 213:Drivers/STM32F0xx_HAL_Driver/Src/stm32f0xx_hal_dma.c **** 
 214:Drivers/STM32F0xx_HAL_Driver/Src/stm32f0xx_hal_dma.c ****   /* Reset DMA Channel control register */
 215:Drivers/STM32F0xx_HAL_Driver/Src/stm32f0xx_hal_dma.c ****   hdma->Instance->CCR  = 0U;
 216:Drivers/STM32F0xx_HAL_Driver/Src/stm32f0xx_hal_dma.c **** 
 217:Drivers/STM32F0xx_HAL_Driver/Src/stm32f0xx_hal_dma.c ****   /* Reset DMA Channel Number of Data to Transfer register */
 218:Drivers/STM32F0xx_HAL_Driver/Src/stm32f0xx_hal_dma.c ****   hdma->Instance->CNDTR = 0U;
 219:Drivers/STM32F0xx_HAL_Driver/Src/stm32f0xx_hal_dma.c **** 
 220:Drivers/STM32F0xx_HAL_Driver/Src/stm32f0xx_hal_dma.c ****   /* Reset DMA Channel peripheral address register */
 221:Drivers/STM32F0xx_HAL_Driver/Src/stm32f0xx_hal_dma.c ****   hdma->Instance->CPAR  = 0U;
 222:Drivers/STM32F0xx_HAL_Driver/Src/stm32f0xx_hal_dma.c ****   
 223:Drivers/STM32F0xx_HAL_Driver/Src/stm32f0xx_hal_dma.c ****   /* Reset DMA Channel memory address register */
 224:Drivers/STM32F0xx_HAL_Driver/Src/stm32f0xx_hal_dma.c ****   hdma->Instance->CMAR = 0U;
 225:Drivers/STM32F0xx_HAL_Driver/Src/stm32f0xx_hal_dma.c **** 
 226:Drivers/STM32F0xx_HAL_Driver/Src/stm32f0xx_hal_dma.c **** /* Get DMA Base Address */  
 227:Drivers/STM32F0xx_HAL_Driver/Src/stm32f0xx_hal_dma.c ****   DMA_CalcBaseAndBitshift(hdma);
 228:Drivers/STM32F0xx_HAL_Driver/Src/stm32f0xx_hal_dma.c **** 
 229:Drivers/STM32F0xx_HAL_Driver/Src/stm32f0xx_hal_dma.c ****   /* Clear all flags */
 230:Drivers/STM32F0xx_HAL_Driver/Src/stm32f0xx_hal_dma.c ****   hdma->DmaBaseAddress->IFCR = DMA_FLAG_GL1 << hdma->ChannelIndex;
 231:Drivers/STM32F0xx_HAL_Driver/Src/stm32f0xx_hal_dma.c **** 
 232:Drivers/STM32F0xx_HAL_Driver/Src/stm32f0xx_hal_dma.c ****   /* Clean callbacks */
 233:Drivers/STM32F0xx_HAL_Driver/Src/stm32f0xx_hal_dma.c ****   hdma->XferCpltCallback = NULL;
 234:Drivers/STM32F0xx_HAL_Driver/Src/stm32f0xx_hal_dma.c ****   hdma->XferHalfCpltCallback = NULL;
 235:Drivers/STM32F0xx_HAL_Driver/Src/stm32f0xx_hal_dma.c ****   hdma->XferErrorCallback = NULL;
 236:Drivers/STM32F0xx_HAL_Driver/Src/stm32f0xx_hal_dma.c ****   hdma->XferAbortCallback = NULL;
 237:Drivers/STM32F0xx_HAL_Driver/Src/stm32f0xx_hal_dma.c **** 
 238:Drivers/STM32F0xx_HAL_Driver/Src/stm32f0xx_hal_dma.c ****   /* Reset the error code */
 239:Drivers/STM32F0xx_HAL_Driver/Src/stm32f0xx_hal_dma.c ****   hdma->ErrorCode = HAL_DMA_ERROR_NONE;
 240:Drivers/STM32F0xx_HAL_Driver/Src/stm32f0xx_hal_dma.c **** 
 241:Drivers/STM32F0xx_HAL_Driver/Src/stm32f0xx_hal_dma.c ****   /* Reset the DMA state */
 242:Drivers/STM32F0xx_HAL_Driver/Src/stm32f0xx_hal_dma.c ****   hdma->State = HAL_DMA_STATE_RESET;
 243:Drivers/STM32F0xx_HAL_Driver/Src/stm32f0xx_hal_dma.c **** 
 244:Drivers/STM32F0xx_HAL_Driver/Src/stm32f0xx_hal_dma.c ****   /* Release Lock */
 245:Drivers/STM32F0xx_HAL_Driver/Src/stm32f0xx_hal_dma.c ****   __HAL_UNLOCK(hdma);
 246:Drivers/STM32F0xx_HAL_Driver/Src/stm32f0xx_hal_dma.c **** 
 247:Drivers/STM32F0xx_HAL_Driver/Src/stm32f0xx_hal_dma.c ****   return HAL_OK;
 248:Drivers/STM32F0xx_HAL_Driver/Src/stm32f0xx_hal_dma.c **** }
 249:Drivers/STM32F0xx_HAL_Driver/Src/stm32f0xx_hal_dma.c **** 
 250:Drivers/STM32F0xx_HAL_Driver/Src/stm32f0xx_hal_dma.c **** /**
 251:Drivers/STM32F0xx_HAL_Driver/Src/stm32f0xx_hal_dma.c ****   * @}
 252:Drivers/STM32F0xx_HAL_Driver/Src/stm32f0xx_hal_dma.c ****   */
 253:Drivers/STM32F0xx_HAL_Driver/Src/stm32f0xx_hal_dma.c **** 
 254:Drivers/STM32F0xx_HAL_Driver/Src/stm32f0xx_hal_dma.c **** /** @defgroup DMA_Exported_Functions_Group2 Input and Output operation functions 
 255:Drivers/STM32F0xx_HAL_Driver/Src/stm32f0xx_hal_dma.c ****  *  @brief   I/O operation functions  
 256:Drivers/STM32F0xx_HAL_Driver/Src/stm32f0xx_hal_dma.c ****  *
 257:Drivers/STM32F0xx_HAL_Driver/Src/stm32f0xx_hal_dma.c **** @verbatim   
 258:Drivers/STM32F0xx_HAL_Driver/Src/stm32f0xx_hal_dma.c ****  ===============================================================================
 259:Drivers/STM32F0xx_HAL_Driver/Src/stm32f0xx_hal_dma.c ****                       #####  IO operation functions  #####
 260:Drivers/STM32F0xx_HAL_Driver/Src/stm32f0xx_hal_dma.c ****  ===============================================================================  
ARM GAS  C:\Users\Vulca\AppData\Local\Temp\ccgcmgtb.s 			page 6


 261:Drivers/STM32F0xx_HAL_Driver/Src/stm32f0xx_hal_dma.c ****     [..]  This section provides functions allowing to:
 262:Drivers/STM32F0xx_HAL_Driver/Src/stm32f0xx_hal_dma.c ****       (+) Configure the source, destination address and data length and Start DMA transfer
 263:Drivers/STM32F0xx_HAL_Driver/Src/stm32f0xx_hal_dma.c ****       (+) Configure the source, destination address and data length and 
 264:Drivers/STM32F0xx_HAL_Driver/Src/stm32f0xx_hal_dma.c ****           Start DMA transfer with interrupt
 265:Drivers/STM32F0xx_HAL_Driver/Src/stm32f0xx_hal_dma.c ****       (+) Abort DMA transfer
 266:Drivers/STM32F0xx_HAL_Driver/Src/stm32f0xx_hal_dma.c ****       (+) Poll for transfer complete
 267:Drivers/STM32F0xx_HAL_Driver/Src/stm32f0xx_hal_dma.c ****       (+) Handle DMA interrupt request  
 268:Drivers/STM32F0xx_HAL_Driver/Src/stm32f0xx_hal_dma.c **** 
 269:Drivers/STM32F0xx_HAL_Driver/Src/stm32f0xx_hal_dma.c **** @endverbatim
 270:Drivers/STM32F0xx_HAL_Driver/Src/stm32f0xx_hal_dma.c ****   * @{
 271:Drivers/STM32F0xx_HAL_Driver/Src/stm32f0xx_hal_dma.c ****   */
 272:Drivers/STM32F0xx_HAL_Driver/Src/stm32f0xx_hal_dma.c **** 
 273:Drivers/STM32F0xx_HAL_Driver/Src/stm32f0xx_hal_dma.c **** /**
 274:Drivers/STM32F0xx_HAL_Driver/Src/stm32f0xx_hal_dma.c ****   * @brief  Start the DMA Transfer.
 275:Drivers/STM32F0xx_HAL_Driver/Src/stm32f0xx_hal_dma.c ****   * @param  hdma pointer to a DMA_HandleTypeDef structure that contains
 276:Drivers/STM32F0xx_HAL_Driver/Src/stm32f0xx_hal_dma.c ****   *              the configuration information for the specified DMA Channel.  
 277:Drivers/STM32F0xx_HAL_Driver/Src/stm32f0xx_hal_dma.c ****   * @param  SrcAddress The source memory Buffer address
 278:Drivers/STM32F0xx_HAL_Driver/Src/stm32f0xx_hal_dma.c ****   * @param  DstAddress The destination memory Buffer address
 279:Drivers/STM32F0xx_HAL_Driver/Src/stm32f0xx_hal_dma.c ****   * @param  DataLength The length of data to be transferred from source to destination
 280:Drivers/STM32F0xx_HAL_Driver/Src/stm32f0xx_hal_dma.c ****   * @retval HAL status
 281:Drivers/STM32F0xx_HAL_Driver/Src/stm32f0xx_hal_dma.c ****   */
 282:Drivers/STM32F0xx_HAL_Driver/Src/stm32f0xx_hal_dma.c **** HAL_StatusTypeDef HAL_DMA_Start(DMA_HandleTypeDef *hdma, uint32_t SrcAddress, uint32_t DstAddress, 
 283:Drivers/STM32F0xx_HAL_Driver/Src/stm32f0xx_hal_dma.c **** {
 284:Drivers/STM32F0xx_HAL_Driver/Src/stm32f0xx_hal_dma.c **** 	HAL_StatusTypeDef status = HAL_OK;
 285:Drivers/STM32F0xx_HAL_Driver/Src/stm32f0xx_hal_dma.c **** 
 286:Drivers/STM32F0xx_HAL_Driver/Src/stm32f0xx_hal_dma.c ****   /* Check the parameters */
 287:Drivers/STM32F0xx_HAL_Driver/Src/stm32f0xx_hal_dma.c ****   assert_param(IS_DMA_BUFFER_SIZE(DataLength));
 288:Drivers/STM32F0xx_HAL_Driver/Src/stm32f0xx_hal_dma.c ****   
 289:Drivers/STM32F0xx_HAL_Driver/Src/stm32f0xx_hal_dma.c ****   /* Process locked */
 290:Drivers/STM32F0xx_HAL_Driver/Src/stm32f0xx_hal_dma.c ****   __HAL_LOCK(hdma);
 291:Drivers/STM32F0xx_HAL_Driver/Src/stm32f0xx_hal_dma.c ****   
 292:Drivers/STM32F0xx_HAL_Driver/Src/stm32f0xx_hal_dma.c ****   if(HAL_DMA_STATE_READY == hdma->State)
 293:Drivers/STM32F0xx_HAL_Driver/Src/stm32f0xx_hal_dma.c ****   {
 294:Drivers/STM32F0xx_HAL_Driver/Src/stm32f0xx_hal_dma.c ****   	/* Change DMA peripheral state */  
 295:Drivers/STM32F0xx_HAL_Driver/Src/stm32f0xx_hal_dma.c ****   	hdma->State = HAL_DMA_STATE_BUSY;
 296:Drivers/STM32F0xx_HAL_Driver/Src/stm32f0xx_hal_dma.c ****   	
 297:Drivers/STM32F0xx_HAL_Driver/Src/stm32f0xx_hal_dma.c ****   	hdma->ErrorCode = HAL_DMA_ERROR_NONE;
 298:Drivers/STM32F0xx_HAL_Driver/Src/stm32f0xx_hal_dma.c ****   	
 299:Drivers/STM32F0xx_HAL_Driver/Src/stm32f0xx_hal_dma.c ****   	/* Disable the peripheral */
 300:Drivers/STM32F0xx_HAL_Driver/Src/stm32f0xx_hal_dma.c ****   	hdma->Instance->CCR &= ~DMA_CCR_EN;  
 301:Drivers/STM32F0xx_HAL_Driver/Src/stm32f0xx_hal_dma.c ****   	
 302:Drivers/STM32F0xx_HAL_Driver/Src/stm32f0xx_hal_dma.c ****   	/* Configure the source, destination address and the data length */
 303:Drivers/STM32F0xx_HAL_Driver/Src/stm32f0xx_hal_dma.c ****   	DMA_SetConfig(hdma, SrcAddress, DstAddress, DataLength);
 304:Drivers/STM32F0xx_HAL_Driver/Src/stm32f0xx_hal_dma.c ****   	
 305:Drivers/STM32F0xx_HAL_Driver/Src/stm32f0xx_hal_dma.c ****   	/* Enable the Peripheral */
 306:Drivers/STM32F0xx_HAL_Driver/Src/stm32f0xx_hal_dma.c ****   	hdma->Instance->CCR |= DMA_CCR_EN;  
 307:Drivers/STM32F0xx_HAL_Driver/Src/stm32f0xx_hal_dma.c ****   }
 308:Drivers/STM32F0xx_HAL_Driver/Src/stm32f0xx_hal_dma.c ****   else
 309:Drivers/STM32F0xx_HAL_Driver/Src/stm32f0xx_hal_dma.c ****   {
 310:Drivers/STM32F0xx_HAL_Driver/Src/stm32f0xx_hal_dma.c ****   	/* Process Unlocked */
 311:Drivers/STM32F0xx_HAL_Driver/Src/stm32f0xx_hal_dma.c ****   	__HAL_UNLOCK(hdma);
 312:Drivers/STM32F0xx_HAL_Driver/Src/stm32f0xx_hal_dma.c ****   	
 313:Drivers/STM32F0xx_HAL_Driver/Src/stm32f0xx_hal_dma.c ****   	/* Remain BUSY */
 314:Drivers/STM32F0xx_HAL_Driver/Src/stm32f0xx_hal_dma.c ****   	status = HAL_BUSY;
 315:Drivers/STM32F0xx_HAL_Driver/Src/stm32f0xx_hal_dma.c ****   }  
 316:Drivers/STM32F0xx_HAL_Driver/Src/stm32f0xx_hal_dma.c **** 
 317:Drivers/STM32F0xx_HAL_Driver/Src/stm32f0xx_hal_dma.c ****   return status; 
ARM GAS  C:\Users\Vulca\AppData\Local\Temp\ccgcmgtb.s 			page 7


 318:Drivers/STM32F0xx_HAL_Driver/Src/stm32f0xx_hal_dma.c **** } 
 319:Drivers/STM32F0xx_HAL_Driver/Src/stm32f0xx_hal_dma.c **** 
 320:Drivers/STM32F0xx_HAL_Driver/Src/stm32f0xx_hal_dma.c **** /**
 321:Drivers/STM32F0xx_HAL_Driver/Src/stm32f0xx_hal_dma.c ****   * @brief  Start the DMA Transfer with interrupt enabled.
 322:Drivers/STM32F0xx_HAL_Driver/Src/stm32f0xx_hal_dma.c ****   * @param  hdma       pointer to a DMA_HandleTypeDef structure that contains
 323:Drivers/STM32F0xx_HAL_Driver/Src/stm32f0xx_hal_dma.c ****   *                     the configuration information for the specified DMA Channel.  
 324:Drivers/STM32F0xx_HAL_Driver/Src/stm32f0xx_hal_dma.c ****   * @param  SrcAddress The source memory Buffer address
 325:Drivers/STM32F0xx_HAL_Driver/Src/stm32f0xx_hal_dma.c ****   * @param  DstAddress The destination memory Buffer address
 326:Drivers/STM32F0xx_HAL_Driver/Src/stm32f0xx_hal_dma.c ****   * @param  DataLength The length of data to be transferred from source to destination
 327:Drivers/STM32F0xx_HAL_Driver/Src/stm32f0xx_hal_dma.c ****   * @retval HAL status
 328:Drivers/STM32F0xx_HAL_Driver/Src/stm32f0xx_hal_dma.c ****   */
 329:Drivers/STM32F0xx_HAL_Driver/Src/stm32f0xx_hal_dma.c **** HAL_StatusTypeDef HAL_DMA_Start_IT(DMA_HandleTypeDef *hdma, uint32_t SrcAddress, uint32_t DstAddres
 330:Drivers/STM32F0xx_HAL_Driver/Src/stm32f0xx_hal_dma.c **** {
 331:Drivers/STM32F0xx_HAL_Driver/Src/stm32f0xx_hal_dma.c **** 	HAL_StatusTypeDef status = HAL_OK;
 332:Drivers/STM32F0xx_HAL_Driver/Src/stm32f0xx_hal_dma.c **** 
 333:Drivers/STM32F0xx_HAL_Driver/Src/stm32f0xx_hal_dma.c ****   /* Check the parameters */
 334:Drivers/STM32F0xx_HAL_Driver/Src/stm32f0xx_hal_dma.c ****   assert_param(IS_DMA_BUFFER_SIZE(DataLength));
 335:Drivers/STM32F0xx_HAL_Driver/Src/stm32f0xx_hal_dma.c ****   
 336:Drivers/STM32F0xx_HAL_Driver/Src/stm32f0xx_hal_dma.c ****   /* Process locked */
 337:Drivers/STM32F0xx_HAL_Driver/Src/stm32f0xx_hal_dma.c ****   __HAL_LOCK(hdma);
 338:Drivers/STM32F0xx_HAL_Driver/Src/stm32f0xx_hal_dma.c ****   
 339:Drivers/STM32F0xx_HAL_Driver/Src/stm32f0xx_hal_dma.c ****   if(HAL_DMA_STATE_READY == hdma->State)
 340:Drivers/STM32F0xx_HAL_Driver/Src/stm32f0xx_hal_dma.c ****   {
 341:Drivers/STM32F0xx_HAL_Driver/Src/stm32f0xx_hal_dma.c ****   	/* Change DMA peripheral state */  
 342:Drivers/STM32F0xx_HAL_Driver/Src/stm32f0xx_hal_dma.c ****   	hdma->State = HAL_DMA_STATE_BUSY;
 343:Drivers/STM32F0xx_HAL_Driver/Src/stm32f0xx_hal_dma.c ****   	
 344:Drivers/STM32F0xx_HAL_Driver/Src/stm32f0xx_hal_dma.c ****   	hdma->ErrorCode = HAL_DMA_ERROR_NONE;
 345:Drivers/STM32F0xx_HAL_Driver/Src/stm32f0xx_hal_dma.c ****   	
 346:Drivers/STM32F0xx_HAL_Driver/Src/stm32f0xx_hal_dma.c ****   	/* Disable the peripheral */
 347:Drivers/STM32F0xx_HAL_Driver/Src/stm32f0xx_hal_dma.c ****   	hdma->Instance->CCR &= ~DMA_CCR_EN;
 348:Drivers/STM32F0xx_HAL_Driver/Src/stm32f0xx_hal_dma.c ****   	
 349:Drivers/STM32F0xx_HAL_Driver/Src/stm32f0xx_hal_dma.c ****   	/* Configure the source, destination address and the data length */  
 350:Drivers/STM32F0xx_HAL_Driver/Src/stm32f0xx_hal_dma.c ****   	DMA_SetConfig(hdma, SrcAddress, DstAddress, DataLength);
 351:Drivers/STM32F0xx_HAL_Driver/Src/stm32f0xx_hal_dma.c ****   	
 352:Drivers/STM32F0xx_HAL_Driver/Src/stm32f0xx_hal_dma.c ****   	/* Enable the transfer complete, & transfer error interrupts */
 353:Drivers/STM32F0xx_HAL_Driver/Src/stm32f0xx_hal_dma.c ****   	/* Half transfer interrupt is optional: enable it only if associated callback is available */
 354:Drivers/STM32F0xx_HAL_Driver/Src/stm32f0xx_hal_dma.c ****     if(NULL != hdma->XferHalfCpltCallback )
 355:Drivers/STM32F0xx_HAL_Driver/Src/stm32f0xx_hal_dma.c ****     {
 356:Drivers/STM32F0xx_HAL_Driver/Src/stm32f0xx_hal_dma.c ****       hdma->Instance->CCR |= (DMA_IT_TC | DMA_IT_HT | DMA_IT_TE);
 357:Drivers/STM32F0xx_HAL_Driver/Src/stm32f0xx_hal_dma.c ****     }
 358:Drivers/STM32F0xx_HAL_Driver/Src/stm32f0xx_hal_dma.c ****   	else
 359:Drivers/STM32F0xx_HAL_Driver/Src/stm32f0xx_hal_dma.c ****   	{
 360:Drivers/STM32F0xx_HAL_Driver/Src/stm32f0xx_hal_dma.c ****   		hdma->Instance->CCR |= (DMA_IT_TC | DMA_IT_TE);
 361:Drivers/STM32F0xx_HAL_Driver/Src/stm32f0xx_hal_dma.c ****   		hdma->Instance->CCR &= ~DMA_IT_HT;
 362:Drivers/STM32F0xx_HAL_Driver/Src/stm32f0xx_hal_dma.c ****   	}
 363:Drivers/STM32F0xx_HAL_Driver/Src/stm32f0xx_hal_dma.c ****   	
 364:Drivers/STM32F0xx_HAL_Driver/Src/stm32f0xx_hal_dma.c ****   	/* Enable the Peripheral */
 365:Drivers/STM32F0xx_HAL_Driver/Src/stm32f0xx_hal_dma.c ****   	hdma->Instance->CCR |= DMA_CCR_EN;
 366:Drivers/STM32F0xx_HAL_Driver/Src/stm32f0xx_hal_dma.c ****   }
 367:Drivers/STM32F0xx_HAL_Driver/Src/stm32f0xx_hal_dma.c ****   else
 368:Drivers/STM32F0xx_HAL_Driver/Src/stm32f0xx_hal_dma.c ****   {
 369:Drivers/STM32F0xx_HAL_Driver/Src/stm32f0xx_hal_dma.c ****   	/* Process Unlocked */
 370:Drivers/STM32F0xx_HAL_Driver/Src/stm32f0xx_hal_dma.c ****     __HAL_UNLOCK(hdma); 
 371:Drivers/STM32F0xx_HAL_Driver/Src/stm32f0xx_hal_dma.c ****   
 372:Drivers/STM32F0xx_HAL_Driver/Src/stm32f0xx_hal_dma.c ****     /* Remain BUSY */
 373:Drivers/STM32F0xx_HAL_Driver/Src/stm32f0xx_hal_dma.c ****     status = HAL_BUSY;
 374:Drivers/STM32F0xx_HAL_Driver/Src/stm32f0xx_hal_dma.c ****   }     
ARM GAS  C:\Users\Vulca\AppData\Local\Temp\ccgcmgtb.s 			page 8


 375:Drivers/STM32F0xx_HAL_Driver/Src/stm32f0xx_hal_dma.c ****   
 376:Drivers/STM32F0xx_HAL_Driver/Src/stm32f0xx_hal_dma.c ****   return status;    
 377:Drivers/STM32F0xx_HAL_Driver/Src/stm32f0xx_hal_dma.c **** } 
 378:Drivers/STM32F0xx_HAL_Driver/Src/stm32f0xx_hal_dma.c **** 
 379:Drivers/STM32F0xx_HAL_Driver/Src/stm32f0xx_hal_dma.c **** /**
 380:Drivers/STM32F0xx_HAL_Driver/Src/stm32f0xx_hal_dma.c ****   * @brief  Abort the DMA Transfer.
 381:Drivers/STM32F0xx_HAL_Driver/Src/stm32f0xx_hal_dma.c ****   * @param  hdma  pointer to a DMA_HandleTypeDef structure that contains
 382:Drivers/STM32F0xx_HAL_Driver/Src/stm32f0xx_hal_dma.c ****   *               the configuration information for the specified DMA Channel.
 383:Drivers/STM32F0xx_HAL_Driver/Src/stm32f0xx_hal_dma.c ****   * @retval HAL status
 384:Drivers/STM32F0xx_HAL_Driver/Src/stm32f0xx_hal_dma.c ****   */
 385:Drivers/STM32F0xx_HAL_Driver/Src/stm32f0xx_hal_dma.c **** HAL_StatusTypeDef HAL_DMA_Abort(DMA_HandleTypeDef *hdma)
 386:Drivers/STM32F0xx_HAL_Driver/Src/stm32f0xx_hal_dma.c **** {
 387:Drivers/STM32F0xx_HAL_Driver/Src/stm32f0xx_hal_dma.c ****   if(hdma->State != HAL_DMA_STATE_BUSY)
 388:Drivers/STM32F0xx_HAL_Driver/Src/stm32f0xx_hal_dma.c ****   {
 389:Drivers/STM32F0xx_HAL_Driver/Src/stm32f0xx_hal_dma.c ****     /* no transfer ongoing */
 390:Drivers/STM32F0xx_HAL_Driver/Src/stm32f0xx_hal_dma.c ****     hdma->ErrorCode = HAL_DMA_ERROR_NO_XFER;
 391:Drivers/STM32F0xx_HAL_Driver/Src/stm32f0xx_hal_dma.c ****     
 392:Drivers/STM32F0xx_HAL_Driver/Src/stm32f0xx_hal_dma.c ****     /* Process Unlocked */
 393:Drivers/STM32F0xx_HAL_Driver/Src/stm32f0xx_hal_dma.c ****     __HAL_UNLOCK(hdma);
 394:Drivers/STM32F0xx_HAL_Driver/Src/stm32f0xx_hal_dma.c ****     
 395:Drivers/STM32F0xx_HAL_Driver/Src/stm32f0xx_hal_dma.c ****     return HAL_ERROR;
 396:Drivers/STM32F0xx_HAL_Driver/Src/stm32f0xx_hal_dma.c ****   }
 397:Drivers/STM32F0xx_HAL_Driver/Src/stm32f0xx_hal_dma.c ****   else
 398:Drivers/STM32F0xx_HAL_Driver/Src/stm32f0xx_hal_dma.c ****   {
 399:Drivers/STM32F0xx_HAL_Driver/Src/stm32f0xx_hal_dma.c ****     /* Disable DMA IT */
 400:Drivers/STM32F0xx_HAL_Driver/Src/stm32f0xx_hal_dma.c ****     hdma->Instance->CCR &= ~(DMA_IT_TC | DMA_IT_HT | DMA_IT_TE);
 401:Drivers/STM32F0xx_HAL_Driver/Src/stm32f0xx_hal_dma.c ****     
 402:Drivers/STM32F0xx_HAL_Driver/Src/stm32f0xx_hal_dma.c ****     /* Disable the channel */
 403:Drivers/STM32F0xx_HAL_Driver/Src/stm32f0xx_hal_dma.c ****     hdma->Instance->CCR &= ~DMA_CCR_EN;
 404:Drivers/STM32F0xx_HAL_Driver/Src/stm32f0xx_hal_dma.c ****     
 405:Drivers/STM32F0xx_HAL_Driver/Src/stm32f0xx_hal_dma.c ****     /* Clear all flags */
 406:Drivers/STM32F0xx_HAL_Driver/Src/stm32f0xx_hal_dma.c ****     hdma->DmaBaseAddress->IFCR = (DMA_FLAG_GL1 << hdma->ChannelIndex);
 407:Drivers/STM32F0xx_HAL_Driver/Src/stm32f0xx_hal_dma.c ****   }
 408:Drivers/STM32F0xx_HAL_Driver/Src/stm32f0xx_hal_dma.c ****   /* Change the DMA state*/
 409:Drivers/STM32F0xx_HAL_Driver/Src/stm32f0xx_hal_dma.c ****   hdma->State = HAL_DMA_STATE_READY; 
 410:Drivers/STM32F0xx_HAL_Driver/Src/stm32f0xx_hal_dma.c ****   
 411:Drivers/STM32F0xx_HAL_Driver/Src/stm32f0xx_hal_dma.c ****   /* Process Unlocked */
 412:Drivers/STM32F0xx_HAL_Driver/Src/stm32f0xx_hal_dma.c ****   __HAL_UNLOCK(hdma);
 413:Drivers/STM32F0xx_HAL_Driver/Src/stm32f0xx_hal_dma.c ****   
 414:Drivers/STM32F0xx_HAL_Driver/Src/stm32f0xx_hal_dma.c ****   return HAL_OK;
 415:Drivers/STM32F0xx_HAL_Driver/Src/stm32f0xx_hal_dma.c **** }
 416:Drivers/STM32F0xx_HAL_Driver/Src/stm32f0xx_hal_dma.c **** 
 417:Drivers/STM32F0xx_HAL_Driver/Src/stm32f0xx_hal_dma.c **** /**
 418:Drivers/STM32F0xx_HAL_Driver/Src/stm32f0xx_hal_dma.c ****   * @brief  Abort the DMA Transfer in Interrupt mode.
 419:Drivers/STM32F0xx_HAL_Driver/Src/stm32f0xx_hal_dma.c ****   * @param  hdma  pointer to a DMA_HandleTypeDef structure that contains
 420:Drivers/STM32F0xx_HAL_Driver/Src/stm32f0xx_hal_dma.c ****   *               the configuration information for the specified DMA Stream.
 421:Drivers/STM32F0xx_HAL_Driver/Src/stm32f0xx_hal_dma.c ****   * @retval HAL status
 422:Drivers/STM32F0xx_HAL_Driver/Src/stm32f0xx_hal_dma.c ****   */
 423:Drivers/STM32F0xx_HAL_Driver/Src/stm32f0xx_hal_dma.c **** HAL_StatusTypeDef HAL_DMA_Abort_IT(DMA_HandleTypeDef *hdma)
 424:Drivers/STM32F0xx_HAL_Driver/Src/stm32f0xx_hal_dma.c **** {  
 425:Drivers/STM32F0xx_HAL_Driver/Src/stm32f0xx_hal_dma.c ****   HAL_StatusTypeDef status = HAL_OK;
 426:Drivers/STM32F0xx_HAL_Driver/Src/stm32f0xx_hal_dma.c ****   
 427:Drivers/STM32F0xx_HAL_Driver/Src/stm32f0xx_hal_dma.c ****   if(HAL_DMA_STATE_BUSY != hdma->State)
 428:Drivers/STM32F0xx_HAL_Driver/Src/stm32f0xx_hal_dma.c ****   {
 429:Drivers/STM32F0xx_HAL_Driver/Src/stm32f0xx_hal_dma.c ****     /* no transfer ongoing */
 430:Drivers/STM32F0xx_HAL_Driver/Src/stm32f0xx_hal_dma.c ****     hdma->ErrorCode = HAL_DMA_ERROR_NO_XFER;
 431:Drivers/STM32F0xx_HAL_Driver/Src/stm32f0xx_hal_dma.c ****         
ARM GAS  C:\Users\Vulca\AppData\Local\Temp\ccgcmgtb.s 			page 9


 432:Drivers/STM32F0xx_HAL_Driver/Src/stm32f0xx_hal_dma.c ****     status = HAL_ERROR;
 433:Drivers/STM32F0xx_HAL_Driver/Src/stm32f0xx_hal_dma.c ****   }
 434:Drivers/STM32F0xx_HAL_Driver/Src/stm32f0xx_hal_dma.c ****   else
 435:Drivers/STM32F0xx_HAL_Driver/Src/stm32f0xx_hal_dma.c ****   { 
 436:Drivers/STM32F0xx_HAL_Driver/Src/stm32f0xx_hal_dma.c ****   
 437:Drivers/STM32F0xx_HAL_Driver/Src/stm32f0xx_hal_dma.c ****     /* Disable DMA IT */
 438:Drivers/STM32F0xx_HAL_Driver/Src/stm32f0xx_hal_dma.c ****     hdma->Instance->CCR &= ~(DMA_IT_TC | DMA_IT_HT | DMA_IT_TE);
 439:Drivers/STM32F0xx_HAL_Driver/Src/stm32f0xx_hal_dma.c ****     
 440:Drivers/STM32F0xx_HAL_Driver/Src/stm32f0xx_hal_dma.c ****     /* Disable the channel */
 441:Drivers/STM32F0xx_HAL_Driver/Src/stm32f0xx_hal_dma.c ****     hdma->Instance->CCR &= ~DMA_CCR_EN;
 442:Drivers/STM32F0xx_HAL_Driver/Src/stm32f0xx_hal_dma.c ****     
 443:Drivers/STM32F0xx_HAL_Driver/Src/stm32f0xx_hal_dma.c ****     /* Clear all flags */
 444:Drivers/STM32F0xx_HAL_Driver/Src/stm32f0xx_hal_dma.c ****     hdma->DmaBaseAddress->IFCR = DMA_FLAG_GL1 << hdma->ChannelIndex;
 445:Drivers/STM32F0xx_HAL_Driver/Src/stm32f0xx_hal_dma.c ****     
 446:Drivers/STM32F0xx_HAL_Driver/Src/stm32f0xx_hal_dma.c ****     /* Change the DMA state */
 447:Drivers/STM32F0xx_HAL_Driver/Src/stm32f0xx_hal_dma.c ****     hdma->State = HAL_DMA_STATE_READY;
 448:Drivers/STM32F0xx_HAL_Driver/Src/stm32f0xx_hal_dma.c ****     
 449:Drivers/STM32F0xx_HAL_Driver/Src/stm32f0xx_hal_dma.c ****     /* Process Unlocked */
 450:Drivers/STM32F0xx_HAL_Driver/Src/stm32f0xx_hal_dma.c ****     __HAL_UNLOCK(hdma);
 451:Drivers/STM32F0xx_HAL_Driver/Src/stm32f0xx_hal_dma.c ****     
 452:Drivers/STM32F0xx_HAL_Driver/Src/stm32f0xx_hal_dma.c ****     /* Call User Abort callback */ 
 453:Drivers/STM32F0xx_HAL_Driver/Src/stm32f0xx_hal_dma.c ****     if(hdma->XferAbortCallback != NULL)
 454:Drivers/STM32F0xx_HAL_Driver/Src/stm32f0xx_hal_dma.c ****     {
 455:Drivers/STM32F0xx_HAL_Driver/Src/stm32f0xx_hal_dma.c ****       hdma->XferAbortCallback(hdma);
 456:Drivers/STM32F0xx_HAL_Driver/Src/stm32f0xx_hal_dma.c ****     } 
 457:Drivers/STM32F0xx_HAL_Driver/Src/stm32f0xx_hal_dma.c ****   }
 458:Drivers/STM32F0xx_HAL_Driver/Src/stm32f0xx_hal_dma.c ****   return status;
 459:Drivers/STM32F0xx_HAL_Driver/Src/stm32f0xx_hal_dma.c **** }
 460:Drivers/STM32F0xx_HAL_Driver/Src/stm32f0xx_hal_dma.c **** 
 461:Drivers/STM32F0xx_HAL_Driver/Src/stm32f0xx_hal_dma.c **** /**
 462:Drivers/STM32F0xx_HAL_Driver/Src/stm32f0xx_hal_dma.c ****   * @brief  Polling for transfer complete.
 463:Drivers/STM32F0xx_HAL_Driver/Src/stm32f0xx_hal_dma.c ****   * @param  hdma    pointer to a DMA_HandleTypeDef structure that contains
 464:Drivers/STM32F0xx_HAL_Driver/Src/stm32f0xx_hal_dma.c ****   *                  the configuration information for the specified DMA Channel.
 465:Drivers/STM32F0xx_HAL_Driver/Src/stm32f0xx_hal_dma.c ****   * @param  CompleteLevel Specifies the DMA level complete.  
 466:Drivers/STM32F0xx_HAL_Driver/Src/stm32f0xx_hal_dma.c ****   * @param  Timeout       Timeout duration.
 467:Drivers/STM32F0xx_HAL_Driver/Src/stm32f0xx_hal_dma.c ****   * @retval HAL status
 468:Drivers/STM32F0xx_HAL_Driver/Src/stm32f0xx_hal_dma.c ****   */
 469:Drivers/STM32F0xx_HAL_Driver/Src/stm32f0xx_hal_dma.c **** HAL_StatusTypeDef HAL_DMA_PollForTransfer(DMA_HandleTypeDef *hdma, uint32_t CompleteLevel, uint32_t
 470:Drivers/STM32F0xx_HAL_Driver/Src/stm32f0xx_hal_dma.c **** {
 471:Drivers/STM32F0xx_HAL_Driver/Src/stm32f0xx_hal_dma.c ****   uint32_t temp;
 472:Drivers/STM32F0xx_HAL_Driver/Src/stm32f0xx_hal_dma.c ****   uint32_t tickstart = 0U;
 473:Drivers/STM32F0xx_HAL_Driver/Src/stm32f0xx_hal_dma.c ****   
 474:Drivers/STM32F0xx_HAL_Driver/Src/stm32f0xx_hal_dma.c ****   if(HAL_DMA_STATE_BUSY != hdma->State)
 475:Drivers/STM32F0xx_HAL_Driver/Src/stm32f0xx_hal_dma.c ****   {
 476:Drivers/STM32F0xx_HAL_Driver/Src/stm32f0xx_hal_dma.c ****     /* no transfer ongoing */
 477:Drivers/STM32F0xx_HAL_Driver/Src/stm32f0xx_hal_dma.c ****     hdma->ErrorCode = HAL_DMA_ERROR_NO_XFER;
 478:Drivers/STM32F0xx_HAL_Driver/Src/stm32f0xx_hal_dma.c ****     __HAL_UNLOCK(hdma);
 479:Drivers/STM32F0xx_HAL_Driver/Src/stm32f0xx_hal_dma.c ****     return HAL_ERROR;
 480:Drivers/STM32F0xx_HAL_Driver/Src/stm32f0xx_hal_dma.c ****   }
 481:Drivers/STM32F0xx_HAL_Driver/Src/stm32f0xx_hal_dma.c ****   
 482:Drivers/STM32F0xx_HAL_Driver/Src/stm32f0xx_hal_dma.c ****   /* Polling mode not supported in circular mode */
 483:Drivers/STM32F0xx_HAL_Driver/Src/stm32f0xx_hal_dma.c ****   if (RESET != (hdma->Instance->CCR & DMA_CCR_CIRC))
 484:Drivers/STM32F0xx_HAL_Driver/Src/stm32f0xx_hal_dma.c ****   {
 485:Drivers/STM32F0xx_HAL_Driver/Src/stm32f0xx_hal_dma.c ****     hdma->ErrorCode = HAL_DMA_ERROR_NOT_SUPPORTED;
 486:Drivers/STM32F0xx_HAL_Driver/Src/stm32f0xx_hal_dma.c ****     return HAL_ERROR;
 487:Drivers/STM32F0xx_HAL_Driver/Src/stm32f0xx_hal_dma.c ****   }
 488:Drivers/STM32F0xx_HAL_Driver/Src/stm32f0xx_hal_dma.c ****   
ARM GAS  C:\Users\Vulca\AppData\Local\Temp\ccgcmgtb.s 			page 10


 489:Drivers/STM32F0xx_HAL_Driver/Src/stm32f0xx_hal_dma.c ****   /* Get the level transfer complete flag */
 490:Drivers/STM32F0xx_HAL_Driver/Src/stm32f0xx_hal_dma.c ****   if(HAL_DMA_FULL_TRANSFER == CompleteLevel)
 491:Drivers/STM32F0xx_HAL_Driver/Src/stm32f0xx_hal_dma.c ****   {
 492:Drivers/STM32F0xx_HAL_Driver/Src/stm32f0xx_hal_dma.c ****     /* Transfer Complete flag */
 493:Drivers/STM32F0xx_HAL_Driver/Src/stm32f0xx_hal_dma.c ****     temp = DMA_FLAG_TC1 << hdma->ChannelIndex;
 494:Drivers/STM32F0xx_HAL_Driver/Src/stm32f0xx_hal_dma.c ****   }
 495:Drivers/STM32F0xx_HAL_Driver/Src/stm32f0xx_hal_dma.c ****   else
 496:Drivers/STM32F0xx_HAL_Driver/Src/stm32f0xx_hal_dma.c ****   {
 497:Drivers/STM32F0xx_HAL_Driver/Src/stm32f0xx_hal_dma.c ****     /* Half Transfer Complete flag */
 498:Drivers/STM32F0xx_HAL_Driver/Src/stm32f0xx_hal_dma.c ****     temp = DMA_FLAG_HT1 << hdma->ChannelIndex;
 499:Drivers/STM32F0xx_HAL_Driver/Src/stm32f0xx_hal_dma.c ****   }
 500:Drivers/STM32F0xx_HAL_Driver/Src/stm32f0xx_hal_dma.c **** 
 501:Drivers/STM32F0xx_HAL_Driver/Src/stm32f0xx_hal_dma.c ****   /* Get tick */
 502:Drivers/STM32F0xx_HAL_Driver/Src/stm32f0xx_hal_dma.c ****   tickstart = HAL_GetTick();
 503:Drivers/STM32F0xx_HAL_Driver/Src/stm32f0xx_hal_dma.c **** 
 504:Drivers/STM32F0xx_HAL_Driver/Src/stm32f0xx_hal_dma.c ****   while(RESET == (hdma->DmaBaseAddress->ISR & temp))
 505:Drivers/STM32F0xx_HAL_Driver/Src/stm32f0xx_hal_dma.c ****   {
 506:Drivers/STM32F0xx_HAL_Driver/Src/stm32f0xx_hal_dma.c ****     if(RESET != (hdma->DmaBaseAddress->ISR & (DMA_FLAG_TE1 << hdma->ChannelIndex)))
 507:Drivers/STM32F0xx_HAL_Driver/Src/stm32f0xx_hal_dma.c ****     {      
 508:Drivers/STM32F0xx_HAL_Driver/Src/stm32f0xx_hal_dma.c ****       /* When a DMA transfer error occurs */
 509:Drivers/STM32F0xx_HAL_Driver/Src/stm32f0xx_hal_dma.c ****       /* A hardware clear of its EN bits is performed */
 510:Drivers/STM32F0xx_HAL_Driver/Src/stm32f0xx_hal_dma.c ****       /* Clear all flags */
 511:Drivers/STM32F0xx_HAL_Driver/Src/stm32f0xx_hal_dma.c ****       hdma->DmaBaseAddress->IFCR = DMA_FLAG_GL1 << hdma->ChannelIndex;
 512:Drivers/STM32F0xx_HAL_Driver/Src/stm32f0xx_hal_dma.c ****       
 513:Drivers/STM32F0xx_HAL_Driver/Src/stm32f0xx_hal_dma.c ****       /* Update error code */
 514:Drivers/STM32F0xx_HAL_Driver/Src/stm32f0xx_hal_dma.c ****       hdma->ErrorCode = HAL_DMA_ERROR_TE;
 515:Drivers/STM32F0xx_HAL_Driver/Src/stm32f0xx_hal_dma.c **** 
 516:Drivers/STM32F0xx_HAL_Driver/Src/stm32f0xx_hal_dma.c ****       /* Change the DMA state */
 517:Drivers/STM32F0xx_HAL_Driver/Src/stm32f0xx_hal_dma.c ****       hdma->State= HAL_DMA_STATE_READY;       
 518:Drivers/STM32F0xx_HAL_Driver/Src/stm32f0xx_hal_dma.c ****       
 519:Drivers/STM32F0xx_HAL_Driver/Src/stm32f0xx_hal_dma.c ****       /* Process Unlocked */
 520:Drivers/STM32F0xx_HAL_Driver/Src/stm32f0xx_hal_dma.c ****       __HAL_UNLOCK(hdma);
 521:Drivers/STM32F0xx_HAL_Driver/Src/stm32f0xx_hal_dma.c ****       
 522:Drivers/STM32F0xx_HAL_Driver/Src/stm32f0xx_hal_dma.c ****       return HAL_ERROR;      
 523:Drivers/STM32F0xx_HAL_Driver/Src/stm32f0xx_hal_dma.c ****     }      
 524:Drivers/STM32F0xx_HAL_Driver/Src/stm32f0xx_hal_dma.c ****     /* Check for the Timeout */
 525:Drivers/STM32F0xx_HAL_Driver/Src/stm32f0xx_hal_dma.c ****     if(Timeout != HAL_MAX_DELAY)
 526:Drivers/STM32F0xx_HAL_Driver/Src/stm32f0xx_hal_dma.c ****     {
 527:Drivers/STM32F0xx_HAL_Driver/Src/stm32f0xx_hal_dma.c ****       if((Timeout == 0U) || ((HAL_GetTick() - tickstart) > Timeout))
 528:Drivers/STM32F0xx_HAL_Driver/Src/stm32f0xx_hal_dma.c ****       {
 529:Drivers/STM32F0xx_HAL_Driver/Src/stm32f0xx_hal_dma.c ****         /* Update error code */
 530:Drivers/STM32F0xx_HAL_Driver/Src/stm32f0xx_hal_dma.c ****         hdma->ErrorCode = HAL_DMA_ERROR_TIMEOUT;
 531:Drivers/STM32F0xx_HAL_Driver/Src/stm32f0xx_hal_dma.c ****         
 532:Drivers/STM32F0xx_HAL_Driver/Src/stm32f0xx_hal_dma.c ****         /* Change the DMA state */
 533:Drivers/STM32F0xx_HAL_Driver/Src/stm32f0xx_hal_dma.c ****         hdma->State = HAL_DMA_STATE_READY;
 534:Drivers/STM32F0xx_HAL_Driver/Src/stm32f0xx_hal_dma.c **** 
 535:Drivers/STM32F0xx_HAL_Driver/Src/stm32f0xx_hal_dma.c ****         /* Process Unlocked */
 536:Drivers/STM32F0xx_HAL_Driver/Src/stm32f0xx_hal_dma.c ****         __HAL_UNLOCK(hdma);
 537:Drivers/STM32F0xx_HAL_Driver/Src/stm32f0xx_hal_dma.c **** 
 538:Drivers/STM32F0xx_HAL_Driver/Src/stm32f0xx_hal_dma.c ****         return HAL_ERROR;
 539:Drivers/STM32F0xx_HAL_Driver/Src/stm32f0xx_hal_dma.c ****       }
 540:Drivers/STM32F0xx_HAL_Driver/Src/stm32f0xx_hal_dma.c ****     }
 541:Drivers/STM32F0xx_HAL_Driver/Src/stm32f0xx_hal_dma.c ****   }
 542:Drivers/STM32F0xx_HAL_Driver/Src/stm32f0xx_hal_dma.c **** 
 543:Drivers/STM32F0xx_HAL_Driver/Src/stm32f0xx_hal_dma.c ****   if(HAL_DMA_FULL_TRANSFER == CompleteLevel)
 544:Drivers/STM32F0xx_HAL_Driver/Src/stm32f0xx_hal_dma.c ****   {
 545:Drivers/STM32F0xx_HAL_Driver/Src/stm32f0xx_hal_dma.c ****     /* Clear the transfer complete flag */
ARM GAS  C:\Users\Vulca\AppData\Local\Temp\ccgcmgtb.s 			page 11


 546:Drivers/STM32F0xx_HAL_Driver/Src/stm32f0xx_hal_dma.c ****     hdma->DmaBaseAddress->IFCR = DMA_FLAG_TC1 << hdma->ChannelIndex;
 547:Drivers/STM32F0xx_HAL_Driver/Src/stm32f0xx_hal_dma.c **** 
 548:Drivers/STM32F0xx_HAL_Driver/Src/stm32f0xx_hal_dma.c ****     /* The selected Channelx EN bit is cleared (DMA is disabled and 
 549:Drivers/STM32F0xx_HAL_Driver/Src/stm32f0xx_hal_dma.c ****     all transfers are complete) */
 550:Drivers/STM32F0xx_HAL_Driver/Src/stm32f0xx_hal_dma.c ****     hdma->State = HAL_DMA_STATE_READY;
 551:Drivers/STM32F0xx_HAL_Driver/Src/stm32f0xx_hal_dma.c ****   }
 552:Drivers/STM32F0xx_HAL_Driver/Src/stm32f0xx_hal_dma.c ****   else
 553:Drivers/STM32F0xx_HAL_Driver/Src/stm32f0xx_hal_dma.c ****   { 
 554:Drivers/STM32F0xx_HAL_Driver/Src/stm32f0xx_hal_dma.c ****     /* Clear the half transfer complete flag */
 555:Drivers/STM32F0xx_HAL_Driver/Src/stm32f0xx_hal_dma.c ****     hdma->DmaBaseAddress->IFCR = DMA_FLAG_HT1 << hdma->ChannelIndex;
 556:Drivers/STM32F0xx_HAL_Driver/Src/stm32f0xx_hal_dma.c ****   }
 557:Drivers/STM32F0xx_HAL_Driver/Src/stm32f0xx_hal_dma.c ****   
 558:Drivers/STM32F0xx_HAL_Driver/Src/stm32f0xx_hal_dma.c ****   /* Process unlocked */
 559:Drivers/STM32F0xx_HAL_Driver/Src/stm32f0xx_hal_dma.c ****   __HAL_UNLOCK(hdma);  
 560:Drivers/STM32F0xx_HAL_Driver/Src/stm32f0xx_hal_dma.c **** 
 561:Drivers/STM32F0xx_HAL_Driver/Src/stm32f0xx_hal_dma.c ****   return HAL_OK;
 562:Drivers/STM32F0xx_HAL_Driver/Src/stm32f0xx_hal_dma.c **** }
 563:Drivers/STM32F0xx_HAL_Driver/Src/stm32f0xx_hal_dma.c **** 
 564:Drivers/STM32F0xx_HAL_Driver/Src/stm32f0xx_hal_dma.c **** /**
 565:Drivers/STM32F0xx_HAL_Driver/Src/stm32f0xx_hal_dma.c ****   * @brief  Handle DMA interrupt request.
 566:Drivers/STM32F0xx_HAL_Driver/Src/stm32f0xx_hal_dma.c ****   * @param  hdma pointer to a DMA_HandleTypeDef structure that contains
 567:Drivers/STM32F0xx_HAL_Driver/Src/stm32f0xx_hal_dma.c ****   *               the configuration information for the specified DMA Channel.  
 568:Drivers/STM32F0xx_HAL_Driver/Src/stm32f0xx_hal_dma.c ****   * @retval None
 569:Drivers/STM32F0xx_HAL_Driver/Src/stm32f0xx_hal_dma.c ****   */
 570:Drivers/STM32F0xx_HAL_Driver/Src/stm32f0xx_hal_dma.c **** void HAL_DMA_IRQHandler(DMA_HandleTypeDef *hdma)
 571:Drivers/STM32F0xx_HAL_Driver/Src/stm32f0xx_hal_dma.c **** {
 572:Drivers/STM32F0xx_HAL_Driver/Src/stm32f0xx_hal_dma.c **** 	uint32_t flag_it = hdma->DmaBaseAddress->ISR;
 573:Drivers/STM32F0xx_HAL_Driver/Src/stm32f0xx_hal_dma.c ****   uint32_t source_it = hdma->Instance->CCR;
 574:Drivers/STM32F0xx_HAL_Driver/Src/stm32f0xx_hal_dma.c ****           
 575:Drivers/STM32F0xx_HAL_Driver/Src/stm32f0xx_hal_dma.c ****   /* Half Transfer Complete Interrupt management ******************************/
 576:Drivers/STM32F0xx_HAL_Driver/Src/stm32f0xx_hal_dma.c ****   if ((RESET != (flag_it & (DMA_FLAG_HT1 << hdma->ChannelIndex))) && (RESET != (source_it & DMA_IT_
 577:Drivers/STM32F0xx_HAL_Driver/Src/stm32f0xx_hal_dma.c ****   {
 578:Drivers/STM32F0xx_HAL_Driver/Src/stm32f0xx_hal_dma.c ****   	/* Disable the half transfer interrupt if the DMA mode is not CIRCULAR */
 579:Drivers/STM32F0xx_HAL_Driver/Src/stm32f0xx_hal_dma.c ****   	if((hdma->Instance->CCR & DMA_CCR_CIRC) == 0U)
 580:Drivers/STM32F0xx_HAL_Driver/Src/stm32f0xx_hal_dma.c ****   	{
 581:Drivers/STM32F0xx_HAL_Driver/Src/stm32f0xx_hal_dma.c ****   		/* Disable the half transfer interrupt */
 582:Drivers/STM32F0xx_HAL_Driver/Src/stm32f0xx_hal_dma.c ****   		hdma->Instance->CCR &= ~DMA_IT_HT;
 583:Drivers/STM32F0xx_HAL_Driver/Src/stm32f0xx_hal_dma.c ****   	}
 584:Drivers/STM32F0xx_HAL_Driver/Src/stm32f0xx_hal_dma.c ****   	
 585:Drivers/STM32F0xx_HAL_Driver/Src/stm32f0xx_hal_dma.c ****   	/* Clear the half transfer complete flag */
 586:Drivers/STM32F0xx_HAL_Driver/Src/stm32f0xx_hal_dma.c ****   	hdma->DmaBaseAddress->IFCR = DMA_FLAG_HT1 << hdma->ChannelIndex;
 587:Drivers/STM32F0xx_HAL_Driver/Src/stm32f0xx_hal_dma.c ****   	
 588:Drivers/STM32F0xx_HAL_Driver/Src/stm32f0xx_hal_dma.c ****   	/* DMA peripheral state is not updated in Half Transfer */
 589:Drivers/STM32F0xx_HAL_Driver/Src/stm32f0xx_hal_dma.c ****   	/* State is updated only in Transfer Complete case */
 590:Drivers/STM32F0xx_HAL_Driver/Src/stm32f0xx_hal_dma.c ****   	
 591:Drivers/STM32F0xx_HAL_Driver/Src/stm32f0xx_hal_dma.c ****   	if(hdma->XferHalfCpltCallback != NULL)
 592:Drivers/STM32F0xx_HAL_Driver/Src/stm32f0xx_hal_dma.c ****   	{
 593:Drivers/STM32F0xx_HAL_Driver/Src/stm32f0xx_hal_dma.c ****   		/* Half transfer callback */
 594:Drivers/STM32F0xx_HAL_Driver/Src/stm32f0xx_hal_dma.c ****   		hdma->XferHalfCpltCallback(hdma);
 595:Drivers/STM32F0xx_HAL_Driver/Src/stm32f0xx_hal_dma.c ****   	}
 596:Drivers/STM32F0xx_HAL_Driver/Src/stm32f0xx_hal_dma.c ****   }
 597:Drivers/STM32F0xx_HAL_Driver/Src/stm32f0xx_hal_dma.c ****   
 598:Drivers/STM32F0xx_HAL_Driver/Src/stm32f0xx_hal_dma.c ****   /* Transfer Complete Interrupt management ***********************************/
 599:Drivers/STM32F0xx_HAL_Driver/Src/stm32f0xx_hal_dma.c ****   else if ((RESET != (flag_it & (DMA_FLAG_TC1 << hdma->ChannelIndex))) && (RESET != (source_it & DM
 600:Drivers/STM32F0xx_HAL_Driver/Src/stm32f0xx_hal_dma.c ****   {
 601:Drivers/STM32F0xx_HAL_Driver/Src/stm32f0xx_hal_dma.c ****   	if((hdma->Instance->CCR & DMA_CCR_CIRC) == 0U)
 602:Drivers/STM32F0xx_HAL_Driver/Src/stm32f0xx_hal_dma.c ****   	{
ARM GAS  C:\Users\Vulca\AppData\Local\Temp\ccgcmgtb.s 			page 12


 603:Drivers/STM32F0xx_HAL_Driver/Src/stm32f0xx_hal_dma.c ****   		/* Disable the transfer complete  & transfer error interrupts */
 604:Drivers/STM32F0xx_HAL_Driver/Src/stm32f0xx_hal_dma.c ****   		/* if the DMA mode is not CIRCULAR */
 605:Drivers/STM32F0xx_HAL_Driver/Src/stm32f0xx_hal_dma.c ****   		hdma->Instance->CCR &= ~(DMA_IT_TC | DMA_IT_TE);
 606:Drivers/STM32F0xx_HAL_Driver/Src/stm32f0xx_hal_dma.c ****   		
 607:Drivers/STM32F0xx_HAL_Driver/Src/stm32f0xx_hal_dma.c ****   		/* Change the DMA state */
 608:Drivers/STM32F0xx_HAL_Driver/Src/stm32f0xx_hal_dma.c ****   		hdma->State = HAL_DMA_STATE_READY;
 609:Drivers/STM32F0xx_HAL_Driver/Src/stm32f0xx_hal_dma.c ****   	}
 610:Drivers/STM32F0xx_HAL_Driver/Src/stm32f0xx_hal_dma.c ****   	
 611:Drivers/STM32F0xx_HAL_Driver/Src/stm32f0xx_hal_dma.c ****   	/* Clear the transfer complete flag */
 612:Drivers/STM32F0xx_HAL_Driver/Src/stm32f0xx_hal_dma.c ****   	hdma->DmaBaseAddress->IFCR = DMA_FLAG_TC1 << hdma->ChannelIndex;
 613:Drivers/STM32F0xx_HAL_Driver/Src/stm32f0xx_hal_dma.c ****   	
 614:Drivers/STM32F0xx_HAL_Driver/Src/stm32f0xx_hal_dma.c ****   	/* Process Unlocked */
 615:Drivers/STM32F0xx_HAL_Driver/Src/stm32f0xx_hal_dma.c ****   	__HAL_UNLOCK(hdma);
 616:Drivers/STM32F0xx_HAL_Driver/Src/stm32f0xx_hal_dma.c ****   	
 617:Drivers/STM32F0xx_HAL_Driver/Src/stm32f0xx_hal_dma.c ****   	if(hdma->XferCpltCallback != NULL)
 618:Drivers/STM32F0xx_HAL_Driver/Src/stm32f0xx_hal_dma.c ****   	{
 619:Drivers/STM32F0xx_HAL_Driver/Src/stm32f0xx_hal_dma.c ****   		/* Transfer complete callback */
 620:Drivers/STM32F0xx_HAL_Driver/Src/stm32f0xx_hal_dma.c ****   		hdma->XferCpltCallback(hdma);
 621:Drivers/STM32F0xx_HAL_Driver/Src/stm32f0xx_hal_dma.c ****   	}
 622:Drivers/STM32F0xx_HAL_Driver/Src/stm32f0xx_hal_dma.c ****   }
 623:Drivers/STM32F0xx_HAL_Driver/Src/stm32f0xx_hal_dma.c ****   
 624:Drivers/STM32F0xx_HAL_Driver/Src/stm32f0xx_hal_dma.c ****   /* Transfer Error Interrupt management ***************************************/
 625:Drivers/STM32F0xx_HAL_Driver/Src/stm32f0xx_hal_dma.c ****   else if (( RESET != (flag_it & (DMA_FLAG_TE1 << hdma->ChannelIndex))) && (RESET != (source_it & D
 626:Drivers/STM32F0xx_HAL_Driver/Src/stm32f0xx_hal_dma.c ****   {
 627:Drivers/STM32F0xx_HAL_Driver/Src/stm32f0xx_hal_dma.c ****   	/* When a DMA transfer error occurs */
 628:Drivers/STM32F0xx_HAL_Driver/Src/stm32f0xx_hal_dma.c ****     /* A hardware clear of its EN bits is performed */
 629:Drivers/STM32F0xx_HAL_Driver/Src/stm32f0xx_hal_dma.c ****     /* Then, disable all DMA interrupts */
 630:Drivers/STM32F0xx_HAL_Driver/Src/stm32f0xx_hal_dma.c ****     hdma->Instance->CCR &= ~(DMA_IT_TC | DMA_IT_HT | DMA_IT_TE);
 631:Drivers/STM32F0xx_HAL_Driver/Src/stm32f0xx_hal_dma.c ****     
 632:Drivers/STM32F0xx_HAL_Driver/Src/stm32f0xx_hal_dma.c ****     /* Clear all flags */
 633:Drivers/STM32F0xx_HAL_Driver/Src/stm32f0xx_hal_dma.c ****     hdma->DmaBaseAddress->IFCR = DMA_FLAG_GL1 << hdma->ChannelIndex;
 634:Drivers/STM32F0xx_HAL_Driver/Src/stm32f0xx_hal_dma.c ****     
 635:Drivers/STM32F0xx_HAL_Driver/Src/stm32f0xx_hal_dma.c ****     /* Update error code */
 636:Drivers/STM32F0xx_HAL_Driver/Src/stm32f0xx_hal_dma.c ****     hdma->ErrorCode = HAL_DMA_ERROR_TE;
 637:Drivers/STM32F0xx_HAL_Driver/Src/stm32f0xx_hal_dma.c ****     
 638:Drivers/STM32F0xx_HAL_Driver/Src/stm32f0xx_hal_dma.c ****     /* Change the DMA state */
 639:Drivers/STM32F0xx_HAL_Driver/Src/stm32f0xx_hal_dma.c ****     hdma->State = HAL_DMA_STATE_READY;    
 640:Drivers/STM32F0xx_HAL_Driver/Src/stm32f0xx_hal_dma.c ****     
 641:Drivers/STM32F0xx_HAL_Driver/Src/stm32f0xx_hal_dma.c ****     /* Process Unlocked */
 642:Drivers/STM32F0xx_HAL_Driver/Src/stm32f0xx_hal_dma.c ****     __HAL_UNLOCK(hdma); 
 643:Drivers/STM32F0xx_HAL_Driver/Src/stm32f0xx_hal_dma.c ****     
 644:Drivers/STM32F0xx_HAL_Driver/Src/stm32f0xx_hal_dma.c ****     if(hdma->XferErrorCallback != NULL)
 645:Drivers/STM32F0xx_HAL_Driver/Src/stm32f0xx_hal_dma.c ****     {
 646:Drivers/STM32F0xx_HAL_Driver/Src/stm32f0xx_hal_dma.c ****     	/* Transfer error callback */
 647:Drivers/STM32F0xx_HAL_Driver/Src/stm32f0xx_hal_dma.c ****     	hdma->XferErrorCallback(hdma);
 648:Drivers/STM32F0xx_HAL_Driver/Src/stm32f0xx_hal_dma.c ****     }
 649:Drivers/STM32F0xx_HAL_Driver/Src/stm32f0xx_hal_dma.c ****    }
 650:Drivers/STM32F0xx_HAL_Driver/Src/stm32f0xx_hal_dma.c **** }  
 651:Drivers/STM32F0xx_HAL_Driver/Src/stm32f0xx_hal_dma.c **** 
 652:Drivers/STM32F0xx_HAL_Driver/Src/stm32f0xx_hal_dma.c **** /**
 653:Drivers/STM32F0xx_HAL_Driver/Src/stm32f0xx_hal_dma.c ****   * @brief  Register callbacks
 654:Drivers/STM32F0xx_HAL_Driver/Src/stm32f0xx_hal_dma.c ****   * @param  hdma                 pointer to a DMA_HandleTypeDef structure that contains
 655:Drivers/STM32F0xx_HAL_Driver/Src/stm32f0xx_hal_dma.c ****   *                               the configuration information for the specified DMA Stream.
 656:Drivers/STM32F0xx_HAL_Driver/Src/stm32f0xx_hal_dma.c ****   * @param  CallbackID           User Callback identifer
 657:Drivers/STM32F0xx_HAL_Driver/Src/stm32f0xx_hal_dma.c ****   *                               a HAL_DMA_CallbackIDTypeDef ENUM as parameter.
 658:Drivers/STM32F0xx_HAL_Driver/Src/stm32f0xx_hal_dma.c ****   * @param  pCallback            pointer to private callback function which has pointer to 
 659:Drivers/STM32F0xx_HAL_Driver/Src/stm32f0xx_hal_dma.c ****   *                               a DMA_HandleTypeDef structure as parameter.
ARM GAS  C:\Users\Vulca\AppData\Local\Temp\ccgcmgtb.s 			page 13


 660:Drivers/STM32F0xx_HAL_Driver/Src/stm32f0xx_hal_dma.c ****   * @retval HAL status
 661:Drivers/STM32F0xx_HAL_Driver/Src/stm32f0xx_hal_dma.c ****   */                          
 662:Drivers/STM32F0xx_HAL_Driver/Src/stm32f0xx_hal_dma.c **** HAL_StatusTypeDef HAL_DMA_RegisterCallback(DMA_HandleTypeDef *hdma, HAL_DMA_CallbackIDTypeDef Callb
 663:Drivers/STM32F0xx_HAL_Driver/Src/stm32f0xx_hal_dma.c **** {
 664:Drivers/STM32F0xx_HAL_Driver/Src/stm32f0xx_hal_dma.c ****   HAL_StatusTypeDef status = HAL_OK;
 665:Drivers/STM32F0xx_HAL_Driver/Src/stm32f0xx_hal_dma.c ****   
 666:Drivers/STM32F0xx_HAL_Driver/Src/stm32f0xx_hal_dma.c ****   /* Process locked */
 667:Drivers/STM32F0xx_HAL_Driver/Src/stm32f0xx_hal_dma.c ****   __HAL_LOCK(hdma);
 668:Drivers/STM32F0xx_HAL_Driver/Src/stm32f0xx_hal_dma.c ****   
 669:Drivers/STM32F0xx_HAL_Driver/Src/stm32f0xx_hal_dma.c ****   if(HAL_DMA_STATE_READY == hdma->State)
 670:Drivers/STM32F0xx_HAL_Driver/Src/stm32f0xx_hal_dma.c ****   {
 671:Drivers/STM32F0xx_HAL_Driver/Src/stm32f0xx_hal_dma.c ****     switch (CallbackID)
 672:Drivers/STM32F0xx_HAL_Driver/Src/stm32f0xx_hal_dma.c ****     {
 673:Drivers/STM32F0xx_HAL_Driver/Src/stm32f0xx_hal_dma.c ****      case  HAL_DMA_XFER_CPLT_CB_ID:
 674:Drivers/STM32F0xx_HAL_Driver/Src/stm32f0xx_hal_dma.c ****            hdma->XferCpltCallback = pCallback;
 675:Drivers/STM32F0xx_HAL_Driver/Src/stm32f0xx_hal_dma.c ****            break;
 676:Drivers/STM32F0xx_HAL_Driver/Src/stm32f0xx_hal_dma.c ****        
 677:Drivers/STM32F0xx_HAL_Driver/Src/stm32f0xx_hal_dma.c ****      case  HAL_DMA_XFER_HALFCPLT_CB_ID:
 678:Drivers/STM32F0xx_HAL_Driver/Src/stm32f0xx_hal_dma.c ****            hdma->XferHalfCpltCallback = pCallback;
 679:Drivers/STM32F0xx_HAL_Driver/Src/stm32f0xx_hal_dma.c ****            break;         
 680:Drivers/STM32F0xx_HAL_Driver/Src/stm32f0xx_hal_dma.c **** 
 681:Drivers/STM32F0xx_HAL_Driver/Src/stm32f0xx_hal_dma.c ****      case  HAL_DMA_XFER_ERROR_CB_ID:
 682:Drivers/STM32F0xx_HAL_Driver/Src/stm32f0xx_hal_dma.c ****            hdma->XferErrorCallback = pCallback;
 683:Drivers/STM32F0xx_HAL_Driver/Src/stm32f0xx_hal_dma.c ****            break;         
 684:Drivers/STM32F0xx_HAL_Driver/Src/stm32f0xx_hal_dma.c ****            
 685:Drivers/STM32F0xx_HAL_Driver/Src/stm32f0xx_hal_dma.c ****      case  HAL_DMA_XFER_ABORT_CB_ID:
 686:Drivers/STM32F0xx_HAL_Driver/Src/stm32f0xx_hal_dma.c ****            hdma->XferAbortCallback = pCallback;
 687:Drivers/STM32F0xx_HAL_Driver/Src/stm32f0xx_hal_dma.c ****            break; 
 688:Drivers/STM32F0xx_HAL_Driver/Src/stm32f0xx_hal_dma.c ****            
 689:Drivers/STM32F0xx_HAL_Driver/Src/stm32f0xx_hal_dma.c ****      default:
 690:Drivers/STM32F0xx_HAL_Driver/Src/stm32f0xx_hal_dma.c ****            status = HAL_ERROR;
 691:Drivers/STM32F0xx_HAL_Driver/Src/stm32f0xx_hal_dma.c ****            break;                                                            
 692:Drivers/STM32F0xx_HAL_Driver/Src/stm32f0xx_hal_dma.c ****     }
 693:Drivers/STM32F0xx_HAL_Driver/Src/stm32f0xx_hal_dma.c ****   }
 694:Drivers/STM32F0xx_HAL_Driver/Src/stm32f0xx_hal_dma.c ****   else
 695:Drivers/STM32F0xx_HAL_Driver/Src/stm32f0xx_hal_dma.c ****   {
 696:Drivers/STM32F0xx_HAL_Driver/Src/stm32f0xx_hal_dma.c ****     status = HAL_ERROR;
 697:Drivers/STM32F0xx_HAL_Driver/Src/stm32f0xx_hal_dma.c ****   } 
 698:Drivers/STM32F0xx_HAL_Driver/Src/stm32f0xx_hal_dma.c ****   
 699:Drivers/STM32F0xx_HAL_Driver/Src/stm32f0xx_hal_dma.c ****   /* Release Lock */
 700:Drivers/STM32F0xx_HAL_Driver/Src/stm32f0xx_hal_dma.c ****   __HAL_UNLOCK(hdma);
 701:Drivers/STM32F0xx_HAL_Driver/Src/stm32f0xx_hal_dma.c ****   
 702:Drivers/STM32F0xx_HAL_Driver/Src/stm32f0xx_hal_dma.c ****   return status;
 703:Drivers/STM32F0xx_HAL_Driver/Src/stm32f0xx_hal_dma.c **** }
 704:Drivers/STM32F0xx_HAL_Driver/Src/stm32f0xx_hal_dma.c **** 
 705:Drivers/STM32F0xx_HAL_Driver/Src/stm32f0xx_hal_dma.c **** /**
 706:Drivers/STM32F0xx_HAL_Driver/Src/stm32f0xx_hal_dma.c ****   * @brief  UnRegister callbacks
 707:Drivers/STM32F0xx_HAL_Driver/Src/stm32f0xx_hal_dma.c ****   * @param  hdma                 pointer to a DMA_HandleTypeDef structure that contains
 708:Drivers/STM32F0xx_HAL_Driver/Src/stm32f0xx_hal_dma.c ****   *                               the configuration information for the specified DMA Stream.
 709:Drivers/STM32F0xx_HAL_Driver/Src/stm32f0xx_hal_dma.c ****   * @param  CallbackID           User Callback identifer
 710:Drivers/STM32F0xx_HAL_Driver/Src/stm32f0xx_hal_dma.c ****   *                               a HAL_DMA_CallbackIDTypeDef ENUM as parameter.
 711:Drivers/STM32F0xx_HAL_Driver/Src/stm32f0xx_hal_dma.c ****   * @retval HAL status
 712:Drivers/STM32F0xx_HAL_Driver/Src/stm32f0xx_hal_dma.c ****   */              
 713:Drivers/STM32F0xx_HAL_Driver/Src/stm32f0xx_hal_dma.c **** HAL_StatusTypeDef HAL_DMA_UnRegisterCallback(DMA_HandleTypeDef *hdma, HAL_DMA_CallbackIDTypeDef Cal
 714:Drivers/STM32F0xx_HAL_Driver/Src/stm32f0xx_hal_dma.c **** {
 715:Drivers/STM32F0xx_HAL_Driver/Src/stm32f0xx_hal_dma.c ****   HAL_StatusTypeDef status = HAL_OK;
 716:Drivers/STM32F0xx_HAL_Driver/Src/stm32f0xx_hal_dma.c **** 
ARM GAS  C:\Users\Vulca\AppData\Local\Temp\ccgcmgtb.s 			page 14


 717:Drivers/STM32F0xx_HAL_Driver/Src/stm32f0xx_hal_dma.c ****     /* Process locked */
 718:Drivers/STM32F0xx_HAL_Driver/Src/stm32f0xx_hal_dma.c ****   __HAL_LOCK(hdma);
 719:Drivers/STM32F0xx_HAL_Driver/Src/stm32f0xx_hal_dma.c ****   
 720:Drivers/STM32F0xx_HAL_Driver/Src/stm32f0xx_hal_dma.c ****   if(HAL_DMA_STATE_READY == hdma->State)
 721:Drivers/STM32F0xx_HAL_Driver/Src/stm32f0xx_hal_dma.c ****   {
 722:Drivers/STM32F0xx_HAL_Driver/Src/stm32f0xx_hal_dma.c ****     switch (CallbackID)
 723:Drivers/STM32F0xx_HAL_Driver/Src/stm32f0xx_hal_dma.c ****     {
 724:Drivers/STM32F0xx_HAL_Driver/Src/stm32f0xx_hal_dma.c ****      case  HAL_DMA_XFER_CPLT_CB_ID:
 725:Drivers/STM32F0xx_HAL_Driver/Src/stm32f0xx_hal_dma.c ****            hdma->XferCpltCallback = NULL;
 726:Drivers/STM32F0xx_HAL_Driver/Src/stm32f0xx_hal_dma.c ****            break;
 727:Drivers/STM32F0xx_HAL_Driver/Src/stm32f0xx_hal_dma.c ****        
 728:Drivers/STM32F0xx_HAL_Driver/Src/stm32f0xx_hal_dma.c ****      case  HAL_DMA_XFER_HALFCPLT_CB_ID:
 729:Drivers/STM32F0xx_HAL_Driver/Src/stm32f0xx_hal_dma.c ****            hdma->XferHalfCpltCallback = NULL;
 730:Drivers/STM32F0xx_HAL_Driver/Src/stm32f0xx_hal_dma.c ****            break;         
 731:Drivers/STM32F0xx_HAL_Driver/Src/stm32f0xx_hal_dma.c **** 
 732:Drivers/STM32F0xx_HAL_Driver/Src/stm32f0xx_hal_dma.c ****      case  HAL_DMA_XFER_ERROR_CB_ID:
 733:Drivers/STM32F0xx_HAL_Driver/Src/stm32f0xx_hal_dma.c ****            hdma->XferErrorCallback = NULL;
 734:Drivers/STM32F0xx_HAL_Driver/Src/stm32f0xx_hal_dma.c ****            break;         
 735:Drivers/STM32F0xx_HAL_Driver/Src/stm32f0xx_hal_dma.c ****            
 736:Drivers/STM32F0xx_HAL_Driver/Src/stm32f0xx_hal_dma.c ****      case  HAL_DMA_XFER_ABORT_CB_ID:
 737:Drivers/STM32F0xx_HAL_Driver/Src/stm32f0xx_hal_dma.c ****            hdma->XferAbortCallback = NULL;
 738:Drivers/STM32F0xx_HAL_Driver/Src/stm32f0xx_hal_dma.c ****            break; 
 739:Drivers/STM32F0xx_HAL_Driver/Src/stm32f0xx_hal_dma.c ****      
 740:Drivers/STM32F0xx_HAL_Driver/Src/stm32f0xx_hal_dma.c ****     case   HAL_DMA_XFER_ALL_CB_ID:
 741:Drivers/STM32F0xx_HAL_Driver/Src/stm32f0xx_hal_dma.c ****            hdma->XferCpltCallback = NULL;
 742:Drivers/STM32F0xx_HAL_Driver/Src/stm32f0xx_hal_dma.c ****            hdma->XferHalfCpltCallback = NULL;
 743:Drivers/STM32F0xx_HAL_Driver/Src/stm32f0xx_hal_dma.c ****            hdma->XferErrorCallback = NULL;
 744:Drivers/STM32F0xx_HAL_Driver/Src/stm32f0xx_hal_dma.c ****            hdma->XferAbortCallback = NULL;
 745:Drivers/STM32F0xx_HAL_Driver/Src/stm32f0xx_hal_dma.c ****            break; 
 746:Drivers/STM32F0xx_HAL_Driver/Src/stm32f0xx_hal_dma.c ****      
 747:Drivers/STM32F0xx_HAL_Driver/Src/stm32f0xx_hal_dma.c ****     default:
 748:Drivers/STM32F0xx_HAL_Driver/Src/stm32f0xx_hal_dma.c ****            status = HAL_ERROR;
 749:Drivers/STM32F0xx_HAL_Driver/Src/stm32f0xx_hal_dma.c ****            break;                                                            
 750:Drivers/STM32F0xx_HAL_Driver/Src/stm32f0xx_hal_dma.c ****     }
 751:Drivers/STM32F0xx_HAL_Driver/Src/stm32f0xx_hal_dma.c ****   }
 752:Drivers/STM32F0xx_HAL_Driver/Src/stm32f0xx_hal_dma.c ****   else
 753:Drivers/STM32F0xx_HAL_Driver/Src/stm32f0xx_hal_dma.c ****   {
 754:Drivers/STM32F0xx_HAL_Driver/Src/stm32f0xx_hal_dma.c ****     status = HAL_ERROR;
 755:Drivers/STM32F0xx_HAL_Driver/Src/stm32f0xx_hal_dma.c ****   } 
 756:Drivers/STM32F0xx_HAL_Driver/Src/stm32f0xx_hal_dma.c ****   
 757:Drivers/STM32F0xx_HAL_Driver/Src/stm32f0xx_hal_dma.c ****   /* Release Lock */
 758:Drivers/STM32F0xx_HAL_Driver/Src/stm32f0xx_hal_dma.c ****   __HAL_UNLOCK(hdma);
 759:Drivers/STM32F0xx_HAL_Driver/Src/stm32f0xx_hal_dma.c ****   
 760:Drivers/STM32F0xx_HAL_Driver/Src/stm32f0xx_hal_dma.c ****   return status;
 761:Drivers/STM32F0xx_HAL_Driver/Src/stm32f0xx_hal_dma.c **** }
 762:Drivers/STM32F0xx_HAL_Driver/Src/stm32f0xx_hal_dma.c **** 
 763:Drivers/STM32F0xx_HAL_Driver/Src/stm32f0xx_hal_dma.c **** /**
 764:Drivers/STM32F0xx_HAL_Driver/Src/stm32f0xx_hal_dma.c ****   * @}
 765:Drivers/STM32F0xx_HAL_Driver/Src/stm32f0xx_hal_dma.c ****   */
 766:Drivers/STM32F0xx_HAL_Driver/Src/stm32f0xx_hal_dma.c **** 
 767:Drivers/STM32F0xx_HAL_Driver/Src/stm32f0xx_hal_dma.c **** /** @defgroup DMA_Exported_Functions_Group3 Peripheral State functions
 768:Drivers/STM32F0xx_HAL_Driver/Src/stm32f0xx_hal_dma.c ****  *  @brief    Peripheral State functions 
 769:Drivers/STM32F0xx_HAL_Driver/Src/stm32f0xx_hal_dma.c ****  *
 770:Drivers/STM32F0xx_HAL_Driver/Src/stm32f0xx_hal_dma.c **** @verbatim   
 771:Drivers/STM32F0xx_HAL_Driver/Src/stm32f0xx_hal_dma.c ****  ===============================================================================
 772:Drivers/STM32F0xx_HAL_Driver/Src/stm32f0xx_hal_dma.c ****                     ##### State and Errors functions #####
 773:Drivers/STM32F0xx_HAL_Driver/Src/stm32f0xx_hal_dma.c ****  ===============================================================================  
ARM GAS  C:\Users\Vulca\AppData\Local\Temp\ccgcmgtb.s 			page 15


 774:Drivers/STM32F0xx_HAL_Driver/Src/stm32f0xx_hal_dma.c ****     [..]
 775:Drivers/STM32F0xx_HAL_Driver/Src/stm32f0xx_hal_dma.c ****     This subsection provides functions allowing to
 776:Drivers/STM32F0xx_HAL_Driver/Src/stm32f0xx_hal_dma.c ****       (+) Check the DMA state
 777:Drivers/STM32F0xx_HAL_Driver/Src/stm32f0xx_hal_dma.c ****       (+) Get error code
 778:Drivers/STM32F0xx_HAL_Driver/Src/stm32f0xx_hal_dma.c **** 
 779:Drivers/STM32F0xx_HAL_Driver/Src/stm32f0xx_hal_dma.c **** @endverbatim
 780:Drivers/STM32F0xx_HAL_Driver/Src/stm32f0xx_hal_dma.c ****   * @{
 781:Drivers/STM32F0xx_HAL_Driver/Src/stm32f0xx_hal_dma.c ****   */  
 782:Drivers/STM32F0xx_HAL_Driver/Src/stm32f0xx_hal_dma.c **** 
 783:Drivers/STM32F0xx_HAL_Driver/Src/stm32f0xx_hal_dma.c **** /**
 784:Drivers/STM32F0xx_HAL_Driver/Src/stm32f0xx_hal_dma.c ****   * @brief  Returns the DMA state.
 785:Drivers/STM32F0xx_HAL_Driver/Src/stm32f0xx_hal_dma.c ****   * @param  hdma pointer to a DMA_HandleTypeDef structure that contains
 786:Drivers/STM32F0xx_HAL_Driver/Src/stm32f0xx_hal_dma.c ****   *               the configuration information for the specified DMA Channel.  
 787:Drivers/STM32F0xx_HAL_Driver/Src/stm32f0xx_hal_dma.c ****   * @retval HAL state
 788:Drivers/STM32F0xx_HAL_Driver/Src/stm32f0xx_hal_dma.c ****   */
 789:Drivers/STM32F0xx_HAL_Driver/Src/stm32f0xx_hal_dma.c **** HAL_DMA_StateTypeDef HAL_DMA_GetState(DMA_HandleTypeDef *hdma)
 790:Drivers/STM32F0xx_HAL_Driver/Src/stm32f0xx_hal_dma.c **** {
 791:Drivers/STM32F0xx_HAL_Driver/Src/stm32f0xx_hal_dma.c ****   return hdma->State;
 792:Drivers/STM32F0xx_HAL_Driver/Src/stm32f0xx_hal_dma.c **** }
 793:Drivers/STM32F0xx_HAL_Driver/Src/stm32f0xx_hal_dma.c **** 
 794:Drivers/STM32F0xx_HAL_Driver/Src/stm32f0xx_hal_dma.c **** /**
 795:Drivers/STM32F0xx_HAL_Driver/Src/stm32f0xx_hal_dma.c ****   * @brief  Return the DMA error code
 796:Drivers/STM32F0xx_HAL_Driver/Src/stm32f0xx_hal_dma.c ****   * @param  hdma pointer to a DMA_HandleTypeDef structure that contains
 797:Drivers/STM32F0xx_HAL_Driver/Src/stm32f0xx_hal_dma.c ****   *              the configuration information for the specified DMA Channel.
 798:Drivers/STM32F0xx_HAL_Driver/Src/stm32f0xx_hal_dma.c ****   * @retval DMA Error Code
 799:Drivers/STM32F0xx_HAL_Driver/Src/stm32f0xx_hal_dma.c ****   */
 800:Drivers/STM32F0xx_HAL_Driver/Src/stm32f0xx_hal_dma.c **** uint32_t HAL_DMA_GetError(DMA_HandleTypeDef *hdma)
 801:Drivers/STM32F0xx_HAL_Driver/Src/stm32f0xx_hal_dma.c **** {
 802:Drivers/STM32F0xx_HAL_Driver/Src/stm32f0xx_hal_dma.c ****   return hdma->ErrorCode;
 803:Drivers/STM32F0xx_HAL_Driver/Src/stm32f0xx_hal_dma.c **** }
 804:Drivers/STM32F0xx_HAL_Driver/Src/stm32f0xx_hal_dma.c **** 
 805:Drivers/STM32F0xx_HAL_Driver/Src/stm32f0xx_hal_dma.c **** /**
 806:Drivers/STM32F0xx_HAL_Driver/Src/stm32f0xx_hal_dma.c ****   * @}
 807:Drivers/STM32F0xx_HAL_Driver/Src/stm32f0xx_hal_dma.c ****   */
 808:Drivers/STM32F0xx_HAL_Driver/Src/stm32f0xx_hal_dma.c **** 
 809:Drivers/STM32F0xx_HAL_Driver/Src/stm32f0xx_hal_dma.c **** /**
 810:Drivers/STM32F0xx_HAL_Driver/Src/stm32f0xx_hal_dma.c ****   * @}
 811:Drivers/STM32F0xx_HAL_Driver/Src/stm32f0xx_hal_dma.c ****   */
 812:Drivers/STM32F0xx_HAL_Driver/Src/stm32f0xx_hal_dma.c **** 
 813:Drivers/STM32F0xx_HAL_Driver/Src/stm32f0xx_hal_dma.c **** /** @addtogroup DMA_Private_Functions
 814:Drivers/STM32F0xx_HAL_Driver/Src/stm32f0xx_hal_dma.c ****   * @{
 815:Drivers/STM32F0xx_HAL_Driver/Src/stm32f0xx_hal_dma.c ****   */
 816:Drivers/STM32F0xx_HAL_Driver/Src/stm32f0xx_hal_dma.c **** 
 817:Drivers/STM32F0xx_HAL_Driver/Src/stm32f0xx_hal_dma.c **** /**
 818:Drivers/STM32F0xx_HAL_Driver/Src/stm32f0xx_hal_dma.c ****   * @brief  Set the DMA Transfer parameters.
 819:Drivers/STM32F0xx_HAL_Driver/Src/stm32f0xx_hal_dma.c ****   * @param  hdma       pointer to a DMA_HandleTypeDef structure that contains
 820:Drivers/STM32F0xx_HAL_Driver/Src/stm32f0xx_hal_dma.c ****   *                     the configuration information for the specified DMA Channel.  
 821:Drivers/STM32F0xx_HAL_Driver/Src/stm32f0xx_hal_dma.c ****   * @param  SrcAddress The source memory Buffer address
 822:Drivers/STM32F0xx_HAL_Driver/Src/stm32f0xx_hal_dma.c ****   * @param  DstAddress The destination memory Buffer address
 823:Drivers/STM32F0xx_HAL_Driver/Src/stm32f0xx_hal_dma.c ****   * @param  DataLength The length of data to be transferred from source to destination
 824:Drivers/STM32F0xx_HAL_Driver/Src/stm32f0xx_hal_dma.c ****   * @retval HAL status
 825:Drivers/STM32F0xx_HAL_Driver/Src/stm32f0xx_hal_dma.c ****   */
 826:Drivers/STM32F0xx_HAL_Driver/Src/stm32f0xx_hal_dma.c **** static void DMA_SetConfig(DMA_HandleTypeDef *hdma, uint32_t SrcAddress, uint32_t DstAddress, uint32
 827:Drivers/STM32F0xx_HAL_Driver/Src/stm32f0xx_hal_dma.c **** {
  27              		.loc 1 827 1 view -0
  28              		.cfi_startproc
  29              		@ args = 0, pretend = 0, frame = 0
ARM GAS  C:\Users\Vulca\AppData\Local\Temp\ccgcmgtb.s 			page 16


  30              		@ frame_needed = 0, uses_anonymous_args = 0
  31              		.loc 1 827 1 is_stmt 0 view .LVU1
  32 0000 70B5     		push	{r4, r5, r6, lr}
  33              	.LCFI0:
  34              		.cfi_def_cfa_offset 16
  35              		.cfi_offset 4, -16
  36              		.cfi_offset 5, -12
  37              		.cfi_offset 6, -8
  38              		.cfi_offset 14, -4
 828:Drivers/STM32F0xx_HAL_Driver/Src/stm32f0xx_hal_dma.c **** 	/* Clear all flags */
 829:Drivers/STM32F0xx_HAL_Driver/Src/stm32f0xx_hal_dma.c ****   hdma->DmaBaseAddress->IFCR  = (DMA_FLAG_GL1 << hdma->ChannelIndex);
  39              		.loc 1 829 3 is_stmt 1 view .LVU2
  40              		.loc 1 829 7 is_stmt 0 view .LVU3
  41 0002 C56B     		ldr	r5, [r0, #60]
  42              		.loc 1 829 47 view .LVU4
  43 0004 0124     		movs	r4, #1
  44 0006 066C     		ldr	r6, [r0, #64]
  45 0008 B440     		lsls	r4, r4, r6
  46              		.loc 1 829 31 view .LVU5
  47 000a 6C60     		str	r4, [r5, #4]
 830:Drivers/STM32F0xx_HAL_Driver/Src/stm32f0xx_hal_dma.c ****   
 831:Drivers/STM32F0xx_HAL_Driver/Src/stm32f0xx_hal_dma.c ****   /* Configure DMA Channel data length */
 832:Drivers/STM32F0xx_HAL_Driver/Src/stm32f0xx_hal_dma.c ****   hdma->Instance->CNDTR = DataLength;
  48              		.loc 1 832 3 is_stmt 1 view .LVU6
  49              		.loc 1 832 7 is_stmt 0 view .LVU7
  50 000c 0468     		ldr	r4, [r0]
  51              		.loc 1 832 25 view .LVU8
  52 000e 6360     		str	r3, [r4, #4]
 833:Drivers/STM32F0xx_HAL_Driver/Src/stm32f0xx_hal_dma.c ****   
 834:Drivers/STM32F0xx_HAL_Driver/Src/stm32f0xx_hal_dma.c ****   /* Memory to Peripheral */
 835:Drivers/STM32F0xx_HAL_Driver/Src/stm32f0xx_hal_dma.c ****   if((hdma->Init.Direction) == DMA_MEMORY_TO_PERIPH)
  53              		.loc 1 835 3 is_stmt 1 view .LVU9
  54              		.loc 1 835 5 is_stmt 0 view .LVU10
  55 0010 4368     		ldr	r3, [r0, #4]
  56              	.LVL1:
  57              		.loc 1 835 5 view .LVU11
  58 0012 102B     		cmp	r3, #16
  59 0014 04D0     		beq	.L4
 836:Drivers/STM32F0xx_HAL_Driver/Src/stm32f0xx_hal_dma.c ****   {   
 837:Drivers/STM32F0xx_HAL_Driver/Src/stm32f0xx_hal_dma.c ****     /* Configure DMA Channel destination address */
 838:Drivers/STM32F0xx_HAL_Driver/Src/stm32f0xx_hal_dma.c ****     hdma->Instance->CPAR = DstAddress;
 839:Drivers/STM32F0xx_HAL_Driver/Src/stm32f0xx_hal_dma.c ****     
 840:Drivers/STM32F0xx_HAL_Driver/Src/stm32f0xx_hal_dma.c ****     /* Configure DMA Channel source address */
 841:Drivers/STM32F0xx_HAL_Driver/Src/stm32f0xx_hal_dma.c ****     hdma->Instance->CMAR = SrcAddress;
 842:Drivers/STM32F0xx_HAL_Driver/Src/stm32f0xx_hal_dma.c ****   }
 843:Drivers/STM32F0xx_HAL_Driver/Src/stm32f0xx_hal_dma.c ****   /* Peripheral to Memory */
 844:Drivers/STM32F0xx_HAL_Driver/Src/stm32f0xx_hal_dma.c ****   else
 845:Drivers/STM32F0xx_HAL_Driver/Src/stm32f0xx_hal_dma.c ****   {
 846:Drivers/STM32F0xx_HAL_Driver/Src/stm32f0xx_hal_dma.c ****     /* Configure DMA Channel source address */
 847:Drivers/STM32F0xx_HAL_Driver/Src/stm32f0xx_hal_dma.c ****     hdma->Instance->CPAR = SrcAddress;
  60              		.loc 1 847 5 is_stmt 1 view .LVU12
  61              		.loc 1 847 9 is_stmt 0 view .LVU13
  62 0016 0368     		ldr	r3, [r0]
  63              		.loc 1 847 26 view .LVU14
  64 0018 9960     		str	r1, [r3, #8]
  65              	.LVL2:
 848:Drivers/STM32F0xx_HAL_Driver/Src/stm32f0xx_hal_dma.c ****     
ARM GAS  C:\Users\Vulca\AppData\Local\Temp\ccgcmgtb.s 			page 17


 849:Drivers/STM32F0xx_HAL_Driver/Src/stm32f0xx_hal_dma.c ****     /* Configure DMA Channel destination address */
 850:Drivers/STM32F0xx_HAL_Driver/Src/stm32f0xx_hal_dma.c ****     hdma->Instance->CMAR = DstAddress;
  66              		.loc 1 850 5 is_stmt 1 view .LVU15
  67              		.loc 1 850 9 is_stmt 0 view .LVU16
  68 001a 0368     		ldr	r3, [r0]
  69              		.loc 1 850 26 view .LVU17
  70 001c DA60     		str	r2, [r3, #12]
  71              	.L1:
 851:Drivers/STM32F0xx_HAL_Driver/Src/stm32f0xx_hal_dma.c ****   }
 852:Drivers/STM32F0xx_HAL_Driver/Src/stm32f0xx_hal_dma.c **** }
  72              		.loc 1 852 1 view .LVU18
  73              		@ sp needed
  74 001e 70BD     		pop	{r4, r5, r6, pc}
  75              	.LVL3:
  76              	.L4:
 838:Drivers/STM32F0xx_HAL_Driver/Src/stm32f0xx_hal_dma.c ****     
  77              		.loc 1 838 5 is_stmt 1 view .LVU19
 838:Drivers/STM32F0xx_HAL_Driver/Src/stm32f0xx_hal_dma.c ****     
  78              		.loc 1 838 9 is_stmt 0 view .LVU20
  79 0020 0368     		ldr	r3, [r0]
 838:Drivers/STM32F0xx_HAL_Driver/Src/stm32f0xx_hal_dma.c ****     
  80              		.loc 1 838 26 view .LVU21
  81 0022 9A60     		str	r2, [r3, #8]
  82              	.LVL4:
 841:Drivers/STM32F0xx_HAL_Driver/Src/stm32f0xx_hal_dma.c ****   }
  83              		.loc 1 841 5 is_stmt 1 view .LVU22
 841:Drivers/STM32F0xx_HAL_Driver/Src/stm32f0xx_hal_dma.c ****   }
  84              		.loc 1 841 9 is_stmt 0 view .LVU23
  85 0024 0368     		ldr	r3, [r0]
 841:Drivers/STM32F0xx_HAL_Driver/Src/stm32f0xx_hal_dma.c ****   }
  86              		.loc 1 841 26 view .LVU24
  87 0026 D960     		str	r1, [r3, #12]
  88 0028 F9E7     		b	.L1
  89              		.cfi_endproc
  90              	.LFE52:
  92              		.global	__aeabi_uidiv
  93              		.section	.text.DMA_CalcBaseAndBitshift,"ax",%progbits
  94              		.align	1
  95              		.syntax unified
  96              		.code	16
  97              		.thumb_func
  98              		.fpu softvfp
 100              	DMA_CalcBaseAndBitshift:
 101              	.LVL5:
 102              	.LFB53:
 853:Drivers/STM32F0xx_HAL_Driver/Src/stm32f0xx_hal_dma.c **** 
 854:Drivers/STM32F0xx_HAL_Driver/Src/stm32f0xx_hal_dma.c **** /**
 855:Drivers/STM32F0xx_HAL_Driver/Src/stm32f0xx_hal_dma.c ****   * @brief  set the DMA base address and channel index depending on DMA instance
 856:Drivers/STM32F0xx_HAL_Driver/Src/stm32f0xx_hal_dma.c ****   * @param  hdma       pointer to a DMA_HandleTypeDef structure that contains
 857:Drivers/STM32F0xx_HAL_Driver/Src/stm32f0xx_hal_dma.c ****   *                     the configuration information for the specified DMA Stream. 
 858:Drivers/STM32F0xx_HAL_Driver/Src/stm32f0xx_hal_dma.c ****   * @retval None
 859:Drivers/STM32F0xx_HAL_Driver/Src/stm32f0xx_hal_dma.c ****   */
 860:Drivers/STM32F0xx_HAL_Driver/Src/stm32f0xx_hal_dma.c **** static void DMA_CalcBaseAndBitshift(DMA_HandleTypeDef *hdma)
 861:Drivers/STM32F0xx_HAL_Driver/Src/stm32f0xx_hal_dma.c **** {
 103              		.loc 1 861 1 is_stmt 1 view -0
 104              		.cfi_startproc
 105              		@ args = 0, pretend = 0, frame = 0
ARM GAS  C:\Users\Vulca\AppData\Local\Temp\ccgcmgtb.s 			page 18


 106              		@ frame_needed = 0, uses_anonymous_args = 0
 107              		.loc 1 861 1 is_stmt 0 view .LVU26
 108 0000 10B5     		push	{r4, lr}
 109              	.LCFI1:
 110              		.cfi_def_cfa_offset 8
 111              		.cfi_offset 4, -8
 112              		.cfi_offset 14, -4
 113 0002 0400     		movs	r4, r0
 862:Drivers/STM32F0xx_HAL_Driver/Src/stm32f0xx_hal_dma.c **** #if defined (DMA2)
 863:Drivers/STM32F0xx_HAL_Driver/Src/stm32f0xx_hal_dma.c ****   /* calculation of the channel index */
 864:Drivers/STM32F0xx_HAL_Driver/Src/stm32f0xx_hal_dma.c ****   if ((uint32_t)(hdma->Instance) < (uint32_t)(DMA2_Channel1))
 114              		.loc 1 864 3 is_stmt 1 view .LVU27
 115              		.loc 1 864 22 is_stmt 0 view .LVU28
 116 0004 0068     		ldr	r0, [r0]
 117              	.LVL6:
 118              		.loc 1 864 6 view .LVU29
 119 0006 0C4B     		ldr	r3, .L8
 120 0008 9842     		cmp	r0, r3
 121 000a 0AD8     		bhi	.L6
 865:Drivers/STM32F0xx_HAL_Driver/Src/stm32f0xx_hal_dma.c ****   {
 866:Drivers/STM32F0xx_HAL_Driver/Src/stm32f0xx_hal_dma.c ****     /* DMA1 */
 867:Drivers/STM32F0xx_HAL_Driver/Src/stm32f0xx_hal_dma.c ****     hdma->ChannelIndex = (((uint32_t)hdma->Instance - (uint32_t)DMA1_Channel1) / ((uint32_t)DMA1_Ch
 122              		.loc 1 867 5 is_stmt 1 view .LVU30
 123              		.loc 1 867 53 is_stmt 0 view .LVU31
 124 000c 0B4B     		ldr	r3, .L8+4
 125 000e 9C46     		mov	ip, r3
 126 0010 6044     		add	r0, r0, ip
 127              		.loc 1 867 80 view .LVU32
 128 0012 1421     		movs	r1, #20
 129 0014 FFF7FEFF 		bl	__aeabi_uidiv
 130              	.LVL7:
 131              		.loc 1 867 135 view .LVU33
 132 0018 8000     		lsls	r0, r0, #2
 133              		.loc 1 867 24 view .LVU34
 134 001a 2064     		str	r0, [r4, #64]
 868:Drivers/STM32F0xx_HAL_Driver/Src/stm32f0xx_hal_dma.c ****     hdma->DmaBaseAddress = DMA1;
 135              		.loc 1 868 5 is_stmt 1 view .LVU35
 136              		.loc 1 868 26 is_stmt 0 view .LVU36
 137 001c 084B     		ldr	r3, .L8+8
 138 001e E363     		str	r3, [r4, #60]
 139              	.L5:
 869:Drivers/STM32F0xx_HAL_Driver/Src/stm32f0xx_hal_dma.c ****   }
 870:Drivers/STM32F0xx_HAL_Driver/Src/stm32f0xx_hal_dma.c ****   else 
 871:Drivers/STM32F0xx_HAL_Driver/Src/stm32f0xx_hal_dma.c ****   {
 872:Drivers/STM32F0xx_HAL_Driver/Src/stm32f0xx_hal_dma.c ****     /* DMA2 */
 873:Drivers/STM32F0xx_HAL_Driver/Src/stm32f0xx_hal_dma.c ****     hdma->ChannelIndex = (((uint32_t)hdma->Instance - (uint32_t)DMA2_Channel1) / ((uint32_t)DMA2_Ch
 874:Drivers/STM32F0xx_HAL_Driver/Src/stm32f0xx_hal_dma.c ****     hdma->DmaBaseAddress = DMA2;
 875:Drivers/STM32F0xx_HAL_Driver/Src/stm32f0xx_hal_dma.c ****   }
 876:Drivers/STM32F0xx_HAL_Driver/Src/stm32f0xx_hal_dma.c **** #else
 877:Drivers/STM32F0xx_HAL_Driver/Src/stm32f0xx_hal_dma.c ****   /* calculation of the channel index */
 878:Drivers/STM32F0xx_HAL_Driver/Src/stm32f0xx_hal_dma.c ****   /* DMA1 */
 879:Drivers/STM32F0xx_HAL_Driver/Src/stm32f0xx_hal_dma.c ****   hdma->ChannelIndex = (((uint32_t)hdma->Instance - (uint32_t)DMA1_Channel1) / ((uint32_t)DMA1_Chan
 880:Drivers/STM32F0xx_HAL_Driver/Src/stm32f0xx_hal_dma.c ****   hdma->DmaBaseAddress = DMA1;
 881:Drivers/STM32F0xx_HAL_Driver/Src/stm32f0xx_hal_dma.c **** #endif
 882:Drivers/STM32F0xx_HAL_Driver/Src/stm32f0xx_hal_dma.c **** }
 140              		.loc 1 882 1 view .LVU37
 141              		@ sp needed
ARM GAS  C:\Users\Vulca\AppData\Local\Temp\ccgcmgtb.s 			page 19


 142              	.LVL8:
 143              		.loc 1 882 1 view .LVU38
 144 0020 10BD     		pop	{r4, pc}
 145              	.LVL9:
 146              	.L6:
 873:Drivers/STM32F0xx_HAL_Driver/Src/stm32f0xx_hal_dma.c ****     hdma->DmaBaseAddress = DMA2;
 147              		.loc 1 873 5 is_stmt 1 view .LVU39
 873:Drivers/STM32F0xx_HAL_Driver/Src/stm32f0xx_hal_dma.c ****     hdma->DmaBaseAddress = DMA2;
 148              		.loc 1 873 53 is_stmt 0 view .LVU40
 149 0022 084B     		ldr	r3, .L8+12
 150 0024 9C46     		mov	ip, r3
 151 0026 6044     		add	r0, r0, ip
 873:Drivers/STM32F0xx_HAL_Driver/Src/stm32f0xx_hal_dma.c ****     hdma->DmaBaseAddress = DMA2;
 152              		.loc 1 873 80 view .LVU41
 153 0028 1421     		movs	r1, #20
 154 002a FFF7FEFF 		bl	__aeabi_uidiv
 155              	.LVL10:
 873:Drivers/STM32F0xx_HAL_Driver/Src/stm32f0xx_hal_dma.c ****     hdma->DmaBaseAddress = DMA2;
 156              		.loc 1 873 135 view .LVU42
 157 002e 8000     		lsls	r0, r0, #2
 873:Drivers/STM32F0xx_HAL_Driver/Src/stm32f0xx_hal_dma.c ****     hdma->DmaBaseAddress = DMA2;
 158              		.loc 1 873 24 view .LVU43
 159 0030 2064     		str	r0, [r4, #64]
 874:Drivers/STM32F0xx_HAL_Driver/Src/stm32f0xx_hal_dma.c ****   }
 160              		.loc 1 874 5 is_stmt 1 view .LVU44
 874:Drivers/STM32F0xx_HAL_Driver/Src/stm32f0xx_hal_dma.c ****   }
 161              		.loc 1 874 26 is_stmt 0 view .LVU45
 162 0032 054B     		ldr	r3, .L8+16
 163 0034 E363     		str	r3, [r4, #60]
 164              		.loc 1 882 1 view .LVU46
 165 0036 F3E7     		b	.L5
 166              	.L9:
 167              		.align	2
 168              	.L8:
 169 0038 07040240 		.word	1073873927
 170 003c F8FFFDBF 		.word	-1073872904
 171 0040 00000240 		.word	1073872896
 172 0044 F8FBFDBF 		.word	-1073873928
 173 0048 00040240 		.word	1073873920
 174              		.cfi_endproc
 175              	.LFE53:
 177              		.section	.text.HAL_DMA_Init,"ax",%progbits
 178              		.align	1
 179              		.global	HAL_DMA_Init
 180              		.syntax unified
 181              		.code	16
 182              		.thumb_func
 183              		.fpu softvfp
 185              	HAL_DMA_Init:
 186              	.LVL11:
 187              	.LFB40:
 139:Drivers/STM32F0xx_HAL_Driver/Src/stm32f0xx_hal_dma.c ****   uint32_t tmp = 0U;
 188              		.loc 1 139 1 is_stmt 1 view -0
 189              		.cfi_startproc
 190              		@ args = 0, pretend = 0, frame = 0
 191              		@ frame_needed = 0, uses_anonymous_args = 0
 139:Drivers/STM32F0xx_HAL_Driver/Src/stm32f0xx_hal_dma.c ****   uint32_t tmp = 0U;
ARM GAS  C:\Users\Vulca\AppData\Local\Temp\ccgcmgtb.s 			page 20


 192              		.loc 1 139 1 is_stmt 0 view .LVU48
 193 0000 70B5     		push	{r4, r5, r6, lr}
 194              	.LCFI2:
 195              		.cfi_def_cfa_offset 16
 196              		.cfi_offset 4, -16
 197              		.cfi_offset 5, -12
 198              		.cfi_offset 6, -8
 199              		.cfi_offset 14, -4
 200 0002 041E     		subs	r4, r0, #0
 140:Drivers/STM32F0xx_HAL_Driver/Src/stm32f0xx_hal_dma.c ****   
 201              		.loc 1 140 3 is_stmt 1 view .LVU49
 202              	.LVL12:
 143:Drivers/STM32F0xx_HAL_Driver/Src/stm32f0xx_hal_dma.c ****   {
 203              		.loc 1 143 3 view .LVU50
 143:Drivers/STM32F0xx_HAL_Driver/Src/stm32f0xx_hal_dma.c ****   {
 204              		.loc 1 143 5 is_stmt 0 view .LVU51
 205 0004 20D0     		beq	.L12
 149:Drivers/STM32F0xx_HAL_Driver/Src/stm32f0xx_hal_dma.c ****   assert_param(IS_DMA_DIRECTION(hdma->Init.Direction));
 206              		.loc 1 149 3 is_stmt 1 view .LVU52
 150:Drivers/STM32F0xx_HAL_Driver/Src/stm32f0xx_hal_dma.c ****   assert_param(IS_DMA_PERIPHERAL_INC_STATE(hdma->Init.PeriphInc));
 207              		.loc 1 150 3 view .LVU53
 151:Drivers/STM32F0xx_HAL_Driver/Src/stm32f0xx_hal_dma.c ****   assert_param(IS_DMA_MEMORY_INC_STATE(hdma->Init.MemInc));
 208              		.loc 1 151 3 view .LVU54
 152:Drivers/STM32F0xx_HAL_Driver/Src/stm32f0xx_hal_dma.c ****   assert_param(IS_DMA_PERIPHERAL_DATA_SIZE(hdma->Init.PeriphDataAlignment));
 209              		.loc 1 152 3 view .LVU55
 153:Drivers/STM32F0xx_HAL_Driver/Src/stm32f0xx_hal_dma.c ****   assert_param(IS_DMA_MEMORY_DATA_SIZE(hdma->Init.MemDataAlignment));
 210              		.loc 1 153 3 view .LVU56
 154:Drivers/STM32F0xx_HAL_Driver/Src/stm32f0xx_hal_dma.c ****   assert_param(IS_DMA_MODE(hdma->Init.Mode));
 211              		.loc 1 154 3 view .LVU57
 155:Drivers/STM32F0xx_HAL_Driver/Src/stm32f0xx_hal_dma.c ****   assert_param(IS_DMA_PRIORITY(hdma->Init.Priority));
 212              		.loc 1 155 3 view .LVU58
 156:Drivers/STM32F0xx_HAL_Driver/Src/stm32f0xx_hal_dma.c ****   
 213              		.loc 1 156 3 view .LVU59
 159:Drivers/STM32F0xx_HAL_Driver/Src/stm32f0xx_hal_dma.c **** 
 214              		.loc 1 159 3 view .LVU60
 159:Drivers/STM32F0xx_HAL_Driver/Src/stm32f0xx_hal_dma.c **** 
 215              		.loc 1 159 15 is_stmt 0 view .LVU61
 216 0006 2125     		movs	r5, #33
 217 0008 0223     		movs	r3, #2
 218 000a 4355     		strb	r3, [r0, r5]
 162:Drivers/STM32F0xx_HAL_Driver/Src/stm32f0xx_hal_dma.c ****   
 219              		.loc 1 162 3 is_stmt 1 view .LVU62
 162:Drivers/STM32F0xx_HAL_Driver/Src/stm32f0xx_hal_dma.c ****   
 220              		.loc 1 162 13 is_stmt 0 view .LVU63
 221 000c 0168     		ldr	r1, [r0]
 162:Drivers/STM32F0xx_HAL_Driver/Src/stm32f0xx_hal_dma.c ****   
 222              		.loc 1 162 7 view .LVU64
 223 000e 0B68     		ldr	r3, [r1]
 224              	.LVL13:
 165:Drivers/STM32F0xx_HAL_Driver/Src/stm32f0xx_hal_dma.c ****                       DMA_CCR_MINC  | DMA_CCR_PINC   | DMA_CCR_CIRC   | \
 225              		.loc 1 165 3 is_stmt 1 view .LVU65
 165:Drivers/STM32F0xx_HAL_Driver/Src/stm32f0xx_hal_dma.c ****                       DMA_CCR_MINC  | DMA_CCR_PINC   | DMA_CCR_CIRC   | \
 226              		.loc 1 165 7 is_stmt 0 view .LVU66
 227 0010 0E4A     		ldr	r2, .L13
 228 0012 1A40     		ands	r2, r3
 229              	.LVL14:
 170:Drivers/STM32F0xx_HAL_Driver/Src/stm32f0xx_hal_dma.c ****           hdma->Init.PeriphInc           | hdma->Init.MemInc           |
ARM GAS  C:\Users\Vulca\AppData\Local\Temp\ccgcmgtb.s 			page 21


 230              		.loc 1 170 3 is_stmt 1 view .LVU67
 170:Drivers/STM32F0xx_HAL_Driver/Src/stm32f0xx_hal_dma.c ****           hdma->Init.PeriphInc           | hdma->Init.MemInc           |
 231              		.loc 1 170 39 is_stmt 0 view .LVU68
 232 0014 4368     		ldr	r3, [r0, #4]
 233 0016 8068     		ldr	r0, [r0, #8]
 234              	.LVL15:
 170:Drivers/STM32F0xx_HAL_Driver/Src/stm32f0xx_hal_dma.c ****           hdma->Init.PeriphInc           | hdma->Init.MemInc           |
 235              		.loc 1 170 39 view .LVU69
 236 0018 0343     		orrs	r3, r0
 171:Drivers/STM32F0xx_HAL_Driver/Src/stm32f0xx_hal_dma.c ****           hdma->Init.PeriphDataAlignment | hdma->Init.MemDataAlignment |
 237              		.loc 1 171 42 view .LVU70
 238 001a E068     		ldr	r0, [r4, #12]
 239 001c 0343     		orrs	r3, r0
 171:Drivers/STM32F0xx_HAL_Driver/Src/stm32f0xx_hal_dma.c ****           hdma->Init.PeriphDataAlignment | hdma->Init.MemDataAlignment |
 240              		.loc 1 171 72 view .LVU71
 241 001e 2069     		ldr	r0, [r4, #16]
 242 0020 0343     		orrs	r3, r0
 172:Drivers/STM32F0xx_HAL_Driver/Src/stm32f0xx_hal_dma.c ****           hdma->Init.Mode                | hdma->Init.Priority;
 243              		.loc 1 172 42 view .LVU72
 244 0022 6069     		ldr	r0, [r4, #20]
 245 0024 0343     		orrs	r3, r0
 172:Drivers/STM32F0xx_HAL_Driver/Src/stm32f0xx_hal_dma.c ****           hdma->Init.Mode                | hdma->Init.Priority;
 246              		.loc 1 172 72 view .LVU73
 247 0026 A069     		ldr	r0, [r4, #24]
 248 0028 0343     		orrs	r3, r0
 173:Drivers/STM32F0xx_HAL_Driver/Src/stm32f0xx_hal_dma.c **** 
 249              		.loc 1 173 42 view .LVU74
 250 002a E069     		ldr	r0, [r4, #28]
 251 002c 0343     		orrs	r3, r0
 170:Drivers/STM32F0xx_HAL_Driver/Src/stm32f0xx_hal_dma.c ****           hdma->Init.PeriphInc           | hdma->Init.MemInc           |
 252              		.loc 1 170 7 view .LVU75
 253 002e 1343     		orrs	r3, r2
 254              	.LVL16:
 176:Drivers/STM32F0xx_HAL_Driver/Src/stm32f0xx_hal_dma.c ****   
 255              		.loc 1 176 3 is_stmt 1 view .LVU76
 176:Drivers/STM32F0xx_HAL_Driver/Src/stm32f0xx_hal_dma.c ****   
 256              		.loc 1 176 23 is_stmt 0 view .LVU77
 257 0030 0B60     		str	r3, [r1]
 180:Drivers/STM32F0xx_HAL_Driver/Src/stm32f0xx_hal_dma.c ****   
 258              		.loc 1 180 3 is_stmt 1 view .LVU78
 259 0032 2000     		movs	r0, r4
 260 0034 FFF7FEFF 		bl	DMA_CalcBaseAndBitshift
 261              	.LVL17:
 183:Drivers/STM32F0xx_HAL_Driver/Src/stm32f0xx_hal_dma.c **** 
 262              		.loc 1 183 3 view .LVU79
 183:Drivers/STM32F0xx_HAL_Driver/Src/stm32f0xx_hal_dma.c **** 
 263              		.loc 1 183 19 is_stmt 0 view .LVU80
 264 0038 0023     		movs	r3, #0
 265 003a A363     		str	r3, [r4, #56]
 186:Drivers/STM32F0xx_HAL_Driver/Src/stm32f0xx_hal_dma.c ****   
 266              		.loc 1 186 3 is_stmt 1 view .LVU81
 186:Drivers/STM32F0xx_HAL_Driver/Src/stm32f0xx_hal_dma.c ****   
 267              		.loc 1 186 15 is_stmt 0 view .LVU82
 268 003c 0122     		movs	r2, #1
 269 003e 6255     		strb	r2, [r4, r5]
 189:Drivers/STM32F0xx_HAL_Driver/Src/stm32f0xx_hal_dma.c ****   
 270              		.loc 1 189 3 is_stmt 1 view .LVU83
ARM GAS  C:\Users\Vulca\AppData\Local\Temp\ccgcmgtb.s 			page 22


 189:Drivers/STM32F0xx_HAL_Driver/Src/stm32f0xx_hal_dma.c ****   
 271              		.loc 1 189 14 is_stmt 0 view .LVU84
 272 0040 1F32     		adds	r2, r2, #31
 273 0042 A354     		strb	r3, [r4, r2]
 191:Drivers/STM32F0xx_HAL_Driver/Src/stm32f0xx_hal_dma.c **** }  
 274              		.loc 1 191 3 is_stmt 1 view .LVU85
 191:Drivers/STM32F0xx_HAL_Driver/Src/stm32f0xx_hal_dma.c **** }  
 275              		.loc 1 191 10 is_stmt 0 view .LVU86
 276 0044 0020     		movs	r0, #0
 277              	.L11:
 192:Drivers/STM32F0xx_HAL_Driver/Src/stm32f0xx_hal_dma.c ****   
 278              		.loc 1 192 1 view .LVU87
 279              		@ sp needed
 280              	.LVL18:
 192:Drivers/STM32F0xx_HAL_Driver/Src/stm32f0xx_hal_dma.c ****   
 281              		.loc 1 192 1 view .LVU88
 282 0046 70BD     		pop	{r4, r5, r6, pc}
 283              	.LVL19:
 284              	.L12:
 145:Drivers/STM32F0xx_HAL_Driver/Src/stm32f0xx_hal_dma.c ****   }
 285              		.loc 1 145 12 view .LVU89
 286 0048 0120     		movs	r0, #1
 287              	.LVL20:
 145:Drivers/STM32F0xx_HAL_Driver/Src/stm32f0xx_hal_dma.c ****   }
 288              		.loc 1 145 12 view .LVU90
 289 004a FCE7     		b	.L11
 290              	.L14:
 291              		.align	2
 292              	.L13:
 293 004c 0FC0FFFF 		.word	-16369
 294              		.cfi_endproc
 295              	.LFE40:
 297              		.section	.text.HAL_DMA_DeInit,"ax",%progbits
 298              		.align	1
 299              		.global	HAL_DMA_DeInit
 300              		.syntax unified
 301              		.code	16
 302              		.thumb_func
 303              		.fpu softvfp
 305              	HAL_DMA_DeInit:
 306              	.LVL21:
 307              	.LFB41:
 201:Drivers/STM32F0xx_HAL_Driver/Src/stm32f0xx_hal_dma.c ****   /* Check the DMA handle allocation */
 308              		.loc 1 201 1 is_stmt 1 view -0
 309              		.cfi_startproc
 310              		@ args = 0, pretend = 0, frame = 0
 311              		@ frame_needed = 0, uses_anonymous_args = 0
 201:Drivers/STM32F0xx_HAL_Driver/Src/stm32f0xx_hal_dma.c ****   /* Check the DMA handle allocation */
 312              		.loc 1 201 1 is_stmt 0 view .LVU92
 313 0000 70B5     		push	{r4, r5, r6, lr}
 314              	.LCFI3:
 315              		.cfi_def_cfa_offset 16
 316              		.cfi_offset 4, -16
 317              		.cfi_offset 5, -12
 318              		.cfi_offset 6, -8
 319              		.cfi_offset 14, -4
 320 0002 041E     		subs	r4, r0, #0
ARM GAS  C:\Users\Vulca\AppData\Local\Temp\ccgcmgtb.s 			page 23


 203:Drivers/STM32F0xx_HAL_Driver/Src/stm32f0xx_hal_dma.c ****   {
 321              		.loc 1 203 3 is_stmt 1 view .LVU93
 203:Drivers/STM32F0xx_HAL_Driver/Src/stm32f0xx_hal_dma.c ****   {
 322              		.loc 1 203 5 is_stmt 0 view .LVU94
 323 0004 1ED0     		beq	.L17
 209:Drivers/STM32F0xx_HAL_Driver/Src/stm32f0xx_hal_dma.c **** 
 324              		.loc 1 209 3 is_stmt 1 view .LVU95
 212:Drivers/STM32F0xx_HAL_Driver/Src/stm32f0xx_hal_dma.c **** 
 325              		.loc 1 212 3 view .LVU96
 212:Drivers/STM32F0xx_HAL_Driver/Src/stm32f0xx_hal_dma.c **** 
 326              		.loc 1 212 7 is_stmt 0 view .LVU97
 327 0006 0268     		ldr	r2, [r0]
 212:Drivers/STM32F0xx_HAL_Driver/Src/stm32f0xx_hal_dma.c **** 
 328              		.loc 1 212 23 view .LVU98
 329 0008 1368     		ldr	r3, [r2]
 330 000a 0126     		movs	r6, #1
 331 000c B343     		bics	r3, r6
 332 000e 1360     		str	r3, [r2]
 215:Drivers/STM32F0xx_HAL_Driver/Src/stm32f0xx_hal_dma.c **** 
 333              		.loc 1 215 3 is_stmt 1 view .LVU99
 215:Drivers/STM32F0xx_HAL_Driver/Src/stm32f0xx_hal_dma.c **** 
 334              		.loc 1 215 7 is_stmt 0 view .LVU100
 335 0010 0368     		ldr	r3, [r0]
 215:Drivers/STM32F0xx_HAL_Driver/Src/stm32f0xx_hal_dma.c **** 
 336              		.loc 1 215 24 view .LVU101
 337 0012 0025     		movs	r5, #0
 338 0014 1D60     		str	r5, [r3]
 218:Drivers/STM32F0xx_HAL_Driver/Src/stm32f0xx_hal_dma.c **** 
 339              		.loc 1 218 3 is_stmt 1 view .LVU102
 218:Drivers/STM32F0xx_HAL_Driver/Src/stm32f0xx_hal_dma.c **** 
 340              		.loc 1 218 7 is_stmt 0 view .LVU103
 341 0016 0368     		ldr	r3, [r0]
 218:Drivers/STM32F0xx_HAL_Driver/Src/stm32f0xx_hal_dma.c **** 
 342              		.loc 1 218 25 view .LVU104
 343 0018 5D60     		str	r5, [r3, #4]
 221:Drivers/STM32F0xx_HAL_Driver/Src/stm32f0xx_hal_dma.c ****   
 344              		.loc 1 221 3 is_stmt 1 view .LVU105
 221:Drivers/STM32F0xx_HAL_Driver/Src/stm32f0xx_hal_dma.c ****   
 345              		.loc 1 221 7 is_stmt 0 view .LVU106
 346 001a 0368     		ldr	r3, [r0]
 221:Drivers/STM32F0xx_HAL_Driver/Src/stm32f0xx_hal_dma.c ****   
 347              		.loc 1 221 25 view .LVU107
 348 001c 9D60     		str	r5, [r3, #8]
 224:Drivers/STM32F0xx_HAL_Driver/Src/stm32f0xx_hal_dma.c **** 
 349              		.loc 1 224 3 is_stmt 1 view .LVU108
 224:Drivers/STM32F0xx_HAL_Driver/Src/stm32f0xx_hal_dma.c **** 
 350              		.loc 1 224 7 is_stmt 0 view .LVU109
 351 001e 0368     		ldr	r3, [r0]
 224:Drivers/STM32F0xx_HAL_Driver/Src/stm32f0xx_hal_dma.c **** 
 352              		.loc 1 224 24 view .LVU110
 353 0020 DD60     		str	r5, [r3, #12]
 227:Drivers/STM32F0xx_HAL_Driver/Src/stm32f0xx_hal_dma.c **** 
 354              		.loc 1 227 3 is_stmt 1 view .LVU111
 355 0022 FFF7FEFF 		bl	DMA_CalcBaseAndBitshift
 356              	.LVL22:
 230:Drivers/STM32F0xx_HAL_Driver/Src/stm32f0xx_hal_dma.c **** 
 357              		.loc 1 230 3 view .LVU112
ARM GAS  C:\Users\Vulca\AppData\Local\Temp\ccgcmgtb.s 			page 24


 230:Drivers/STM32F0xx_HAL_Driver/Src/stm32f0xx_hal_dma.c **** 
 358              		.loc 1 230 7 is_stmt 0 view .LVU113
 359 0026 E36B     		ldr	r3, [r4, #60]
 230:Drivers/STM32F0xx_HAL_Driver/Src/stm32f0xx_hal_dma.c **** 
 360              		.loc 1 230 45 view .LVU114
 361 0028 226C     		ldr	r2, [r4, #64]
 362 002a 9640     		lsls	r6, r6, r2
 230:Drivers/STM32F0xx_HAL_Driver/Src/stm32f0xx_hal_dma.c **** 
 363              		.loc 1 230 30 view .LVU115
 364 002c 5E60     		str	r6, [r3, #4]
 233:Drivers/STM32F0xx_HAL_Driver/Src/stm32f0xx_hal_dma.c ****   hdma->XferHalfCpltCallback = NULL;
 365              		.loc 1 233 3 is_stmt 1 view .LVU116
 233:Drivers/STM32F0xx_HAL_Driver/Src/stm32f0xx_hal_dma.c ****   hdma->XferHalfCpltCallback = NULL;
 366              		.loc 1 233 26 is_stmt 0 view .LVU117
 367 002e A562     		str	r5, [r4, #40]
 234:Drivers/STM32F0xx_HAL_Driver/Src/stm32f0xx_hal_dma.c ****   hdma->XferErrorCallback = NULL;
 368              		.loc 1 234 3 is_stmt 1 view .LVU118
 234:Drivers/STM32F0xx_HAL_Driver/Src/stm32f0xx_hal_dma.c ****   hdma->XferErrorCallback = NULL;
 369              		.loc 1 234 30 is_stmt 0 view .LVU119
 370 0030 E562     		str	r5, [r4, #44]
 235:Drivers/STM32F0xx_HAL_Driver/Src/stm32f0xx_hal_dma.c ****   hdma->XferAbortCallback = NULL;
 371              		.loc 1 235 3 is_stmt 1 view .LVU120
 235:Drivers/STM32F0xx_HAL_Driver/Src/stm32f0xx_hal_dma.c ****   hdma->XferAbortCallback = NULL;
 372              		.loc 1 235 27 is_stmt 0 view .LVU121
 373 0032 2563     		str	r5, [r4, #48]
 236:Drivers/STM32F0xx_HAL_Driver/Src/stm32f0xx_hal_dma.c **** 
 374              		.loc 1 236 3 is_stmt 1 view .LVU122
 236:Drivers/STM32F0xx_HAL_Driver/Src/stm32f0xx_hal_dma.c **** 
 375              		.loc 1 236 27 is_stmt 0 view .LVU123
 376 0034 6563     		str	r5, [r4, #52]
 239:Drivers/STM32F0xx_HAL_Driver/Src/stm32f0xx_hal_dma.c **** 
 377              		.loc 1 239 3 is_stmt 1 view .LVU124
 239:Drivers/STM32F0xx_HAL_Driver/Src/stm32f0xx_hal_dma.c **** 
 378              		.loc 1 239 19 is_stmt 0 view .LVU125
 379 0036 A563     		str	r5, [r4, #56]
 242:Drivers/STM32F0xx_HAL_Driver/Src/stm32f0xx_hal_dma.c **** 
 380              		.loc 1 242 3 is_stmt 1 view .LVU126
 242:Drivers/STM32F0xx_HAL_Driver/Src/stm32f0xx_hal_dma.c **** 
 381              		.loc 1 242 15 is_stmt 0 view .LVU127
 382 0038 2123     		movs	r3, #33
 383 003a E554     		strb	r5, [r4, r3]
 245:Drivers/STM32F0xx_HAL_Driver/Src/stm32f0xx_hal_dma.c **** 
 384              		.loc 1 245 3 is_stmt 1 view .LVU128
 245:Drivers/STM32F0xx_HAL_Driver/Src/stm32f0xx_hal_dma.c **** 
 385              		.loc 1 245 3 view .LVU129
 386 003c 013B     		subs	r3, r3, #1
 387 003e E554     		strb	r5, [r4, r3]
 245:Drivers/STM32F0xx_HAL_Driver/Src/stm32f0xx_hal_dma.c **** 
 388              		.loc 1 245 3 view .LVU130
 247:Drivers/STM32F0xx_HAL_Driver/Src/stm32f0xx_hal_dma.c **** }
 389              		.loc 1 247 3 view .LVU131
 247:Drivers/STM32F0xx_HAL_Driver/Src/stm32f0xx_hal_dma.c **** }
 390              		.loc 1 247 10 is_stmt 0 view .LVU132
 391 0040 0020     		movs	r0, #0
 392              	.L16:
 248:Drivers/STM32F0xx_HAL_Driver/Src/stm32f0xx_hal_dma.c **** 
 393              		.loc 1 248 1 view .LVU133
ARM GAS  C:\Users\Vulca\AppData\Local\Temp\ccgcmgtb.s 			page 25


 394              		@ sp needed
 395              	.LVL23:
 248:Drivers/STM32F0xx_HAL_Driver/Src/stm32f0xx_hal_dma.c **** 
 396              		.loc 1 248 1 view .LVU134
 397 0042 70BD     		pop	{r4, r5, r6, pc}
 398              	.LVL24:
 399              	.L17:
 205:Drivers/STM32F0xx_HAL_Driver/Src/stm32f0xx_hal_dma.c ****   }
 400              		.loc 1 205 12 view .LVU135
 401 0044 0120     		movs	r0, #1
 402              	.LVL25:
 205:Drivers/STM32F0xx_HAL_Driver/Src/stm32f0xx_hal_dma.c ****   }
 403              		.loc 1 205 12 view .LVU136
 404 0046 FCE7     		b	.L16
 405              		.cfi_endproc
 406              	.LFE41:
 408              		.section	.text.HAL_DMA_Start,"ax",%progbits
 409              		.align	1
 410              		.global	HAL_DMA_Start
 411              		.syntax unified
 412              		.code	16
 413              		.thumb_func
 414              		.fpu softvfp
 416              	HAL_DMA_Start:
 417              	.LVL26:
 418              	.LFB42:
 283:Drivers/STM32F0xx_HAL_Driver/Src/stm32f0xx_hal_dma.c **** 	HAL_StatusTypeDef status = HAL_OK;
 419              		.loc 1 283 1 is_stmt 1 view -0
 420              		.cfi_startproc
 421              		@ args = 0, pretend = 0, frame = 0
 422              		@ frame_needed = 0, uses_anonymous_args = 0
 283:Drivers/STM32F0xx_HAL_Driver/Src/stm32f0xx_hal_dma.c **** 	HAL_StatusTypeDef status = HAL_OK;
 423              		.loc 1 283 1 is_stmt 0 view .LVU138
 424 0000 70B5     		push	{r4, r5, r6, lr}
 425              	.LCFI4:
 426              		.cfi_def_cfa_offset 16
 427              		.cfi_offset 4, -16
 428              		.cfi_offset 5, -12
 429              		.cfi_offset 6, -8
 430              		.cfi_offset 14, -4
 431 0002 0400     		movs	r4, r0
 284:Drivers/STM32F0xx_HAL_Driver/Src/stm32f0xx_hal_dma.c **** 
 432              		.loc 1 284 2 is_stmt 1 view .LVU139
 433              	.LVL27:
 287:Drivers/STM32F0xx_HAL_Driver/Src/stm32f0xx_hal_dma.c ****   
 434              		.loc 1 287 3 view .LVU140
 290:Drivers/STM32F0xx_HAL_Driver/Src/stm32f0xx_hal_dma.c ****   
 435              		.loc 1 290 3 view .LVU141
 290:Drivers/STM32F0xx_HAL_Driver/Src/stm32f0xx_hal_dma.c ****   
 436              		.loc 1 290 3 view .LVU142
 437 0004 2020     		movs	r0, #32
 438              	.LVL28:
 290:Drivers/STM32F0xx_HAL_Driver/Src/stm32f0xx_hal_dma.c ****   
 439              		.loc 1 290 3 is_stmt 0 view .LVU143
 440 0006 205C     		ldrb	r0, [r4, r0]
 441 0008 0128     		cmp	r0, #1
 442 000a 1ED0     		beq	.L21
ARM GAS  C:\Users\Vulca\AppData\Local\Temp\ccgcmgtb.s 			page 26


 290:Drivers/STM32F0xx_HAL_Driver/Src/stm32f0xx_hal_dma.c ****   
 443              		.loc 1 290 3 is_stmt 1 discriminator 2 view .LVU144
 444 000c 2020     		movs	r0, #32
 445 000e 0125     		movs	r5, #1
 446 0010 2554     		strb	r5, [r4, r0]
 290:Drivers/STM32F0xx_HAL_Driver/Src/stm32f0xx_hal_dma.c ****   
 447              		.loc 1 290 3 discriminator 2 view .LVU145
 292:Drivers/STM32F0xx_HAL_Driver/Src/stm32f0xx_hal_dma.c ****   {
 448              		.loc 1 292 3 discriminator 2 view .LVU146
 292:Drivers/STM32F0xx_HAL_Driver/Src/stm32f0xx_hal_dma.c ****   {
 449              		.loc 1 292 33 is_stmt 0 discriminator 2 view .LVU147
 450 0012 0130     		adds	r0, r0, #1
 451 0014 205C     		ldrb	r0, [r4, r0]
 292:Drivers/STM32F0xx_HAL_Driver/Src/stm32f0xx_hal_dma.c ****   {
 452              		.loc 1 292 5 discriminator 2 view .LVU148
 453 0016 0128     		cmp	r0, #1
 454 0018 04D0     		beq	.L22
 311:Drivers/STM32F0xx_HAL_Driver/Src/stm32f0xx_hal_dma.c ****   	
 455              		.loc 1 311 4 is_stmt 1 view .LVU149
 311:Drivers/STM32F0xx_HAL_Driver/Src/stm32f0xx_hal_dma.c ****   	
 456              		.loc 1 311 4 view .LVU150
 457 001a 2023     		movs	r3, #32
 458              	.LVL29:
 311:Drivers/STM32F0xx_HAL_Driver/Src/stm32f0xx_hal_dma.c ****   	
 459              		.loc 1 311 4 is_stmt 0 view .LVU151
 460 001c 0022     		movs	r2, #0
 461              	.LVL30:
 311:Drivers/STM32F0xx_HAL_Driver/Src/stm32f0xx_hal_dma.c ****   	
 462              		.loc 1 311 4 view .LVU152
 463 001e E254     		strb	r2, [r4, r3]
 311:Drivers/STM32F0xx_HAL_Driver/Src/stm32f0xx_hal_dma.c ****   	
 464              		.loc 1 311 4 is_stmt 1 view .LVU153
 314:Drivers/STM32F0xx_HAL_Driver/Src/stm32f0xx_hal_dma.c ****   }  
 465              		.loc 1 314 4 view .LVU154
 466              	.LVL31:
 314:Drivers/STM32F0xx_HAL_Driver/Src/stm32f0xx_hal_dma.c ****   }  
 467              		.loc 1 314 11 is_stmt 0 view .LVU155
 468 0020 0220     		movs	r0, #2
 469              	.LVL32:
 470              	.L19:
 318:Drivers/STM32F0xx_HAL_Driver/Src/stm32f0xx_hal_dma.c **** 
 471              		.loc 1 318 1 view .LVU156
 472              		@ sp needed
 473              	.LVL33:
 318:Drivers/STM32F0xx_HAL_Driver/Src/stm32f0xx_hal_dma.c **** 
 474              		.loc 1 318 1 view .LVU157
 475 0022 70BD     		pop	{r4, r5, r6, pc}
 476              	.LVL34:
 477              	.L22:
 295:Drivers/STM32F0xx_HAL_Driver/Src/stm32f0xx_hal_dma.c ****   	
 478              		.loc 1 295 4 is_stmt 1 view .LVU158
 295:Drivers/STM32F0xx_HAL_Driver/Src/stm32f0xx_hal_dma.c ****   	
 479              		.loc 1 295 16 is_stmt 0 view .LVU159
 480 0024 2030     		adds	r0, r0, #32
 481 0026 0135     		adds	r5, r5, #1
 482 0028 2554     		strb	r5, [r4, r0]
 297:Drivers/STM32F0xx_HAL_Driver/Src/stm32f0xx_hal_dma.c ****   	
ARM GAS  C:\Users\Vulca\AppData\Local\Temp\ccgcmgtb.s 			page 27


 483              		.loc 1 297 4 is_stmt 1 view .LVU160
 297:Drivers/STM32F0xx_HAL_Driver/Src/stm32f0xx_hal_dma.c ****   	
 484              		.loc 1 297 20 is_stmt 0 view .LVU161
 485 002a 0020     		movs	r0, #0
 486 002c A063     		str	r0, [r4, #56]
 300:Drivers/STM32F0xx_HAL_Driver/Src/stm32f0xx_hal_dma.c ****   	
 487              		.loc 1 300 4 is_stmt 1 view .LVU162
 300:Drivers/STM32F0xx_HAL_Driver/Src/stm32f0xx_hal_dma.c ****   	
 488              		.loc 1 300 8 is_stmt 0 view .LVU163
 489 002e 2668     		ldr	r6, [r4]
 300:Drivers/STM32F0xx_HAL_Driver/Src/stm32f0xx_hal_dma.c ****   	
 490              		.loc 1 300 24 view .LVU164
 491 0030 3068     		ldr	r0, [r6]
 492 0032 013D     		subs	r5, r5, #1
 493 0034 A843     		bics	r0, r5
 494 0036 3060     		str	r0, [r6]
 303:Drivers/STM32F0xx_HAL_Driver/Src/stm32f0xx_hal_dma.c ****   	
 495              		.loc 1 303 4 is_stmt 1 view .LVU165
 496 0038 2000     		movs	r0, r4
 497 003a FFF7FEFF 		bl	DMA_SetConfig
 498              	.LVL35:
 306:Drivers/STM32F0xx_HAL_Driver/Src/stm32f0xx_hal_dma.c ****   }
 499              		.loc 1 306 4 view .LVU166
 306:Drivers/STM32F0xx_HAL_Driver/Src/stm32f0xx_hal_dma.c ****   }
 500              		.loc 1 306 8 is_stmt 0 view .LVU167
 501 003e 2268     		ldr	r2, [r4]
 306:Drivers/STM32F0xx_HAL_Driver/Src/stm32f0xx_hal_dma.c ****   }
 502              		.loc 1 306 24 view .LVU168
 503 0040 1368     		ldr	r3, [r2]
 504 0042 2B43     		orrs	r3, r5
 505 0044 1360     		str	r3, [r2]
 284:Drivers/STM32F0xx_HAL_Driver/Src/stm32f0xx_hal_dma.c **** 
 506              		.loc 1 284 20 view .LVU169
 507 0046 0020     		movs	r0, #0
 508 0048 EBE7     		b	.L19
 509              	.LVL36:
 510              	.L21:
 290:Drivers/STM32F0xx_HAL_Driver/Src/stm32f0xx_hal_dma.c ****   
 511              		.loc 1 290 3 view .LVU170
 512 004a 0220     		movs	r0, #2
 513 004c E9E7     		b	.L19
 514              		.cfi_endproc
 515              	.LFE42:
 517              		.section	.text.HAL_DMA_Start_IT,"ax",%progbits
 518              		.align	1
 519              		.global	HAL_DMA_Start_IT
 520              		.syntax unified
 521              		.code	16
 522              		.thumb_func
 523              		.fpu softvfp
 525              	HAL_DMA_Start_IT:
 526              	.LVL37:
 527              	.LFB43:
 330:Drivers/STM32F0xx_HAL_Driver/Src/stm32f0xx_hal_dma.c **** 	HAL_StatusTypeDef status = HAL_OK;
 528              		.loc 1 330 1 is_stmt 1 view -0
 529              		.cfi_startproc
 530              		@ args = 0, pretend = 0, frame = 0
ARM GAS  C:\Users\Vulca\AppData\Local\Temp\ccgcmgtb.s 			page 28


 531              		@ frame_needed = 0, uses_anonymous_args = 0
 330:Drivers/STM32F0xx_HAL_Driver/Src/stm32f0xx_hal_dma.c **** 	HAL_StatusTypeDef status = HAL_OK;
 532              		.loc 1 330 1 is_stmt 0 view .LVU172
 533 0000 70B5     		push	{r4, r5, r6, lr}
 534              	.LCFI5:
 535              		.cfi_def_cfa_offset 16
 536              		.cfi_offset 4, -16
 537              		.cfi_offset 5, -12
 538              		.cfi_offset 6, -8
 539              		.cfi_offset 14, -4
 540 0002 0400     		movs	r4, r0
 331:Drivers/STM32F0xx_HAL_Driver/Src/stm32f0xx_hal_dma.c **** 
 541              		.loc 1 331 2 is_stmt 1 view .LVU173
 542              	.LVL38:
 334:Drivers/STM32F0xx_HAL_Driver/Src/stm32f0xx_hal_dma.c ****   
 543              		.loc 1 334 3 view .LVU174
 337:Drivers/STM32F0xx_HAL_Driver/Src/stm32f0xx_hal_dma.c ****   
 544              		.loc 1 337 3 view .LVU175
 337:Drivers/STM32F0xx_HAL_Driver/Src/stm32f0xx_hal_dma.c ****   
 545              		.loc 1 337 3 view .LVU176
 546 0004 2020     		movs	r0, #32
 547              	.LVL39:
 337:Drivers/STM32F0xx_HAL_Driver/Src/stm32f0xx_hal_dma.c ****   
 548              		.loc 1 337 3 is_stmt 0 view .LVU177
 549 0006 205C     		ldrb	r0, [r4, r0]
 550 0008 0128     		cmp	r0, #1
 551 000a 32D0     		beq	.L28
 337:Drivers/STM32F0xx_HAL_Driver/Src/stm32f0xx_hal_dma.c ****   
 552              		.loc 1 337 3 is_stmt 1 discriminator 2 view .LVU178
 553 000c 2020     		movs	r0, #32
 554 000e 0125     		movs	r5, #1
 555 0010 2554     		strb	r5, [r4, r0]
 337:Drivers/STM32F0xx_HAL_Driver/Src/stm32f0xx_hal_dma.c ****   
 556              		.loc 1 337 3 discriminator 2 view .LVU179
 339:Drivers/STM32F0xx_HAL_Driver/Src/stm32f0xx_hal_dma.c ****   {
 557              		.loc 1 339 3 discriminator 2 view .LVU180
 339:Drivers/STM32F0xx_HAL_Driver/Src/stm32f0xx_hal_dma.c ****   {
 558              		.loc 1 339 33 is_stmt 0 discriminator 2 view .LVU181
 559 0012 0130     		adds	r0, r0, #1
 560 0014 205C     		ldrb	r0, [r4, r0]
 339:Drivers/STM32F0xx_HAL_Driver/Src/stm32f0xx_hal_dma.c ****   {
 561              		.loc 1 339 5 discriminator 2 view .LVU182
 562 0016 0128     		cmp	r0, #1
 563 0018 04D0     		beq	.L29
 370:Drivers/STM32F0xx_HAL_Driver/Src/stm32f0xx_hal_dma.c ****   
 564              		.loc 1 370 5 is_stmt 1 view .LVU183
 370:Drivers/STM32F0xx_HAL_Driver/Src/stm32f0xx_hal_dma.c ****   
 565              		.loc 1 370 5 view .LVU184
 566 001a 2023     		movs	r3, #32
 567              	.LVL40:
 370:Drivers/STM32F0xx_HAL_Driver/Src/stm32f0xx_hal_dma.c ****   
 568              		.loc 1 370 5 is_stmt 0 view .LVU185
 569 001c 0022     		movs	r2, #0
 570              	.LVL41:
 370:Drivers/STM32F0xx_HAL_Driver/Src/stm32f0xx_hal_dma.c ****   
 571              		.loc 1 370 5 view .LVU186
 572 001e E254     		strb	r2, [r4, r3]
ARM GAS  C:\Users\Vulca\AppData\Local\Temp\ccgcmgtb.s 			page 29


 370:Drivers/STM32F0xx_HAL_Driver/Src/stm32f0xx_hal_dma.c ****   
 573              		.loc 1 370 5 is_stmt 1 view .LVU187
 373:Drivers/STM32F0xx_HAL_Driver/Src/stm32f0xx_hal_dma.c ****   }     
 574              		.loc 1 373 5 view .LVU188
 575              	.LVL42:
 373:Drivers/STM32F0xx_HAL_Driver/Src/stm32f0xx_hal_dma.c ****   }     
 576              		.loc 1 373 12 is_stmt 0 view .LVU189
 577 0020 0220     		movs	r0, #2
 578              	.LVL43:
 579              	.L24:
 377:Drivers/STM32F0xx_HAL_Driver/Src/stm32f0xx_hal_dma.c **** 
 580              		.loc 1 377 1 view .LVU190
 581              		@ sp needed
 582              	.LVL44:
 377:Drivers/STM32F0xx_HAL_Driver/Src/stm32f0xx_hal_dma.c **** 
 583              		.loc 1 377 1 view .LVU191
 584 0022 70BD     		pop	{r4, r5, r6, pc}
 585              	.LVL45:
 586              	.L29:
 342:Drivers/STM32F0xx_HAL_Driver/Src/stm32f0xx_hal_dma.c ****   	
 587              		.loc 1 342 4 is_stmt 1 view .LVU192
 342:Drivers/STM32F0xx_HAL_Driver/Src/stm32f0xx_hal_dma.c ****   	
 588              		.loc 1 342 16 is_stmt 0 view .LVU193
 589 0024 2030     		adds	r0, r0, #32
 590 0026 0135     		adds	r5, r5, #1
 591 0028 2554     		strb	r5, [r4, r0]
 344:Drivers/STM32F0xx_HAL_Driver/Src/stm32f0xx_hal_dma.c ****   	
 592              		.loc 1 344 4 is_stmt 1 view .LVU194
 344:Drivers/STM32F0xx_HAL_Driver/Src/stm32f0xx_hal_dma.c ****   	
 593              		.loc 1 344 20 is_stmt 0 view .LVU195
 594 002a 0020     		movs	r0, #0
 595 002c A063     		str	r0, [r4, #56]
 347:Drivers/STM32F0xx_HAL_Driver/Src/stm32f0xx_hal_dma.c ****   	
 596              		.loc 1 347 4 is_stmt 1 view .LVU196
 347:Drivers/STM32F0xx_HAL_Driver/Src/stm32f0xx_hal_dma.c ****   	
 597              		.loc 1 347 8 is_stmt 0 view .LVU197
 598 002e 2568     		ldr	r5, [r4]
 347:Drivers/STM32F0xx_HAL_Driver/Src/stm32f0xx_hal_dma.c ****   	
 599              		.loc 1 347 24 view .LVU198
 600 0030 2868     		ldr	r0, [r5]
 601 0032 0126     		movs	r6, #1
 602 0034 B043     		bics	r0, r6
 603 0036 2860     		str	r0, [r5]
 350:Drivers/STM32F0xx_HAL_Driver/Src/stm32f0xx_hal_dma.c ****   	
 604              		.loc 1 350 4 is_stmt 1 view .LVU199
 605 0038 2000     		movs	r0, r4
 606 003a FFF7FEFF 		bl	DMA_SetConfig
 607              	.LVL46:
 354:Drivers/STM32F0xx_HAL_Driver/Src/stm32f0xx_hal_dma.c ****     {
 608              		.loc 1 354 5 view .LVU200
 354:Drivers/STM32F0xx_HAL_Driver/Src/stm32f0xx_hal_dma.c ****     {
 609              		.loc 1 354 7 is_stmt 0 view .LVU201
 610 003e E36A     		ldr	r3, [r4, #44]
 611 0040 002B     		cmp	r3, #0
 612 0042 0BD0     		beq	.L26
 356:Drivers/STM32F0xx_HAL_Driver/Src/stm32f0xx_hal_dma.c ****     }
 613              		.loc 1 356 7 is_stmt 1 view .LVU202
ARM GAS  C:\Users\Vulca\AppData\Local\Temp\ccgcmgtb.s 			page 30


 356:Drivers/STM32F0xx_HAL_Driver/Src/stm32f0xx_hal_dma.c ****     }
 614              		.loc 1 356 11 is_stmt 0 view .LVU203
 615 0044 2268     		ldr	r2, [r4]
 356:Drivers/STM32F0xx_HAL_Driver/Src/stm32f0xx_hal_dma.c ****     }
 616              		.loc 1 356 27 view .LVU204
 617 0046 1368     		ldr	r3, [r2]
 618 0048 0E21     		movs	r1, #14
 619 004a 0B43     		orrs	r3, r1
 620 004c 1360     		str	r3, [r2]
 621              	.L27:
 365:Drivers/STM32F0xx_HAL_Driver/Src/stm32f0xx_hal_dma.c ****   }
 622              		.loc 1 365 4 is_stmt 1 view .LVU205
 365:Drivers/STM32F0xx_HAL_Driver/Src/stm32f0xx_hal_dma.c ****   }
 623              		.loc 1 365 8 is_stmt 0 view .LVU206
 624 004e 2268     		ldr	r2, [r4]
 365:Drivers/STM32F0xx_HAL_Driver/Src/stm32f0xx_hal_dma.c ****   }
 625              		.loc 1 365 24 view .LVU207
 626 0050 1368     		ldr	r3, [r2]
 627 0052 0121     		movs	r1, #1
 628 0054 0B43     		orrs	r3, r1
 629 0056 1360     		str	r3, [r2]
 331:Drivers/STM32F0xx_HAL_Driver/Src/stm32f0xx_hal_dma.c **** 
 630              		.loc 1 331 20 view .LVU208
 631 0058 0020     		movs	r0, #0
 632 005a E2E7     		b	.L24
 633              	.L26:
 360:Drivers/STM32F0xx_HAL_Driver/Src/stm32f0xx_hal_dma.c ****   		hdma->Instance->CCR &= ~DMA_IT_HT;
 634              		.loc 1 360 5 is_stmt 1 view .LVU209
 360:Drivers/STM32F0xx_HAL_Driver/Src/stm32f0xx_hal_dma.c ****   		hdma->Instance->CCR &= ~DMA_IT_HT;
 635              		.loc 1 360 9 is_stmt 0 view .LVU210
 636 005c 2268     		ldr	r2, [r4]
 360:Drivers/STM32F0xx_HAL_Driver/Src/stm32f0xx_hal_dma.c ****   		hdma->Instance->CCR &= ~DMA_IT_HT;
 637              		.loc 1 360 25 view .LVU211
 638 005e 1368     		ldr	r3, [r2]
 639 0060 0A21     		movs	r1, #10
 640 0062 0B43     		orrs	r3, r1
 641 0064 1360     		str	r3, [r2]
 361:Drivers/STM32F0xx_HAL_Driver/Src/stm32f0xx_hal_dma.c ****   	}
 642              		.loc 1 361 5 is_stmt 1 view .LVU212
 361:Drivers/STM32F0xx_HAL_Driver/Src/stm32f0xx_hal_dma.c ****   	}
 643              		.loc 1 361 9 is_stmt 0 view .LVU213
 644 0066 2268     		ldr	r2, [r4]
 361:Drivers/STM32F0xx_HAL_Driver/Src/stm32f0xx_hal_dma.c ****   	}
 645              		.loc 1 361 25 view .LVU214
 646 0068 1368     		ldr	r3, [r2]
 647 006a 0639     		subs	r1, r1, #6
 648 006c 8B43     		bics	r3, r1
 649 006e 1360     		str	r3, [r2]
 650 0070 EDE7     		b	.L27
 651              	.LVL47:
 652              	.L28:
 337:Drivers/STM32F0xx_HAL_Driver/Src/stm32f0xx_hal_dma.c ****   
 653              		.loc 1 337 3 view .LVU215
 654 0072 0220     		movs	r0, #2
 655 0074 D5E7     		b	.L24
 656              		.cfi_endproc
 657              	.LFE43:
ARM GAS  C:\Users\Vulca\AppData\Local\Temp\ccgcmgtb.s 			page 31


 659              		.section	.text.HAL_DMA_Abort,"ax",%progbits
 660              		.align	1
 661              		.global	HAL_DMA_Abort
 662              		.syntax unified
 663              		.code	16
 664              		.thumb_func
 665              		.fpu softvfp
 667              	HAL_DMA_Abort:
 668              	.LVL48:
 669              	.LFB44:
 386:Drivers/STM32F0xx_HAL_Driver/Src/stm32f0xx_hal_dma.c ****   if(hdma->State != HAL_DMA_STATE_BUSY)
 670              		.loc 1 386 1 is_stmt 1 view -0
 671              		.cfi_startproc
 672              		@ args = 0, pretend = 0, frame = 0
 673              		@ frame_needed = 0, uses_anonymous_args = 0
 386:Drivers/STM32F0xx_HAL_Driver/Src/stm32f0xx_hal_dma.c ****   if(hdma->State != HAL_DMA_STATE_BUSY)
 674              		.loc 1 386 1 is_stmt 0 view .LVU217
 675 0000 10B5     		push	{r4, lr}
 676              	.LCFI6:
 677              		.cfi_def_cfa_offset 8
 678              		.cfi_offset 4, -8
 679              		.cfi_offset 14, -4
 387:Drivers/STM32F0xx_HAL_Driver/Src/stm32f0xx_hal_dma.c ****   {
 680              		.loc 1 387 3 is_stmt 1 view .LVU218
 387:Drivers/STM32F0xx_HAL_Driver/Src/stm32f0xx_hal_dma.c ****   {
 681              		.loc 1 387 10 is_stmt 0 view .LVU219
 682 0002 2123     		movs	r3, #33
 683 0004 C35C     		ldrb	r3, [r0, r3]
 387:Drivers/STM32F0xx_HAL_Driver/Src/stm32f0xx_hal_dma.c ****   {
 684              		.loc 1 387 5 view .LVU220
 685 0006 022B     		cmp	r3, #2
 686 0008 06D0     		beq	.L31
 390:Drivers/STM32F0xx_HAL_Driver/Src/stm32f0xx_hal_dma.c ****     
 687              		.loc 1 390 5 is_stmt 1 view .LVU221
 390:Drivers/STM32F0xx_HAL_Driver/Src/stm32f0xx_hal_dma.c ****     
 688              		.loc 1 390 21 is_stmt 0 view .LVU222
 689 000a 0423     		movs	r3, #4
 690 000c 8363     		str	r3, [r0, #56]
 393:Drivers/STM32F0xx_HAL_Driver/Src/stm32f0xx_hal_dma.c ****     
 691              		.loc 1 393 5 is_stmt 1 view .LVU223
 393:Drivers/STM32F0xx_HAL_Driver/Src/stm32f0xx_hal_dma.c ****     
 692              		.loc 1 393 5 view .LVU224
 693 000e 1C33     		adds	r3, r3, #28
 694 0010 0022     		movs	r2, #0
 695 0012 C254     		strb	r2, [r0, r3]
 393:Drivers/STM32F0xx_HAL_Driver/Src/stm32f0xx_hal_dma.c ****     
 696              		.loc 1 393 5 view .LVU225
 395:Drivers/STM32F0xx_HAL_Driver/Src/stm32f0xx_hal_dma.c ****   }
 697              		.loc 1 395 5 view .LVU226
 395:Drivers/STM32F0xx_HAL_Driver/Src/stm32f0xx_hal_dma.c ****   }
 698              		.loc 1 395 12 is_stmt 0 view .LVU227
 699 0014 0120     		movs	r0, #1
 700              	.LVL49:
 701              	.L32:
 415:Drivers/STM32F0xx_HAL_Driver/Src/stm32f0xx_hal_dma.c **** 
 702              		.loc 1 415 1 view .LVU228
 703              		@ sp needed
ARM GAS  C:\Users\Vulca\AppData\Local\Temp\ccgcmgtb.s 			page 32


 704 0016 10BD     		pop	{r4, pc}
 705              	.LVL50:
 706              	.L31:
 400:Drivers/STM32F0xx_HAL_Driver/Src/stm32f0xx_hal_dma.c ****     
 707              		.loc 1 400 5 is_stmt 1 view .LVU229
 400:Drivers/STM32F0xx_HAL_Driver/Src/stm32f0xx_hal_dma.c ****     
 708              		.loc 1 400 9 is_stmt 0 view .LVU230
 709 0018 0268     		ldr	r2, [r0]
 400:Drivers/STM32F0xx_HAL_Driver/Src/stm32f0xx_hal_dma.c ****     
 710              		.loc 1 400 25 view .LVU231
 711 001a 1368     		ldr	r3, [r2]
 712 001c 0E21     		movs	r1, #14
 713 001e 8B43     		bics	r3, r1
 714 0020 1360     		str	r3, [r2]
 403:Drivers/STM32F0xx_HAL_Driver/Src/stm32f0xx_hal_dma.c ****     
 715              		.loc 1 403 5 is_stmt 1 view .LVU232
 403:Drivers/STM32F0xx_HAL_Driver/Src/stm32f0xx_hal_dma.c ****     
 716              		.loc 1 403 9 is_stmt 0 view .LVU233
 717 0022 0168     		ldr	r1, [r0]
 403:Drivers/STM32F0xx_HAL_Driver/Src/stm32f0xx_hal_dma.c ****     
 718              		.loc 1 403 25 view .LVU234
 719 0024 0A68     		ldr	r2, [r1]
 720 0026 0123     		movs	r3, #1
 721 0028 9A43     		bics	r2, r3
 722 002a 0A60     		str	r2, [r1]
 406:Drivers/STM32F0xx_HAL_Driver/Src/stm32f0xx_hal_dma.c ****   }
 723              		.loc 1 406 5 is_stmt 1 view .LVU235
 406:Drivers/STM32F0xx_HAL_Driver/Src/stm32f0xx_hal_dma.c ****   }
 724              		.loc 1 406 9 is_stmt 0 view .LVU236
 725 002c C26B     		ldr	r2, [r0, #60]
 406:Drivers/STM32F0xx_HAL_Driver/Src/stm32f0xx_hal_dma.c ****   }
 726              		.loc 1 406 48 view .LVU237
 727 002e 1900     		movs	r1, r3
 728 0030 046C     		ldr	r4, [r0, #64]
 729 0032 A140     		lsls	r1, r1, r4
 406:Drivers/STM32F0xx_HAL_Driver/Src/stm32f0xx_hal_dma.c ****   }
 730              		.loc 1 406 32 view .LVU238
 731 0034 5160     		str	r1, [r2, #4]
 409:Drivers/STM32F0xx_HAL_Driver/Src/stm32f0xx_hal_dma.c ****   
 732              		.loc 1 409 3 is_stmt 1 view .LVU239
 409:Drivers/STM32F0xx_HAL_Driver/Src/stm32f0xx_hal_dma.c ****   
 733              		.loc 1 409 15 is_stmt 0 view .LVU240
 734 0036 2122     		movs	r2, #33
 735 0038 8354     		strb	r3, [r0, r2]
 412:Drivers/STM32F0xx_HAL_Driver/Src/stm32f0xx_hal_dma.c ****   
 736              		.loc 1 412 3 is_stmt 1 view .LVU241
 412:Drivers/STM32F0xx_HAL_Driver/Src/stm32f0xx_hal_dma.c ****   
 737              		.loc 1 412 3 view .LVU242
 738 003a 1F33     		adds	r3, r3, #31
 739 003c 0022     		movs	r2, #0
 740 003e C254     		strb	r2, [r0, r3]
 412:Drivers/STM32F0xx_HAL_Driver/Src/stm32f0xx_hal_dma.c ****   
 741              		.loc 1 412 3 view .LVU243
 414:Drivers/STM32F0xx_HAL_Driver/Src/stm32f0xx_hal_dma.c **** }
 742              		.loc 1 414 3 view .LVU244
 414:Drivers/STM32F0xx_HAL_Driver/Src/stm32f0xx_hal_dma.c **** }
 743              		.loc 1 414 10 is_stmt 0 view .LVU245
ARM GAS  C:\Users\Vulca\AppData\Local\Temp\ccgcmgtb.s 			page 33


 744 0040 0020     		movs	r0, #0
 745              	.LVL51:
 414:Drivers/STM32F0xx_HAL_Driver/Src/stm32f0xx_hal_dma.c **** }
 746              		.loc 1 414 10 view .LVU246
 747 0042 E8E7     		b	.L32
 748              		.cfi_endproc
 749              	.LFE44:
 751              		.section	.text.HAL_DMA_Abort_IT,"ax",%progbits
 752              		.align	1
 753              		.global	HAL_DMA_Abort_IT
 754              		.syntax unified
 755              		.code	16
 756              		.thumb_func
 757              		.fpu softvfp
 759              	HAL_DMA_Abort_IT:
 760              	.LVL52:
 761              	.LFB45:
 424:Drivers/STM32F0xx_HAL_Driver/Src/stm32f0xx_hal_dma.c ****   HAL_StatusTypeDef status = HAL_OK;
 762              		.loc 1 424 1 is_stmt 1 view -0
 763              		.cfi_startproc
 764              		@ args = 0, pretend = 0, frame = 0
 765              		@ frame_needed = 0, uses_anonymous_args = 0
 424:Drivers/STM32F0xx_HAL_Driver/Src/stm32f0xx_hal_dma.c ****   HAL_StatusTypeDef status = HAL_OK;
 766              		.loc 1 424 1 is_stmt 0 view .LVU248
 767 0000 10B5     		push	{r4, lr}
 768              	.LCFI7:
 769              		.cfi_def_cfa_offset 8
 770              		.cfi_offset 4, -8
 771              		.cfi_offset 14, -4
 425:Drivers/STM32F0xx_HAL_Driver/Src/stm32f0xx_hal_dma.c ****   
 772              		.loc 1 425 3 is_stmt 1 view .LVU249
 773              	.LVL53:
 427:Drivers/STM32F0xx_HAL_Driver/Src/stm32f0xx_hal_dma.c ****   {
 774              		.loc 1 427 3 view .LVU250
 427:Drivers/STM32F0xx_HAL_Driver/Src/stm32f0xx_hal_dma.c ****   {
 775              		.loc 1 427 32 is_stmt 0 view .LVU251
 776 0002 2123     		movs	r3, #33
 777 0004 C35C     		ldrb	r3, [r0, r3]
 427:Drivers/STM32F0xx_HAL_Driver/Src/stm32f0xx_hal_dma.c ****   {
 778              		.loc 1 427 5 view .LVU252
 779 0006 022B     		cmp	r3, #2
 780 0008 03D0     		beq	.L34
 430:Drivers/STM32F0xx_HAL_Driver/Src/stm32f0xx_hal_dma.c ****         
 781              		.loc 1 430 5 is_stmt 1 view .LVU253
 430:Drivers/STM32F0xx_HAL_Driver/Src/stm32f0xx_hal_dma.c ****         
 782              		.loc 1 430 21 is_stmt 0 view .LVU254
 783 000a 0423     		movs	r3, #4
 784 000c 8363     		str	r3, [r0, #56]
 432:Drivers/STM32F0xx_HAL_Driver/Src/stm32f0xx_hal_dma.c ****   }
 785              		.loc 1 432 5 is_stmt 1 view .LVU255
 786              	.LVL54:
 432:Drivers/STM32F0xx_HAL_Driver/Src/stm32f0xx_hal_dma.c ****   }
 787              		.loc 1 432 12 is_stmt 0 view .LVU256
 788 000e 0120     		movs	r0, #1
 789              	.LVL55:
 790              	.L35:
 458:Drivers/STM32F0xx_HAL_Driver/Src/stm32f0xx_hal_dma.c **** }
ARM GAS  C:\Users\Vulca\AppData\Local\Temp\ccgcmgtb.s 			page 34


 791              		.loc 1 458 3 is_stmt 1 view .LVU257
 459:Drivers/STM32F0xx_HAL_Driver/Src/stm32f0xx_hal_dma.c **** 
 792              		.loc 1 459 1 is_stmt 0 view .LVU258
 793              		@ sp needed
 794 0010 10BD     		pop	{r4, pc}
 795              	.LVL56:
 796              	.L34:
 438:Drivers/STM32F0xx_HAL_Driver/Src/stm32f0xx_hal_dma.c ****     
 797              		.loc 1 438 5 is_stmt 1 view .LVU259
 438:Drivers/STM32F0xx_HAL_Driver/Src/stm32f0xx_hal_dma.c ****     
 798              		.loc 1 438 9 is_stmt 0 view .LVU260
 799 0012 0268     		ldr	r2, [r0]
 438:Drivers/STM32F0xx_HAL_Driver/Src/stm32f0xx_hal_dma.c ****     
 800              		.loc 1 438 25 view .LVU261
 801 0014 1368     		ldr	r3, [r2]
 802 0016 0E21     		movs	r1, #14
 803 0018 8B43     		bics	r3, r1
 804 001a 1360     		str	r3, [r2]
 441:Drivers/STM32F0xx_HAL_Driver/Src/stm32f0xx_hal_dma.c ****     
 805              		.loc 1 441 5 is_stmt 1 view .LVU262
 441:Drivers/STM32F0xx_HAL_Driver/Src/stm32f0xx_hal_dma.c ****     
 806              		.loc 1 441 9 is_stmt 0 view .LVU263
 807 001c 0168     		ldr	r1, [r0]
 441:Drivers/STM32F0xx_HAL_Driver/Src/stm32f0xx_hal_dma.c ****     
 808              		.loc 1 441 25 view .LVU264
 809 001e 0A68     		ldr	r2, [r1]
 810 0020 0123     		movs	r3, #1
 811 0022 9A43     		bics	r2, r3
 812 0024 0A60     		str	r2, [r1]
 444:Drivers/STM32F0xx_HAL_Driver/Src/stm32f0xx_hal_dma.c ****     
 813              		.loc 1 444 5 is_stmt 1 view .LVU265
 444:Drivers/STM32F0xx_HAL_Driver/Src/stm32f0xx_hal_dma.c ****     
 814              		.loc 1 444 9 is_stmt 0 view .LVU266
 815 0026 C26B     		ldr	r2, [r0, #60]
 444:Drivers/STM32F0xx_HAL_Driver/Src/stm32f0xx_hal_dma.c ****     
 816              		.loc 1 444 47 view .LVU267
 817 0028 1900     		movs	r1, r3
 818 002a 046C     		ldr	r4, [r0, #64]
 819 002c A140     		lsls	r1, r1, r4
 444:Drivers/STM32F0xx_HAL_Driver/Src/stm32f0xx_hal_dma.c ****     
 820              		.loc 1 444 32 view .LVU268
 821 002e 5160     		str	r1, [r2, #4]
 447:Drivers/STM32F0xx_HAL_Driver/Src/stm32f0xx_hal_dma.c ****     
 822              		.loc 1 447 5 is_stmt 1 view .LVU269
 447:Drivers/STM32F0xx_HAL_Driver/Src/stm32f0xx_hal_dma.c ****     
 823              		.loc 1 447 17 is_stmt 0 view .LVU270
 824 0030 2122     		movs	r2, #33
 825 0032 8354     		strb	r3, [r0, r2]
 450:Drivers/STM32F0xx_HAL_Driver/Src/stm32f0xx_hal_dma.c ****     
 826              		.loc 1 450 5 is_stmt 1 view .LVU271
 450:Drivers/STM32F0xx_HAL_Driver/Src/stm32f0xx_hal_dma.c ****     
 827              		.loc 1 450 5 view .LVU272
 828 0034 1F33     		adds	r3, r3, #31
 829 0036 0022     		movs	r2, #0
 830 0038 C254     		strb	r2, [r0, r3]
 450:Drivers/STM32F0xx_HAL_Driver/Src/stm32f0xx_hal_dma.c ****     
 831              		.loc 1 450 5 view .LVU273
ARM GAS  C:\Users\Vulca\AppData\Local\Temp\ccgcmgtb.s 			page 35


 453:Drivers/STM32F0xx_HAL_Driver/Src/stm32f0xx_hal_dma.c ****     {
 832              		.loc 1 453 5 view .LVU274
 453:Drivers/STM32F0xx_HAL_Driver/Src/stm32f0xx_hal_dma.c ****     {
 833              		.loc 1 453 12 is_stmt 0 view .LVU275
 834 003a 436B     		ldr	r3, [r0, #52]
 453:Drivers/STM32F0xx_HAL_Driver/Src/stm32f0xx_hal_dma.c ****     {
 835              		.loc 1 453 7 view .LVU276
 836 003c 002B     		cmp	r3, #0
 837 003e 02D0     		beq	.L36
 455:Drivers/STM32F0xx_HAL_Driver/Src/stm32f0xx_hal_dma.c ****     } 
 838              		.loc 1 455 7 is_stmt 1 view .LVU277
 839 0040 9847     		blx	r3
 840              	.LVL57:
 425:Drivers/STM32F0xx_HAL_Driver/Src/stm32f0xx_hal_dma.c ****   
 841              		.loc 1 425 21 is_stmt 0 view .LVU278
 842 0042 0020     		movs	r0, #0
 843 0044 E4E7     		b	.L35
 844              	.LVL58:
 845              	.L36:
 425:Drivers/STM32F0xx_HAL_Driver/Src/stm32f0xx_hal_dma.c ****   
 846              		.loc 1 425 21 view .LVU279
 847 0046 0020     		movs	r0, #0
 848              	.LVL59:
 425:Drivers/STM32F0xx_HAL_Driver/Src/stm32f0xx_hal_dma.c ****   
 849              		.loc 1 425 21 view .LVU280
 850 0048 E2E7     		b	.L35
 851              		.cfi_endproc
 852              	.LFE45:
 854              		.section	.text.HAL_DMA_PollForTransfer,"ax",%progbits
 855              		.align	1
 856              		.global	HAL_DMA_PollForTransfer
 857              		.syntax unified
 858              		.code	16
 859              		.thumb_func
 860              		.fpu softvfp
 862              	HAL_DMA_PollForTransfer:
 863              	.LVL60:
 864              	.LFB46:
 470:Drivers/STM32F0xx_HAL_Driver/Src/stm32f0xx_hal_dma.c ****   uint32_t temp;
 865              		.loc 1 470 1 is_stmt 1 view -0
 866              		.cfi_startproc
 867              		@ args = 0, pretend = 0, frame = 8
 868              		@ frame_needed = 0, uses_anonymous_args = 0
 470:Drivers/STM32F0xx_HAL_Driver/Src/stm32f0xx_hal_dma.c ****   uint32_t temp;
 869              		.loc 1 470 1 is_stmt 0 view .LVU282
 870 0000 F0B5     		push	{r4, r5, r6, r7, lr}
 871              	.LCFI8:
 872              		.cfi_def_cfa_offset 20
 873              		.cfi_offset 4, -20
 874              		.cfi_offset 5, -16
 875              		.cfi_offset 6, -12
 876              		.cfi_offset 7, -8
 877              		.cfi_offset 14, -4
 878 0002 83B0     		sub	sp, sp, #12
 879              	.LCFI9:
 880              		.cfi_def_cfa_offset 32
 881 0004 0600     		movs	r6, r0
ARM GAS  C:\Users\Vulca\AppData\Local\Temp\ccgcmgtb.s 			page 36


 882 0006 0C00     		movs	r4, r1
 883 0008 1700     		movs	r7, r2
 471:Drivers/STM32F0xx_HAL_Driver/Src/stm32f0xx_hal_dma.c ****   uint32_t tickstart = 0U;
 884              		.loc 1 471 3 is_stmt 1 view .LVU283
 472:Drivers/STM32F0xx_HAL_Driver/Src/stm32f0xx_hal_dma.c ****   
 885              		.loc 1 472 3 view .LVU284
 886              	.LVL61:
 474:Drivers/STM32F0xx_HAL_Driver/Src/stm32f0xx_hal_dma.c ****   {
 887              		.loc 1 474 3 view .LVU285
 474:Drivers/STM32F0xx_HAL_Driver/Src/stm32f0xx_hal_dma.c ****   {
 888              		.loc 1 474 32 is_stmt 0 view .LVU286
 889 000a 2123     		movs	r3, #33
 890 000c C35C     		ldrb	r3, [r0, r3]
 474:Drivers/STM32F0xx_HAL_Driver/Src/stm32f0xx_hal_dma.c ****   {
 891              		.loc 1 474 5 view .LVU287
 892 000e 022B     		cmp	r3, #2
 893 0010 07D0     		beq	.L38
 477:Drivers/STM32F0xx_HAL_Driver/Src/stm32f0xx_hal_dma.c ****     __HAL_UNLOCK(hdma);
 894              		.loc 1 477 5 is_stmt 1 view .LVU288
 477:Drivers/STM32F0xx_HAL_Driver/Src/stm32f0xx_hal_dma.c ****     __HAL_UNLOCK(hdma);
 895              		.loc 1 477 21 is_stmt 0 view .LVU289
 896 0012 0423     		movs	r3, #4
 897 0014 8363     		str	r3, [r0, #56]
 478:Drivers/STM32F0xx_HAL_Driver/Src/stm32f0xx_hal_dma.c ****     return HAL_ERROR;
 898              		.loc 1 478 5 is_stmt 1 view .LVU290
 478:Drivers/STM32F0xx_HAL_Driver/Src/stm32f0xx_hal_dma.c ****     return HAL_ERROR;
 899              		.loc 1 478 5 view .LVU291
 900 0016 1C33     		adds	r3, r3, #28
 901 0018 0022     		movs	r2, #0
 902              	.LVL62:
 478:Drivers/STM32F0xx_HAL_Driver/Src/stm32f0xx_hal_dma.c ****     return HAL_ERROR;
 903              		.loc 1 478 5 is_stmt 0 view .LVU292
 904 001a C254     		strb	r2, [r0, r3]
 478:Drivers/STM32F0xx_HAL_Driver/Src/stm32f0xx_hal_dma.c ****     return HAL_ERROR;
 905              		.loc 1 478 5 is_stmt 1 view .LVU293
 479:Drivers/STM32F0xx_HAL_Driver/Src/stm32f0xx_hal_dma.c ****   }
 906              		.loc 1 479 5 view .LVU294
 479:Drivers/STM32F0xx_HAL_Driver/Src/stm32f0xx_hal_dma.c ****   }
 907              		.loc 1 479 12 is_stmt 0 view .LVU295
 908 001c 0120     		movs	r0, #1
 909              	.LVL63:
 910              	.L39:
 562:Drivers/STM32F0xx_HAL_Driver/Src/stm32f0xx_hal_dma.c **** 
 911              		.loc 1 562 1 view .LVU296
 912 001e 03B0     		add	sp, sp, #12
 913              		@ sp needed
 914              	.LVL64:
 915              	.LVL65:
 916              	.LVL66:
 562:Drivers/STM32F0xx_HAL_Driver/Src/stm32f0xx_hal_dma.c **** 
 917              		.loc 1 562 1 view .LVU297
 918 0020 F0BD     		pop	{r4, r5, r6, r7, pc}
 919              	.LVL67:
 920              	.L38:
 483:Drivers/STM32F0xx_HAL_Driver/Src/stm32f0xx_hal_dma.c ****   {
 921              		.loc 1 483 3 is_stmt 1 view .LVU298
 483:Drivers/STM32F0xx_HAL_Driver/Src/stm32f0xx_hal_dma.c ****   {
ARM GAS  C:\Users\Vulca\AppData\Local\Temp\ccgcmgtb.s 			page 37


 922              		.loc 1 483 21 is_stmt 0 view .LVU299
 923 0022 0368     		ldr	r3, [r0]
 483:Drivers/STM32F0xx_HAL_Driver/Src/stm32f0xx_hal_dma.c ****   {
 924              		.loc 1 483 31 view .LVU300
 925 0024 1B68     		ldr	r3, [r3]
 483:Drivers/STM32F0xx_HAL_Driver/Src/stm32f0xx_hal_dma.c ****   {
 926              		.loc 1 483 6 view .LVU301
 927 0026 9B06     		lsls	r3, r3, #26
 928 0028 24D4     		bmi	.L50
 490:Drivers/STM32F0xx_HAL_Driver/Src/stm32f0xx_hal_dma.c ****   {
 929              		.loc 1 490 3 is_stmt 1 view .LVU302
 490:Drivers/STM32F0xx_HAL_Driver/Src/stm32f0xx_hal_dma.c ****   {
 930              		.loc 1 490 5 is_stmt 0 view .LVU303
 931 002a 0029     		cmp	r1, #0
 932 002c 27D1     		bne	.L41
 493:Drivers/STM32F0xx_HAL_Driver/Src/stm32f0xx_hal_dma.c ****   }
 933              		.loc 1 493 5 is_stmt 1 view .LVU304
 493:Drivers/STM32F0xx_HAL_Driver/Src/stm32f0xx_hal_dma.c ****   }
 934              		.loc 1 493 10 is_stmt 0 view .LVU305
 935 002e 0225     		movs	r5, #2
 936 0030 036C     		ldr	r3, [r0, #64]
 937 0032 9D40     		lsls	r5, r5, r3
 938              	.LVL68:
 939              	.L42:
 502:Drivers/STM32F0xx_HAL_Driver/Src/stm32f0xx_hal_dma.c **** 
 940              		.loc 1 502 3 is_stmt 1 view .LVU306
 502:Drivers/STM32F0xx_HAL_Driver/Src/stm32f0xx_hal_dma.c **** 
 941              		.loc 1 502 15 is_stmt 0 view .LVU307
 942 0034 FFF7FEFF 		bl	HAL_GetTick
 943              	.LVL69:
 502:Drivers/STM32F0xx_HAL_Driver/Src/stm32f0xx_hal_dma.c **** 
 944              		.loc 1 502 15 view .LVU308
 945 0038 0190     		str	r0, [sp, #4]
 946              	.LVL70:
 504:Drivers/STM32F0xx_HAL_Driver/Src/stm32f0xx_hal_dma.c ****   {
 947              		.loc 1 504 3 is_stmt 1 view .LVU309
 948              	.L45:
 504:Drivers/STM32F0xx_HAL_Driver/Src/stm32f0xx_hal_dma.c ****   {
 949              		.loc 1 504 8 view .LVU310
 504:Drivers/STM32F0xx_HAL_Driver/Src/stm32f0xx_hal_dma.c ****   {
 950              		.loc 1 504 23 is_stmt 0 view .LVU311
 951 003a F16B     		ldr	r1, [r6, #60]
 504:Drivers/STM32F0xx_HAL_Driver/Src/stm32f0xx_hal_dma.c ****   {
 952              		.loc 1 504 39 view .LVU312
 953 003c 0B68     		ldr	r3, [r1]
 504:Drivers/STM32F0xx_HAL_Driver/Src/stm32f0xx_hal_dma.c ****   {
 954              		.loc 1 504 8 view .LVU313
 955 003e 1D42     		tst	r5, r3
 956 0040 2DD1     		bne	.L51
 506:Drivers/STM32F0xx_HAL_Driver/Src/stm32f0xx_hal_dma.c ****     {      
 957              		.loc 1 506 5 is_stmt 1 view .LVU314
 506:Drivers/STM32F0xx_HAL_Driver/Src/stm32f0xx_hal_dma.c ****     {      
 958              		.loc 1 506 38 is_stmt 0 view .LVU315
 959 0042 0868     		ldr	r0, [r1]
 506:Drivers/STM32F0xx_HAL_Driver/Src/stm32f0xx_hal_dma.c ****     {      
 960              		.loc 1 506 67 view .LVU316
 961 0044 326C     		ldr	r2, [r6, #64]
ARM GAS  C:\Users\Vulca\AppData\Local\Temp\ccgcmgtb.s 			page 38


 506:Drivers/STM32F0xx_HAL_Driver/Src/stm32f0xx_hal_dma.c ****     {      
 962              		.loc 1 506 60 view .LVU317
 963 0046 0823     		movs	r3, #8
 964 0048 9340     		lsls	r3, r3, r2
 506:Drivers/STM32F0xx_HAL_Driver/Src/stm32f0xx_hal_dma.c ****     {      
 965              		.loc 1 506 7 view .LVU318
 966 004a 0342     		tst	r3, r0
 967 004c 1BD1     		bne	.L52
 525:Drivers/STM32F0xx_HAL_Driver/Src/stm32f0xx_hal_dma.c ****     {
 968              		.loc 1 525 5 is_stmt 1 view .LVU319
 525:Drivers/STM32F0xx_HAL_Driver/Src/stm32f0xx_hal_dma.c ****     {
 969              		.loc 1 525 7 is_stmt 0 view .LVU320
 970 004e 7B1C     		adds	r3, r7, #1
 971 0050 F3D0     		beq	.L45
 527:Drivers/STM32F0xx_HAL_Driver/Src/stm32f0xx_hal_dma.c ****       {
 972              		.loc 1 527 7 is_stmt 1 view .LVU321
 527:Drivers/STM32F0xx_HAL_Driver/Src/stm32f0xx_hal_dma.c ****       {
 973              		.loc 1 527 9 is_stmt 0 view .LVU322
 974 0052 002F     		cmp	r7, #0
 975 0054 05D0     		beq	.L46
 527:Drivers/STM32F0xx_HAL_Driver/Src/stm32f0xx_hal_dma.c ****       {
 976              		.loc 1 527 31 discriminator 1 view .LVU323
 977 0056 FFF7FEFF 		bl	HAL_GetTick
 978              	.LVL71:
 527:Drivers/STM32F0xx_HAL_Driver/Src/stm32f0xx_hal_dma.c ****       {
 979              		.loc 1 527 45 discriminator 1 view .LVU324
 980 005a 019B     		ldr	r3, [sp, #4]
 981 005c C01A     		subs	r0, r0, r3
 527:Drivers/STM32F0xx_HAL_Driver/Src/stm32f0xx_hal_dma.c ****       {
 982              		.loc 1 527 26 discriminator 1 view .LVU325
 983 005e B842     		cmp	r0, r7
 984 0060 EBD9     		bls	.L45
 985              	.L46:
 530:Drivers/STM32F0xx_HAL_Driver/Src/stm32f0xx_hal_dma.c ****         
 986              		.loc 1 530 9 is_stmt 1 view .LVU326
 530:Drivers/STM32F0xx_HAL_Driver/Src/stm32f0xx_hal_dma.c ****         
 987              		.loc 1 530 25 is_stmt 0 view .LVU327
 988 0062 2023     		movs	r3, #32
 989 0064 B363     		str	r3, [r6, #56]
 533:Drivers/STM32F0xx_HAL_Driver/Src/stm32f0xx_hal_dma.c **** 
 990              		.loc 1 533 9 is_stmt 1 view .LVU328
 533:Drivers/STM32F0xx_HAL_Driver/Src/stm32f0xx_hal_dma.c **** 
 991              		.loc 1 533 21 is_stmt 0 view .LVU329
 992 0066 2122     		movs	r2, #33
 993 0068 0121     		movs	r1, #1
 994 006a B154     		strb	r1, [r6, r2]
 536:Drivers/STM32F0xx_HAL_Driver/Src/stm32f0xx_hal_dma.c **** 
 995              		.loc 1 536 9 is_stmt 1 view .LVU330
 536:Drivers/STM32F0xx_HAL_Driver/Src/stm32f0xx_hal_dma.c **** 
 996              		.loc 1 536 9 view .LVU331
 997 006c 0022     		movs	r2, #0
 998 006e F254     		strb	r2, [r6, r3]
 536:Drivers/STM32F0xx_HAL_Driver/Src/stm32f0xx_hal_dma.c **** 
 999              		.loc 1 536 9 view .LVU332
 538:Drivers/STM32F0xx_HAL_Driver/Src/stm32f0xx_hal_dma.c ****       }
 1000              		.loc 1 538 9 view .LVU333
 538:Drivers/STM32F0xx_HAL_Driver/Src/stm32f0xx_hal_dma.c ****       }
ARM GAS  C:\Users\Vulca\AppData\Local\Temp\ccgcmgtb.s 			page 39


 1001              		.loc 1 538 16 is_stmt 0 view .LVU334
 1002 0070 0120     		movs	r0, #1
 1003 0072 D4E7     		b	.L39
 1004              	.LVL72:
 1005              	.L50:
 485:Drivers/STM32F0xx_HAL_Driver/Src/stm32f0xx_hal_dma.c ****     return HAL_ERROR;
 1006              		.loc 1 485 5 is_stmt 1 view .LVU335
 485:Drivers/STM32F0xx_HAL_Driver/Src/stm32f0xx_hal_dma.c ****     return HAL_ERROR;
 1007              		.loc 1 485 21 is_stmt 0 view .LVU336
 1008 0074 8023     		movs	r3, #128
 1009 0076 5B00     		lsls	r3, r3, #1
 1010 0078 8363     		str	r3, [r0, #56]
 486:Drivers/STM32F0xx_HAL_Driver/Src/stm32f0xx_hal_dma.c ****   }
 1011              		.loc 1 486 5 is_stmt 1 view .LVU337
 486:Drivers/STM32F0xx_HAL_Driver/Src/stm32f0xx_hal_dma.c ****   }
 1012              		.loc 1 486 12 is_stmt 0 view .LVU338
 1013 007a 0120     		movs	r0, #1
 1014              	.LVL73:
 486:Drivers/STM32F0xx_HAL_Driver/Src/stm32f0xx_hal_dma.c ****   }
 1015              		.loc 1 486 12 view .LVU339
 1016 007c CFE7     		b	.L39
 1017              	.LVL74:
 1018              	.L41:
 498:Drivers/STM32F0xx_HAL_Driver/Src/stm32f0xx_hal_dma.c ****   }
 1019              		.loc 1 498 5 is_stmt 1 view .LVU340
 498:Drivers/STM32F0xx_HAL_Driver/Src/stm32f0xx_hal_dma.c ****   }
 1020              		.loc 1 498 10 is_stmt 0 view .LVU341
 1021 007e 0425     		movs	r5, #4
 1022 0080 036C     		ldr	r3, [r0, #64]
 1023 0082 9D40     		lsls	r5, r5, r3
 1024              	.LVL75:
 498:Drivers/STM32F0xx_HAL_Driver/Src/stm32f0xx_hal_dma.c ****   }
 1025              		.loc 1 498 10 view .LVU342
 1026 0084 D6E7     		b	.L42
 1027              	.LVL76:
 1028              	.L52:
 511:Drivers/STM32F0xx_HAL_Driver/Src/stm32f0xx_hal_dma.c ****       
 1029              		.loc 1 511 7 is_stmt 1 view .LVU343
 511:Drivers/STM32F0xx_HAL_Driver/Src/stm32f0xx_hal_dma.c ****       
 1030              		.loc 1 511 49 is_stmt 0 view .LVU344
 1031 0086 0123     		movs	r3, #1
 1032 0088 1800     		movs	r0, r3
 1033 008a 9040     		lsls	r0, r0, r2
 511:Drivers/STM32F0xx_HAL_Driver/Src/stm32f0xx_hal_dma.c ****       
 1034              		.loc 1 511 34 view .LVU345
 1035 008c 4860     		str	r0, [r1, #4]
 514:Drivers/STM32F0xx_HAL_Driver/Src/stm32f0xx_hal_dma.c **** 
 1036              		.loc 1 514 7 is_stmt 1 view .LVU346
 514:Drivers/STM32F0xx_HAL_Driver/Src/stm32f0xx_hal_dma.c **** 
 1037              		.loc 1 514 23 is_stmt 0 view .LVU347
 1038 008e B363     		str	r3, [r6, #56]
 517:Drivers/STM32F0xx_HAL_Driver/Src/stm32f0xx_hal_dma.c ****       
 1039              		.loc 1 517 7 is_stmt 1 view .LVU348
 517:Drivers/STM32F0xx_HAL_Driver/Src/stm32f0xx_hal_dma.c ****       
 1040              		.loc 1 517 18 is_stmt 0 view .LVU349
 1041 0090 2122     		movs	r2, #33
 1042 0092 B354     		strb	r3, [r6, r2]
ARM GAS  C:\Users\Vulca\AppData\Local\Temp\ccgcmgtb.s 			page 40


 520:Drivers/STM32F0xx_HAL_Driver/Src/stm32f0xx_hal_dma.c ****       
 1043              		.loc 1 520 7 is_stmt 1 view .LVU350
 520:Drivers/STM32F0xx_HAL_Driver/Src/stm32f0xx_hal_dma.c ****       
 1044              		.loc 1 520 7 view .LVU351
 1045 0094 1F33     		adds	r3, r3, #31
 1046 0096 0022     		movs	r2, #0
 1047 0098 F254     		strb	r2, [r6, r3]
 520:Drivers/STM32F0xx_HAL_Driver/Src/stm32f0xx_hal_dma.c ****       
 1048              		.loc 1 520 7 view .LVU352
 522:Drivers/STM32F0xx_HAL_Driver/Src/stm32f0xx_hal_dma.c ****     }      
 1049              		.loc 1 522 7 view .LVU353
 522:Drivers/STM32F0xx_HAL_Driver/Src/stm32f0xx_hal_dma.c ****     }      
 1050              		.loc 1 522 14 is_stmt 0 view .LVU354
 1051 009a 0120     		movs	r0, #1
 1052 009c BFE7     		b	.L39
 1053              	.L51:
 543:Drivers/STM32F0xx_HAL_Driver/Src/stm32f0xx_hal_dma.c ****   {
 1054              		.loc 1 543 3 is_stmt 1 view .LVU355
 543:Drivers/STM32F0xx_HAL_Driver/Src/stm32f0xx_hal_dma.c ****   {
 1055              		.loc 1 543 5 is_stmt 0 view .LVU356
 1056 009e 002C     		cmp	r4, #0
 1057 00a0 0BD1     		bne	.L48
 546:Drivers/STM32F0xx_HAL_Driver/Src/stm32f0xx_hal_dma.c **** 
 1058              		.loc 1 546 5 is_stmt 1 view .LVU357
 546:Drivers/STM32F0xx_HAL_Driver/Src/stm32f0xx_hal_dma.c **** 
 1059              		.loc 1 546 47 is_stmt 0 view .LVU358
 1060 00a2 0223     		movs	r3, #2
 1061 00a4 326C     		ldr	r2, [r6, #64]
 1062 00a6 9340     		lsls	r3, r3, r2
 546:Drivers/STM32F0xx_HAL_Driver/Src/stm32f0xx_hal_dma.c **** 
 1063              		.loc 1 546 32 view .LVU359
 1064 00a8 4B60     		str	r3, [r1, #4]
 550:Drivers/STM32F0xx_HAL_Driver/Src/stm32f0xx_hal_dma.c ****   }
 1065              		.loc 1 550 5 is_stmt 1 view .LVU360
 550:Drivers/STM32F0xx_HAL_Driver/Src/stm32f0xx_hal_dma.c ****   }
 1066              		.loc 1 550 17 is_stmt 0 view .LVU361
 1067 00aa 2123     		movs	r3, #33
 1068 00ac 0122     		movs	r2, #1
 1069 00ae F254     		strb	r2, [r6, r3]
 1070              	.L49:
 559:Drivers/STM32F0xx_HAL_Driver/Src/stm32f0xx_hal_dma.c **** 
 1071              		.loc 1 559 3 is_stmt 1 view .LVU362
 559:Drivers/STM32F0xx_HAL_Driver/Src/stm32f0xx_hal_dma.c **** 
 1072              		.loc 1 559 3 view .LVU363
 1073 00b0 2023     		movs	r3, #32
 1074 00b2 0022     		movs	r2, #0
 1075 00b4 F254     		strb	r2, [r6, r3]
 559:Drivers/STM32F0xx_HAL_Driver/Src/stm32f0xx_hal_dma.c **** 
 1076              		.loc 1 559 3 view .LVU364
 561:Drivers/STM32F0xx_HAL_Driver/Src/stm32f0xx_hal_dma.c **** }
 1077              		.loc 1 561 3 view .LVU365
 561:Drivers/STM32F0xx_HAL_Driver/Src/stm32f0xx_hal_dma.c **** }
 1078              		.loc 1 561 10 is_stmt 0 view .LVU366
 1079 00b6 0020     		movs	r0, #0
 1080 00b8 B1E7     		b	.L39
 1081              	.L48:
 555:Drivers/STM32F0xx_HAL_Driver/Src/stm32f0xx_hal_dma.c ****   }
ARM GAS  C:\Users\Vulca\AppData\Local\Temp\ccgcmgtb.s 			page 41


 1082              		.loc 1 555 5 is_stmt 1 view .LVU367
 555:Drivers/STM32F0xx_HAL_Driver/Src/stm32f0xx_hal_dma.c ****   }
 1083              		.loc 1 555 47 is_stmt 0 view .LVU368
 1084 00ba 0423     		movs	r3, #4
 1085 00bc 326C     		ldr	r2, [r6, #64]
 1086 00be 9340     		lsls	r3, r3, r2
 555:Drivers/STM32F0xx_HAL_Driver/Src/stm32f0xx_hal_dma.c ****   }
 1087              		.loc 1 555 32 view .LVU369
 1088 00c0 4B60     		str	r3, [r1, #4]
 1089 00c2 F5E7     		b	.L49
 1090              		.cfi_endproc
 1091              	.LFE46:
 1093              		.section	.text.HAL_DMA_IRQHandler,"ax",%progbits
 1094              		.align	1
 1095              		.global	HAL_DMA_IRQHandler
 1096              		.syntax unified
 1097              		.code	16
 1098              		.thumb_func
 1099              		.fpu softvfp
 1101              	HAL_DMA_IRQHandler:
 1102              	.LVL77:
 1103              	.LFB47:
 571:Drivers/STM32F0xx_HAL_Driver/Src/stm32f0xx_hal_dma.c **** 	uint32_t flag_it = hdma->DmaBaseAddress->ISR;
 1104              		.loc 1 571 1 is_stmt 1 view -0
 1105              		.cfi_startproc
 1106              		@ args = 0, pretend = 0, frame = 0
 1107              		@ frame_needed = 0, uses_anonymous_args = 0
 571:Drivers/STM32F0xx_HAL_Driver/Src/stm32f0xx_hal_dma.c **** 	uint32_t flag_it = hdma->DmaBaseAddress->ISR;
 1108              		.loc 1 571 1 is_stmt 0 view .LVU371
 1109 0000 70B5     		push	{r4, r5, r6, lr}
 1110              	.LCFI10:
 1111              		.cfi_def_cfa_offset 16
 1112              		.cfi_offset 4, -16
 1113              		.cfi_offset 5, -12
 1114              		.cfi_offset 6, -8
 1115              		.cfi_offset 14, -4
 572:Drivers/STM32F0xx_HAL_Driver/Src/stm32f0xx_hal_dma.c ****   uint32_t source_it = hdma->Instance->CCR;
 1116              		.loc 1 572 2 is_stmt 1 view .LVU372
 572:Drivers/STM32F0xx_HAL_Driver/Src/stm32f0xx_hal_dma.c ****   uint32_t source_it = hdma->Instance->CCR;
 1117              		.loc 1 572 25 is_stmt 0 view .LVU373
 1118 0002 C36B     		ldr	r3, [r0, #60]
 572:Drivers/STM32F0xx_HAL_Driver/Src/stm32f0xx_hal_dma.c ****   uint32_t source_it = hdma->Instance->CCR;
 1119              		.loc 1 572 11 view .LVU374
 1120 0004 1A68     		ldr	r2, [r3]
 1121              	.LVL78:
 573:Drivers/STM32F0xx_HAL_Driver/Src/stm32f0xx_hal_dma.c ****           
 1122              		.loc 1 573 3 is_stmt 1 view .LVU375
 573:Drivers/STM32F0xx_HAL_Driver/Src/stm32f0xx_hal_dma.c ****           
 1123              		.loc 1 573 28 is_stmt 0 view .LVU376
 1124 0006 0468     		ldr	r4, [r0]
 573:Drivers/STM32F0xx_HAL_Driver/Src/stm32f0xx_hal_dma.c ****           
 1125              		.loc 1 573 12 view .LVU377
 1126 0008 2568     		ldr	r5, [r4]
 1127              	.LVL79:
 576:Drivers/STM32F0xx_HAL_Driver/Src/stm32f0xx_hal_dma.c ****   {
 1128              		.loc 1 576 3 is_stmt 1 view .LVU378
 576:Drivers/STM32F0xx_HAL_Driver/Src/stm32f0xx_hal_dma.c ****   {
ARM GAS  C:\Users\Vulca\AppData\Local\Temp\ccgcmgtb.s 			page 42


 1129              		.loc 1 576 49 is_stmt 0 view .LVU379
 1130 000a 016C     		ldr	r1, [r0, #64]
 576:Drivers/STM32F0xx_HAL_Driver/Src/stm32f0xx_hal_dma.c ****   {
 1131              		.loc 1 576 42 view .LVU380
 1132 000c 0423     		movs	r3, #4
 1133 000e 8B40     		lsls	r3, r3, r1
 576:Drivers/STM32F0xx_HAL_Driver/Src/stm32f0xx_hal_dma.c ****   {
 1134              		.loc 1 576 6 view .LVU381
 1135 0010 1A42     		tst	r2, r3
 1136 0012 12D0     		beq	.L54
 576:Drivers/STM32F0xx_HAL_Driver/Src/stm32f0xx_hal_dma.c ****   {
 1137              		.loc 1 576 67 discriminator 1 view .LVU382
 1138 0014 6B07     		lsls	r3, r5, #29
 1139 0016 10D5     		bpl	.L54
 579:Drivers/STM32F0xx_HAL_Driver/Src/stm32f0xx_hal_dma.c ****   	{
 1140              		.loc 1 579 4 is_stmt 1 view .LVU383
 579:Drivers/STM32F0xx_HAL_Driver/Src/stm32f0xx_hal_dma.c ****   	{
 1141              		.loc 1 579 22 is_stmt 0 view .LVU384
 1142 0018 2368     		ldr	r3, [r4]
 579:Drivers/STM32F0xx_HAL_Driver/Src/stm32f0xx_hal_dma.c ****   	{
 1143              		.loc 1 579 6 view .LVU385
 1144 001a 9B06     		lsls	r3, r3, #26
 1145 001c 03D4     		bmi	.L55
 582:Drivers/STM32F0xx_HAL_Driver/Src/stm32f0xx_hal_dma.c ****   	}
 1146              		.loc 1 582 5 is_stmt 1 view .LVU386
 582:Drivers/STM32F0xx_HAL_Driver/Src/stm32f0xx_hal_dma.c ****   	}
 1147              		.loc 1 582 25 is_stmt 0 view .LVU387
 1148 001e 2368     		ldr	r3, [r4]
 1149 0020 0422     		movs	r2, #4
 1150              	.LVL80:
 582:Drivers/STM32F0xx_HAL_Driver/Src/stm32f0xx_hal_dma.c ****   	}
 1151              		.loc 1 582 25 view .LVU388
 1152 0022 9343     		bics	r3, r2
 1153 0024 2360     		str	r3, [r4]
 1154              	.L55:
 586:Drivers/STM32F0xx_HAL_Driver/Src/stm32f0xx_hal_dma.c ****   	
 1155              		.loc 1 586 4 is_stmt 1 view .LVU389
 586:Drivers/STM32F0xx_HAL_Driver/Src/stm32f0xx_hal_dma.c ****   	
 1156              		.loc 1 586 8 is_stmt 0 view .LVU390
 1157 0026 C26B     		ldr	r2, [r0, #60]
 586:Drivers/STM32F0xx_HAL_Driver/Src/stm32f0xx_hal_dma.c ****   	
 1158              		.loc 1 586 46 view .LVU391
 1159 0028 0423     		movs	r3, #4
 1160 002a 016C     		ldr	r1, [r0, #64]
 1161 002c 8B40     		lsls	r3, r3, r1
 586:Drivers/STM32F0xx_HAL_Driver/Src/stm32f0xx_hal_dma.c ****   	
 1162              		.loc 1 586 31 view .LVU392
 1163 002e 5360     		str	r3, [r2, #4]
 591:Drivers/STM32F0xx_HAL_Driver/Src/stm32f0xx_hal_dma.c ****   	{
 1164              		.loc 1 591 4 is_stmt 1 view .LVU393
 591:Drivers/STM32F0xx_HAL_Driver/Src/stm32f0xx_hal_dma.c ****   	{
 1165              		.loc 1 591 11 is_stmt 0 view .LVU394
 1166 0030 C36A     		ldr	r3, [r0, #44]
 591:Drivers/STM32F0xx_HAL_Driver/Src/stm32f0xx_hal_dma.c ****   	{
 1167              		.loc 1 591 6 view .LVU395
 1168 0032 002B     		cmp	r3, #0
 1169 0034 00D0     		beq	.L53
ARM GAS  C:\Users\Vulca\AppData\Local\Temp\ccgcmgtb.s 			page 43


 594:Drivers/STM32F0xx_HAL_Driver/Src/stm32f0xx_hal_dma.c ****   	}
 1170              		.loc 1 594 5 is_stmt 1 view .LVU396
 1171 0036 9847     		blx	r3
 1172              	.LVL81:
 1173              	.L53:
 650:Drivers/STM32F0xx_HAL_Driver/Src/stm32f0xx_hal_dma.c **** 
 1174              		.loc 1 650 1 is_stmt 0 view .LVU397
 1175              		@ sp needed
 1176              	.LVL82:
 650:Drivers/STM32F0xx_HAL_Driver/Src/stm32f0xx_hal_dma.c **** 
 1177              		.loc 1 650 1 view .LVU398
 1178 0038 70BD     		pop	{r4, r5, r6, pc}
 1179              	.LVL83:
 1180              	.L54:
 599:Drivers/STM32F0xx_HAL_Driver/Src/stm32f0xx_hal_dma.c ****   {
 1181              		.loc 1 599 8 is_stmt 1 view .LVU399
 599:Drivers/STM32F0xx_HAL_Driver/Src/stm32f0xx_hal_dma.c ****   {
 1182              		.loc 1 599 47 is_stmt 0 view .LVU400
 1183 003a 0223     		movs	r3, #2
 1184 003c 8B40     		lsls	r3, r3, r1
 599:Drivers/STM32F0xx_HAL_Driver/Src/stm32f0xx_hal_dma.c ****   {
 1185              		.loc 1 599 11 view .LVU401
 1186 003e 1A42     		tst	r2, r3
 1187 0040 18D0     		beq	.L57
 599:Drivers/STM32F0xx_HAL_Driver/Src/stm32f0xx_hal_dma.c ****   {
 1188              		.loc 1 599 72 discriminator 1 view .LVU402
 1189 0042 AB07     		lsls	r3, r5, #30
 1190 0044 16D5     		bpl	.L57
 601:Drivers/STM32F0xx_HAL_Driver/Src/stm32f0xx_hal_dma.c ****   	{
 1191              		.loc 1 601 4 is_stmt 1 view .LVU403
 601:Drivers/STM32F0xx_HAL_Driver/Src/stm32f0xx_hal_dma.c ****   	{
 1192              		.loc 1 601 22 is_stmt 0 view .LVU404
 1193 0046 2368     		ldr	r3, [r4]
 601:Drivers/STM32F0xx_HAL_Driver/Src/stm32f0xx_hal_dma.c ****   	{
 1194              		.loc 1 601 6 view .LVU405
 1195 0048 9B06     		lsls	r3, r3, #26
 1196 004a 06D4     		bmi	.L58
 605:Drivers/STM32F0xx_HAL_Driver/Src/stm32f0xx_hal_dma.c ****   		
 1197              		.loc 1 605 5 is_stmt 1 view .LVU406
 605:Drivers/STM32F0xx_HAL_Driver/Src/stm32f0xx_hal_dma.c ****   		
 1198              		.loc 1 605 25 is_stmt 0 view .LVU407
 1199 004c 2368     		ldr	r3, [r4]
 1200 004e 0A22     		movs	r2, #10
 1201              	.LVL84:
 605:Drivers/STM32F0xx_HAL_Driver/Src/stm32f0xx_hal_dma.c ****   		
 1202              		.loc 1 605 25 view .LVU408
 1203 0050 9343     		bics	r3, r2
 1204 0052 2360     		str	r3, [r4]
 608:Drivers/STM32F0xx_HAL_Driver/Src/stm32f0xx_hal_dma.c ****   	}
 1205              		.loc 1 608 5 is_stmt 1 view .LVU409
 608:Drivers/STM32F0xx_HAL_Driver/Src/stm32f0xx_hal_dma.c ****   	}
 1206              		.loc 1 608 17 is_stmt 0 view .LVU410
 1207 0054 2123     		movs	r3, #33
 1208 0056 093A     		subs	r2, r2, #9
 1209 0058 C254     		strb	r2, [r0, r3]
 1210              	.L58:
 612:Drivers/STM32F0xx_HAL_Driver/Src/stm32f0xx_hal_dma.c ****   	
ARM GAS  C:\Users\Vulca\AppData\Local\Temp\ccgcmgtb.s 			page 44


 1211              		.loc 1 612 4 is_stmt 1 view .LVU411
 612:Drivers/STM32F0xx_HAL_Driver/Src/stm32f0xx_hal_dma.c ****   	
 1212              		.loc 1 612 8 is_stmt 0 view .LVU412
 1213 005a C26B     		ldr	r2, [r0, #60]
 612:Drivers/STM32F0xx_HAL_Driver/Src/stm32f0xx_hal_dma.c ****   	
 1214              		.loc 1 612 46 view .LVU413
 1215 005c 0223     		movs	r3, #2
 1216 005e 016C     		ldr	r1, [r0, #64]
 1217 0060 8B40     		lsls	r3, r3, r1
 612:Drivers/STM32F0xx_HAL_Driver/Src/stm32f0xx_hal_dma.c ****   	
 1218              		.loc 1 612 31 view .LVU414
 1219 0062 5360     		str	r3, [r2, #4]
 615:Drivers/STM32F0xx_HAL_Driver/Src/stm32f0xx_hal_dma.c ****   	
 1220              		.loc 1 615 4 is_stmt 1 view .LVU415
 615:Drivers/STM32F0xx_HAL_Driver/Src/stm32f0xx_hal_dma.c ****   	
 1221              		.loc 1 615 4 view .LVU416
 1222 0064 2023     		movs	r3, #32
 1223 0066 0022     		movs	r2, #0
 1224 0068 C254     		strb	r2, [r0, r3]
 615:Drivers/STM32F0xx_HAL_Driver/Src/stm32f0xx_hal_dma.c ****   	
 1225              		.loc 1 615 4 view .LVU417
 617:Drivers/STM32F0xx_HAL_Driver/Src/stm32f0xx_hal_dma.c ****   	{
 1226              		.loc 1 617 4 view .LVU418
 617:Drivers/STM32F0xx_HAL_Driver/Src/stm32f0xx_hal_dma.c ****   	{
 1227              		.loc 1 617 11 is_stmt 0 view .LVU419
 1228 006a 836A     		ldr	r3, [r0, #40]
 617:Drivers/STM32F0xx_HAL_Driver/Src/stm32f0xx_hal_dma.c ****   	{
 1229              		.loc 1 617 6 view .LVU420
 1230 006c 002B     		cmp	r3, #0
 1231 006e E3D0     		beq	.L53
 620:Drivers/STM32F0xx_HAL_Driver/Src/stm32f0xx_hal_dma.c ****   	}
 1232              		.loc 1 620 5 is_stmt 1 view .LVU421
 1233 0070 9847     		blx	r3
 1234              	.LVL85:
 620:Drivers/STM32F0xx_HAL_Driver/Src/stm32f0xx_hal_dma.c ****   	}
 1235              		.loc 1 620 5 is_stmt 0 view .LVU422
 1236 0072 E1E7     		b	.L53
 1237              	.LVL86:
 1238              	.L57:
 625:Drivers/STM32F0xx_HAL_Driver/Src/stm32f0xx_hal_dma.c ****   {
 1239              		.loc 1 625 8 is_stmt 1 view .LVU423
 625:Drivers/STM32F0xx_HAL_Driver/Src/stm32f0xx_hal_dma.c ****   {
 1240              		.loc 1 625 48 is_stmt 0 view .LVU424
 1241 0074 0823     		movs	r3, #8
 1242 0076 8B40     		lsls	r3, r3, r1
 625:Drivers/STM32F0xx_HAL_Driver/Src/stm32f0xx_hal_dma.c ****   {
 1243              		.loc 1 625 11 view .LVU425
 1244 0078 1A42     		tst	r2, r3
 1245 007a DDD0     		beq	.L53
 625:Drivers/STM32F0xx_HAL_Driver/Src/stm32f0xx_hal_dma.c ****   {
 1246              		.loc 1 625 73 discriminator 1 view .LVU426
 1247 007c 2B07     		lsls	r3, r5, #28
 1248 007e DBD5     		bpl	.L53
 630:Drivers/STM32F0xx_HAL_Driver/Src/stm32f0xx_hal_dma.c ****     
 1249              		.loc 1 630 5 is_stmt 1 view .LVU427
 630:Drivers/STM32F0xx_HAL_Driver/Src/stm32f0xx_hal_dma.c ****     
 1250              		.loc 1 630 25 is_stmt 0 view .LVU428
ARM GAS  C:\Users\Vulca\AppData\Local\Temp\ccgcmgtb.s 			page 45


 1251 0080 2368     		ldr	r3, [r4]
 1252 0082 0E22     		movs	r2, #14
 1253              	.LVL87:
 630:Drivers/STM32F0xx_HAL_Driver/Src/stm32f0xx_hal_dma.c ****     
 1254              		.loc 1 630 25 view .LVU429
 1255 0084 9343     		bics	r3, r2
 1256 0086 2360     		str	r3, [r4]
 633:Drivers/STM32F0xx_HAL_Driver/Src/stm32f0xx_hal_dma.c ****     
 1257              		.loc 1 633 5 is_stmt 1 view .LVU430
 633:Drivers/STM32F0xx_HAL_Driver/Src/stm32f0xx_hal_dma.c ****     
 1258              		.loc 1 633 9 is_stmt 0 view .LVU431
 1259 0088 C26B     		ldr	r2, [r0, #60]
 633:Drivers/STM32F0xx_HAL_Driver/Src/stm32f0xx_hal_dma.c ****     
 1260              		.loc 1 633 47 view .LVU432
 1261 008a 0123     		movs	r3, #1
 1262 008c 1900     		movs	r1, r3
 1263 008e 046C     		ldr	r4, [r0, #64]
 1264 0090 A140     		lsls	r1, r1, r4
 633:Drivers/STM32F0xx_HAL_Driver/Src/stm32f0xx_hal_dma.c ****     
 1265              		.loc 1 633 32 view .LVU433
 1266 0092 5160     		str	r1, [r2, #4]
 636:Drivers/STM32F0xx_HAL_Driver/Src/stm32f0xx_hal_dma.c ****     
 1267              		.loc 1 636 5 is_stmt 1 view .LVU434
 636:Drivers/STM32F0xx_HAL_Driver/Src/stm32f0xx_hal_dma.c ****     
 1268              		.loc 1 636 21 is_stmt 0 view .LVU435
 1269 0094 8363     		str	r3, [r0, #56]
 639:Drivers/STM32F0xx_HAL_Driver/Src/stm32f0xx_hal_dma.c ****     
 1270              		.loc 1 639 5 is_stmt 1 view .LVU436
 639:Drivers/STM32F0xx_HAL_Driver/Src/stm32f0xx_hal_dma.c ****     
 1271              		.loc 1 639 17 is_stmt 0 view .LVU437
 1272 0096 2122     		movs	r2, #33
 1273 0098 8354     		strb	r3, [r0, r2]
 642:Drivers/STM32F0xx_HAL_Driver/Src/stm32f0xx_hal_dma.c ****     
 1274              		.loc 1 642 5 is_stmt 1 view .LVU438
 642:Drivers/STM32F0xx_HAL_Driver/Src/stm32f0xx_hal_dma.c ****     
 1275              		.loc 1 642 5 view .LVU439
 1276 009a 1F33     		adds	r3, r3, #31
 1277 009c 0022     		movs	r2, #0
 1278 009e C254     		strb	r2, [r0, r3]
 642:Drivers/STM32F0xx_HAL_Driver/Src/stm32f0xx_hal_dma.c ****     
 1279              		.loc 1 642 5 view .LVU440
 644:Drivers/STM32F0xx_HAL_Driver/Src/stm32f0xx_hal_dma.c ****     {
 1280              		.loc 1 644 5 view .LVU441
 644:Drivers/STM32F0xx_HAL_Driver/Src/stm32f0xx_hal_dma.c ****     {
 1281              		.loc 1 644 12 is_stmt 0 view .LVU442
 1282 00a0 036B     		ldr	r3, [r0, #48]
 644:Drivers/STM32F0xx_HAL_Driver/Src/stm32f0xx_hal_dma.c ****     {
 1283              		.loc 1 644 7 view .LVU443
 1284 00a2 002B     		cmp	r3, #0
 1285 00a4 C8D0     		beq	.L53
 647:Drivers/STM32F0xx_HAL_Driver/Src/stm32f0xx_hal_dma.c ****     }
 1286              		.loc 1 647 6 is_stmt 1 view .LVU444
 1287 00a6 9847     		blx	r3
 1288              	.LVL88:
 650:Drivers/STM32F0xx_HAL_Driver/Src/stm32f0xx_hal_dma.c **** 
 1289              		.loc 1 650 1 is_stmt 0 view .LVU445
 1290 00a8 C6E7     		b	.L53
ARM GAS  C:\Users\Vulca\AppData\Local\Temp\ccgcmgtb.s 			page 46


 1291              		.cfi_endproc
 1292              	.LFE47:
 1294              		.section	.text.HAL_DMA_RegisterCallback,"ax",%progbits
 1295              		.align	1
 1296              		.global	HAL_DMA_RegisterCallback
 1297              		.syntax unified
 1298              		.code	16
 1299              		.thumb_func
 1300              		.fpu softvfp
 1302              	HAL_DMA_RegisterCallback:
 1303              	.LVL89:
 1304              	.LFB48:
 663:Drivers/STM32F0xx_HAL_Driver/Src/stm32f0xx_hal_dma.c ****   HAL_StatusTypeDef status = HAL_OK;
 1305              		.loc 1 663 1 is_stmt 1 view -0
 1306              		.cfi_startproc
 1307              		@ args = 0, pretend = 0, frame = 0
 1308              		@ frame_needed = 0, uses_anonymous_args = 0
 663:Drivers/STM32F0xx_HAL_Driver/Src/stm32f0xx_hal_dma.c ****   HAL_StatusTypeDef status = HAL_OK;
 1309              		.loc 1 663 1 is_stmt 0 view .LVU447
 1310 0000 10B5     		push	{r4, lr}
 1311              	.LCFI11:
 1312              		.cfi_def_cfa_offset 8
 1313              		.cfi_offset 4, -8
 1314              		.cfi_offset 14, -4
 1315 0002 0300     		movs	r3, r0
 664:Drivers/STM32F0xx_HAL_Driver/Src/stm32f0xx_hal_dma.c ****   
 1316              		.loc 1 664 3 is_stmt 1 view .LVU448
 1317              	.LVL90:
 667:Drivers/STM32F0xx_HAL_Driver/Src/stm32f0xx_hal_dma.c ****   
 1318              		.loc 1 667 3 view .LVU449
 667:Drivers/STM32F0xx_HAL_Driver/Src/stm32f0xx_hal_dma.c ****   
 1319              		.loc 1 667 3 view .LVU450
 1320 0004 2020     		movs	r0, #32
 1321              	.LVL91:
 667:Drivers/STM32F0xx_HAL_Driver/Src/stm32f0xx_hal_dma.c ****   
 1322              		.loc 1 667 3 is_stmt 0 view .LVU451
 1323 0006 185C     		ldrb	r0, [r3, r0]
 1324 0008 0128     		cmp	r0, #1
 1325 000a 1ED0     		beq	.L67
 667:Drivers/STM32F0xx_HAL_Driver/Src/stm32f0xx_hal_dma.c ****   
 1326              		.loc 1 667 3 is_stmt 1 discriminator 2 view .LVU452
 667:Drivers/STM32F0xx_HAL_Driver/Src/stm32f0xx_hal_dma.c ****   
 1327              		.loc 1 667 3 discriminator 2 view .LVU453
 669:Drivers/STM32F0xx_HAL_Driver/Src/stm32f0xx_hal_dma.c ****   {
 1328              		.loc 1 669 3 discriminator 2 view .LVU454
 669:Drivers/STM32F0xx_HAL_Driver/Src/stm32f0xx_hal_dma.c ****   {
 1329              		.loc 1 669 33 is_stmt 0 discriminator 2 view .LVU455
 1330 000c 2120     		movs	r0, #33
 1331 000e 1C5C     		ldrb	r4, [r3, r0]
 1332 0010 E0B2     		uxtb	r0, r4
 669:Drivers/STM32F0xx_HAL_Driver/Src/stm32f0xx_hal_dma.c ****   {
 1333              		.loc 1 669 5 discriminator 2 view .LVU456
 1334 0012 012C     		cmp	r4, #1
 1335 0014 04D0     		beq	.L69
 696:Drivers/STM32F0xx_HAL_Driver/Src/stm32f0xx_hal_dma.c ****   } 
 1336              		.loc 1 696 12 view .LVU457
 1337 0016 0120     		movs	r0, #1
ARM GAS  C:\Users\Vulca\AppData\Local\Temp\ccgcmgtb.s 			page 47


 1338              	.L61:
 1339              	.LVL92:
 700:Drivers/STM32F0xx_HAL_Driver/Src/stm32f0xx_hal_dma.c ****   
 1340              		.loc 1 700 3 is_stmt 1 view .LVU458
 700:Drivers/STM32F0xx_HAL_Driver/Src/stm32f0xx_hal_dma.c ****   
 1341              		.loc 1 700 3 view .LVU459
 1342 0018 2022     		movs	r2, #32
 1343              	.LVL93:
 700:Drivers/STM32F0xx_HAL_Driver/Src/stm32f0xx_hal_dma.c ****   
 1344              		.loc 1 700 3 is_stmt 0 view .LVU460
 1345 001a 0021     		movs	r1, #0
 1346              	.LVL94:
 700:Drivers/STM32F0xx_HAL_Driver/Src/stm32f0xx_hal_dma.c ****   
 1347              		.loc 1 700 3 view .LVU461
 1348 001c 9954     		strb	r1, [r3, r2]
 700:Drivers/STM32F0xx_HAL_Driver/Src/stm32f0xx_hal_dma.c ****   
 1349              		.loc 1 700 3 is_stmt 1 view .LVU462
 702:Drivers/STM32F0xx_HAL_Driver/Src/stm32f0xx_hal_dma.c **** }
 1350              		.loc 1 702 3 view .LVU463
 1351              	.LVL95:
 1352              	.L60:
 703:Drivers/STM32F0xx_HAL_Driver/Src/stm32f0xx_hal_dma.c **** 
 1353              		.loc 1 703 1 is_stmt 0 view .LVU464
 1354              		@ sp needed
 1355 001e 10BD     		pop	{r4, pc}
 1356              	.LVL96:
 1357              	.L69:
 671:Drivers/STM32F0xx_HAL_Driver/Src/stm32f0xx_hal_dma.c ****     {
 1358              		.loc 1 671 5 is_stmt 1 view .LVU465
 1359 0020 0229     		cmp	r1, #2
 1360 0022 0FD0     		beq	.L62
 1361 0024 06D8     		bhi	.L63
 1362 0026 0029     		cmp	r1, #0
 1363 0028 09D0     		beq	.L64
 1364 002a 0129     		cmp	r1, #1
 1365 002c F4D1     		bne	.L61
 678:Drivers/STM32F0xx_HAL_Driver/Src/stm32f0xx_hal_dma.c ****            break;         
 1366              		.loc 1 678 12 view .LVU466
 678:Drivers/STM32F0xx_HAL_Driver/Src/stm32f0xx_hal_dma.c ****            break;         
 1367              		.loc 1 678 39 is_stmt 0 view .LVU467
 1368 002e DA62     		str	r2, [r3, #44]
 679:Drivers/STM32F0xx_HAL_Driver/Src/stm32f0xx_hal_dma.c **** 
 1369              		.loc 1 679 12 is_stmt 1 view .LVU468
 664:Drivers/STM32F0xx_HAL_Driver/Src/stm32f0xx_hal_dma.c ****   
 1370              		.loc 1 664 21 is_stmt 0 view .LVU469
 1371 0030 0020     		movs	r0, #0
 679:Drivers/STM32F0xx_HAL_Driver/Src/stm32f0xx_hal_dma.c **** 
 1372              		.loc 1 679 12 view .LVU470
 1373 0032 F1E7     		b	.L61
 1374              	.L63:
 671:Drivers/STM32F0xx_HAL_Driver/Src/stm32f0xx_hal_dma.c ****     {
 1375              		.loc 1 671 5 view .LVU471
 1376 0034 0329     		cmp	r1, #3
 1377 0036 EFD1     		bne	.L61
 686:Drivers/STM32F0xx_HAL_Driver/Src/stm32f0xx_hal_dma.c ****            break; 
 1378              		.loc 1 686 12 is_stmt 1 view .LVU472
 686:Drivers/STM32F0xx_HAL_Driver/Src/stm32f0xx_hal_dma.c ****            break; 
ARM GAS  C:\Users\Vulca\AppData\Local\Temp\ccgcmgtb.s 			page 48


 1379              		.loc 1 686 36 is_stmt 0 view .LVU473
 1380 0038 5A63     		str	r2, [r3, #52]
 687:Drivers/STM32F0xx_HAL_Driver/Src/stm32f0xx_hal_dma.c ****            
 1381              		.loc 1 687 12 is_stmt 1 view .LVU474
 664:Drivers/STM32F0xx_HAL_Driver/Src/stm32f0xx_hal_dma.c ****   
 1382              		.loc 1 664 21 is_stmt 0 view .LVU475
 1383 003a 0020     		movs	r0, #0
 687:Drivers/STM32F0xx_HAL_Driver/Src/stm32f0xx_hal_dma.c ****            
 1384              		.loc 1 687 12 view .LVU476
 1385 003c ECE7     		b	.L61
 1386              	.L64:
 674:Drivers/STM32F0xx_HAL_Driver/Src/stm32f0xx_hal_dma.c ****            break;
 1387              		.loc 1 674 12 is_stmt 1 view .LVU477
 674:Drivers/STM32F0xx_HAL_Driver/Src/stm32f0xx_hal_dma.c ****            break;
 1388              		.loc 1 674 35 is_stmt 0 view .LVU478
 1389 003e 9A62     		str	r2, [r3, #40]
 675:Drivers/STM32F0xx_HAL_Driver/Src/stm32f0xx_hal_dma.c ****        
 1390              		.loc 1 675 12 is_stmt 1 view .LVU479
 664:Drivers/STM32F0xx_HAL_Driver/Src/stm32f0xx_hal_dma.c ****   
 1391              		.loc 1 664 21 is_stmt 0 view .LVU480
 1392 0040 0800     		movs	r0, r1
 675:Drivers/STM32F0xx_HAL_Driver/Src/stm32f0xx_hal_dma.c ****        
 1393              		.loc 1 675 12 view .LVU481
 1394 0042 E9E7     		b	.L61
 1395              	.L62:
 682:Drivers/STM32F0xx_HAL_Driver/Src/stm32f0xx_hal_dma.c ****            break;         
 1396              		.loc 1 682 12 is_stmt 1 view .LVU482
 682:Drivers/STM32F0xx_HAL_Driver/Src/stm32f0xx_hal_dma.c ****            break;         
 1397              		.loc 1 682 36 is_stmt 0 view .LVU483
 1398 0044 1A63     		str	r2, [r3, #48]
 683:Drivers/STM32F0xx_HAL_Driver/Src/stm32f0xx_hal_dma.c ****            
 1399              		.loc 1 683 12 is_stmt 1 view .LVU484
 664:Drivers/STM32F0xx_HAL_Driver/Src/stm32f0xx_hal_dma.c ****   
 1400              		.loc 1 664 21 is_stmt 0 view .LVU485
 1401 0046 0020     		movs	r0, #0
 683:Drivers/STM32F0xx_HAL_Driver/Src/stm32f0xx_hal_dma.c ****            
 1402              		.loc 1 683 12 view .LVU486
 1403 0048 E6E7     		b	.L61
 1404              	.L67:
 667:Drivers/STM32F0xx_HAL_Driver/Src/stm32f0xx_hal_dma.c ****   
 1405              		.loc 1 667 3 view .LVU487
 1406 004a 0220     		movs	r0, #2
 1407 004c E7E7     		b	.L60
 1408              		.cfi_endproc
 1409              	.LFE48:
 1411              		.section	.text.HAL_DMA_UnRegisterCallback,"ax",%progbits
 1412              		.align	1
 1413              		.global	HAL_DMA_UnRegisterCallback
 1414              		.syntax unified
 1415              		.code	16
 1416              		.thumb_func
 1417              		.fpu softvfp
 1419              	HAL_DMA_UnRegisterCallback:
 1420              	.LVL97:
 1421              	.LFB49:
 714:Drivers/STM32F0xx_HAL_Driver/Src/stm32f0xx_hal_dma.c ****   HAL_StatusTypeDef status = HAL_OK;
 1422              		.loc 1 714 1 is_stmt 1 view -0
ARM GAS  C:\Users\Vulca\AppData\Local\Temp\ccgcmgtb.s 			page 49


 1423              		.cfi_startproc
 1424              		@ args = 0, pretend = 0, frame = 0
 1425              		@ frame_needed = 0, uses_anonymous_args = 0
 1426              		@ link register save eliminated.
 714:Drivers/STM32F0xx_HAL_Driver/Src/stm32f0xx_hal_dma.c ****   HAL_StatusTypeDef status = HAL_OK;
 1427              		.loc 1 714 1 is_stmt 0 view .LVU489
 1428 0000 0300     		movs	r3, r0
 715:Drivers/STM32F0xx_HAL_Driver/Src/stm32f0xx_hal_dma.c **** 
 1429              		.loc 1 715 3 is_stmt 1 view .LVU490
 1430              	.LVL98:
 718:Drivers/STM32F0xx_HAL_Driver/Src/stm32f0xx_hal_dma.c ****   
 1431              		.loc 1 718 3 view .LVU491
 718:Drivers/STM32F0xx_HAL_Driver/Src/stm32f0xx_hal_dma.c ****   
 1432              		.loc 1 718 3 view .LVU492
 1433 0002 2022     		movs	r2, #32
 1434 0004 825C     		ldrb	r2, [r0, r2]
 1435 0006 012A     		cmp	r2, #1
 1436 0008 29D0     		beq	.L79
 718:Drivers/STM32F0xx_HAL_Driver/Src/stm32f0xx_hal_dma.c ****   
 1437              		.loc 1 718 3 discriminator 2 view .LVU493
 1438 000a 2022     		movs	r2, #32
 1439 000c 0120     		movs	r0, #1
 1440              	.LVL99:
 718:Drivers/STM32F0xx_HAL_Driver/Src/stm32f0xx_hal_dma.c ****   
 1441              		.loc 1 718 3 is_stmt 0 discriminator 2 view .LVU494
 1442 000e 9854     		strb	r0, [r3, r2]
 718:Drivers/STM32F0xx_HAL_Driver/Src/stm32f0xx_hal_dma.c ****   
 1443              		.loc 1 718 3 is_stmt 1 discriminator 2 view .LVU495
 720:Drivers/STM32F0xx_HAL_Driver/Src/stm32f0xx_hal_dma.c ****   {
 1444              		.loc 1 720 3 discriminator 2 view .LVU496
 720:Drivers/STM32F0xx_HAL_Driver/Src/stm32f0xx_hal_dma.c ****   {
 1445              		.loc 1 720 33 is_stmt 0 discriminator 2 view .LVU497
 1446 0010 0132     		adds	r2, r2, #1
 1447 0012 9A5C     		ldrb	r2, [r3, r2]
 1448 0014 D0B2     		uxtb	r0, r2
 720:Drivers/STM32F0xx_HAL_Driver/Src/stm32f0xx_hal_dma.c ****   {
 1449              		.loc 1 720 5 discriminator 2 view .LVU498
 1450 0016 012A     		cmp	r2, #1
 1451 0018 04D0     		beq	.L81
 754:Drivers/STM32F0xx_HAL_Driver/Src/stm32f0xx_hal_dma.c ****   } 
 1452              		.loc 1 754 12 view .LVU499
 1453 001a 0120     		movs	r0, #1
 1454              	.L72:
 1455              	.LVL100:
 758:Drivers/STM32F0xx_HAL_Driver/Src/stm32f0xx_hal_dma.c ****   
 1456              		.loc 1 758 3 is_stmt 1 view .LVU500
 758:Drivers/STM32F0xx_HAL_Driver/Src/stm32f0xx_hal_dma.c ****   
 1457              		.loc 1 758 3 view .LVU501
 1458 001c 2022     		movs	r2, #32
 1459 001e 0021     		movs	r1, #0
 1460              	.LVL101:
 758:Drivers/STM32F0xx_HAL_Driver/Src/stm32f0xx_hal_dma.c ****   
 1461              		.loc 1 758 3 is_stmt 0 view .LVU502
 1462 0020 9954     		strb	r1, [r3, r2]
 758:Drivers/STM32F0xx_HAL_Driver/Src/stm32f0xx_hal_dma.c ****   
 1463              		.loc 1 758 3 is_stmt 1 view .LVU503
 760:Drivers/STM32F0xx_HAL_Driver/Src/stm32f0xx_hal_dma.c **** }
ARM GAS  C:\Users\Vulca\AppData\Local\Temp\ccgcmgtb.s 			page 50


 1464              		.loc 1 760 3 view .LVU504
 1465              	.LVL102:
 1466              	.L71:
 761:Drivers/STM32F0xx_HAL_Driver/Src/stm32f0xx_hal_dma.c **** 
 1467              		.loc 1 761 1 is_stmt 0 view .LVU505
 1468              		@ sp needed
 1469 0022 7047     		bx	lr
 1470              	.LVL103:
 1471              	.L81:
 722:Drivers/STM32F0xx_HAL_Driver/Src/stm32f0xx_hal_dma.c ****     {
 1472              		.loc 1 722 5 is_stmt 1 view .LVU506
 1473 0024 0429     		cmp	r1, #4
 1474 0026 F9D8     		bhi	.L72
 1475 0028 8A00     		lsls	r2, r1, #2
 1476 002a 0E48     		ldr	r0, .L82
 1477 002c 8258     		ldr	r2, [r0, r2]
 1478 002e 9746     		mov	pc, r2
 1479              		.section	.rodata.HAL_DMA_UnRegisterCallback,"a",%progbits
 1480              		.align	2
 1481              	.L74:
 1482 0000 30000000 		.word	.L78
 1483 0004 38000000 		.word	.L77
 1484 0008 40000000 		.word	.L76
 1485 000c 48000000 		.word	.L75
 1486 0010 50000000 		.word	.L73
 1487              		.section	.text.HAL_DMA_UnRegisterCallback
 1488              	.L78:
 725:Drivers/STM32F0xx_HAL_Driver/Src/stm32f0xx_hal_dma.c ****            break;
 1489              		.loc 1 725 12 view .LVU507
 725:Drivers/STM32F0xx_HAL_Driver/Src/stm32f0xx_hal_dma.c ****            break;
 1490              		.loc 1 725 35 is_stmt 0 view .LVU508
 1491 0030 0022     		movs	r2, #0
 1492 0032 9A62     		str	r2, [r3, #40]
 726:Drivers/STM32F0xx_HAL_Driver/Src/stm32f0xx_hal_dma.c ****        
 1493              		.loc 1 726 12 is_stmt 1 view .LVU509
 715:Drivers/STM32F0xx_HAL_Driver/Src/stm32f0xx_hal_dma.c **** 
 1494              		.loc 1 715 21 is_stmt 0 view .LVU510
 1495 0034 0800     		movs	r0, r1
 726:Drivers/STM32F0xx_HAL_Driver/Src/stm32f0xx_hal_dma.c ****        
 1496              		.loc 1 726 12 view .LVU511
 1497 0036 F1E7     		b	.L72
 1498              	.L77:
 729:Drivers/STM32F0xx_HAL_Driver/Src/stm32f0xx_hal_dma.c ****            break;         
 1499              		.loc 1 729 12 is_stmt 1 view .LVU512
 729:Drivers/STM32F0xx_HAL_Driver/Src/stm32f0xx_hal_dma.c ****            break;         
 1500              		.loc 1 729 39 is_stmt 0 view .LVU513
 1501 0038 0022     		movs	r2, #0
 1502 003a DA62     		str	r2, [r3, #44]
 730:Drivers/STM32F0xx_HAL_Driver/Src/stm32f0xx_hal_dma.c **** 
 1503              		.loc 1 730 12 is_stmt 1 view .LVU514
 715:Drivers/STM32F0xx_HAL_Driver/Src/stm32f0xx_hal_dma.c **** 
 1504              		.loc 1 715 21 is_stmt 0 view .LVU515
 1505 003c 0020     		movs	r0, #0
 730:Drivers/STM32F0xx_HAL_Driver/Src/stm32f0xx_hal_dma.c **** 
 1506              		.loc 1 730 12 view .LVU516
 1507 003e EDE7     		b	.L72
 1508              	.L76:
ARM GAS  C:\Users\Vulca\AppData\Local\Temp\ccgcmgtb.s 			page 51


 733:Drivers/STM32F0xx_HAL_Driver/Src/stm32f0xx_hal_dma.c ****            break;         
 1509              		.loc 1 733 12 is_stmt 1 view .LVU517
 733:Drivers/STM32F0xx_HAL_Driver/Src/stm32f0xx_hal_dma.c ****            break;         
 1510              		.loc 1 733 36 is_stmt 0 view .LVU518
 1511 0040 0022     		movs	r2, #0
 1512 0042 1A63     		str	r2, [r3, #48]
 734:Drivers/STM32F0xx_HAL_Driver/Src/stm32f0xx_hal_dma.c ****            
 1513              		.loc 1 734 12 is_stmt 1 view .LVU519
 715:Drivers/STM32F0xx_HAL_Driver/Src/stm32f0xx_hal_dma.c **** 
 1514              		.loc 1 715 21 is_stmt 0 view .LVU520
 1515 0044 0020     		movs	r0, #0
 734:Drivers/STM32F0xx_HAL_Driver/Src/stm32f0xx_hal_dma.c ****            
 1516              		.loc 1 734 12 view .LVU521
 1517 0046 E9E7     		b	.L72
 1518              	.L75:
 737:Drivers/STM32F0xx_HAL_Driver/Src/stm32f0xx_hal_dma.c ****            break; 
 1519              		.loc 1 737 12 is_stmt 1 view .LVU522
 737:Drivers/STM32F0xx_HAL_Driver/Src/stm32f0xx_hal_dma.c ****            break; 
 1520              		.loc 1 737 36 is_stmt 0 view .LVU523
 1521 0048 0022     		movs	r2, #0
 1522 004a 5A63     		str	r2, [r3, #52]
 738:Drivers/STM32F0xx_HAL_Driver/Src/stm32f0xx_hal_dma.c ****      
 1523              		.loc 1 738 12 is_stmt 1 view .LVU524
 715:Drivers/STM32F0xx_HAL_Driver/Src/stm32f0xx_hal_dma.c **** 
 1524              		.loc 1 715 21 is_stmt 0 view .LVU525
 1525 004c 0020     		movs	r0, #0
 738:Drivers/STM32F0xx_HAL_Driver/Src/stm32f0xx_hal_dma.c ****      
 1526              		.loc 1 738 12 view .LVU526
 1527 004e E5E7     		b	.L72
 1528              	.L73:
 741:Drivers/STM32F0xx_HAL_Driver/Src/stm32f0xx_hal_dma.c ****            hdma->XferHalfCpltCallback = NULL;
 1529              		.loc 1 741 12 is_stmt 1 view .LVU527
 741:Drivers/STM32F0xx_HAL_Driver/Src/stm32f0xx_hal_dma.c ****            hdma->XferHalfCpltCallback = NULL;
 1530              		.loc 1 741 35 is_stmt 0 view .LVU528
 1531 0050 0022     		movs	r2, #0
 1532 0052 9A62     		str	r2, [r3, #40]
 742:Drivers/STM32F0xx_HAL_Driver/Src/stm32f0xx_hal_dma.c ****            hdma->XferErrorCallback = NULL;
 1533              		.loc 1 742 12 is_stmt 1 view .LVU529
 742:Drivers/STM32F0xx_HAL_Driver/Src/stm32f0xx_hal_dma.c ****            hdma->XferErrorCallback = NULL;
 1534              		.loc 1 742 39 is_stmt 0 view .LVU530
 1535 0054 DA62     		str	r2, [r3, #44]
 743:Drivers/STM32F0xx_HAL_Driver/Src/stm32f0xx_hal_dma.c ****            hdma->XferAbortCallback = NULL;
 1536              		.loc 1 743 12 is_stmt 1 view .LVU531
 743:Drivers/STM32F0xx_HAL_Driver/Src/stm32f0xx_hal_dma.c ****            hdma->XferAbortCallback = NULL;
 1537              		.loc 1 743 36 is_stmt 0 view .LVU532
 1538 0056 1A63     		str	r2, [r3, #48]
 744:Drivers/STM32F0xx_HAL_Driver/Src/stm32f0xx_hal_dma.c ****            break; 
 1539              		.loc 1 744 12 is_stmt 1 view .LVU533
 744:Drivers/STM32F0xx_HAL_Driver/Src/stm32f0xx_hal_dma.c ****            break; 
 1540              		.loc 1 744 36 is_stmt 0 view .LVU534
 1541 0058 5A63     		str	r2, [r3, #52]
 745:Drivers/STM32F0xx_HAL_Driver/Src/stm32f0xx_hal_dma.c ****      
 1542              		.loc 1 745 12 is_stmt 1 view .LVU535
 715:Drivers/STM32F0xx_HAL_Driver/Src/stm32f0xx_hal_dma.c **** 
 1543              		.loc 1 715 21 is_stmt 0 view .LVU536
 1544 005a 0020     		movs	r0, #0
 745:Drivers/STM32F0xx_HAL_Driver/Src/stm32f0xx_hal_dma.c ****      
ARM GAS  C:\Users\Vulca\AppData\Local\Temp\ccgcmgtb.s 			page 52


 1545              		.loc 1 745 12 view .LVU537
 1546 005c DEE7     		b	.L72
 1547              	.LVL104:
 1548              	.L79:
 718:Drivers/STM32F0xx_HAL_Driver/Src/stm32f0xx_hal_dma.c ****   
 1549              		.loc 1 718 3 view .LVU538
 1550 005e 0220     		movs	r0, #2
 1551              	.LVL105:
 718:Drivers/STM32F0xx_HAL_Driver/Src/stm32f0xx_hal_dma.c ****   
 1552              		.loc 1 718 3 view .LVU539
 1553 0060 DFE7     		b	.L71
 1554              	.L83:
 1555 0062 C046     		.align	2
 1556              	.L82:
 1557 0064 00000000 		.word	.L74
 1558              		.cfi_endproc
 1559              	.LFE49:
 1561              		.section	.text.HAL_DMA_GetState,"ax",%progbits
 1562              		.align	1
 1563              		.global	HAL_DMA_GetState
 1564              		.syntax unified
 1565              		.code	16
 1566              		.thumb_func
 1567              		.fpu softvfp
 1569              	HAL_DMA_GetState:
 1570              	.LVL106:
 1571              	.LFB50:
 790:Drivers/STM32F0xx_HAL_Driver/Src/stm32f0xx_hal_dma.c ****   return hdma->State;
 1572              		.loc 1 790 1 is_stmt 1 view -0
 1573              		.cfi_startproc
 1574              		@ args = 0, pretend = 0, frame = 0
 1575              		@ frame_needed = 0, uses_anonymous_args = 0
 1576              		@ link register save eliminated.
 791:Drivers/STM32F0xx_HAL_Driver/Src/stm32f0xx_hal_dma.c **** }
 1577              		.loc 1 791 3 view .LVU541
 791:Drivers/STM32F0xx_HAL_Driver/Src/stm32f0xx_hal_dma.c **** }
 1578              		.loc 1 791 14 is_stmt 0 view .LVU542
 1579 0000 2123     		movs	r3, #33
 1580 0002 C05C     		ldrb	r0, [r0, r3]
 1581              	.LVL107:
 791:Drivers/STM32F0xx_HAL_Driver/Src/stm32f0xx_hal_dma.c **** }
 1582              		.loc 1 791 14 view .LVU543
 1583 0004 C0B2     		uxtb	r0, r0
 792:Drivers/STM32F0xx_HAL_Driver/Src/stm32f0xx_hal_dma.c **** 
 1584              		.loc 1 792 1 view .LVU544
 1585              		@ sp needed
 1586 0006 7047     		bx	lr
 1587              		.cfi_endproc
 1588              	.LFE50:
 1590              		.section	.text.HAL_DMA_GetError,"ax",%progbits
 1591              		.align	1
 1592              		.global	HAL_DMA_GetError
 1593              		.syntax unified
 1594              		.code	16
 1595              		.thumb_func
 1596              		.fpu softvfp
 1598              	HAL_DMA_GetError:
ARM GAS  C:\Users\Vulca\AppData\Local\Temp\ccgcmgtb.s 			page 53


 1599              	.LVL108:
 1600              	.LFB51:
 801:Drivers/STM32F0xx_HAL_Driver/Src/stm32f0xx_hal_dma.c ****   return hdma->ErrorCode;
 1601              		.loc 1 801 1 is_stmt 1 view -0
 1602              		.cfi_startproc
 1603              		@ args = 0, pretend = 0, frame = 0
 1604              		@ frame_needed = 0, uses_anonymous_args = 0
 1605              		@ link register save eliminated.
 802:Drivers/STM32F0xx_HAL_Driver/Src/stm32f0xx_hal_dma.c **** }
 1606              		.loc 1 802 3 view .LVU546
 802:Drivers/STM32F0xx_HAL_Driver/Src/stm32f0xx_hal_dma.c **** }
 1607              		.loc 1 802 14 is_stmt 0 view .LVU547
 1608 0000 806B     		ldr	r0, [r0, #56]
 1609              	.LVL109:
 803:Drivers/STM32F0xx_HAL_Driver/Src/stm32f0xx_hal_dma.c **** 
 1610              		.loc 1 803 1 view .LVU548
 1611              		@ sp needed
 1612 0002 7047     		bx	lr
 1613              		.cfi_endproc
 1614              	.LFE51:
 1616              		.text
 1617              	.Letext0:
 1618              		.file 2 "c:\\program files (x86)\\gnu tools arm embedded\\9 2019-q4-major\\arm-none-eabi\\include\
 1619              		.file 3 "c:\\program files (x86)\\gnu tools arm embedded\\9 2019-q4-major\\arm-none-eabi\\include\
 1620              		.file 4 "Drivers/CMSIS/Device/ST/STM32F0xx/Include/system_stm32f0xx.h"
 1621              		.file 5 "Drivers/CMSIS/Device/ST/STM32F0xx/Include/stm32f091xc.h"
 1622              		.file 6 "Drivers/CMSIS/Device/ST/STM32F0xx/Include/stm32f0xx.h"
 1623              		.file 7 "Drivers/STM32F0xx_HAL_Driver/Inc/stm32f0xx_hal_def.h"
 1624              		.file 8 "Drivers/STM32F0xx_HAL_Driver/Inc/stm32f0xx_hal_dma.h"
 1625              		.file 9 "Drivers/STM32F0xx_HAL_Driver/Inc/stm32f0xx_hal.h"
ARM GAS  C:\Users\Vulca\AppData\Local\Temp\ccgcmgtb.s 			page 54


DEFINED SYMBOLS
                            *ABS*:00000000 stm32f0xx_hal_dma.c
C:\Users\Vulca\AppData\Local\Temp\ccgcmgtb.s:16     .text.DMA_SetConfig:00000000 $t
C:\Users\Vulca\AppData\Local\Temp\ccgcmgtb.s:23     .text.DMA_SetConfig:00000000 DMA_SetConfig
C:\Users\Vulca\AppData\Local\Temp\ccgcmgtb.s:94     .text.DMA_CalcBaseAndBitshift:00000000 $t
C:\Users\Vulca\AppData\Local\Temp\ccgcmgtb.s:100    .text.DMA_CalcBaseAndBitshift:00000000 DMA_CalcBaseAndBitshift
C:\Users\Vulca\AppData\Local\Temp\ccgcmgtb.s:169    .text.DMA_CalcBaseAndBitshift:00000038 $d
C:\Users\Vulca\AppData\Local\Temp\ccgcmgtb.s:178    .text.HAL_DMA_Init:00000000 $t
C:\Users\Vulca\AppData\Local\Temp\ccgcmgtb.s:185    .text.HAL_DMA_Init:00000000 HAL_DMA_Init
C:\Users\Vulca\AppData\Local\Temp\ccgcmgtb.s:293    .text.HAL_DMA_Init:0000004c $d
C:\Users\Vulca\AppData\Local\Temp\ccgcmgtb.s:298    .text.HAL_DMA_DeInit:00000000 $t
C:\Users\Vulca\AppData\Local\Temp\ccgcmgtb.s:305    .text.HAL_DMA_DeInit:00000000 HAL_DMA_DeInit
C:\Users\Vulca\AppData\Local\Temp\ccgcmgtb.s:409    .text.HAL_DMA_Start:00000000 $t
C:\Users\Vulca\AppData\Local\Temp\ccgcmgtb.s:416    .text.HAL_DMA_Start:00000000 HAL_DMA_Start
C:\Users\Vulca\AppData\Local\Temp\ccgcmgtb.s:518    .text.HAL_DMA_Start_IT:00000000 $t
C:\Users\Vulca\AppData\Local\Temp\ccgcmgtb.s:525    .text.HAL_DMA_Start_IT:00000000 HAL_DMA_Start_IT
C:\Users\Vulca\AppData\Local\Temp\ccgcmgtb.s:660    .text.HAL_DMA_Abort:00000000 $t
C:\Users\Vulca\AppData\Local\Temp\ccgcmgtb.s:667    .text.HAL_DMA_Abort:00000000 HAL_DMA_Abort
C:\Users\Vulca\AppData\Local\Temp\ccgcmgtb.s:752    .text.HAL_DMA_Abort_IT:00000000 $t
C:\Users\Vulca\AppData\Local\Temp\ccgcmgtb.s:759    .text.HAL_DMA_Abort_IT:00000000 HAL_DMA_Abort_IT
C:\Users\Vulca\AppData\Local\Temp\ccgcmgtb.s:855    .text.HAL_DMA_PollForTransfer:00000000 $t
C:\Users\Vulca\AppData\Local\Temp\ccgcmgtb.s:862    .text.HAL_DMA_PollForTransfer:00000000 HAL_DMA_PollForTransfer
C:\Users\Vulca\AppData\Local\Temp\ccgcmgtb.s:1094   .text.HAL_DMA_IRQHandler:00000000 $t
C:\Users\Vulca\AppData\Local\Temp\ccgcmgtb.s:1101   .text.HAL_DMA_IRQHandler:00000000 HAL_DMA_IRQHandler
C:\Users\Vulca\AppData\Local\Temp\ccgcmgtb.s:1295   .text.HAL_DMA_RegisterCallback:00000000 $t
C:\Users\Vulca\AppData\Local\Temp\ccgcmgtb.s:1302   .text.HAL_DMA_RegisterCallback:00000000 HAL_DMA_RegisterCallback
C:\Users\Vulca\AppData\Local\Temp\ccgcmgtb.s:1412   .text.HAL_DMA_UnRegisterCallback:00000000 $t
C:\Users\Vulca\AppData\Local\Temp\ccgcmgtb.s:1419   .text.HAL_DMA_UnRegisterCallback:00000000 HAL_DMA_UnRegisterCallback
C:\Users\Vulca\AppData\Local\Temp\ccgcmgtb.s:1480   .rodata.HAL_DMA_UnRegisterCallback:00000000 $d
C:\Users\Vulca\AppData\Local\Temp\ccgcmgtb.s:1557   .text.HAL_DMA_UnRegisterCallback:00000064 $d
C:\Users\Vulca\AppData\Local\Temp\ccgcmgtb.s:1562   .text.HAL_DMA_GetState:00000000 $t
C:\Users\Vulca\AppData\Local\Temp\ccgcmgtb.s:1569   .text.HAL_DMA_GetState:00000000 HAL_DMA_GetState
C:\Users\Vulca\AppData\Local\Temp\ccgcmgtb.s:1591   .text.HAL_DMA_GetError:00000000 $t
C:\Users\Vulca\AppData\Local\Temp\ccgcmgtb.s:1598   .text.HAL_DMA_GetError:00000000 HAL_DMA_GetError

UNDEFINED SYMBOLS
__aeabi_uidiv
HAL_GetTick
