ARM GAS  C:\Users\Vulca\AppData\Local\Temp\ccQvqMLk.s 			page 1


   1              		.cpu cortex-m0
   2              		.eabi_attribute 20, 1
   3              		.eabi_attribute 21, 1
   4              		.eabi_attribute 23, 3
   5              		.eabi_attribute 24, 1
   6              		.eabi_attribute 25, 1
   7              		.eabi_attribute 26, 1
   8              		.eabi_attribute 30, 1
   9              		.eabi_attribute 34, 0
  10              		.eabi_attribute 18, 4
  11              		.file	"main.c"
  12              		.text
  13              	.Ltext0:
  14              		.cfi_sections	.debug_frame
  15              		.section	.text.MX_GPIO_Init,"ax",%progbits
  16              		.align	1
  17              		.arch armv6s-m
  18              		.syntax unified
  19              		.code	16
  20              		.thumb_func
  21              		.fpu softvfp
  23              	MX_GPIO_Init:
  24              	.LFB43:
  25              		.file 1 "Src/main.c"
   1:Src/main.c    **** /* USER CODE BEGIN Header */
   2:Src/main.c    **** /**
   3:Src/main.c    ****   ******************************************************************************
   4:Src/main.c    ****   * @file           : main.c
   5:Src/main.c    ****   * @brief          : Main program body
   6:Src/main.c    ****   ******************************************************************************
   7:Src/main.c    ****   * @attention
   8:Src/main.c    ****   *
   9:Src/main.c    ****   * <h2><center>&copy; Copyright (c) 2020 STMicroelectronics.
  10:Src/main.c    ****   * All rights reserved.</center></h2>
  11:Src/main.c    ****   *
  12:Src/main.c    ****   * This software component is licensed by ST under BSD 3-Clause license,
  13:Src/main.c    ****   * the "License"; You may not use this file except in compliance with the
  14:Src/main.c    ****   * License. You may obtain a copy of the License at:
  15:Src/main.c    ****   *                        opensource.org/licenses/BSD-3-Clause
  16:Src/main.c    ****   *
  17:Src/main.c    ****   ******************************************************************************
  18:Src/main.c    ****   */
  19:Src/main.c    **** /* USER CODE END Header */
  20:Src/main.c    **** 
  21:Src/main.c    **** /* Includes ------------------------------------------------------------------*/
  22:Src/main.c    **** #include "main.h"
  23:Src/main.c    **** 
  24:Src/main.c    **** /* Private includes ----------------------------------------------------------*/
  25:Src/main.c    **** /* USER CODE BEGIN Includes */
  26:Src/main.c    **** 
  27:Src/main.c    **** /* USER CODE END Includes */
  28:Src/main.c    **** 
  29:Src/main.c    **** /* Private typedef -----------------------------------------------------------*/
  30:Src/main.c    **** /* USER CODE BEGIN PTD */
  31:Src/main.c    **** 
  32:Src/main.c    **** /* USER CODE END PTD */
  33:Src/main.c    **** 
ARM GAS  C:\Users\Vulca\AppData\Local\Temp\ccQvqMLk.s 			page 2


  34:Src/main.c    **** /* Private define ------------------------------------------------------------*/
  35:Src/main.c    **** /* USER CODE BEGIN PD */
  36:Src/main.c    **** /* USER CODE END PD */
  37:Src/main.c    **** 
  38:Src/main.c    **** /* Private macro -------------------------------------------------------------*/
  39:Src/main.c    **** /* USER CODE BEGIN PM */
  40:Src/main.c    **** 
  41:Src/main.c    **** /* USER CODE END PM */
  42:Src/main.c    **** 
  43:Src/main.c    **** /* Private variables ---------------------------------------------------------*/
  44:Src/main.c    **** UART_HandleTypeDef huart2;
  45:Src/main.c    **** 
  46:Src/main.c    **** /* USER CODE BEGIN PV */
  47:Src/main.c    **** 
  48:Src/main.c    **** /* USER CODE END PV */
  49:Src/main.c    **** 
  50:Src/main.c    **** /* Private function prototypes -----------------------------------------------*/
  51:Src/main.c    **** void SystemClock_Config(void);
  52:Src/main.c    **** static void MX_GPIO_Init(void);
  53:Src/main.c    **** static void MX_USART2_UART_Init(void);
  54:Src/main.c    **** /* USER CODE BEGIN PFP */
  55:Src/main.c    **** 
  56:Src/main.c    **** /* USER CODE END PFP */
  57:Src/main.c    **** 
  58:Src/main.c    **** /* Private user code ---------------------------------------------------------*/
  59:Src/main.c    **** /* USER CODE BEGIN 0 */
  60:Src/main.c    **** 
  61:Src/main.c    **** /* USER CODE END 0 */
  62:Src/main.c    **** 
  63:Src/main.c    **** /**
  64:Src/main.c    ****   * @brief  The application entry point.
  65:Src/main.c    ****   * @retval int
  66:Src/main.c    ****   */
  67:Src/main.c    **** int main(void)
  68:Src/main.c    **** {
  69:Src/main.c    ****   /* USER CODE BEGIN 1 */
  70:Src/main.c    **** 
  71:Src/main.c    ****   /* USER CODE END 1 */
  72:Src/main.c    **** 
  73:Src/main.c    ****   /* MCU Configuration--------------------------------------------------------*/
  74:Src/main.c    **** 
  75:Src/main.c    ****   /* Reset of all peripherals, Initializes the Flash interface and the Systick. */
  76:Src/main.c    ****   HAL_Init();
  77:Src/main.c    **** 
  78:Src/main.c    ****   /* USER CODE BEGIN Init */
  79:Src/main.c    **** 
  80:Src/main.c    ****   /* USER CODE END Init */
  81:Src/main.c    **** 
  82:Src/main.c    ****   /* Configure the system clock */
  83:Src/main.c    ****   SystemClock_Config();
  84:Src/main.c    **** 
  85:Src/main.c    ****   /* USER CODE BEGIN SysInit */
  86:Src/main.c    **** 
  87:Src/main.c    ****   /* USER CODE END SysInit */
  88:Src/main.c    **** 
  89:Src/main.c    ****   /* Initialize all configured peripherals */
  90:Src/main.c    ****   MX_GPIO_Init();
ARM GAS  C:\Users\Vulca\AppData\Local\Temp\ccQvqMLk.s 			page 3


  91:Src/main.c    ****   MX_USART2_UART_Init();
  92:Src/main.c    ****   /* USER CODE BEGIN 2 */
  93:Src/main.c    **** 
  94:Src/main.c    ****   /* USER CODE END 2 */
  95:Src/main.c    **** 
  96:Src/main.c    ****   /* Infinite loop */
  97:Src/main.c    ****   /* USER CODE BEGIN WHILE */
  98:Src/main.c    ****   while (1)
  99:Src/main.c    ****   {
 100:Src/main.c    ****     /* USER CODE END WHILE */
 101:Src/main.c    **** 
 102:Src/main.c    ****     /* USER CODE BEGIN 3 */
 103:Src/main.c    ****   }
 104:Src/main.c    ****   /* USER CODE END 3 */
 105:Src/main.c    **** }
 106:Src/main.c    **** 
 107:Src/main.c    **** /**
 108:Src/main.c    ****   * @brief System Clock Configuration
 109:Src/main.c    ****   * @retval None
 110:Src/main.c    ****   */
 111:Src/main.c    **** void SystemClock_Config(void)
 112:Src/main.c    **** {
 113:Src/main.c    ****   RCC_OscInitTypeDef RCC_OscInitStruct = {0};
 114:Src/main.c    ****   RCC_ClkInitTypeDef RCC_ClkInitStruct = {0};
 115:Src/main.c    ****   RCC_PeriphCLKInitTypeDef PeriphClkInit = {0};
 116:Src/main.c    **** 
 117:Src/main.c    ****   /** Initializes the CPU, AHB and APB busses clocks 
 118:Src/main.c    ****   */
 119:Src/main.c    ****   RCC_OscInitStruct.OscillatorType = RCC_OSCILLATORTYPE_HSI;
 120:Src/main.c    ****   RCC_OscInitStruct.HSIState = RCC_HSI_ON;
 121:Src/main.c    ****   RCC_OscInitStruct.HSICalibrationValue = RCC_HSICALIBRATION_DEFAULT;
 122:Src/main.c    ****   RCC_OscInitStruct.PLL.PLLState = RCC_PLL_ON;
 123:Src/main.c    ****   RCC_OscInitStruct.PLL.PLLSource = RCC_PLLSOURCE_HSI;
 124:Src/main.c    ****   RCC_OscInitStruct.PLL.PLLMUL = RCC_PLL_MUL12;
 125:Src/main.c    ****   RCC_OscInitStruct.PLL.PREDIV = RCC_PREDIV_DIV2;
 126:Src/main.c    ****   if (HAL_RCC_OscConfig(&RCC_OscInitStruct) != HAL_OK)
 127:Src/main.c    ****   {
 128:Src/main.c    ****     Error_Handler();
 129:Src/main.c    ****   }
 130:Src/main.c    ****   /** Initializes the CPU, AHB and APB busses clocks 
 131:Src/main.c    ****   */
 132:Src/main.c    ****   RCC_ClkInitStruct.ClockType = RCC_CLOCKTYPE_HCLK|RCC_CLOCKTYPE_SYSCLK
 133:Src/main.c    ****                               |RCC_CLOCKTYPE_PCLK1;
 134:Src/main.c    ****   RCC_ClkInitStruct.SYSCLKSource = RCC_SYSCLKSOURCE_PLLCLK;
 135:Src/main.c    ****   RCC_ClkInitStruct.AHBCLKDivider = RCC_SYSCLK_DIV1;
 136:Src/main.c    ****   RCC_ClkInitStruct.APB1CLKDivider = RCC_HCLK_DIV1;
 137:Src/main.c    **** 
 138:Src/main.c    ****   if (HAL_RCC_ClockConfig(&RCC_ClkInitStruct, FLASH_LATENCY_1) != HAL_OK)
 139:Src/main.c    ****   {
 140:Src/main.c    ****     Error_Handler();
 141:Src/main.c    ****   }
 142:Src/main.c    ****   PeriphClkInit.PeriphClockSelection = RCC_PERIPHCLK_USART2;
 143:Src/main.c    ****   PeriphClkInit.Usart2ClockSelection = RCC_USART2CLKSOURCE_PCLK1;
 144:Src/main.c    ****   if (HAL_RCCEx_PeriphCLKConfig(&PeriphClkInit) != HAL_OK)
 145:Src/main.c    ****   {
 146:Src/main.c    ****     Error_Handler();
 147:Src/main.c    ****   }
ARM GAS  C:\Users\Vulca\AppData\Local\Temp\ccQvqMLk.s 			page 4


 148:Src/main.c    **** }
 149:Src/main.c    **** 
 150:Src/main.c    **** /**
 151:Src/main.c    ****   * @brief USART2 Initialization Function
 152:Src/main.c    ****   * @param None
 153:Src/main.c    ****   * @retval None
 154:Src/main.c    ****   */
 155:Src/main.c    **** static void MX_USART2_UART_Init(void)
 156:Src/main.c    **** {
 157:Src/main.c    **** 
 158:Src/main.c    ****   /* USER CODE BEGIN USART2_Init 0 */
 159:Src/main.c    **** 
 160:Src/main.c    ****   /* USER CODE END USART2_Init 0 */
 161:Src/main.c    **** 
 162:Src/main.c    ****   /* USER CODE BEGIN USART2_Init 1 */
 163:Src/main.c    **** 
 164:Src/main.c    ****   /* USER CODE END USART2_Init 1 */
 165:Src/main.c    ****   huart2.Instance = USART2;
 166:Src/main.c    ****   huart2.Init.BaudRate = 115200;
 167:Src/main.c    ****   huart2.Init.WordLength = UART_WORDLENGTH_8B;
 168:Src/main.c    ****   huart2.Init.StopBits = UART_STOPBITS_1;
 169:Src/main.c    ****   huart2.Init.Parity = UART_PARITY_NONE;
 170:Src/main.c    ****   huart2.Init.Mode = UART_MODE_TX_RX;
 171:Src/main.c    ****   huart2.Init.HwFlowCtl = UART_HWCONTROL_NONE;
 172:Src/main.c    ****   huart2.Init.OverSampling = UART_OVERSAMPLING_16;
 173:Src/main.c    ****   huart2.Init.OneBitSampling = UART_ONE_BIT_SAMPLE_DISABLE;
 174:Src/main.c    ****   huart2.AdvancedInit.AdvFeatureInit = UART_ADVFEATURE_NO_INIT;
 175:Src/main.c    ****   if (HAL_UART_Init(&huart2) != HAL_OK)
 176:Src/main.c    ****   {
 177:Src/main.c    ****     Error_Handler();
 178:Src/main.c    ****   }
 179:Src/main.c    ****   /* USER CODE BEGIN USART2_Init 2 */
 180:Src/main.c    **** 
 181:Src/main.c    ****   /* USER CODE END USART2_Init 2 */
 182:Src/main.c    **** 
 183:Src/main.c    **** }
 184:Src/main.c    **** 
 185:Src/main.c    **** /**
 186:Src/main.c    ****   * @brief GPIO Initialization Function
 187:Src/main.c    ****   * @param None
 188:Src/main.c    ****   * @retval None
 189:Src/main.c    ****   */
 190:Src/main.c    **** static void MX_GPIO_Init(void)
 191:Src/main.c    **** {
  26              		.loc 1 191 1 view -0
  27              		.cfi_startproc
  28              		@ args = 0, pretend = 0, frame = 32
  29              		@ frame_needed = 0, uses_anonymous_args = 0
  30 0000 30B5     		push	{r4, r5, lr}
  31              	.LCFI0:
  32              		.cfi_def_cfa_offset 12
  33              		.cfi_offset 4, -12
  34              		.cfi_offset 5, -8
  35              		.cfi_offset 14, -4
  36 0002 89B0     		sub	sp, sp, #36
  37              	.LCFI1:
  38              		.cfi_def_cfa_offset 48
ARM GAS  C:\Users\Vulca\AppData\Local\Temp\ccQvqMLk.s 			page 5


 192:Src/main.c    ****   GPIO_InitTypeDef GPIO_InitStruct = {0};
  39              		.loc 1 192 3 view .LVU1
  40              		.loc 1 192 20 is_stmt 0 view .LVU2
  41 0004 1422     		movs	r2, #20
  42 0006 0021     		movs	r1, #0
  43 0008 03A8     		add	r0, sp, #12
  44 000a FFF7FEFF 		bl	memset
  45              	.LVL0:
 193:Src/main.c    **** 
 194:Src/main.c    ****   /* GPIO Ports Clock Enable */
 195:Src/main.c    ****   __HAL_RCC_GPIOC_CLK_ENABLE();
  46              		.loc 1 195 3 is_stmt 1 view .LVU3
  47              	.LBB2:
  48              		.loc 1 195 3 view .LVU4
  49              		.loc 1 195 3 view .LVU5
  50 000e 214B     		ldr	r3, .L2
  51 0010 5969     		ldr	r1, [r3, #20]
  52 0012 8020     		movs	r0, #128
  53 0014 0003     		lsls	r0, r0, #12
  54 0016 0143     		orrs	r1, r0
  55 0018 5961     		str	r1, [r3, #20]
  56              		.loc 1 195 3 view .LVU6
  57 001a 5A69     		ldr	r2, [r3, #20]
  58 001c 0240     		ands	r2, r0
  59 001e 0092     		str	r2, [sp]
  60              		.loc 1 195 3 view .LVU7
  61 0020 009A     		ldr	r2, [sp]
  62              	.LBE2:
  63              		.loc 1 195 3 view .LVU8
 196:Src/main.c    ****   __HAL_RCC_GPIOF_CLK_ENABLE();
  64              		.loc 1 196 3 view .LVU9
  65              	.LBB3:
  66              		.loc 1 196 3 view .LVU10
  67              		.loc 1 196 3 view .LVU11
  68 0022 5969     		ldr	r1, [r3, #20]
  69 0024 8020     		movs	r0, #128
  70 0026 C003     		lsls	r0, r0, #15
  71 0028 0143     		orrs	r1, r0
  72 002a 5961     		str	r1, [r3, #20]
  73              		.loc 1 196 3 view .LVU12
  74 002c 5A69     		ldr	r2, [r3, #20]
  75 002e 0240     		ands	r2, r0
  76 0030 0192     		str	r2, [sp, #4]
  77              		.loc 1 196 3 view .LVU13
  78 0032 019A     		ldr	r2, [sp, #4]
  79              	.LBE3:
  80              		.loc 1 196 3 view .LVU14
 197:Src/main.c    ****   __HAL_RCC_GPIOA_CLK_ENABLE();
  81              		.loc 1 197 3 view .LVU15
  82              	.LBB4:
  83              		.loc 1 197 3 view .LVU16
  84              		.loc 1 197 3 view .LVU17
  85 0034 5A69     		ldr	r2, [r3, #20]
  86 0036 8021     		movs	r1, #128
  87 0038 8902     		lsls	r1, r1, #10
  88 003a 0A43     		orrs	r2, r1
  89 003c 5A61     		str	r2, [r3, #20]
ARM GAS  C:\Users\Vulca\AppData\Local\Temp\ccQvqMLk.s 			page 6


  90              		.loc 1 197 3 view .LVU18
  91 003e 5B69     		ldr	r3, [r3, #20]
  92 0040 0B40     		ands	r3, r1
  93 0042 0293     		str	r3, [sp, #8]
  94              		.loc 1 197 3 view .LVU19
  95 0044 029B     		ldr	r3, [sp, #8]
  96              	.LBE4:
  97              		.loc 1 197 3 view .LVU20
 198:Src/main.c    **** 
 199:Src/main.c    ****   /*Configure GPIO pin Output Level */
 200:Src/main.c    ****   HAL_GPIO_WritePin(LD2_GPIO_Port, LD2_Pin, GPIO_PIN_RESET);
  98              		.loc 1 200 3 view .LVU21
  99 0046 9025     		movs	r5, #144
 100 0048 ED05     		lsls	r5, r5, #23
 101 004a 0022     		movs	r2, #0
 102 004c 2021     		movs	r1, #32
 103 004e 2800     		movs	r0, r5
 104 0050 FFF7FEFF 		bl	HAL_GPIO_WritePin
 105              	.LVL1:
 201:Src/main.c    **** 
 202:Src/main.c    ****   /*Configure GPIO pin : B1_Pin */
 203:Src/main.c    ****   GPIO_InitStruct.Pin = B1_Pin;
 106              		.loc 1 203 3 view .LVU22
 107              		.loc 1 203 23 is_stmt 0 view .LVU23
 108 0054 8023     		movs	r3, #128
 109 0056 9B01     		lsls	r3, r3, #6
 110 0058 0393     		str	r3, [sp, #12]
 204:Src/main.c    ****   GPIO_InitStruct.Mode = GPIO_MODE_IT_RISING;
 111              		.loc 1 204 3 is_stmt 1 view .LVU24
 112              		.loc 1 204 24 is_stmt 0 view .LVU25
 113 005a 0F4B     		ldr	r3, .L2+4
 114 005c 0493     		str	r3, [sp, #16]
 205:Src/main.c    ****   GPIO_InitStruct.Pull = GPIO_NOPULL;
 115              		.loc 1 205 3 is_stmt 1 view .LVU26
 116              		.loc 1 205 24 is_stmt 0 view .LVU27
 117 005e 0024     		movs	r4, #0
 118 0060 0594     		str	r4, [sp, #20]
 206:Src/main.c    ****   HAL_GPIO_Init(B1_GPIO_Port, &GPIO_InitStruct);
 119              		.loc 1 206 3 is_stmt 1 view .LVU28
 120 0062 03A9     		add	r1, sp, #12
 121 0064 0D48     		ldr	r0, .L2+8
 122 0066 FFF7FEFF 		bl	HAL_GPIO_Init
 123              	.LVL2:
 207:Src/main.c    **** 
 208:Src/main.c    ****   /*Configure GPIO pin : LD2_Pin */
 209:Src/main.c    ****   GPIO_InitStruct.Pin = LD2_Pin;
 124              		.loc 1 209 3 view .LVU29
 125              		.loc 1 209 23 is_stmt 0 view .LVU30
 126 006a 2023     		movs	r3, #32
 127 006c 0393     		str	r3, [sp, #12]
 210:Src/main.c    ****   GPIO_InitStruct.Mode = GPIO_MODE_OUTPUT_PP;
 128              		.loc 1 210 3 is_stmt 1 view .LVU31
 129              		.loc 1 210 24 is_stmt 0 view .LVU32
 130 006e 1F3B     		subs	r3, r3, #31
 131 0070 0493     		str	r3, [sp, #16]
 211:Src/main.c    ****   GPIO_InitStruct.Pull = GPIO_NOPULL;
 132              		.loc 1 211 3 is_stmt 1 view .LVU33
ARM GAS  C:\Users\Vulca\AppData\Local\Temp\ccQvqMLk.s 			page 7


 133              		.loc 1 211 24 is_stmt 0 view .LVU34
 134 0072 0594     		str	r4, [sp, #20]
 212:Src/main.c    ****   GPIO_InitStruct.Speed = GPIO_SPEED_FREQ_LOW;
 135              		.loc 1 212 3 is_stmt 1 view .LVU35
 136              		.loc 1 212 25 is_stmt 0 view .LVU36
 137 0074 0694     		str	r4, [sp, #24]
 213:Src/main.c    ****   HAL_GPIO_Init(LD2_GPIO_Port, &GPIO_InitStruct);
 138              		.loc 1 213 3 is_stmt 1 view .LVU37
 139 0076 03A9     		add	r1, sp, #12
 140 0078 2800     		movs	r0, r5
 141 007a FFF7FEFF 		bl	HAL_GPIO_Init
 142              	.LVL3:
 214:Src/main.c    **** 
 215:Src/main.c    ****   /* EXTI interrupt init*/
 216:Src/main.c    ****   HAL_NVIC_SetPriority(EXTI4_15_IRQn, 0, 0);
 143              		.loc 1 216 3 view .LVU38
 144 007e 0022     		movs	r2, #0
 145 0080 0021     		movs	r1, #0
 146 0082 0720     		movs	r0, #7
 147 0084 FFF7FEFF 		bl	HAL_NVIC_SetPriority
 148              	.LVL4:
 217:Src/main.c    ****   HAL_NVIC_EnableIRQ(EXTI4_15_IRQn);
 149              		.loc 1 217 3 view .LVU39
 150 0088 0720     		movs	r0, #7
 151 008a FFF7FEFF 		bl	HAL_NVIC_EnableIRQ
 152              	.LVL5:
 218:Src/main.c    **** 
 219:Src/main.c    **** }
 153              		.loc 1 219 1 is_stmt 0 view .LVU40
 154 008e 09B0     		add	sp, sp, #36
 155              		@ sp needed
 156 0090 30BD     		pop	{r4, r5, pc}
 157              	.L3:
 158 0092 C046     		.align	2
 159              	.L2:
 160 0094 00100240 		.word	1073876992
 161 0098 00001110 		.word	269549568
 162 009c 00080048 		.word	1207961600
 163              		.cfi_endproc
 164              	.LFE43:
 166              		.section	.text.MX_USART2_UART_Init,"ax",%progbits
 167              		.align	1
 168              		.syntax unified
 169              		.code	16
 170              		.thumb_func
 171              		.fpu softvfp
 173              	MX_USART2_UART_Init:
 174              	.LFB42:
 156:Src/main.c    **** 
 175              		.loc 1 156 1 is_stmt 1 view -0
 176              		.cfi_startproc
 177              		@ args = 0, pretend = 0, frame = 0
 178              		@ frame_needed = 0, uses_anonymous_args = 0
 179 0000 10B5     		push	{r4, lr}
 180              	.LCFI2:
 181              		.cfi_def_cfa_offset 8
 182              		.cfi_offset 4, -8
ARM GAS  C:\Users\Vulca\AppData\Local\Temp\ccQvqMLk.s 			page 8


 183              		.cfi_offset 14, -4
 165:Src/main.c    ****   huart2.Init.BaudRate = 115200;
 184              		.loc 1 165 3 view .LVU42
 165:Src/main.c    ****   huart2.Init.BaudRate = 115200;
 185              		.loc 1 165 19 is_stmt 0 view .LVU43
 186 0002 0948     		ldr	r0, .L5
 187 0004 094B     		ldr	r3, .L5+4
 188 0006 0360     		str	r3, [r0]
 166:Src/main.c    ****   huart2.Init.WordLength = UART_WORDLENGTH_8B;
 189              		.loc 1 166 3 is_stmt 1 view .LVU44
 166:Src/main.c    ****   huart2.Init.WordLength = UART_WORDLENGTH_8B;
 190              		.loc 1 166 24 is_stmt 0 view .LVU45
 191 0008 E123     		movs	r3, #225
 192 000a 5B02     		lsls	r3, r3, #9
 193 000c 4360     		str	r3, [r0, #4]
 167:Src/main.c    ****   huart2.Init.StopBits = UART_STOPBITS_1;
 194              		.loc 1 167 3 is_stmt 1 view .LVU46
 167:Src/main.c    ****   huart2.Init.StopBits = UART_STOPBITS_1;
 195              		.loc 1 167 26 is_stmt 0 view .LVU47
 196 000e 0023     		movs	r3, #0
 197 0010 8360     		str	r3, [r0, #8]
 168:Src/main.c    ****   huart2.Init.Parity = UART_PARITY_NONE;
 198              		.loc 1 168 3 is_stmt 1 view .LVU48
 168:Src/main.c    ****   huart2.Init.Parity = UART_PARITY_NONE;
 199              		.loc 1 168 24 is_stmt 0 view .LVU49
 200 0012 C360     		str	r3, [r0, #12]
 169:Src/main.c    ****   huart2.Init.Mode = UART_MODE_TX_RX;
 201              		.loc 1 169 3 is_stmt 1 view .LVU50
 169:Src/main.c    ****   huart2.Init.Mode = UART_MODE_TX_RX;
 202              		.loc 1 169 22 is_stmt 0 view .LVU51
 203 0014 0361     		str	r3, [r0, #16]
 170:Src/main.c    ****   huart2.Init.HwFlowCtl = UART_HWCONTROL_NONE;
 204              		.loc 1 170 3 is_stmt 1 view .LVU52
 170:Src/main.c    ****   huart2.Init.HwFlowCtl = UART_HWCONTROL_NONE;
 205              		.loc 1 170 20 is_stmt 0 view .LVU53
 206 0016 0C22     		movs	r2, #12
 207 0018 4261     		str	r2, [r0, #20]
 171:Src/main.c    ****   huart2.Init.OverSampling = UART_OVERSAMPLING_16;
 208              		.loc 1 171 3 is_stmt 1 view .LVU54
 171:Src/main.c    ****   huart2.Init.OverSampling = UART_OVERSAMPLING_16;
 209              		.loc 1 171 25 is_stmt 0 view .LVU55
 210 001a 8361     		str	r3, [r0, #24]
 172:Src/main.c    ****   huart2.Init.OneBitSampling = UART_ONE_BIT_SAMPLE_DISABLE;
 211              		.loc 1 172 3 is_stmt 1 view .LVU56
 172:Src/main.c    ****   huart2.Init.OneBitSampling = UART_ONE_BIT_SAMPLE_DISABLE;
 212              		.loc 1 172 28 is_stmt 0 view .LVU57
 213 001c C361     		str	r3, [r0, #28]
 173:Src/main.c    ****   huart2.AdvancedInit.AdvFeatureInit = UART_ADVFEATURE_NO_INIT;
 214              		.loc 1 173 3 is_stmt 1 view .LVU58
 173:Src/main.c    ****   huart2.AdvancedInit.AdvFeatureInit = UART_ADVFEATURE_NO_INIT;
 215              		.loc 1 173 30 is_stmt 0 view .LVU59
 216 001e 0362     		str	r3, [r0, #32]
 174:Src/main.c    ****   if (HAL_UART_Init(&huart2) != HAL_OK)
 217              		.loc 1 174 3 is_stmt 1 view .LVU60
 174:Src/main.c    ****   if (HAL_UART_Init(&huart2) != HAL_OK)
 218              		.loc 1 174 38 is_stmt 0 view .LVU61
 219 0020 4362     		str	r3, [r0, #36]
ARM GAS  C:\Users\Vulca\AppData\Local\Temp\ccQvqMLk.s 			page 9


 175:Src/main.c    ****   {
 220              		.loc 1 175 3 is_stmt 1 view .LVU62
 175:Src/main.c    ****   {
 221              		.loc 1 175 7 is_stmt 0 view .LVU63
 222 0022 FFF7FEFF 		bl	HAL_UART_Init
 223              	.LVL6:
 183:Src/main.c    **** 
 224              		.loc 1 183 1 view .LVU64
 225              		@ sp needed
 226 0026 10BD     		pop	{r4, pc}
 227              	.L6:
 228              		.align	2
 229              	.L5:
 230 0028 00000000 		.word	huart2
 231 002c 00440040 		.word	1073759232
 232              		.cfi_endproc
 233              	.LFE42:
 235              		.section	.text.SystemClock_Config,"ax",%progbits
 236              		.align	1
 237              		.global	SystemClock_Config
 238              		.syntax unified
 239              		.code	16
 240              		.thumb_func
 241              		.fpu softvfp
 243              	SystemClock_Config:
 244              	.LFB41:
 112:Src/main.c    ****   RCC_OscInitTypeDef RCC_OscInitStruct = {0};
 245              		.loc 1 112 1 is_stmt 1 view -0
 246              		.cfi_startproc
 247              		@ args = 0, pretend = 0, frame = 96
 248              		@ frame_needed = 0, uses_anonymous_args = 0
 249 0000 30B5     		push	{r4, r5, lr}
 250              	.LCFI3:
 251              		.cfi_def_cfa_offset 12
 252              		.cfi_offset 4, -12
 253              		.cfi_offset 5, -8
 254              		.cfi_offset 14, -4
 255 0002 99B0     		sub	sp, sp, #100
 256              	.LCFI4:
 257              		.cfi_def_cfa_offset 112
 113:Src/main.c    ****   RCC_ClkInitTypeDef RCC_ClkInitStruct = {0};
 258              		.loc 1 113 3 view .LVU66
 113:Src/main.c    ****   RCC_ClkInitTypeDef RCC_ClkInitStruct = {0};
 259              		.loc 1 113 22 is_stmt 0 view .LVU67
 260 0004 2022     		movs	r2, #32
 261 0006 0021     		movs	r1, #0
 262 0008 0CA8     		add	r0, sp, #48
 263 000a FFF7FEFF 		bl	memset
 264              	.LVL7:
 114:Src/main.c    ****   RCC_PeriphCLKInitTypeDef PeriphClkInit = {0};
 265              		.loc 1 114 3 is_stmt 1 view .LVU68
 114:Src/main.c    ****   RCC_PeriphCLKInitTypeDef PeriphClkInit = {0};
 266              		.loc 1 114 22 is_stmt 0 view .LVU69
 267 000e 1022     		movs	r2, #16
 268 0010 0021     		movs	r1, #0
 269 0012 07A8     		add	r0, sp, #28
 270 0014 FFF7FEFF 		bl	memset
ARM GAS  C:\Users\Vulca\AppData\Local\Temp\ccQvqMLk.s 			page 10


 271              	.LVL8:
 115:Src/main.c    **** 
 272              		.loc 1 115 3 is_stmt 1 view .LVU70
 115:Src/main.c    **** 
 273              		.loc 1 115 28 is_stmt 0 view .LVU71
 274 0018 1C22     		movs	r2, #28
 275 001a 0021     		movs	r1, #0
 276 001c 6846     		mov	r0, sp
 277 001e FFF7FEFF 		bl	memset
 278              	.LVL9:
 119:Src/main.c    ****   RCC_OscInitStruct.HSIState = RCC_HSI_ON;
 279              		.loc 1 119 3 is_stmt 1 view .LVU72
 119:Src/main.c    ****   RCC_OscInitStruct.HSIState = RCC_HSI_ON;
 280              		.loc 1 119 36 is_stmt 0 view .LVU73
 281 0022 0224     		movs	r4, #2
 282 0024 0B94     		str	r4, [sp, #44]
 120:Src/main.c    ****   RCC_OscInitStruct.HSICalibrationValue = RCC_HSICALIBRATION_DEFAULT;
 283              		.loc 1 120 3 is_stmt 1 view .LVU74
 120:Src/main.c    ****   RCC_OscInitStruct.HSICalibrationValue = RCC_HSICALIBRATION_DEFAULT;
 284              		.loc 1 120 30 is_stmt 0 view .LVU75
 285 0026 0123     		movs	r3, #1
 286 0028 0E93     		str	r3, [sp, #56]
 121:Src/main.c    ****   RCC_OscInitStruct.PLL.PLLState = RCC_PLL_ON;
 287              		.loc 1 121 3 is_stmt 1 view .LVU76
 121:Src/main.c    ****   RCC_OscInitStruct.PLL.PLLState = RCC_PLL_ON;
 288              		.loc 1 121 41 is_stmt 0 view .LVU77
 289 002a 1022     		movs	r2, #16
 290 002c 0F92     		str	r2, [sp, #60]
 122:Src/main.c    ****   RCC_OscInitStruct.PLL.PLLSource = RCC_PLLSOURCE_HSI;
 291              		.loc 1 122 3 is_stmt 1 view .LVU78
 122:Src/main.c    ****   RCC_OscInitStruct.PLL.PLLSource = RCC_PLLSOURCE_HSI;
 292              		.loc 1 122 34 is_stmt 0 view .LVU79
 293 002e 1494     		str	r4, [sp, #80]
 123:Src/main.c    ****   RCC_OscInitStruct.PLL.PLLMUL = RCC_PLL_MUL12;
 294              		.loc 1 123 3 is_stmt 1 view .LVU80
 123:Src/main.c    ****   RCC_OscInitStruct.PLL.PLLMUL = RCC_PLL_MUL12;
 295              		.loc 1 123 35 is_stmt 0 view .LVU81
 296 0030 8022     		movs	r2, #128
 297 0032 1202     		lsls	r2, r2, #8
 298 0034 1592     		str	r2, [sp, #84]
 124:Src/main.c    ****   RCC_OscInitStruct.PLL.PREDIV = RCC_PREDIV_DIV2;
 299              		.loc 1 124 3 is_stmt 1 view .LVU82
 124:Src/main.c    ****   RCC_OscInitStruct.PLL.PREDIV = RCC_PREDIV_DIV2;
 300              		.loc 1 124 32 is_stmt 0 view .LVU83
 301 0036 A022     		movs	r2, #160
 302 0038 9203     		lsls	r2, r2, #14
 303 003a 1692     		str	r2, [sp, #88]
 125:Src/main.c    ****   if (HAL_RCC_OscConfig(&RCC_OscInitStruct) != HAL_OK)
 304              		.loc 1 125 3 is_stmt 1 view .LVU84
 125:Src/main.c    ****   if (HAL_RCC_OscConfig(&RCC_OscInitStruct) != HAL_OK)
 305              		.loc 1 125 32 is_stmt 0 view .LVU85
 306 003c 1793     		str	r3, [sp, #92]
 126:Src/main.c    ****   {
 307              		.loc 1 126 3 is_stmt 1 view .LVU86
 126:Src/main.c    ****   {
 308              		.loc 1 126 7 is_stmt 0 view .LVU87
 309 003e 0BA8     		add	r0, sp, #44
ARM GAS  C:\Users\Vulca\AppData\Local\Temp\ccQvqMLk.s 			page 11


 310 0040 FFF7FEFF 		bl	HAL_RCC_OscConfig
 311              	.LVL10:
 132:Src/main.c    ****                               |RCC_CLOCKTYPE_PCLK1;
 312              		.loc 1 132 3 is_stmt 1 view .LVU88
 132:Src/main.c    ****                               |RCC_CLOCKTYPE_PCLK1;
 313              		.loc 1 132 31 is_stmt 0 view .LVU89
 314 0044 0723     		movs	r3, #7
 315 0046 0793     		str	r3, [sp, #28]
 134:Src/main.c    ****   RCC_ClkInitStruct.AHBCLKDivider = RCC_SYSCLK_DIV1;
 316              		.loc 1 134 3 is_stmt 1 view .LVU90
 134:Src/main.c    ****   RCC_ClkInitStruct.AHBCLKDivider = RCC_SYSCLK_DIV1;
 317              		.loc 1 134 34 is_stmt 0 view .LVU91
 318 0048 0894     		str	r4, [sp, #32]
 135:Src/main.c    ****   RCC_ClkInitStruct.APB1CLKDivider = RCC_HCLK_DIV1;
 319              		.loc 1 135 3 is_stmt 1 view .LVU92
 135:Src/main.c    ****   RCC_ClkInitStruct.APB1CLKDivider = RCC_HCLK_DIV1;
 320              		.loc 1 135 35 is_stmt 0 view .LVU93
 321 004a 0025     		movs	r5, #0
 322 004c 0995     		str	r5, [sp, #36]
 136:Src/main.c    **** 
 323              		.loc 1 136 3 is_stmt 1 view .LVU94
 136:Src/main.c    **** 
 324              		.loc 1 136 36 is_stmt 0 view .LVU95
 325 004e 0A95     		str	r5, [sp, #40]
 138:Src/main.c    ****   {
 326              		.loc 1 138 3 is_stmt 1 view .LVU96
 138:Src/main.c    ****   {
 327              		.loc 1 138 7 is_stmt 0 view .LVU97
 328 0050 0121     		movs	r1, #1
 329 0052 07A8     		add	r0, sp, #28
 330 0054 FFF7FEFF 		bl	HAL_RCC_ClockConfig
 331              	.LVL11:
 142:Src/main.c    ****   PeriphClkInit.Usart2ClockSelection = RCC_USART2CLKSOURCE_PCLK1;
 332              		.loc 1 142 3 is_stmt 1 view .LVU98
 142:Src/main.c    ****   PeriphClkInit.Usart2ClockSelection = RCC_USART2CLKSOURCE_PCLK1;
 333              		.loc 1 142 38 is_stmt 0 view .LVU99
 334 0058 0094     		str	r4, [sp]
 143:Src/main.c    ****   if (HAL_RCCEx_PeriphCLKConfig(&PeriphClkInit) != HAL_OK)
 335              		.loc 1 143 3 is_stmt 1 view .LVU100
 143:Src/main.c    ****   if (HAL_RCCEx_PeriphCLKConfig(&PeriphClkInit) != HAL_OK)
 336              		.loc 1 143 38 is_stmt 0 view .LVU101
 337 005a 0395     		str	r5, [sp, #12]
 144:Src/main.c    ****   {
 338              		.loc 1 144 3 is_stmt 1 view .LVU102
 144:Src/main.c    ****   {
 339              		.loc 1 144 7 is_stmt 0 view .LVU103
 340 005c 6846     		mov	r0, sp
 341 005e FFF7FEFF 		bl	HAL_RCCEx_PeriphCLKConfig
 342              	.LVL12:
 148:Src/main.c    **** 
 343              		.loc 1 148 1 view .LVU104
 344 0062 19B0     		add	sp, sp, #100
 345              		@ sp needed
 346 0064 30BD     		pop	{r4, r5, pc}
 347              		.cfi_endproc
 348              	.LFE41:
 350              		.section	.text.main,"ax",%progbits
ARM GAS  C:\Users\Vulca\AppData\Local\Temp\ccQvqMLk.s 			page 12


 351              		.align	1
 352              		.global	main
 353              		.syntax unified
 354              		.code	16
 355              		.thumb_func
 356              		.fpu softvfp
 358              	main:
 359              	.LFB40:
  68:Src/main.c    ****   /* USER CODE BEGIN 1 */
 360              		.loc 1 68 1 is_stmt 1 view -0
 361              		.cfi_startproc
 362              		@ Volatile: function does not return.
 363              		@ args = 0, pretend = 0, frame = 0
 364              		@ frame_needed = 0, uses_anonymous_args = 0
 365 0000 10B5     		push	{r4, lr}
 366              	.LCFI5:
 367              		.cfi_def_cfa_offset 8
 368              		.cfi_offset 4, -8
 369              		.cfi_offset 14, -4
  76:Src/main.c    **** 
 370              		.loc 1 76 3 view .LVU106
 371 0002 FFF7FEFF 		bl	HAL_Init
 372              	.LVL13:
  83:Src/main.c    **** 
 373              		.loc 1 83 3 view .LVU107
 374 0006 FFF7FEFF 		bl	SystemClock_Config
 375              	.LVL14:
  90:Src/main.c    ****   MX_USART2_UART_Init();
 376              		.loc 1 90 3 view .LVU108
 377 000a FFF7FEFF 		bl	MX_GPIO_Init
 378              	.LVL15:
  91:Src/main.c    ****   /* USER CODE BEGIN 2 */
 379              		.loc 1 91 3 view .LVU109
 380 000e FFF7FEFF 		bl	MX_USART2_UART_Init
 381              	.LVL16:
 382              	.L9:
  98:Src/main.c    ****   {
 383              		.loc 1 98 3 discriminator 1 view .LVU110
 103:Src/main.c    ****   /* USER CODE END 3 */
 384              		.loc 1 103 3 discriminator 1 view .LVU111
  98:Src/main.c    ****   {
 385              		.loc 1 98 9 discriminator 1 view .LVU112
 386 0012 FEE7     		b	.L9
 387              		.cfi_endproc
 388              	.LFE40:
 390              		.section	.text.HAL_GPIO_EXTI_Callback,"ax",%progbits
 391              		.align	1
 392              		.global	HAL_GPIO_EXTI_Callback
 393              		.syntax unified
 394              		.code	16
 395              		.thumb_func
 396              		.fpu softvfp
 398              	HAL_GPIO_EXTI_Callback:
 399              	.LVL17:
 400              	.LFB44:
 220:Src/main.c    **** 
 221:Src/main.c    **** /* USER CODE BEGIN 4 */
ARM GAS  C:\Users\Vulca\AppData\Local\Temp\ccQvqMLk.s 			page 13


 222:Src/main.c    **** void HAL_GPIO_EXTI_Callback(uint16_t GPIO_Pin)
 223:Src/main.c    **** {
 401              		.loc 1 223 1 view -0
 402              		.cfi_startproc
 403              		@ args = 0, pretend = 0, frame = 0
 404              		@ frame_needed = 0, uses_anonymous_args = 0
 405              		@ link register save eliminated.
 224:Src/main.c    ****   
 225:Src/main.c    **** }
 406              		.loc 1 225 1 view .LVU114
 407              		@ sp needed
 408 0000 7047     		bx	lr
 409              		.cfi_endproc
 410              	.LFE44:
 412              		.section	.text.Error_Handler,"ax",%progbits
 413              		.align	1
 414              		.global	Error_Handler
 415              		.syntax unified
 416              		.code	16
 417              		.thumb_func
 418              		.fpu softvfp
 420              	Error_Handler:
 421              	.LFB45:
 226:Src/main.c    **** /* USER CODE END 4 */
 227:Src/main.c    **** 
 228:Src/main.c    **** /**
 229:Src/main.c    ****   * @brief  This function is executed in case of error occurrence.
 230:Src/main.c    ****   * @retval None
 231:Src/main.c    ****   */
 232:Src/main.c    **** void Error_Handler(void)
 233:Src/main.c    **** {
 422              		.loc 1 233 1 view -0
 423              		.cfi_startproc
 424              		@ args = 0, pretend = 0, frame = 0
 425              		@ frame_needed = 0, uses_anonymous_args = 0
 426              		@ link register save eliminated.
 234:Src/main.c    ****   /* USER CODE BEGIN Error_Handler_Debug */
 235:Src/main.c    ****   /* User can add his own implementation to report the HAL error return state */
 236:Src/main.c    **** 
 237:Src/main.c    ****   /* USER CODE END Error_Handler_Debug */
 238:Src/main.c    **** }
 427              		.loc 1 238 1 view .LVU116
 428              		@ sp needed
 429 0000 7047     		bx	lr
 430              		.cfi_endproc
 431              	.LFE45:
 433              		.comm	huart2,128,4
 434              		.text
 435              	.Letext0:
 436              		.file 2 "c:\\program files (x86)\\gnu tools arm embedded\\9 2019-q4-major\\arm-none-eabi\\include\
 437              		.file 3 "c:\\program files (x86)\\gnu tools arm embedded\\9 2019-q4-major\\arm-none-eabi\\include\
 438              		.file 4 "Drivers/CMSIS/Device/ST/STM32F0xx/Include/system_stm32f0xx.h"
 439              		.file 5 "Drivers/CMSIS/Device/ST/STM32F0xx/Include/stm32f091xc.h"
 440              		.file 6 "Drivers/STM32F0xx_HAL_Driver/Inc/stm32f0xx_hal_def.h"
 441              		.file 7 "Drivers/STM32F0xx_HAL_Driver/Inc/stm32f0xx_hal_rcc.h"
 442              		.file 8 "Drivers/STM32F0xx_HAL_Driver/Inc/stm32f0xx_hal_rcc_ex.h"
 443              		.file 9 "Drivers/STM32F0xx_HAL_Driver/Inc/stm32f0xx_hal_gpio.h"
ARM GAS  C:\Users\Vulca\AppData\Local\Temp\ccQvqMLk.s 			page 14


 444              		.file 10 "Drivers/STM32F0xx_HAL_Driver/Inc/stm32f0xx_hal_dma.h"
 445              		.file 11 "Drivers/STM32F0xx_HAL_Driver/Inc/stm32f0xx_hal_uart.h"
 446              		.file 12 "Drivers/STM32F0xx_HAL_Driver/Inc/stm32f0xx_hal.h"
 447              		.file 13 "Drivers/STM32F0xx_HAL_Driver/Inc/stm32f0xx_hal_cortex.h"
 448              		.file 14 "<built-in>"
ARM GAS  C:\Users\Vulca\AppData\Local\Temp\ccQvqMLk.s 			page 15

